Microchip MPLAB XC8 Compiler V1.37 ()

Linker command line:

-W9 --edf=/opt/microchip/xc8/v1.37/dat/en_msgs.txt -cs \
  -h+dist/default/production/Water_PIC18_test.production.sym \
  --cmf=dist/default/production/Water_PIC18_test.production.cmf -z \
  -Q18F2620 -o/tmp/xcXTEwjwZ \
  -Mdist/default/production/Water_PIC18_test.production.map -E1 -ver=XC8 \
  --acfsm=1493 -ASTACK=0D5Eh-0f7fh -pstack=STACK -ACODE=00h-0FFFFh \
  -ACONST=00h-0FFFFh -ASMALLCONST=01000h-010FFhx240 \
  -AMEDIUMCONST=01000h-0FFFFh -ACOMRAM=01h-07Fh -AABS1=00h-0F7Fh \
  -ABIGRAM=01h-0F7Fh -ARAM=080h-0FFh,0100h-01FFhx14,0F00h-0F7Fh \
  -ABANK0=080h-0FFh -ABANK1=0100h-01FFh -ABANK2=0200h-02FFh \
  -ABANK3=0300h-03FFh -ABANK4=0400h-04FFh -ABANK5=0500h-05FFh \
  -ABANK6=0600h-06FFh -ABANK7=0700h-07FFh -ABANK8=0800h-08FFh \
  -ABANK9=0900h-09FFh -ABANK10=0A00h-0AFFh -ABANK11=0B00h-0BFFh \
  -ABANK12=0C00h-0CFFh -ABANK13=0D00h-0DFFh -ABANK14=0E00h-0EFFh \
  -ABANK15=0F00h-0F7Fh -ASFR=0F80h-0FFFh \
  -preset_vec=00h,intcode=08h,intcodelo=018h,powerup,init,end_init \
  -pramtop=01000h -psmallconst=SMALLCONST -pmediumconst=MEDIUMCONST \
  -pconst=CONST -AFARRAM=00h-00h -ACONFIG=0300000h-030000Dh -pconfig=CONFIG \
  -AIDLOC=0200000h-0200007h -pidloc=IDLOC -AEEDATA=0F00000h-0F003FFh \
  -peeprom_data=EEDATA \
  -prdata=COMRAM,nvrram=COMRAM,nvbit=COMRAM,rbss=COMRAM,rbit=COMRAM \
  -pfarbss=FARRAM,fardata=FARRAM,nvFARRAM=FARRAM \
  -pintsave_regs=BIGRAM,bigbss=BIGRAM,bigdata=BIGRAM -pbss=RAM \
  -pidata=CODE,irdata=CODE,ibigdata=CODE,ifardata=CODE -prparam=COMRAM \
  /tmp/xcXqM9YDq.obj \
  dist/default/production/Water_PIC18_test.production.obj 

Object code version is 3.11

Machine type is 18F2620

Call graph: (short form)




                Name                               Link     Load   Length Selector   Space Scale
/tmp/xcXqM9YDq.obj
                end_init                            412      412        4        C       0
                reset_vec                             0        0        4        0       0
                config                           300000   300000        E   300000       0
dist/default/production/Water_PIC18_test.production.obj
                intcodelo                            18       18      3FA        C       0
                intcode                               8        8        E        4       0
                temp                                 7D       7D        1        1       1
                mediumconst                        FBE6     FBE6      41A     7DF3       0
                text159                            D478     D478       2C     61DD       0
                text158                            A8FC     A8FC      11A        C       0
                text157                            D59C     D59C       24     61DD       0
                text156                            D166     D166       3E     61DD       0
                text155                            C296     C296       96     5BCB       0
                text154                            CCB4     CCB4       52     61DD       0
                text153                            D35C     D35C       34     61DD       0
                text152                            B54A     B54A       CC        C       0
                text151                            CC62     CC62       52     61DD       0
                text150                            D026     D026       42     61DD       0
                text149                            8FCC     8FCC      202        C       0
                text148                            C3BA     C3BA       8C     61DD       0
                text147                            D5E2     D5E2       22     61DD       0
                intcode_body                       98B0     98B0      18A        C       0
                text145                            BE20     BE20       B0     5BCB       0
                text144                            A7E2     A7E2      11A        C       0
                text143                            9F90     9F90      144        C       0
                text142                            D574     D574       28     61DD       0
                text141                            CA54     CA54       5E     61DD       0
                text140                            BCB8     BCB8       B8     5BCB       0
                text139                            9578     9578      1A0        C       0
                text138                            C730     C730       74     61DD       0
                text137                            D6A4     D6A4       1E     61DD       0
                text136                            D0E8     D0E8       40     61DD       0
                text135                            D328     D328       34     61DD       0
                text134                            848A     848A      25A        C       0
                text133                            D0A8     D0A8       40     61DD       0
                text132                            D41E     D41E       2E     61DD       0
                text131                            D3F0     D3F0       2E     61DD       0
                text130                            D3C2     D3C2       2E     61DD       0
                text129                            D2BE     D2BE       36     61DD       0
                text128                            B912     B912       BE     5BCB       0
                text127                            C0BA     C0BA       A2     5BCB       0
                text126                            D288     D288       36     61DD       0
                text125                            AF18     AF18       F4        C       0
                text124                            8B82     8B82      248        C       0
                text123                            D522     D522       2A     61DD       0
                text122                            C6BA     C6BA       76     61DD       0
                text121                            C996     C996       60     61DD       0
                text120                            CEC8     CEC8       4A     61DD       0
                text119                            45E4     45E4      8F6        C       0
                text118                            D6F4     D6F4       18     6B6E       0
                text117                            D684     D684       20     61DD       0
                text116                            D79A     D79A        A     6B6E       0
                text115                            D790     D790        A     6B6E       0
                text114                            D664     D664       20     61DD       0
                text113                            D7C4     D7C4        8     6B6E       0
                text112                            D780     D780       10     6B6E       0
                text111                            D644     D644       20     61DD       0
                text110                            D7BC     D7BC        8     6B6E       0
                text109                            D7B4     D7B4        8     6B6E       0
                text108                            D71E     D71E       12     6B6E       0
                text107                            A346     A346      132        C       0
                text106                            BF74     BF74       A4     5BCB       0
                text105                            D4F8     D4F8       2A     61DD       0
                text104                            AE24     AE24       F4        C       0
                text103                            5626     5626      678        C       0
                text102                            CB0E     CB0E       5A     61DD       0
                text101                            CF12     CF12       48     61DD       0
                text100                            C936     C936       60     61DD       0
                text99                             93B4     93B4      1C4        C       0
                text98                             D1E0     D1E0       3C     61DD       0
                text97                             CE7E     CE7E       4A     61DD       0
                text95                             D54C     D54C       28     61DD       0
                text94                             D4CE     D4CE       2A     61DD       0
                text93                             D5C0     D5C0       22     61DD       0
                text92                             D068     D068       40     61DD       0
                text91                             B3A8     B3A8       D2        C       0
                text90                             C9F6     C9F6       5E     61DD       0
                text89                             BA8C     BA8C       BC     5BCB       0
                text88                             C644     C644       76     61DD       0
                text87                             7D52     7D52      276        C       0
                text86                             C15C     C15C       A0     5BCB       0
                text85                             A6C8     A6C8      11A        C       0
                text84                             B00C     B00C       F2        C       0
                text83                             BD70     BD70       B0     5BCB       0
                text82                             7FC8     7FC8      268        C       0
                text81                             C5CC     C5CC       78     61DD       0
                text80                             C874     C874       62     61DD       0
                text79                             C54E     C54E       7E     61DD       0
                text78                             C8D6     C8D6       60     61DD       0
                text77                             4EDA     4EDA      74C        C       0
                text76                             BC00     BC00       B8     5BCB       0
                text75                             D252     D252       36     61DD       0
                text74                             893A     893A      248        C       0
                text73                             A0D4     A0D4      140        C       0
                text72                             A5A2     A5A2      126        C       0
                text71                             B2CE     B2CE       DA        C       0
                text70                             CC10     CC10       52     61DD       0
                text69                             B616     B616       C0        C       0
                text68                             629C     629C      4AE        C       0
                text67                             CFE2     CFE2       44     61DD       0
                text66                             B854     B854       BE     5BCB       0
                text65                             B796     B796       BE     5BCB       0
                text64                             B1EA     B1EA       E4        C       0
                text63                             6ED4     6ED4      356        C       0
                text62                             D624     D624       20     61DD       0
                text61                             D70C     D70C       12     6B6E       0
                text60                             A214     A214      132        C       0
                text59                             3070     3070      AD0        C       0
                text58                             86E4     86E4      256        C       0
                text57                             D4A4     D4A4       2A     61DD       0
                text56                             B0FE     B0FE       EC        C       0
                text55                             C812     C812       62     61DD       0
                text54                             BB48     BB48       B8     5BCB       0
                text53                             5C9E     5C9E      5FE        C       0
                text52                             CE34     CE34       4A     61DD       0
                text51                             CDEA     CDEA       4A     61DD       0
                text50                             AB2A     AB2A      112        C       0
                text49                             D2F4     D2F4       34     61DD       0
                text48                             8230     8230      25A        C       0
                text47                              416      416     1408        C       0
                text46                             9CF6     9CF6      14E        C       0
                text45                             BED0     BED0       A4     5BCB       0
                text44                             674A     674A      402        C       0
                text43                             C446     C446       88     61DD       0
                text42                             D770     D770       10     6B6E       0
                text41                             D128     D128       3E     61DD       0
                text40                             91CE     91CE      1E6        C       0
                text39                             D6DC     D6DC       18     6B6E       0
                text38                             C018     C018       A2     5BCB       0
                text37                             D21C     D21C       36     61DD       0
                text36                             AD30     AD30       F4        C       0
                text35                             722A     722A      30A        C       0
                text34                             D390     D390       32     61DD       0
                text33                             CD06     CD06       50     61DD       0
                text32                             8DCA     8DCA      202        C       0
                text31                             CBBE     CBBE       52     61DD       0
                text30                             D760     D760       10     6B6E       0
                text29                             D604     D604       20     61DD       0
                text28                             D7AC     D7AC        8     6B6E       0
                text27                             D7A4     D7A4        8     6B6E       0
                text26                             B9D0     B9D0       BC     5BCB       0
                text25                             C1FC     C1FC       9A     5BCB       0
                text24                             7534     7534      2D2        C       0
                text23                             CDA0     CDA0       4A     61DD       0
                text22                             181E     181E      D06        C       0
                text21                             D44C     D44C       2C     61DD       0
                text20                             9BA6     9BA6      150        C       0
                text19                             CF9E     CF9E       44     61DD       0
                text18                             CB68     CB68       56     61DD       0
                text17                             C7A4     C7A4       6E     61DD       0
                text16                             C4CE     C4CE       80     61DD       0
                text15                             2524     2524      B4C        C       0
                text14                             9E44     9E44      14C        C       0
                text13                             7806     7806      2A8        C       0
                text12                             AA16     AA16      114        C       0
                text11                             A478     A478      12A        C       0
                text10                             AC3C     AC3C       F4        C       0
                text9                              CAB2     CAB2       5C     61DD       0
                text8                              3B40     3B40      AA4        C       0
                text7                              9718     9718      198        C       0
                text6                              D1A4     D1A4       3C     61DD       0
                text5                              CD56     CD56       4A     61DD       0
                text4                              D750     D750       10     6B6E       0
                text3                              B47A     B47A       D0        C       0
                text2                              D740     D740       10     6B6E       0
                text1                              6B4C     6B4C      388        C       0
                text0                              7AAE     7AAE      2A4        C       0
                cstackCOMRAM                          1        1       50        1       1
                cstackBANK0                          80       80       80       80       1
                cstackBANK1                         100      100       79      100       1
                cstackBANK2                         200      200       FF      200       1
                cstackBANK3                         300      300       EC      300       1
                cstackBANK6                         688      688       3C      600       1
                cstackBANK11                        B00      B00       5E      B00       1
                bssBIGRAM                           B5E      B5E      200      B5E       1
                bssBANK10                           A00      A00      100      A00       1
                bssBANK9                            900      900      100      900       1
                bssBANK8                            800      800      100      800       1
                bssBANK7                            700      700      100      700       1
                dataBANK6                           644      644       44      600       1
                bssBANK6                            600      600       44      600       1
                dataBANK5                           500      500       8D      500       1
                bssBANK5                            58D      58D       6E      500       1
                dataBANK4                           400      400       BF      400       1
                bssBANK4                            4BF      4BF       2E      400       1
                dataBANK3                           3EC      3EC        3      300       1
                dataBANK1                           1A5      1A5       19      100       1
                bssBANK1                            179      179       2C      100       1
                dataCOMRAM                           6D       6D       10        1       1
                bssCOMRAM                            51       51       1C        1       1
                cinit                              9A3A     9A3A      16C        C       0
                idataBANK6                         CF5A     CF5A       44     61DD       0
                idataBANK5                         C32C     C32C       8D     5BCB       0
                idataBANK4                         B6D6     B6D6       BF        C       0
                idataBANK3                         D7CC     D7CC        3     6B6E       0
                idataBANK1                         D6C2     D6C2       19     61DD       0
                idataCOMRAM                        D730     D730       10     6B6E       0

TOTAL           Name                               Link     Load   Length     Space
        CLASS   STACK          

        CLASS   CODE           
                end_init                            412      412        4         0
                intcodelo                            18       18      3FA         0
                intcode                               8        8        E         0
                reset_vec                             0        0        4         0
                text159                            D478     D478       2C         0
                text158                            A8FC     A8FC      11A         0
                text157                            D59C     D59C       24         0
                text156                            D166     D166       3E         0
                text155                            C296     C296       96         0
                text154                            CCB4     CCB4       52         0
                text153                            D35C     D35C       34         0
                text152                            B54A     B54A       CC         0
                text151                            CC62     CC62       52         0
                text150                            D026     D026       42         0
                text149                            8FCC     8FCC      202         0
                text148                            C3BA     C3BA       8C         0
                text147                            D5E2     D5E2       22         0
                intcode_body                       98B0     98B0      18A         0
                text145                            BE20     BE20       B0         0
                text144                            A7E2     A7E2      11A         0
                text143                            9F90     9F90      144         0
                text142                            D574     D574       28         0
                text141                            CA54     CA54       5E         0
                text140                            BCB8     BCB8       B8         0
                text139                            9578     9578      1A0         0
                text138                            C730     C730       74         0
                text137                            D6A4     D6A4       1E         0
                text136                            D0E8     D0E8       40         0
                text135                            D328     D328       34         0
                text134                            848A     848A      25A         0
                text133                            D0A8     D0A8       40         0
                text132                            D41E     D41E       2E         0
                text131                            D3F0     D3F0       2E         0
                text130                            D3C2     D3C2       2E         0
                text129                            D2BE     D2BE       36         0
                text128                            B912     B912       BE         0
                text127                            C0BA     C0BA       A2         0
                text126                            D288     D288       36         0
                text125                            AF18     AF18       F4         0
                text124                            8B82     8B82      248         0
                text123                            D522     D522       2A         0
                text122                            C6BA     C6BA       76         0
                text121                            C996     C996       60         0
                text120                            CEC8     CEC8       4A         0
                text119                            45E4     45E4      8F6         0
                text118                            D6F4     D6F4       18         0
                text117                            D684     D684       20         0
                text116                            D79A     D79A        A         0
                text115                            D790     D790        A         0
                text114                            D664     D664       20         0
                text113                            D7C4     D7C4        8         0
                text112                            D780     D780       10         0
                text111                            D644     D644       20         0
                text110                            D7BC     D7BC        8         0
                text109                            D7B4     D7B4        8         0
                text108                            D71E     D71E       12         0
                text107                            A346     A346      132         0
                text106                            BF74     BF74       A4         0
                text105                            D4F8     D4F8       2A         0
                text104                            AE24     AE24       F4         0
                text103                            5626     5626      678         0
                text102                            CB0E     CB0E       5A         0
                text101                            CF12     CF12       48         0
                text100                            C936     C936       60         0
                text99                             93B4     93B4      1C4         0
                text98                             D1E0     D1E0       3C         0
                text97                             CE7E     CE7E       4A         0
                text95                             D54C     D54C       28         0
                text94                             D4CE     D4CE       2A         0
                text93                             D5C0     D5C0       22         0
                text92                             D068     D068       40         0
                text91                             B3A8     B3A8       D2         0
                text90                             C9F6     C9F6       5E         0
                text89                             BA8C     BA8C       BC         0
                text88                             C644     C644       76         0
                text87                             7D52     7D52      276         0
                text86                             C15C     C15C       A0         0
                text85                             A6C8     A6C8      11A         0
                text84                             B00C     B00C       F2         0
                text83                             BD70     BD70       B0         0
                text82                             7FC8     7FC8      268         0
                text81                             C5CC     C5CC       78         0
                text80                             C874     C874       62         0
                text79                             C54E     C54E       7E         0
                text78                             C8D6     C8D6       60         0
                text77                             4EDA     4EDA      74C         0
                text76                             BC00     BC00       B8         0
                text75                             D252     D252       36         0
                text74                             893A     893A      248         0
                text73                             A0D4     A0D4      140         0
                text72                             A5A2     A5A2      126         0
                text71                             B2CE     B2CE       DA         0
                text70                             CC10     CC10       52         0
                text69                             B616     B616       C0         0
                text68                             629C     629C      4AE         0
                text67                             CFE2     CFE2       44         0
                text66                             B854     B854       BE         0
                text65                             B796     B796       BE         0
                text64                             B1EA     B1EA       E4         0
                text63                             6ED4     6ED4      356         0
                text62                             D624     D624       20         0
                text61                             D70C     D70C       12         0
                text60                             A214     A214      132         0
                text59                             3070     3070      AD0         0
                text58                             86E4     86E4      256         0
                text57                             D4A4     D4A4       2A         0
                text56                             B0FE     B0FE       EC         0
                text55                             C812     C812       62         0
                text54                             BB48     BB48       B8         0
                text53                             5C9E     5C9E      5FE         0
                text52                             CE34     CE34       4A         0
                text51                             CDEA     CDEA       4A         0
                text50                             AB2A     AB2A      112         0
                text49                             D2F4     D2F4       34         0
                text48                             8230     8230      25A         0
                text47                              416      416     1408         0
                text46                             9CF6     9CF6      14E         0
                text45                             BED0     BED0       A4         0
                text44                             674A     674A      402         0
                text43                             C446     C446       88         0
                text42                             D770     D770       10         0
                text41                             D128     D128       3E         0
                text40                             91CE     91CE      1E6         0
                text39                             D6DC     D6DC       18         0
                text38                             C018     C018       A2         0
                text37                             D21C     D21C       36         0
                text36                             AD30     AD30       F4         0
                text35                             722A     722A      30A         0
                text34                             D390     D390       32         0
                text33                             CD06     CD06       50         0
                text32                             8DCA     8DCA      202         0
                text31                             CBBE     CBBE       52         0
                text30                             D760     D760       10         0
                text29                             D604     D604       20         0
                text28                             D7AC     D7AC        8         0
                text27                             D7A4     D7A4        8         0
                text26                             B9D0     B9D0       BC         0
                text25                             C1FC     C1FC       9A         0
                text24                             7534     7534      2D2         0
                text23                             CDA0     CDA0       4A         0
                text22                             181E     181E      D06         0
                text21                             D44C     D44C       2C         0
                text20                             9BA6     9BA6      150         0
                text19                             CF9E     CF9E       44         0
                text18                             CB68     CB68       56         0
                text17                             C7A4     C7A4       6E         0
                text16                             C4CE     C4CE       80         0
                text15                             2524     2524      B4C         0
                text14                             9E44     9E44      14C         0
                text13                             7806     7806      2A8         0
                text12                             AA16     AA16      114         0
                text11                             A478     A478      12A         0
                text10                             AC3C     AC3C       F4         0
                text9                              CAB2     CAB2       5C         0
                text8                              3B40     3B40      AA4         0
                text7                              9718     9718      198         0
                text6                              D1A4     D1A4       3C         0
                text5                              CD56     CD56       4A         0
                text4                              D750     D750       10         0
                text3                              B47A     B47A       D0         0
                text2                              D740     D740       10         0
                text1                              6B4C     6B4C      388         0
                text0                              7AAE     7AAE      2A4         0
                cinit                              9A3A     9A3A      16C         0
                idataBANK6                         CF5A     CF5A       44         0
                idataBANK5                         C32C     C32C       8D         0
                idataBANK4                         B6D6     B6D6       BF         0
                idataBANK3                         D7CC     D7CC        3         0
                idataBANK1                         D6C2     D6C2       19         0
                idataCOMRAM                        D730     D730       10         0

        CLASS   CONST          

        CLASS   SMALLCONST     

        CLASS   MEDIUMCONST    
                mediumconst                        FBE6     FBE6      41A         0

        CLASS   COMRAM         
                temp                                 7D       7D        1         1
                cstackCOMRAM                          1        1       50         1
                dataCOMRAM                           6D       6D       10         1
                bssCOMRAM                            51       51       1C         1

        CLASS   ABS1           

        CLASS   BIGRAM         
                bssBIGRAM                           B5E      B5E      200         1

        CLASS   RAM            

        CLASS   BANK0          
                cstackBANK0                          80       80       80         1

        CLASS   BANK1          
                cstackBANK1                         100      100       79         1
                dataBANK1                           1A5      1A5       19         1
                bssBANK1                            179      179       2C         1

        CLASS   BANK2          
                cstackBANK2                         200      200       FF         1

        CLASS   BANK3          
                cstackBANK3                         300      300       EC         1
                dataBANK3                           3EC      3EC        3         1

        CLASS   BANK4          
                dataBANK4                           400      400       BF         1
                bssBANK4                            4BF      4BF       2E         1

        CLASS   BANK5          
                dataBANK5                           500      500       8D         1
                bssBANK5                            58D      58D       6E         1

        CLASS   BANK6          
                cstackBANK6                         688      688       3C         1
                dataBANK6                           644      644       44         1
                bssBANK6                            600      600       44         1

        CLASS   BANK7          
                bssBANK7                            700      700      100         1

        CLASS   BANK8          
                bssBANK8                            800      800      100         1

        CLASS   BANK9          
                bssBANK9                            900      900      100         1

        CLASS   BANK10         
                bssBANK10                           A00      A00      100         1

        CLASS   BANK11         
                cstackBANK11                        B00      B00       5E         1

        CLASS   BANK12         

        CLASS   BANK13         

        CLASS   BANK14         

        CLASS   BANK15         

        CLASS   SFR            

        CLASS   FARRAM         

        CLASS   CONFIG         
                config                           300000   300000        E         0

        CLASS   IDLOC          

        CLASS   EEDATA         



SEGMENTS        Name                           Load    Length   Top    Selector   Space  Class

                reset_vec                      000000  000004  000004         0       0  CODE    
                cstackCOMRAM                   000001  00007D  00007E         1       1  COMRAM  
                intcode                        000008  00000E  000016         4       0  CODE    
                intcodelo                      000018  00B77D  00B795         C       0  CODE    
                cstackBANK0                    000080  000080  000100        80       1  BANK0   
                cstackBANK1                    000100  0000BE  0001BE       100       1  BANK1   
                cstackBANK2                    000200  0000FF  0002FF       200       1  BANK2   
                cstackBANK3                    000300  0000EF  0003EF       300       1  BANK3   
                dataBANK4                      000400  0000ED  0004ED       400       1  BANK4   
                dataBANK5                      000500  0000FB  0005FB       500       1  BANK5   
                bssBANK6                       000600  0000C4  0006C4       600       1  BANK6   
                bssBANK7                       000700  000100  000800       700       1  BANK7   
                bssBANK8                       000800  000100  000900       800       1  BANK8   
                bssBANK9                       000900  000100  000A00       900       1  BANK9   
                bssBANK10                      000A00  000100  000B00       A00       1  BANK10  
                cstackBANK11                   000B00  00005E  000B5E       B00       1  BANK11  
                bssBIGRAM                      000B5E  000200  000D5E       B5E       1  BIGRAM  
                text65                         00B796  000C23  00C3B9      5BCB       0  CODE    
                text148                        00C3BA  001321  00D6DB      61DD       0  CODE    
                text39                         00D6DC  0000F3  00D7CF      6B6E       0  CODE    
                mediumconst                    00FBE6  00041A  010000      7DF3       0  MEDIUMCO
                config                         300000  00000E  30000E    300000       0  CONFIG  


UNUSED ADDRESS RANGES

        Name                Unused          Largest block    Delta
        BANK1            0001BE-0001FF               42
        BANK13           000D5E-000DFF               A2
        BANK14           000E00-000EFF              100
        BANK15           000F00-000F7F               80
        BANK2            0002FF-0002FF                1
        BANK3            0003EF-0003FF               11
        BANK4            0004ED-0004FF               13
        BANK5            0005FB-0005FF                5
        BANK6            0006C4-0006FF               3C
        BIGRAM           00007E-00007F                2
                         0001BE-0001FF               42
                         0002FF-0002FF                1
                         0003EF-0003FF               11
                         0004ED-0004FF               13
                         0005FB-0005FF                5
                         0006C4-0006FF               3C
                         000D5E-000F7F              222
        CODE             000004-000007                4
                         000016-000017                2
                         00B795-00B795                1
                         00C3B9-00C3B9                1
                         00D6DB-00D6DB                1
                         00D7CF-00FBE5             2417
        COMRAM           00007E-00007F                2
        CONST            000004-000007                4
                         000016-000017                2
                         00B795-00B795                1
                         00C3B9-00C3B9                1
                         00D6DB-00D6DB                1
                         00D7CF-00FBE5             2417
        EEDATA           F00000-F003FF              400
        IDLOC            200000-200007                8
        MEDIUMCONST      00B795-00B795                1
                         00C3B9-00C3B9                1
                         00D6DB-00D6DB                1
                         00D7CF-00FBE5             2417
        RAM              0001BE-0001FF               42
                         0002FF-0002FF                1
                         0003EF-0003FF               11
                         0004ED-0004FF               13
                         0005FB-0005FF                5
                         0006C4-0006FF               3C
                         000D5E-000F7F              100
        SFR              000F80-000FFF               80
        SMALLCONST       00B795-00B795                1
                         00C3B9-00C3B9                1
                         00D6DB-00D6DB                1
                         00D7CF-00FBE5              100
        STACK            000D5E-000F7F              222

                                  Symbol Table

?_EncodePhoneNumberToPDU                    cstackBANK1  00014B
?_FindCell                                  cstackBANK1  000160
?_FindNextTimeStart                         cstackBANK1  000160
?_FindPhoneContactByNumber                  cstackBANK0  000091
?_GetDayOfWeek                              cstackBANK1  000142
?_GetStringLength                           cstackBANK1  000142
?_GetSystemInfo                             cstackBANK1  000166
?_GetUnicodeSymbol                          cstackBANK1  000142
?_InputText                                 cstackBANK1  00015A
?_RefreshSchedulerIndicator                 cstackBANK1  000166
?__GetStringLength_interr                   cstackBANK0  000080
?___aldiv                                   cstackBANK1  000142
?___almod                                   cstackBANK1  000142
?___awdiv                                   cstackBANK1  000148
?___awmod                                   cstackBANK1  000150
?___lldiv                                   cstackBANK1  000142
?___llmod                                   cstackBANK1  000142
?___lmul                                    cstackBANK1  000142
?___lwdiv                                   cstackBANK1  000142
?___lwmod                                   cstackBANK1  000142
?___wmul                                    cstackBANK1  000142
?__getContainer_Clock_from_GSM              cstackBANK0  000087
?__getContainer_Incomming_Call_Data         cstackBANK0  000087
?__getContainer_Incomming_DTMF_Data         cstackBANK0  000087
?_getSystemTimePoint                        cstackBANK1  000142
?_strlen                                    cstackBANK1  000142
?i1___aldiv                                 cstackBANK0  000080
?i1___awdiv                                 cstackBANK0  000086
?i1___awmod                                 cstackBANK0  00008E
?i1___lmul                                  cstackBANK0  00009C
?i1___wmul                                  cstackBANK0  000080
?i1_getSystemTimePoint                      cstackBANK0  000080
?i2___aldiv                                 cstackCOMRAM 000001
?i2___lwdiv                                 cstackCOMRAM 000001
?i2___lwmod                                 cstackCOMRAM 000001
AddByteToUSARTbuff@buff                     cstackCOMRAM 00000A
AddByteToUSARTbuff@byte                     cstackCOMRAM 00000C
AddByteToUSARTbuff@i                        cstackCOMRAM 00000D
AddByteToUSARTbuff@i_1837                   cstackCOMRAM 00000F
AddByteToUSARTbuff@lastdata                 bssCOMRAM    000067
BCD_to_DEC@BCD                              cstackBANK0  000081
CalculateClockDelta@newTime                 cstackBANK0  00008E
CheckoutRegisterOfSymbol@dig                cstackBANK1  000142
CleanStringArray@i                          cstackBANK1  000147
CleanStringArray@myArray                    cstackBANK1  000142
CleanStringArray@settingData                cstackBANK1  000146
CleanStringArray@size                       cstackBANK1  000144
ConvKeyNum@Num                              cstackBANK0  000080
ConvertCharToNumeric@symbol                 cstackBANK0  000080
ConvertDayToBit@DayNumber                   cstackBANK1  000142
DEC_to_BCD@DEC                              cstackBANK1  000158
DeleteDataOfCell@CellsData                  cstackBANK1  000151
DeleteDataOfCell@TargetAdress               cstackBANK1  00014F
EERD@EEDATA_BUP                             cstackBANK1  000145
EERD@INTCON_BUP                             cstackBANK1  000144
EERD@adress                                 cstackBANK1  000142
EEWR@INTCON_BUP                             cstackBANK1  000145
EEWR@adress                                 cstackBANK1  000142
EEWR@data                                   cstackBANK1  000144
EditSchedule@BeginEditTimes                 cstackBANK2  000220
EditSchedule@CellsData                      cstackBANK2  000216
EditSchedule@Data                           cstackBANK2  000272
EditSchedule@Days                           cstackBANK2  00026B
EditSchedule@HH                             cstackBANK2  000221
EditSchedule@HL                             cstackBANK2  000222
EditSchedule@MH                             cstackBANK2  000223
EditSchedule@ML                             cstackBANK2  000224
EditSchedule@OK                             cstackBANK2  00026A
EditSchedule@Signals                        cstackBANK2  00026C
EditSchedule@SourceOfRecord                 cstackBANK1  000162
EditSchedule@T                              cstackBANK2  000225
EditSchedule@TargetAdress                   cstackBANK2  00021E
EditSchedule@TimeStart                      cstackBANK2  00023A
EditSchedule@TimeStop                       cstackBANK2  00023C
EditSchedule@Times                          cstackBANK2  000229
EditSchedule@TimesOutput                    cstackBANK2  000200
EditSchedule@_times                         cstackBANK2  00023E
EditSchedule@adress                         cstackBANK1  000160
EditSchedule@blinking                       cstackBANK2  000277
EditSchedule@f                              cstackBANK2  000271
EditSchedule@i                              cstackBANK2  000278
EditSchedule@i_1676                         cstackBANK2  000279
EditSchedule@i_1679                         cstackBANK2  00026E
EditSchedule@i_1687                         cstackBANK2  00026F
EditSchedule@j                              cstackBANK2  000239
EditSchedule@j_1696                         cstackBANK2  000270
EditSchedule@key                            cstackBANK2  000276
EditSchedule@mode                           cstackBANK2  00026D
EditSchedule@temp                           cstackBANK2  00027A
EncodePhoneNumberToPDU@encoded              cstackBANK1  00014F
EncodePhoneNumberToPDU@i                    cstackBANK1  000160
EncodePhoneNumberToPDU@number_legth         cstackBANK1  00015E
EncodePhoneNumberToPDU@phone_number         cstackBANK1  00014B
EncodePhoneNumberToPDU@temp                 cstackBANK1  00015F
F_h@MinuteAgo                               cstackCOMRAM 000050
F_h@dddd                                    bssCOMRAM    000068
F_l@ButtonPressTimeOut                      bssBANK1     000198
F_l@ElapsedTime                             cstackBANK0  0000EF
F_l@KeyIndex                                bssBANK1     000199
F_l@PressedKeyIndex                         dataBANK1    0001B9
F_l@_5seconds                               cstackBANK0  0000F5
F_l@_KeyIndex                               cstackBANK0  0000F8
F_l@a                                       cstackBANK0  0000F9
F_l@data_temp                               cstackBANK0  0000F7
F_l@digit                                   cstackBANK0  0000F6
F_l@digs                                    cstackBANK0  0000F3
F_l@digsAtrib                               cstackBANK0  0000FB
F_l@line                                    cstackBANK0  0000FF
F_l@symbol                                  cstackBANK0  0000FD
F_l@tClock                                  bssCOMRAM    000051
FillArrayFromEEPROM@adress_start            cstackBANK1  000148
FillArrayFromEEPROM@container               cstackBANK1  000146
FillArrayFromEEPROM@i                       cstackBANK1  00014E
FillArrayFromEEPROM@quantity                cstackBANK1  00014A
FillArrayFromEEPROM_interr@adress_start     cstackCOMRAM 000007
FillArrayFromEEPROM_interr@container        cstackCOMRAM 000005
FillArrayFromEEPROM_interr@i                cstackCOMRAM 00000D
FillArrayFromEEPROM_interr@quantity         cstackCOMRAM 000009
FillPhonebookCellFromEEPROM@adress_start    cstackBANK1  000151
FillPhonebookCellFromEEPROM@container       cstackBANK1  00014F
FindCell@CellIsEmpty                        cstackBANK2  000210
FindCell@CellsData                          cstackBANK2  000200
FindCell@Data                               cstackBANK2  00020C
FindCell@New                                cstackBANK1  000162
FindCell@adress                             cstackBANK2  000212
FindCell@adressNew                          cstackBANK2  000208
FindCell@adressStart                        cstackBANK1  000160
FindCell@i                                  cstackBANK2  000211
FindCell@previous                           cstackBANK1  000163
FindIncommingData@a                         cstackBANK1  00015B
FindIncommingData@container                 cstackBANK1  00014B
FindIncommingData@end_of_regexp             cstackBANK1  00015D
FindIncommingData@finish_index              cstackBANK1  000157
FindIncommingData@history_index             cstackBANK1  00014D
FindIncommingData@i                         cstackBANK1  000161
FindIncommingData@j                         cstackBANK1  000167
FindIncommingData@last_s                    cstackBANK1  000165
FindIncommingData@not_found                 cstackBANK1  000159
FindIncommingData@pointer                   cstackBANK1  000163
FindIncommingData@regexp                    cstackBANK1  000149
FindIncommingData@s0                        cstackBANK1  00015F
FindIncommingData@s1                        cstackBANK1  000153
FindIncommingData@start_index               cstackBANK1  000155
FindNextTimeStart@CellsData                 cstackBANK2  000200
FindNextTimeStart@Data                      cstackBANK2  000221
FindNextTimeStart@DayIndex                  cstackBANK2  000220
FindNextTimeStart@DayOn                     cstackBANK2  00020C
FindNextTimeStart@Days                      cstackBANK2  000219
FindNextTimeStart@LastFoundTimeStart        cstackBANK2  000211
FindNextTimeStart@Signals                   cstackBANK2  000218
FindNextTimeStart@TimeFrom                  cstackBANK1  000160
FindNextTimeStart@TimeIsFound               cstackBANK2  000217
FindNextTimeStart@TimeOfSignals             cstackBANK2  00021A
FindNextTimeStart@TimeStart                 cstackBANK2  000215
FindNextTimeStart@TimeStop                  cstackBANK2  00020F
FindNextTimeStart@adress                    cstackBANK2  00021E
FindNextTimeStart@adressStart               cstackBANK2  00020D
FindPhoneContactByNumber@container          cstackBANK0  00009F
FindPhoneContactByNumber@end_of_phone       cstackBANK0  00009D
FindPhoneContactByNumber@found              cstackBANK0  00009B
FindPhoneContactByNumber@i                  cstackBANK0  00009C
FindPhoneContactByNumber@j                  cstackBANK0  00009E
FindPhoneContactByNumber@number             cstackBANK0  000091
Format_EEPROM_Memory@first_cell             cstackBANK1  000157
Format_EEPROM_Memory@i                      cstackBANK1  000160
Format_EEPROM_Memory@interactive            cstackBANK1  00015B
Format_EEPROM_Memory@last_cell              cstackBANK1  000159
GetDayOfWeek@day                            cstackBANK1  000144
GetDayOfWeekByDate@_day                     cstackBANK1  000157
GetDayOfWeekByDate@_mounth                  cstackBANK1  000156
GetDayOfWeekByDate@_year                    cstackBANK1  00015D
GetDayOfWeekByDate@century_number           cstackBANK1  00015C
GetNumericFromString@index                  cstackBANK0  000083
GetNumericFromString@string                 cstackBANK0  000081
GetStringLength@container                   cstackBANK1  000142
GetStringLength@i                           cstackBANK1  000144
GetSystemInfo@CellsData                     cstackBANK2  00026E
GetSystemInfo@Data                          cstackBANK2  0002A9
GetSystemInfo@DataArray                     cstackBANK2  000276
GetSystemInfo@Day                           cstackBANK2  0002A8
GetSystemInfo@Days                          cstackBANK2  0002A6
GetSystemInfo@F3751                         dataBANK4    000473
GetSystemInfo@F3754                         dataBANK4    000478
GetSystemInfo@F3759                         dataBANK6    000663
GetSystemInfo@F3769                         dataBANK4    0004AD
GetSystemInfo@F3771                         dataBANK4    0004B0
GetSystemInfo@F3773                         dataBANK4    0004B3
GetSystemInfo@F3775                         dataBANK4    0004B6
GetSystemInfo@F3777                         dataBANK4    00047D
GetSystemInfo@NextCell                      cstackBANK2  0002AD
GetSystemInfo@Signals                       cstackBANK2  0002A7
GetSystemInfo@Time                          cstackBANK2  0002B1
GetSystemInfo@TimeStart                     cstackBANK2  0002A4
GetSystemInfo@TimeStop                      cstackBANK2  0002AF
GetSystemInfo@cTime                         cstackBANK2  0002B3
GetSystemInfo@d                             cstackBANK2  0002BA
GetSystemInfo@h_1                           cstackBANK2  00029B
GetSystemInfo@h_2                           cstackBANK2  0002A1
GetSystemInfo@i                             cstackBANK2  0002B7
GetSystemInfo@i_2295                        cstackBANK2  0002B8
GetSystemInfo@i_2326                        cstackBANK2  0002B9
GetSystemInfo@info                          cstackBANK2  000225
GetSystemInfo@m_1                           cstackBANK2  000298
GetSystemInfo@m_2                           cstackBANK2  00029E
GetSystemInfo@s_auto                        cstackBANK2  000289
GetSystemInfo@s_hand                        cstackBANK2  00028E
GetSystemInfo@sss                           cstackBANK2  000293
GetUnicodeSymbol@symb                       cstackBANK1  000144
I2CRead@temp                                cstackBANK0  000081
I2CSend@dat                                 cstackBANK1  000143
Init_1wire@b                                cstackBANK0  000081
Init_GSM@show                               cstackBANK1  000169
Init_USART@SpeedNumber                      cstackBANK1  000144
Init_USART@_value                           cstackBANK1  000142
InputText@F3616                             dataCOMRAM   00006D
InputText@F3618                             dataBANK6    000676
InputText@F3620                             dataBANK4    000482
InputText@F3622                             dataBANK4    000487
InputText@F3624                             dataBANK4    00048C
InputText@F3626                             dataBANK4    000491
InputText@F3628                             dataBANK4    000496
InputText@F3630                             dataBANK4    00042B
InputText@F3632                             dataBANK4    00049B
InputText@F3634                             dataBANK4    000431
InputText@F3636                             dataBANK4    000437
InputText@F3638                             dataBANK4    00043D
InputText@F3640                             dataBANK4    000443
InputText@F3642                             dataBANK4    000449
InputText@F3644                             dataBANK4    00044F
InputText@F3646                             dataBANK4    000455
InputText@F3648                             dataBANK4    00045B
InputText@F3650                             dataBANK4    000461
InputText@F3652                             dataCOMRAM   000070
InputText@F3654                             dataBANK1    0001A5
InputText@F3656                             dataBANK1    0001A7
InputText@F3658                             dataBANK1    0001A9
InputText@F3660                             dataBANK1    0001AB
InputText@F3662                             dataBANK1    0001AD
InputText@F3664                             dataBANK1    0001AF
InputText@F3666                             dataBANK1    0001B1
InputText@F3668                             dataBANK1    0001B3
InputText@F3670                             dataBANK1    0001B5
InputText@InputData                         cstackBANK3  000384
InputText@_input_data                       cstackBANK3  000300
InputText@_props                            cstackBANK1  00015C
InputText@active_cell                       cstackBANK3  0003DB
InputText@capacity                          cstackBANK1  00015E
InputText@cur_char                          cstackBANK3  0003D0
InputText@i                                 cstackBANK3  0003DA
InputText@i_2131                            cstackBANK2  0002CB
InputText@i_2140                            cstackBANK1  000167
InputText@i_2150                            cstackBANK3  0003D7
InputText@i_2159                            cstackBANK3  0003D4
InputText@lastKeyCode                       cstackBANK3  0003D8
InputText@props                             cstackBANK3  0003D9
InputText@ret_string                        cstackBANK2  000241
InputText@s_0                               cstackBANK2  0002BC
InputText@s_1                               cstackBANK2  00022F
InputText@s_12                              cstackBANK2  00026E
InputText@s_13                              cstackBANK2  000274
InputText@s_14                              cstackBANK2  00027A
InputText@s_15                              cstackBANK2  000280
InputText@s_16                              cstackBANK2  000286
InputText@s_17                              cstackBANK2  00028C
InputText@s_18                              cstackBANK2  000292
InputText@s_19                              cstackBANK2  000298
InputText@s_2                               cstackBANK2  00029E
InputText@s_20                              cstackBANK1  000164
InputText@s_21                              cstackBANK2  0002BF
InputText@s_22                              cstackBANK2  0002C1
InputText@s_23                              cstackBANK2  0002C3
InputText@s_24                              cstackBANK2  0002C5
InputText@s_25                              cstackBANK2  0002C7
InputText@s_26                              cstackBANK2  0002C9
InputText@s_27                              cstackBANK3  0003C6
InputText@s_28                              cstackBANK3  0003C8
InputText@s_29                              cstackBANK3  0003CA
InputText@s_3                               cstackBANK2  0002A3
InputText@s_4                               cstackBANK2  0002A8
InputText@s_5                               cstackBANK2  0002AD
InputText@s_6                               cstackBANK2  0002B2
InputText@s_7                               cstackBANK2  000262
InputText@s_8                               cstackBANK2  0002B7
InputText@s_9                               cstackBANK2  000268
InputText@symbols                           cstackBANK6  000688
InputText@temp                              cstackBANK3  0003D5
InputText@temp_2152                         cstackBANK3  0003D2
InputText@text                              cstackBANK1  00015A
InputText@time_point                        cstackBANK3  0003CC
InteractiveData_BlinkOFF@InteractiveData    cstackBANK1  000142
InteractiveData_BlinkOFF@i                  cstackBANK1  000147
InteractiveData_BlinkOFF@leght              cstackBANK1  000144
ItemsToIndicator@firstDigit                 cstackBANK1  00014D
ItemsToIndicator@i                          cstackBANK1  00014F
ItemsToIndicator@items                      cstackBANK1  00014E
ItemsToIndicator@max_i                      cstackBANK1  00014C
NumericToHEXString@displacement             cstackBANK1  00015D
NumericToHEXString@mySring                  cstackBANK1  000154
NumericToHEXString@n                        cstackBANK1  000150
NumericToHEXString@size                     cstackBANK1  000156
NumericToString@displacement                cstackBANK1  00015E
NumericToString@mySring                     cstackBANK1  000154
NumericToString@n                           cstackBANK1  000150
NumericToString@negative                    cstackBANK1  00015D
NumericToString@size                        cstackBANK1  000156
OutputInteractiveData@data                  cstackBANK1  000150
OutputInteractiveData@i                     cstackBANK1  000158
OutputInteractiveData@length                cstackBANK1  000152
OutputInteractiveData@line                  cstackBANK1  000156
OutputInteractiveData@s                     cstackBANK1  000157
OutputInteractiveData@start_symbol          cstackBANK1  000153
OutputString@cont                           cstackBANK1  000153
OutputString@i                              cstackBANK1  000154
OutputString@line                           cstackBANK1  00014E
OutputString@position                       cstackBANK1  00014F
OutputString@stringData                     cstackBANK1  00014C
OutputString@transfer_line                  cstackBANK1  000150
OutputSystemMessage@i                       cstackBANK1  000149
OutputSystemMessage@l                       cstackBANK1  00014C
OutputSystemMessage@line                    cstackBANK1  00014D
OutputSystemMessage@position                cstackBANK1  000148
OutputSystemMessage@s                       cstackBANK1  00014B
OutputSystemMessage@stringData              cstackBANK1  000142
OutputSystemMessage@symb                    cstackBANK1  00014E
ParseDataRecord@Data                        cstackBANK1  000142
ParseDataRecord@Days                        cstackBANK1  00014A
ParseDataRecord@Signals                     cstackBANK1  00014C
ParseDataRecord@TimeStart                   cstackBANK1  000146
ParseDataRecord@TimeStop                    cstackBANK1  000148
ParseTime@Day                               cstackBANK1  000156
ParseTime@DayTime                           cstackBANK1  000158
ParseTime@Time                              cstackBANK1  000154
ParseTime@TimeValue                         cstackBANK1  000150
PhonebookEdit@Contact                       cstackBANK11 000B3D
PhonebookEdit@F3720                         dataCOMRAM   000073
PhonebookEdit@F3722                         dataBANK4    000400
PhonebookEdit@aaa                           cstackBANK11 000B0A
PhonebookEdit@cell                          cstackBANK11 000B3B
PhonebookEdit@field                         cstackBANK11 000B38
PhonebookEdit@i                             cstackBANK11 000B3A
PhonebookEdit@input_props                   cstackBANK11 000B36
PhonebookEdit@input_props_2239              cstackBANK11 000B32
PhonebookEdit@menu                          cstackBANK11 000B00
PhonebookEdit@num_cell                      cstackBANK11 000B2B
PhonebookEdit@number                        cstackBANK11 000B33
PhonebookEdit@read                          cstackBANK11 000B35
PhonebookEdit@result                        cstackBANK11 000B37
ProcessIncommingUartData@F3491              dataBANK5    000582
ProcessIncommingUartData@answerString       cstackBANK1  000121
ProcessIncommingUartData@contact            cstackBANK1  00013F
ProcessIncommingUartData@i                  cstackBANK1  000141
ProcessIncommingUartData@msg                cstackBANK1  000100
ProcessIncommingUartData@number             cstackBANK1  00012C
ProcessIncommingUartData@tClock             cstackBANK1  00013B
RX_1wire@d                                  cstackBANK0  000080
RX_1wire@i                                  cstackBANK0  000081
ReIndTimeEdit@F3215                         dataBANK4    000467
ReIndTimeEdit@TimeData                      cstackBANK1  000159
ReIndTimeEdit@i                             cstackBANK1  000165
ReIndTimeEdit@i_1385                        cstackBANK1  000166
ReIndTimeEdit@n                             cstackBANK1  000164
ReIndTimeEdit@sources_of_time               cstackBANK1  00015D
ReIndTimeEdit@value                         cstackBANK1  000163
ReadDataOfCell@CellsData                    cstackBANK1  00014F
ReadDataOfCell@Data                         cstackBANK1  000151
ReadDataOfCell@TargetAdress                 cstackBANK1  000153
ReadDataOfCell@i                            cstackBANK1  00015E
ReadDataOfCell_interr@CellsData             cstackCOMRAM 00000E
ReadDataOfCell_interr@Data                  cstackCOMRAM 000010
ReadDataOfCell_interr@TargetAdress          cstackCOMRAM 000012
ReadDataOfCell_interr@i                     cstackCOMRAM 00001D
ReadTime@I                                  cstackBANK0  0000B5
ReadTime@Seconds                            cstackBANK0  0000B4
ReadTime@lastTimeStamp                      bssCOMRAM    000055
RefreshSchedulerIndicator@CellIsEmpty       cstackBANK2  000228
RefreshSchedulerIndicator@CellsData         cstackBANK2  000214
RefreshSchedulerIndicator@CopyFrom          cstackBANK1  000169
RefreshSchedulerIndicator@Data              cstackBANK2  000224
RefreshSchedulerIndicator@F3326             dataCOMRAM   000076
RefreshSchedulerIndicator@F3328             dataCOMRAM   000079
RefreshSchedulerIndicator@New               cstackBANK1  000168
RefreshSchedulerIndicator@adress            cstackBANK1  000166
RefreshSchedulerIndicator@cell              cstackBANK2  000229
RefreshSchedulerIndicator@i                 cstackBANK2  00022B
RefreshSchedulerIndicator@num               cstackBANK2  00021C
RefreshSchedulerIndicator@num_1604          cstackBANK2  00021F
Save_USART_SpeedNumber@speed                cstackBANK1  000146
Scheduler@NumberOfCells                     bssBANK1     000190
Scheduler@StartFrom                         cstackBANK2  00028D
SchedulerNew@NumberOfCells                  bssBANK1     000192
SchedulerNew@SourceOfRecord                 cstackBANK2  00027C
Select_OK_NO@text                           cstackBANK1  000155
SendCommandToUSART@command                  cstackBANK1  000142
SendCommandToUSART@wait                     cstackBANK1  000144
SendSMS@F3825                               dataBANK4    0004B9
SendSMS@F3829                               dataBANK4    0004BC
SendSMS@F3831                               bssBANK4     0004BF
SendSMS@F3833                               dataBANK5    000552
SendSMS@PhoneNumber                         cstackBANK1  00016C
SendSMS@Text                                cstackBANK1  00016E
SendSMS@command                             cstackBANK2  0002BB
SendSMS@e                                   cstackBANK2  0002CE
SendSMS@l                                   cstackBANK2  0002D7
SendSMS@myNumber                            cstackBANK2  0002D5
SendSMS@pn                                  cstackBANK2  0002DD
SendSMS@sc_len                              cstackBANK2  0002DF
SendSMS@tempString                          cstackBANK2  0002CB
SendSMS@tt                                  cstackBANK2  0002D1
SendSMS@y                                   cstackBANK2  0002C7
SendSymbolToLCD@Symb                        cstackBANK0  000093
SetTimeSource@time_source                   cstackBANK1  000147
Settings@F3740                              dataBANK5    00055E
Settings@F3744                              dataBANK4    00046D
Settings@GSM_Condition                      cstackBANK2  0002D1
Settings@GSM_On_Off                         cstackBANK2  0002D2
Settings@item                               cstackBANK2  0002D4
Settings@menu                               cstackBANK2  0002BE
Settings@menu_GSM_on_off                    cstackBANK2  0002CA
Settings@num                                cstackBANK2  0002D3
Settings@speed                              cstackBANK2  0002D0
ShowMenu@item                               cstackBANK1  000157
ShowMenu@item_max                           cstackBANK1  00015D
ShowMenu@line                               bssBANK1     00019A
ShowMenu@menu                               cstackBANK1  000155
ShowMenu@result                             cstackBANK1  00015C
ShowSchedulerMenu@F3408                     dataBANK5    00056A
ShowSchedulerMenu@NumberOfCells             cstackBANK2  00027E
ShowSchedulerMenu@item                      cstackBANK2  00028C
ShowSchedulerMenu@menu                      cstackBANK2  000280
SignalsOnOff@CellsData                      cstackCOMRAM 000020
SignalsOnOff@Data                           cstackCOMRAM 000036
SignalsOnOff@Data_1769                      cstackCOMRAM 000035
SignalsOnOff@DayTime                        cstackCOMRAM 000030
SignalsOnOff@Days                           cstackCOMRAM 000032
SignalsOnOff@Signals                        cstackCOMRAM 000033
SignalsOnOff@ThisDay                        cstackCOMRAM 000034
SignalsOnOff@ThisTime                       cstackCOMRAM 00002E
SignalsOnOff@TimeStart                      cstackCOMRAM 000028
SignalsOnOff@TimeStop                       cstackCOMRAM 00002A
TX_1wire@cmd                                cstackBANK0  000080
TX_1wire@i                                  cstackBANK0  000082
TX_1wire@temp                               cstackBANK0  000081
TelephoneCall@F3707                         dataBANK5    000500
TelephoneCall@command                       cstackBANK1  000149
TelephoneCall@i                             cstackBANK1  00015B
TelephoneCall@phone_number                  cstackBANK1  000145
TimeData_BlinkOFF@TimeData                  cstackBANK1  000148
TimeData_INIT@TimeData                      cstackBANK1  000142
TimeData_INIT@i                             cstackBANK1  000146
TimeData_INIT@i_1437                        cstackBANK1  000147
TimeEdit@F3246                              dataBANK5    000576
TimeEdit@MonthDays                          cstackBANK2  000227
TimeEdit@TimeData                           cstackBANK2  00029D
TimeEdit@_date                              cstackBANK2  00023B
TimeEdit@_time                              cstackBANK2  000263
TimeEdit@_weekday                           cstackBANK2  00028F
TimeEdit@blinking                           cstackBANK2  000296
TimeEdit@i                                  cstackBANK2  000293
TimeEdit@i_1463                             cstackBANK2  000294
TimeEdit@i_1464                             cstackBANK2  000295
TimeEdit@input                              cstackBANK2  000278
TimeEdit@month                              cstackBANK2  00027A
TimeEdit@n                                  cstackBANK2  000233
TimeEdit@p                                  cstackBANK2  00029C
TimeEdit@symb_array                         cstackBANK2  00027B
TimeEdit@symb_array_max_index               cstackBANK2  000279
TimeEdit@t                                  cstackBANK2  00029B
TimeEdit@temp                               cstackBANK2  000297
TimeEdit@time_is_changed                    cstackBANK2  000277
TimeToInd@CellsData                         cstackBANK2  000293
TimeToInd@CellsNumber                       cstackBANK2  0002EB
TimeToInd@D                                 cstackBANK2  0002DD
TimeToInd@Data                              cstackBANK2  0002E4
TimeToInd@DataArray                         cstackBANK2  0002BA
TimeToInd@DataArray2                        cstackBANK2  0002E1
TimeToInd@DataArrayOfLine2                  cstackBANK2  0002A4
TimeToInd@Day                               cstackBANK2  0002E3
TimeToInd@Days                              cstackBANK2  0002DC
TimeToInd@ElapsedTime                       cstackBANK2  0002CB
TimeToInd@F3167                             dataBANK4    0004A5
TimeToInd@F3171                             dataBANK4    00040A
TimeToInd@F3178                             dataBANK5    000512
TimeToInd@F3192                             dataBANK5    000545
TimeToInd@SignalOn                          cstackBANK2  0002CF
TimeToInd@SignalOn_1322                     cstackBANK2  0002D1
TimeToInd@Signals                           cstackBANK2  0002E8
TimeToInd@SignalsFinal                      cstackBANK2  0002EE
TimeToInd@Time                              cstackBANK2  0002F1
TimeToInd@TimeData                          cstackBANK2  0002B1
TimeToInd@TimeStart                         cstackBANK2  0002D9
TimeToInd@TimeStop                          cstackBANK2  0002EF
TimeToInd@d                                 cstackBANK2  0002D2
TimeToInd@day                               cstackBANK2  0002D0
TimeToInd@i                                 cstackBANK2  0002E9
TimeToInd@i_1321                            cstackBANK2  0002EA
TimeToInd@j2                                cstackBANK2  0002EC
TimeToInd@line                              cstackBANK2  0002DB
TimeToInd@tClock                            bssBANK1     000181
TimeToInd@tString                           cstackBANK2  00029B
TimeToInd@temp                              cstackBANK2  0002F3
USART_Speed_Choise@F3737                    dataBANK4    000413
USART_Speed_Choise@menu                     cstackBANK1  00015E
UserDelay@timestamp                         cstackBANK1  00015C
UserDelay@value                             cstackBANK1  00015A
WorkingWithGSM@command                      cstackBANK2  0002ED
WorkingWithGSM@i                            cstackBANK2  0002F2
WorkingWithGSM@line                         dataBANK3    0003EE
WorkingWithGSM@myOutputString               cstackBANK2  0002CC
WorkingWithGSM@p                            cstackBANK2  0002EF
WorkingWithGSM@speed                        cstackBANK2  0002F1
WriteArrayToEEPROM@adress_start             cstackBANK1  000148
WriteArrayToEEPROM@container                cstackBANK1  000146
WriteArrayToEEPROM@i                        cstackBANK1  00014E
WriteArrayToEEPROM@quantity                 cstackBANK1  00014A
WriteDataOfCell@CellsData                   cstackBANK1  00014F
WriteDataOfCell@Data                        cstackBANK1  000151
WriteDataOfCell@TargetAdress                cstackBANK1  000153
WriteDataOfCell@i                           cstackBANK1  000156
WritePhonebookCellToEEPROM@adress_start     cstackBANK1  000151
WritePhonebookCellToEEPROM@container        cstackBANK1  00014F
WriteTime@F3801                             dataBANK6    000644
WriteTime@INTCON_BUP                        cstackBANK2  000222
WriteTime@comand                            cstackBANK2  000200
WriteTime@days                              cstackBANK1  00015D
WriteTime@hours                             cstackBANK2  000220
WriteTime@lClock                            cstackBANK1  000159
WriteTime@minutes                           cstackBANK2  000221
WriteTime@months                            cstackBANK1  00015E
WriteTime@temp                              cstackBANK2  000223
WriteTime@week_day                          cstackBANK2  00021F
WriteTime@years                             cstackBANK1  00015F
_ADCON1                                     (abs)        000FC1
_AddByteToUSARTbuff                         text158      00A8FC
_AdressOfNextStartCell                      dataBANK1    0001B7
_BAUDCONbits                                (abs)        000FB8
_BCD_to_DEC                                 text117      00D684
_CalculateClockDelta                        text143      009F90
_CalculateClockDelta$3407                   cstackBANK0  000096
_CheckoutRegisterOfSymbol                   text68       00629C
_CleanStringArray                           text92       00D068
_Clock                                      bssBANK1     000185
_Clock_from_GSM                             bssBANK4     0004C7
_ConvKeyNum                                 text145      00BE20
_ConvertCharToNumeric                       text138      00C730
_ConvertDayToBit                            text18       00CB68
_CorrectTimeConst                           bssCOMRAM    000061
_CurrentReadingCell                         bssCOMRAM    000063
_CurrentSignals                             bssBANK1     00019B
_CurrentSignalsData                         bssCOMRAM    000069
_DEC_to_BCD                                 text31       00CBBE
_DTMF_Symbol                                bssBANK1     00019C
_DeleteDataOfCell                           text19       00CF9E
_EEADR                                      (abs)        000FA9
_EEADRH                                     (abs)        000FAA
_EECON1bits                                 (abs)        000FA6
_EECON2                                     (abs)        000FA7
_EEDATA                                     (abs)        000FA8
_EERD                                       text95       00D54C
_EEWR                                       text75       00D252
_EditSchedule                               text15       002524
_EncodePhoneNumberToPDU                     text50       00AB2A
_F_h                                        intcode      000008
_F_l                                        intcodelo    000018
_FillArrayFromEEPROM                        text90       00C9F6
_FillArrayFromEEPROM_interr                 text156      00D166
_FillMinutes                                text93       00D5C0
_FillPhonebookCellFromEEPROM                text76       00BC00
_FindCell                                   text14       009E44
_FindCell$1587                              cstackBANK2  00020A
_FindIncommingData                          text48       008230
_FindNextTimeStart                          text87       007D52
_FindNextTimeStart$3177                     cstackBANK2  000208
_FindPhoneContactByNumber                   text139      009578
_Format_EEPROM_Memory                       text69       00B616
_GetDayOfWeek                               text86       00C15C
_GetDayOfWeekByDate                         text36       00AD30
_GetNumericFromString                       text137      00D6A4
_GetStringLength                            text49       00D2F4
_GetSystemInfo                              text77       004EDA
_GetTimeSource                              text94       00D4CE
_GetUnicodeSymbol                           text47       000416
_GlobalBlinkCycleTime                       dataBANK1    0001BA
_I2CAck                                     text116      00D79A
_I2CInit                                    text30       00D760
_I2CNak                                     text115      00D790
_I2CRead                                    text114      00D664
_I2CRestart                                 text113      00D7C4
_I2CSend                                    text29       00D604
_I2CStart                                   text28       00D7AC
_I2CStop                                    text27       00D7A4
_INTCON                                     (abs)        000FF2
_INTCON2                                    (abs)        000FF1
_INTCON3                                    (abs)        000FF0
_INTCONbits                                 (abs)        000FF2
_IPR1                                       (abs)        000F9F
_IPR1bits                                   (abs)        000F9F
_IPR2                                       (abs)        000FA2
_IncommingBuffer                            bssBANK1     000179
_Incomming_Call_Data                        bssBANK6     000600
_Incomming_DTMF_Data                        bssBANK4     0004E5
_Init_1wire                                 text102      00CB0E
_Init_GSM                                   text40       0091CE
_Init_USART                                 text43       00C446
_InputText                                  text59       003070
_InteractiveData_BlinkOFF                   text67       00CFE2
_ItemsToIndicator                           text17       00C7A4
_KeyCode                                    bssBANK1     00019D
_LA0                                        (abs)        007C48
_LATA                                       (abs)        000F89
_LATB                                       (abs)        000F8A
_LATC                                       (abs)        000F8B
_LCD_ON_TIMEOUT                             dataBANK3    0003EC
_Minutes                                    bssCOMRAM    000059
_NearTimeStart                              bssBANK1     0001A1
_NearTimeStop                               bssBANK4     0004C3
_NumericToHEXString                         text46       009CF6
_NumericToString                            text82       007FC8
_OutcommingBuffer                           bssBANK1     000194
_OutputInteractiveData                      text64       00B1EA
_OutputString                               text72       00A5A2
_OutputSystemMessage                        text74       00893A
_PIE1                                       (abs)        000F9D
_PIE1bits                                   (abs)        000F9D
_PIE2                                       (abs)        000FA0
_PIR1                                       (abs)        000F9E
_PIR1bits                                   (abs)        000F9E
_PIR2                                       (abs)        000FA1
_PIR2bits                                   (abs)        000FA1
_PORTA                                      (abs)        000F80
_PORTB                                      (abs)        000F81
_PORTBbits                                  (abs)        000F81
_PR2                                        (abs)        000FCB
_ParseDataRecord                            text91       00B3A8
_ParseTime                                  text79       00C54E
_PhonebookEdit                              text53       005C9E
_PhonebookEdit$2234                         cstackBANK11 000B2E
_PhonebookEdit$2237                         cstackBANK11 000B30
_ProcessIncommingUartData                   text119      0045E4
_ProcessIncommingUartData$3408              cstackBANK1  000137
_ProcessSystemMessageShowing                text118      00D6F4
_RB7                                        (abs)        007C0F
_RC0                                        (abs)        007C10
_RC2                                        (abs)        007C12
_RCON                                       (abs)        000FD0
_RCONbits                                   (abs)        000FD0
_RCREG                                      (abs)        000FAE
_RCSTAbits                                  (abs)        000FAB
_RX_1wire                                   text101      00CF12
_ReIndTimeEdit                              text35       00722A
_ReadDataOfCell                             text89       00BA8C
_ReadDataOfCell_interr                      text155      00C296
_ReadTime                                   text106      00BF74
_ReadTime$3409                              cstackBANK0  0000B0
_Read_USART_SpeedNumber                     text42       00D770
_RefreshSchedulerIndicator                  text13       007806
_RefreshSchedulerIndicator$1597             cstackBANK2  000222
_SMS                                        bssBIGRAM    000B5E
_SPBRG                                      (abs)        000FAF
_SPBRGH                                     (abs)        000FB0
_SSPADD                                     (abs)        000FC8
_SSPBUF                                     (abs)        000FC9
_SSPCON1                                    (abs)        000FC6
_SSPCON2                                    (abs)        000FC5
_SSPCON2bits                                (abs)        000FC5
_SSPSTAT                                    (abs)        000FC7
_SSPSTATbits                                (abs)        000FC7
_Save_USART_SpeedNumber                     text39       00D6DC
_Scheduler                                  text10       00AC3C
_SchedulerNew                               text12       00AA16
_Select_OK_NO                               text70       00CC10
_SendCommandToUSART                         text57       00D4A4
_SendSMS                                    text44       00674A
_SendSMS$2436                               cstackBANK2  0002D9
_SendSMS$2437                               cstackBANK2  0002DB
_SendSymbolToLCD                            text104      00AE24
_SendSymbolToLCD$1547                       cstackBANK0  00008F
_SendSymbolToLCD$1549                       cstackBANK0  000091
_SetTimeSource                              text34       00D390
_Settings                                   text20       009BA6
_ShowMenu                                   text58       0086E4
_ShowSchedulerMenu                          text11       00A478
_SignalsForInd                              bssBANK1     00019E
_SignalsOnOff                               text149      008FCC
_SignalsOnOff$1768                          cstackCOMRAM 00002C
_SignalsOut                                 bssCOMRAM    00006A
_StandardAnswer_BUSY                        mediumconst  00FC93
_StandardAnswer_CLOCK                       mediumconst  00FC34
_StandardAnswer_DTMF                        mediumconst  00FC85
_StandardAnswer_ERROR                       mediumconst  00FC8D
_StandardAnswer_INCCALL                     mediumconst  00FC10
_StandardAnswer_NORMAL_POWER_DOWN           mediumconst  00FC52
_StandardAnswer_NO_ANSWER                   mediumconst  00FC7B
_StandardAnswer_NO_CARRIER                  mediumconst  00FC70
_StandardAnswer_NO_DIALTONE                 mediumconst  00FC64
_StandardAnswer_OK                          mediumconst  00FC98
_StandardAnswer_STAT                        mediumconst  00FC07
_T0CON                                      (abs)        000FD5
_T1CONbits                                  (abs)        000FCD
_T2CON                                      (abs)        000FCA
_T2CONbits                                  (abs)        000FCA
_TMR0IE                                     (abs)        007F95
_TMR0IF                                     (abs)        007F92
_TMR1                                       (abs)        000FCE
_TMR1IF                                     (abs)        007CF0
_TMR2                                       (abs)        000FCC
_TMR2IF                                     (abs)        007CF1
_TRISA                                      (abs)        000F92
_TRISA0                                     (abs)        007C90
_TRISB                                      (abs)        000F93
_TRISC                                      (abs)        000F94
_TRISCbits                                  (abs)        000F94
_TXREG                                      (abs)        000FAD
_TXSTAbits                                  (abs)        000FAC
_TX_1wire                                   text100      00C936
_TelephoneCall                              text56       00B0FE
_TimeData_BlinkOFF                          text33       00CD06
_TimeData_INIT                              text32       008DCA
_TimeEdit                                   text22       00181E
_TimeEdit$3176                              cstackBANK2  000237
_TimeToInd                                  text8        003B40
_TimeToInd$1302                             cstackBANK2  0002D3
_TimeToInd$1307                             cstackBANK2  0002D5
_TimeToInd$1308                             cstackBANK2  0002D7
_USART_Speed_Choise                         text21       00D44C
_UserDelay                                  text41       00D128
_WorkingWithGSM                             text7        009718
_WriteArrayToEEPROM                         text55       00C812
_WriteDataOfCell                            text16       00C4CE
_WritePhonebookCellToEEPROM                 text54       00BB48
_WriteTime                                  text24       007534
__CFG_BOREN$SBORDIS                         (abs)        000000
__CFG_BORV$3                                (abs)        000000
__CFG_CCP2MX$PORTC                          (abs)        000000
__CFG_CP0$OFF                               (abs)        000000
__CFG_CP1$OFF                               (abs)        000000
__CFG_CP2$OFF                               (abs)        000000
__CFG_CP3$OFF                               (abs)        000000
__CFG_CPB$OFF                               (abs)        000000
__CFG_CPD$OFF                               (abs)        000000
__CFG_EBTR0$OFF                             (abs)        000000
__CFG_EBTR1$OFF                             (abs)        000000
__CFG_EBTR2$OFF                             (abs)        000000
__CFG_EBTR3$OFF                             (abs)        000000
__CFG_EBTRB$OFF                             (abs)        000000
__CFG_FCMEN$OFF                             (abs)        000000
__CFG_IESO$ON                               (abs)        000000
__CFG_LPT1OSC$ON                            (abs)        000000
__CFG_LVP$OFF                               (abs)        000000
__CFG_MCLRE$OFF                             (abs)        000000
__CFG_OSC$HSPLL                             (abs)        000000
__CFG_PBADEN$OFF                            (abs)        000000
__CFG_PWRT$ON                               (abs)        000000
__CFG_STVREN$ON                             (abs)        000000
__CFG_WDT$OFF                               (abs)        000000
__CFG_WDTPS$32768                           (abs)        000000
__CFG_WRT0$OFF                              (abs)        000000
__CFG_WRT1$OFF                              (abs)        000000
__CFG_WRT2$OFF                              (abs)        000000
__CFG_WRT3$OFF                              (abs)        000000
__CFG_WRTB$OFF                              (abs)        000000
__CFG_WRTC$OFF                              (abs)        000000
__CFG_WRTD$OFF                              (abs)        000000
__CFG_XINST$OFF                             (abs)        000000
__CleanStringArray_interrupt                text136      00D0E8
__CleanStringArray_interrupt2               text159      00D478
__CleanStringArray_interrupt2@i             cstackCOMRAM 000006
__CleanStringArray_interrupt2@myArray       cstackCOMRAM 000001
__CleanStringArray_interrupt2@settingData   cstackCOMRAM 000005
__CleanStringArray_interrupt2@size          cstackCOMRAM 000003
__CleanStringArray_interrupt@i              cstackBANK0  000085
__CleanStringArray_interrupt@myArray        cstackBANK0  000080
__CleanStringArray_interrupt@settingData    cstackBANK0  000084
__CleanStringArray_interrupt@size           cstackBANK0  000082
__FindIncommingData_interrupt               text134      00848A
__FindIncommingData_interrupt@a             cstackBANK0  00009B
__FindIncommingData_interrupt@container     cstackBANK0  00008B
__FindIncommingData_interrupt@end_of_regexp cstackBANK0  00009D
__FindIncommingData_interrupt@finish_index  cstackBANK0  000097
__FindIncommingData_interrupt@history_index cstackBANK0  00008D
__FindIncommingData_interrupt@i             cstackBANK0  0000A1
__FindIncommingData_interrupt@j             cstackBANK0  0000A7
__FindIncommingData_interrupt@last_s        cstackBANK0  0000A5
__FindIncommingData_interrupt@not_found     cstackBANK0  000099
__FindIncommingData_interrupt@pointer       cstackBANK0  0000A3
__FindIncommingData_interrupt@regexp        cstackBANK0  000089
__FindIncommingData_interrupt@s0            cstackBANK0  00009F
__FindIncommingData_interrupt@s1            cstackBANK0  000093
__FindIncommingData_interrupt@start_index   cstackBANK0  000095
__GetStringLength_interr                    text135      00D328
__GetStringLength_interr@container          cstackBANK0  000080
__GetStringLength_interr@i                  cstackBANK0  000082
__HRAM                                      (abs)        000000
__Habs1                                     abs1         000000
__Hbank0                                    bank0        000000
__Hbank1                                    bank1        000000
__Hbank10                                   bank10       000000
__Hbank11                                   bank11       000000
__Hbank12                                   bank12       000000
__Hbank13                                   bank13       000000
__Hbank14                                   bank14       000000
__Hbank15                                   bank15       000000
__Hbank2                                    bank2        000000
__Hbank3                                    bank3        000000
__Hbank4                                    bank4        000000
__Hbank5                                    bank5        000000
__Hbank6                                    bank6        000000
__Hbank7                                    bank7        000000
__Hbank8                                    bank8        000000
__Hbank9                                    bank9        000000
__Hbigbss                                   bigbss       000000
__Hbigdata                                  bigdata      000000
__Hbigram                                   bigram       000000
__Hbss                                      bss          000000
__HbssBANK1                                 bssBANK1     000000
__HbssBANK10                                bssBANK10    000000
__HbssBANK4                                 bssBANK4     000000
__HbssBANK5                                 bssBANK5     000000
__HbssBANK6                                 bssBANK6     000000
__HbssBANK7                                 bssBANK7     000000
__HbssBANK8                                 bssBANK8     000000
__HbssBANK9                                 bssBANK9     000000
__HbssBIGRAM                                bssBIGRAM    000000
__HbssCOMRAM                                bssCOMRAM    000000
__Hcinit                                    cinit        000000
__Hclrtext                                  clrtext      000000
__Hcomram                                   comram       000000
__Hconfig                                   config       30000E
__Hconst                                    const        000000
__HcstackBANK0                              cstackBANK0  000000
__HcstackBANK1                              cstackBANK1  000000
__HcstackBANK11                             cstackBANK11 000000
__HcstackBANK2                              cstackBANK2  000000
__HcstackBANK3                              cstackBANK3  000000
__HcstackBANK6                              cstackBANK6  000000
__HcstackCOMRAM                             cstackCOMRAM 000000
__Hdata                                     data         000000
__HdataBANK1                                dataBANK1    000000
__HdataBANK3                                dataBANK3    000000
__HdataBANK4                                dataBANK4    000000
__HdataBANK5                                dataBANK5    000000
__HdataBANK6                                dataBANK6    000000
__HdataCOMRAM                               dataCOMRAM   000000
__Heeprom_data                              eeprom_data  000000
__Hend_init                                 end_init     000416
__Hfarbss                                   farbss       000000
__Hfardata                                  fardata      000000
__Hibigdata                                 ibigdata     000000
__Hidata                                    idata        000000
__HidataBANK1                               idataBANK1   000000
__HidataBANK3                               idataBANK3   000000
__HidataBANK4                               idataBANK4   000000
__HidataBANK5                               idataBANK5   000000
__HidataBANK6                               idataBANK6   000000
__HidataCOMRAM                              idataCOMRAM  000000
__Hidloc                                    idloc        000000
__Hifardata                                 ifardata     000000
__Hinit                                     init         000412
__Hintcode                                  intcode      000016
__Hintcode_body                             intcode_body 000000
__Hintcodelo                                intcodelo    000412
__Hintentry                                 intentry     000000
__Hintret                                   intret       000000
__Hintsave_regs                             intsave_regs 000000
__Hirdata                                   irdata       000000
__Hmediumconst                              mediumconst  010000
__HnvFARRAM                                 nvFARRAM     000000
__Hnvbit                                    nvbit        000000
__Hnvrram                                   nvrram       000000
__Hparam                                    rparam       000000
__Hpowerup                                  powerup      000412
__Hram                                      ram          000000
__Hramtop                                   ramtop       001000
__Hrbit                                     rbit         000000
__Hrbss                                     rbss         000000
__Hrdata                                    rdata        000000
__Hreset_vec                                reset_vec    000004
__Hrparam                                   rparam       000000
__Hsfr                                      sfr          000000
__Hsmallconst                               smallconst   000000
__Hspace_0                                  (abs)        30000E
__Hspace_1                                  (abs)        000D5E
__Hspace_2                                  (abs)        000000
__Hstack                                    stack        000000
__Hstruct                                   struct       000000
__Htemp                                     temp         00007E
__Htext                                     text         000000
__Htext0                                    text0        000000
__Htext1                                    text1        000000
__Htext10                                   text10       000000
__Htext100                                  text100      000000
__Htext101                                  text101      000000
__Htext102                                  text102      000000
__Htext103                                  text103      000000
__Htext104                                  text104      000000
__Htext105                                  text105      000000
__Htext106                                  text106      000000
__Htext107                                  text107      000000
__Htext108                                  text108      000000
__Htext109                                  text109      000000
__Htext11                                   text11       000000
__Htext110                                  text110      000000
__Htext111                                  text111      000000
__Htext112                                  text112      000000
__Htext113                                  text113      000000
__Htext114                                  text114      000000
__Htext115                                  text115      000000
__Htext116                                  text116      000000
__Htext117                                  text117      000000
__Htext118                                  text118      000000
__Htext119                                  text119      000000
__Htext12                                   text12       000000
__Htext120                                  text120      000000
__Htext121                                  text121      000000
__Htext122                                  text122      000000
__Htext123                                  text123      000000
__Htext124                                  text124      000000
__Htext125                                  text125      000000
__Htext126                                  text126      000000
__Htext127                                  text127      000000
__Htext128                                  text128      000000
__Htext129                                  text129      000000
__Htext13                                   text13       000000
__Htext130                                  text130      000000
__Htext131                                  text131      000000
__Htext132                                  text132      000000
__Htext133                                  text133      000000
__Htext134                                  text134      000000
__Htext135                                  text135      000000
__Htext136                                  text136      000000
__Htext137                                  text137      000000
__Htext138                                  text138      000000
__Htext139                                  text139      000000
__Htext14                                   text14       000000
__Htext140                                  text140      000000
__Htext141                                  text141      000000
__Htext142                                  text142      000000
__Htext143                                  text143      000000
__Htext144                                  text144      000000
__Htext145                                  text145      000000
__Htext147                                  text147      000000
__Htext148                                  text148      000000
__Htext149                                  text149      000000
__Htext15                                   text15       000000
__Htext150                                  text150      000000
__Htext151                                  text151      000000
__Htext152                                  text152      000000
__Htext153                                  text153      000000
__Htext154                                  text154      000000
__Htext155                                  text155      000000
__Htext156                                  text156      000000
__Htext157                                  text157      000000
__Htext158                                  text158      000000
__Htext159                                  text159      000000
__Htext16                                   text16       000000
__Htext17                                   text17       000000
__Htext18                                   text18       000000
__Htext19                                   text19       000000
__Htext2                                    text2        000000
__Htext20                                   text20       000000
__Htext21                                   text21       000000
__Htext22                                   text22       000000
__Htext23                                   text23       000000
__Htext24                                   text24       000000
__Htext25                                   text25       000000
__Htext26                                   text26       000000
__Htext27                                   text27       000000
__Htext28                                   text28       000000
__Htext29                                   text29       000000
__Htext3                                    text3        000000
__Htext30                                   text30       000000
__Htext31                                   text31       000000
__Htext32                                   text32       000000
__Htext33                                   text33       000000
__Htext34                                   text34       000000
__Htext35                                   text35       000000
__Htext36                                   text36       000000
__Htext37                                   text37       000000
__Htext38                                   text38       000000
__Htext39                                   text39       000000
__Htext4                                    text4        000000
__Htext40                                   text40       000000
__Htext41                                   text41       000000
__Htext42                                   text42       000000
__Htext43                                   text43       000000
__Htext44                                   text44       000000
__Htext45                                   text45       000000
__Htext46                                   text46       000000
__Htext47                                   text47       000000
__Htext48                                   text48       000000
__Htext49                                   text49       000000
__Htext5                                    text5        000000
__Htext50                                   text50       000000
__Htext51                                   text51       000000
__Htext52                                   text52       000000
__Htext53                                   text53       000000
__Htext54                                   text54       000000
__Htext55                                   text55       000000
__Htext56                                   text56       000000
__Htext57                                   text57       000000
__Htext58                                   text58       000000
__Htext59                                   text59       000000
__Htext6                                    text6        000000
__Htext60                                   text60       000000
__Htext61                                   text61       000000
__Htext62                                   text62       000000
__Htext63                                   text63       000000
__Htext64                                   text64       000000
__Htext65                                   text65       000000
__Htext66                                   text66       000000
__Htext67                                   text67       000000
__Htext68                                   text68       000000
__Htext69                                   text69       000000
__Htext7                                    text7        000000
__Htext70                                   text70       000000
__Htext71                                   text71       000000
__Htext72                                   text72       000000
__Htext73                                   text73       000000
__Htext74                                   text74       000000
__Htext75                                   text75       000000
__Htext76                                   text76       000000
__Htext77                                   text77       000000
__Htext78                                   text78       000000
__Htext79                                   text79       000000
__Htext8                                    text8        000000
__Htext80                                   text80       000000
__Htext81                                   text81       000000
__Htext82                                   text82       000000
__Htext83                                   text83       000000
__Htext84                                   text84       000000
__Htext85                                   text85       000000
__Htext86                                   text86       000000
__Htext87                                   text87       000000
__Htext88                                   text88       000000
__Htext89                                   text89       000000
__Htext9                                    text9        000000
__Htext90                                   text90       000000
__Htext91                                   text91       000000
__Htext92                                   text92       000000
__Htext93                                   text93       000000
__Htext94                                   text94       000000
__Htext95                                   text95       000000
__Htext97                                   text97       000000
__Htext98                                   text98       000000
__Htext99                                   text99       000000
__LRAM                                      (abs)        000001
__Labs1                                     abs1         000000
__Lbank0                                    bank0        000000
__Lbank1                                    bank1        000000
__Lbank10                                   bank10       000000
__Lbank11                                   bank11       000000
__Lbank12                                   bank12       000000
__Lbank13                                   bank13       000000
__Lbank14                                   bank14       000000
__Lbank15                                   bank15       000000
__Lbank2                                    bank2        000000
__Lbank3                                    bank3        000000
__Lbank4                                    bank4        000000
__Lbank5                                    bank5        000000
__Lbank6                                    bank6        000000
__Lbank7                                    bank7        000000
__Lbank8                                    bank8        000000
__Lbank9                                    bank9        000000
__Lbigbss                                   bigbss       000000
__Lbigdata                                  bigdata      000000
__Lbigram                                   bigram       000000
__Lbss                                      bss          000000
__LbssBANK1                                 bssBANK1     000000
__LbssBANK10                                bssBANK10    000000
__LbssBANK4                                 bssBANK4     000000
__LbssBANK5                                 bssBANK5     000000
__LbssBANK6                                 bssBANK6     000000
__LbssBANK7                                 bssBANK7     000000
__LbssBANK8                                 bssBANK8     000000
__LbssBANK9                                 bssBANK9     000000
__LbssBIGRAM                                bssBIGRAM    000000
__LbssCOMRAM                                bssCOMRAM    000000
__Lcinit                                    cinit        000000
__Lclrtext                                  clrtext      000000
__Lcomram                                   comram       000000
__Lconfig                                   config       300000
__Lconst                                    const        000000
__LcstackBANK0                              cstackBANK0  000000
__LcstackBANK1                              cstackBANK1  000000
__LcstackBANK11                             cstackBANK11 000000
__LcstackBANK2                              cstackBANK2  000000
__LcstackBANK3                              cstackBANK3  000000
__LcstackBANK6                              cstackBANK6  000000
__LcstackCOMRAM                             cstackCOMRAM 000000
__Ldata                                     data         000000
__LdataBANK1                                dataBANK1    000000
__LdataBANK3                                dataBANK3    000000
__LdataBANK4                                dataBANK4    000000
__LdataBANK5                                dataBANK5    000000
__LdataBANK6                                dataBANK6    000000
__LdataCOMRAM                               dataCOMRAM   000000
__Leeprom_data                              eeprom_data  000000
__Lend_init                                 end_init     000412
__Lfarbss                                   farbss       000000
__Lfardata                                  fardata      000000
__Libigdata                                 ibigdata     000000
__Lidata                                    idata        000000
__LidataBANK1                               idataBANK1   000000
__LidataBANK3                               idataBANK3   000000
__LidataBANK4                               idataBANK4   000000
__LidataBANK5                               idataBANK5   000000
__LidataBANK6                               idataBANK6   000000
__LidataCOMRAM                              idataCOMRAM  000000
__Lidloc                                    idloc        000000
__Lifardata                                 ifardata     000000
__Linit                                     init         000412
__Lintcode                                  intcode      000008
__Lintcode_body                             intcode_body 000000
__Lintcodelo                                intcodelo    000018
__Lintentry                                 intentry     000000
__Lintret                                   intret       000000
__Lintsave_regs                             intsave_regs 000000
__Lirdata                                   irdata       000000
__Lmediumconst                              mediumconst  00FBE6
__LnvFARRAM                                 nvFARRAM     000000
__Lnvbit                                    nvbit        000000
__Lnvrram                                   nvrram       000000
__Lparam                                    rparam       000000
__Lpowerup                                  powerup      000412
__Lram                                      ram          000000
__Lramtop                                   ramtop       001000
__Lrbit                                     rbit         000000
__Lrbss                                     rbss         000000
__Lrdata                                    rdata        000000
__Lreset_vec                                reset_vec    000000
__Lrparam                                   rparam       000000
__Lsfr                                      sfr          000000
__Lsmallconst                               smallconst   000000
__Lspace_0                                  (abs)        000000
__Lspace_1                                  (abs)        000000
__Lspace_2                                  (abs)        000000
__Lstack                                    stack        000000
__Lstruct                                   struct       000000
__Ltemp                                     temp         00007D
__Ltext                                     text         000000
__Ltext0                                    text0        000000
__Ltext1                                    text1        000000
__Ltext10                                   text10       000000
__Ltext100                                  text100      000000
__Ltext101                                  text101      000000
__Ltext102                                  text102      000000
__Ltext103                                  text103      000000
__Ltext104                                  text104      000000
__Ltext105                                  text105      000000
__Ltext106                                  text106      000000
__Ltext107                                  text107      000000
__Ltext108                                  text108      000000
__Ltext109                                  text109      000000
__Ltext11                                   text11       000000
__Ltext110                                  text110      000000
__Ltext111                                  text111      000000
__Ltext112                                  text112      000000
__Ltext113                                  text113      000000
__Ltext114                                  text114      000000
__Ltext115                                  text115      000000
__Ltext116                                  text116      000000
__Ltext117                                  text117      000000
__Ltext118                                  text118      000000
__Ltext119                                  text119      000000
__Ltext12                                   text12       000000
__Ltext120                                  text120      000000
__Ltext121                                  text121      000000
__Ltext122                                  text122      000000
__Ltext123                                  text123      000000
__Ltext124                                  text124      000000
__Ltext125                                  text125      000000
__Ltext126                                  text126      000000
__Ltext127                                  text127      000000
__Ltext128                                  text128      000000
__Ltext129                                  text129      000000
__Ltext13                                   text13       000000
__Ltext130                                  text130      000000
__Ltext131                                  text131      000000
__Ltext132                                  text132      000000
__Ltext133                                  text133      000000
__Ltext134                                  text134      000000
__Ltext135                                  text135      000000
__Ltext136                                  text136      000000
__Ltext137                                  text137      000000
__Ltext138                                  text138      000000
__Ltext139                                  text139      000000
__Ltext14                                   text14       000000
__Ltext140                                  text140      000000
__Ltext141                                  text141      000000
__Ltext142                                  text142      000000
__Ltext143                                  text143      000000
__Ltext144                                  text144      000000
__Ltext145                                  text145      000000
__Ltext147                                  text147      000000
__Ltext148                                  text148      000000
__Ltext149                                  text149      000000
__Ltext15                                   text15       000000
__Ltext150                                  text150      000000
__Ltext151                                  text151      000000
__Ltext152                                  text152      000000
__Ltext153                                  text153      000000
__Ltext154                                  text154      000000
__Ltext155                                  text155      000000
__Ltext156                                  text156      000000
__Ltext157                                  text157      000000
__Ltext158                                  text158      000000
__Ltext159                                  text159      000000
__Ltext16                                   text16       000000
__Ltext17                                   text17       000000
__Ltext18                                   text18       000000
__Ltext19                                   text19       000000
__Ltext2                                    text2        000000
__Ltext20                                   text20       000000
__Ltext21                                   text21       000000
__Ltext22                                   text22       000000
__Ltext23                                   text23       000000
__Ltext24                                   text24       000000
__Ltext25                                   text25       000000
__Ltext26                                   text26       000000
__Ltext27                                   text27       000000
__Ltext28                                   text28       000000
__Ltext29                                   text29       000000
__Ltext3                                    text3        000000
__Ltext30                                   text30       000000
__Ltext31                                   text31       000000
__Ltext32                                   text32       000000
__Ltext33                                   text33       000000
__Ltext34                                   text34       000000
__Ltext35                                   text35       000000
__Ltext36                                   text36       000000
__Ltext37                                   text37       000000
__Ltext38                                   text38       000000
__Ltext39                                   text39       000000
__Ltext4                                    text4        000000
__Ltext40                                   text40       000000
__Ltext41                                   text41       000000
__Ltext42                                   text42       000000
__Ltext43                                   text43       000000
__Ltext44                                   text44       000000
__Ltext45                                   text45       000000
__Ltext46                                   text46       000000
__Ltext47                                   text47       000000
__Ltext48                                   text48       000000
__Ltext49                                   text49       000000
__Ltext5                                    text5        000000
__Ltext50                                   text50       000000
__Ltext51                                   text51       000000
__Ltext52                                   text52       000000
__Ltext53                                   text53       000000
__Ltext54                                   text54       000000
__Ltext55                                   text55       000000
__Ltext56                                   text56       000000
__Ltext57                                   text57       000000
__Ltext58                                   text58       000000
__Ltext59                                   text59       000000
__Ltext6                                    text6        000000
__Ltext60                                   text60       000000
__Ltext61                                   text61       000000
__Ltext62                                   text62       000000
__Ltext63                                   text63       000000
__Ltext64                                   text64       000000
__Ltext65                                   text65       000000
__Ltext66                                   text66       000000
__Ltext67                                   text67       000000
__Ltext68                                   text68       000000
__Ltext69                                   text69       000000
__Ltext7                                    text7        000000
__Ltext70                                   text70       000000
__Ltext71                                   text71       000000
__Ltext72                                   text72       000000
__Ltext73                                   text73       000000
__Ltext74                                   text74       000000
__Ltext75                                   text75       000000
__Ltext76                                   text76       000000
__Ltext77                                   text77       000000
__Ltext78                                   text78       000000
__Ltext79                                   text79       000000
__Ltext8                                    text8        000000
__Ltext80                                   text80       000000
__Ltext81                                   text81       000000
__Ltext82                                   text82       000000
__Ltext83                                   text83       000000
__Ltext84                                   text84       000000
__Ltext85                                   text85       000000
__Ltext86                                   text86       000000
__Ltext87                                   text87       000000
__Ltext88                                   text88       000000
__Ltext89                                   text89       000000
__Ltext9                                    text9        000000
__Ltext90                                   text90       000000
__Ltext91                                   text91       000000
__Ltext92                                   text92       000000
__Ltext93                                   text93       000000
__Ltext94                                   text94       000000
__Ltext95                                   text95       000000
__Ltext97                                   text97       000000
__Ltext98                                   text98       000000
__Ltext99                                   text99       000000
__S0                                        (abs)        30000E
__S1                                        (abs)        000D5E
__S2                                        (abs)        000000
___aldiv                                    text85       00A6C8
___aldiv@counter                            cstackBANK1  00014A
___aldiv@dividend                           cstackBANK1  000142
___aldiv@divisor                            cstackBANK1  000146
___aldiv@quotient                           cstackBANK1  00014C
___aldiv@sign                               cstackBANK1  00014B
___almod                                    text84       00B00C
___almod@counter                            cstackBANK1  00014A
___almod@dividend                           cstackBANK1  000142
___almod@divisor                            cstackBANK1  000146
___almod@sign                               cstackBANK1  00014B
___awdiv                                    text66       00B854
___awdiv@counter                            cstackBANK1  00014C
___awdiv@dividend                           cstackBANK1  000148
___awdiv@divisor                            cstackBANK1  00014A
___awdiv@quotient                           cstackBANK1  00014E
___awdiv@sign                               cstackBANK1  00014D
___awmod                                    text38       00C018
___awmod@counter                            cstackBANK1  000154
___awmod@dividend                           cstackBANK1  000150
___awmod@divisor                            cstackBANK1  000152
___awmod@sign                               cstackBANK1  000155
___inthi_sp                                 stack        000000
___intlo_sp                                 stack        000000
___lbdiv                                    text9        00CAB2
___lbdiv@counter                            cstackBANK1  000144
___lbdiv@dividend                           cstackBANK1  000143
___lbdiv@divisor                            cstackBANK1  000142
___lbdiv@quotient                           cstackBANK1  000145
___lldiv                                    text26       00B9D0
___lldiv@counter                            cstackBANK1  00014E
___lldiv@dividend                           cstackBANK1  000142
___lldiv@divisor                            cstackBANK1  000146
___lldiv@quotient                           cstackBANK1  00014A
___llmod                                    text25       00C1FC
___llmod@counter                            cstackBANK1  00014A
___llmod@dividend                           cstackBANK1  000142
___llmod@divisor                            cstackBANK1  000146
___lmul                                     text88       00C644
___lmul@multiplicand                        cstackBANK1  000146
___lmul@multiplier                          cstackBANK1  000142
___lmul@product                             cstackBANK1  00014A
___lwdiv                                    text81       00C5CC
___lwdiv@counter                            cstackBANK1  000146
___lwdiv@dividend                           cstackBANK1  000142
___lwdiv@divisor                            cstackBANK1  000144
___lwdiv@quotient                           cstackBANK1  000147
___lwmod                                    text80       00C874
___lwmod@counter                            cstackBANK1  000146
___lwmod@dividend                           cstackBANK1  000142
___lwmod@divisor                            cstackBANK1  000144
___param_bank                               (abs)        000010
___rparam_used                              (abs)        000001
___sp                                       stack        000000
___wmul                                     text37       00D21C
___wmul@multiplicand                        cstackBANK1  000144
___wmul@multiplier                          cstackBANK1  000142
___wmul@product                             cstackBANK1  000146
__accesstop                                 (abs)        000080
__activetblptr                              (abs)        000002
__end_of_AddByteToUSARTbuff                 text158      00AA16
__end_of_BCD_to_DEC                         text117      00D6A4
__end_of_CalculateClockDelta                text143      00A0D4
__end_of_CheckoutRegisterOfSymbol           text68       00674A
__end_of_CleanStringArray                   text92       00D0A8
__end_of_ConvKeyNum                         text145      00BED0
__end_of_ConvertCharToNumeric               text138      00C7A4
__end_of_ConvertDayToBit                    text18       00CBBE
__end_of_DEC_to_BCD                         text31       00CC10
__end_of_DeleteDataOfCell                   text19       00CFE2
__end_of_EERD                               text95       00D574
__end_of_EEWR                               text75       00D288
__end_of_EditSchedule                       text15       003070
__end_of_EncodePhoneNumberToPDU             text50       00AC3C
__end_of_F_h                                intcode_body 009A3A
__end_of_F_l                                intcodelo    000412
__end_of_FillArrayFromEEPROM                text90       00CA54
__end_of_FillArrayFromEEPROM_interr         text156      00D1A4
__end_of_FillMinutes                        text93       00D5E2
__end_of_FillPhonebookCellFromEEPROM        text76       00BCB8
__end_of_FindCell                           text14       009F90
__end_of_FindIncommingData                  text48       00848A
__end_of_FindNextTimeStart                  text87       007FC8
__end_of_FindPhoneContactByNumber           text139      009718
__end_of_Format_EEPROM_Memory               text69       00B6D6
__end_of_GetDayOfWeek                       text86       00C1FC
__end_of_GetDayOfWeekByDate                 text36       00AE24
__end_of_GetNumericFromString               text137      00D6C2
__end_of_GetStringLength                    text49       00D328
__end_of_GetSystemInfo                      text77       005626
__end_of_GetTimeSource                      text94       00D4F8
__end_of_GetUnicodeSymbol                   text47       00181E
__end_of_I2CAck                             text116      00D7A4
__end_of_I2CInit                            text30       00D770
__end_of_I2CNak                             text115      00D79A
__end_of_I2CRead                            text114      00D684
__end_of_I2CRestart                         text113      00D7CC
__end_of_I2CSend                            text29       00D624
__end_of_I2CStart                           text28       00D7B4
__end_of_I2CStop                            text27       00D7AC
__end_of_Init_1wire                         text102      00CB68
__end_of_Init_GSM                           text40       0093B4
__end_of_Init_USART                         text43       00C4CE
__end_of_InputText                          text59       003B40
__end_of_InteractiveData_BlinkOFF           text67       00D026
__end_of_ItemsToIndicator                   text17       00C812
__end_of_NumericToHEXString                 text46       009E44
__end_of_NumericToString                    text82       008230
__end_of_OutputInteractiveData              text64       00B2CE
__end_of_OutputString                       text72       00A6C8
__end_of_OutputSystemMessage                text74       008B82
__end_of_ParseDataRecord                    text91       00B47A
__end_of_ParseTime                          text79       00C5CC
__end_of_PhonebookEdit                      text53       00629C
__end_of_ProcessIncommingUartData           text119      004EDA
__end_of_ProcessSystemMessageShowing        text118      00D70C
__end_of_RX_1wire                           text101      00CF5A
__end_of_ReIndTimeEdit                      text35       007534
__end_of_ReadDataOfCell                     text89       00BB48
__end_of_ReadDataOfCell_interr              text155      00C32C
__end_of_ReadTime                           text106      00C018
__end_of_Read_USART_SpeedNumber             text42       00D780
__end_of_RefreshSchedulerIndicator          text13       007AAE
__end_of_Save_USART_SpeedNumber             text39       00D6F4
__end_of_Scheduler                          text10       00AD30
__end_of_SchedulerNew                       text12       00AB2A
__end_of_Select_OK_NO                       text70       00CC62
__end_of_SendCommandToUSART                 text57       00D4CE
__end_of_SendSMS                            text44       006B4C
__end_of_SendSymbolToLCD                    text104      00AF18
__end_of_SetTimeSource                      text34       00D3C2
__end_of_Settings                           text20       009CF6
__end_of_ShowMenu                           text58       00893A
__end_of_ShowSchedulerMenu                  text11       00A5A2
__end_of_SignalsOnOff                       text149      0091CE
__end_of_StandardAnswer_BUSY                mediumconst  00FC98
__end_of_StandardAnswer_CLOCK               mediumconst  00FC52
__end_of_StandardAnswer_DTMF                mediumconst  00FC8D
__end_of_StandardAnswer_ERROR               mediumconst  00FC93
__end_of_StandardAnswer_INCCALL             mediumconst  00FC34
__end_of_StandardAnswer_NORMAL_POWER_DOWN   mediumconst  00FC64
__end_of_StandardAnswer_NO_ANSWER           mediumconst  00FC85
__end_of_StandardAnswer_NO_CARRIER          mediumconst  00FC7B
__end_of_StandardAnswer_NO_DIALTONE         mediumconst  00FC70
__end_of_StandardAnswer_OK                  mediumconst  00FC9B
__end_of_StandardAnswer_STAT                mediumconst  00FC10
__end_of_TX_1wire                           text100      00C996
__end_of_TelephoneCall                      text56       00B1EA
__end_of_TimeData_BlinkOFF                  text33       00CD56
__end_of_TimeData_INIT                      text32       008FCC
__end_of_TimeEdit                           text22       002524
__end_of_TimeToInd                          text8        0045E4
__end_of_USART_Speed_Choise                 text21       00D478
__end_of_UserDelay                          text41       00D166
__end_of_WorkingWithGSM                     text7        0098B0
__end_of_WriteArrayToEEPROM                 text55       00C874
__end_of_WriteDataOfCell                    text16       00C54E
__end_of_WritePhonebookCellToEEPROM         text54       00BC00
__end_of_WriteTime                          text24       007806
__end_of__CleanStringArray_interrupt        text136      00D128
__end_of__CleanStringArray_interrupt2       text159      00D4A4
__end_of__FindIncommingData_interrupt       text134      0086E4
__end_of__GetStringLength_interr            text135      00D35C
__end_of___aldiv                            text85       00A7E2
__end_of___almod                            text84       00B0FE
__end_of___awdiv                            text66       00B912
__end_of___awmod                            text38       00C0BA
__end_of___lbdiv                            text9        00CB0E
__end_of___lldiv                            text26       00BA8C
__end_of___llmod                            text25       00C296
__end_of___lmul                             text88       00C6BA
__end_of___lwdiv                            text81       00C644
__end_of___lwmod                            text80       00C8D6
__end_of___wmul                             text37       00D252
__end_of__getContainer_Clock_from_GSM       text132      00D44C
__end_of__getContainer_Incomming_Call_Data  text131      00D41E
__end_of__getContainer_Incomming_DTMF_Data  text130      00D3F0
__end_of__initialization                    cinit        009B98
__end_of__load_TXREG                        text148      00C446
__end_of__setInputTextProps                 text63       00722A
__end_of__setInputTextProps@F3601           mediumconst  00FC07
__end_of__setInputTextProps@F3603           mediumconst  00FBFD
__end_of_clrInd                             text71       00B3A8
__end_of_cp1251_to_unicode                  text45       00BF74
__end_of_delay                              text105      00D522
__end_of_entNum                             text23       00CDEA
__end_of_getLcdCodeOfChar                   text103      005C9E
__end_of_getNumChar                         text83       00BE20
__end_of_getSystemTimePoint                 text61       00D71E
__end_of_get_temp                           text99       009578
__end_of_lcd_init                           text3        00B54A
__end_of_lcd_off                            text4        00D760
__end_of_lcd_on                             text2        00D750
__end_of_lcd_send_byte                      text5        00CDA0
__end_of_lcd_send_initial_half_byte         text6        00D1E0
__end_of_main                               text0        007D52
__end_of_main2                              text1        006ED4
__end_of_setBlink                           text65       00B854
__end_of_setDigit                           text73       00A214
__end_of_strcat                             text78       00C936
__end_of_strcpy                             text52       00CE7E
__end_of_strlen                             text51       00CE34
__end_of_system_BlinkReset                  text62       00D644
__end_of_testTimePoint                      text60       00A346
__end_ofi1_CleanStringArray                 text133      00D0E8
__end_ofi1_EERD                             text142      00D59C
__end_ofi1_EEWR                             text129      00D2F4
__end_ofi1_FillArrayFromEEPROM              text141      00CAB2
__end_ofi1_FillPhonebookCellFromEEPROM      text140      00BD70
__end_ofi1_GetDayOfWeekByDate               text125      00B00C
__end_ofi1_I2CInit                          text112      00D790
__end_ofi1_I2CSend                          text111      00D664
__end_ofi1_I2CStart                         text110      00D7C4
__end_ofi1_I2CStop                          text109      00D7BC
__end_ofi1_OutputSystemMessage              text124      008DCA
__end_ofi1_SendCommandToUSART               text123      00D54C
__end_ofi1___aldiv                          text144      00A8FC
__end_ofi1___awdiv                          text128      00B9D0
__end_ofi1___awmod                          text127      00C15C
__end_ofi1___lmul                           text122      00C730
__end_ofi1___wmul                           text126      00D2BE
__end_ofi1_getSystemTimePoint               text108      00D730
__end_ofi1_lcd_send_byte                    text97       00CEC8
__end_ofi1_lcd_send_initial_half_byte       text98       00D21C
__end_ofi1_strcat                           text121      00C9F6
__end_ofi1_strcpy                           text120      00CF12
__end_ofi1_testTimePoint                    text107      00A478
__end_ofi2_ConvertDayToBit                  text154      00CD06
__end_ofi2_EERD                             text157      00D5C0
__end_ofi2_EEWR                             text153      00D390
__end_ofi2_FillMinutes                      text147      00D604
__end_ofi2___aldiv                          text152      00B616
__end_ofi2___lwdiv                          text151      00CCB4
__end_ofi2___lwmod                          text150      00D068
__getContainer_Clock_from_GSM               text132      00D41E
__getContainer_Incomming_Call_Data          text131      00D3F0
__getContainer_Incomming_DTMF_Data          text130      00D3C2
__initialization                            cinit        009A3A
__load_TXREG                                text148      00C3BA
__mediumconst                               mediumconst  00FBE6
__pbssBANK1                                 bssBANK1     000179
__pbssBANK10                                bssBANK10    000A00
__pbssBANK4                                 bssBANK4     0004BF
__pbssBANK5                                 bssBANK5     00058D
__pbssBANK6                                 bssBANK6     000600
__pbssBANK7                                 bssBANK7     000700
__pbssBANK8                                 bssBANK8     000800
__pbssBANK9                                 bssBANK9     000900
__pbssBIGRAM                                bssBIGRAM    000B5E
__pbssCOMRAM                                bssCOMRAM    000051
__pcinit                                    cinit        009A3A
__pcstackBANK0                              cstackBANK0  000080
__pcstackBANK1                              cstackBANK1  000100
__pcstackBANK11                             cstackBANK11 000B00
__pcstackBANK2                              cstackBANK2  000200
__pcstackBANK3                              cstackBANK3  000300
__pcstackBANK6                              cstackBANK6  000688
__pcstackCOMRAM                             cstackCOMRAM 000001
__pdataBANK1                                dataBANK1    0001A5
__pdataBANK3                                dataBANK3    0003EC
__pdataBANK4                                dataBANK4    000400
__pdataBANK5                                dataBANK5    000500
__pdataBANK6                                dataBANK6    000644
__pdataCOMRAM                               dataCOMRAM   00006D
__pidataBANK1                               idataBANK1   00D6C2
__pidataBANK3                               idataBANK3   00D7CC
__pidataBANK4                               idataBANK4   00B6D6
__pidataBANK5                               idataBANK5   00C32C
__pidataBANK6                               idataBANK6   00CF5A
__pidataCOMRAM                              idataCOMRAM  00D730
__pintcode                                  intcode      000008
__pintcode_body                             intcode_body 0098B0
__pintcodelo                                intcodelo    000018
__pmediumconst                              mediumconst  00FBE6
__ptext0                                    text0        007AAE
__ptext1                                    text1        006B4C
__ptext10                                   text10       00AC3C
__ptext100                                  text100      00C936
__ptext101                                  text101      00CF12
__ptext102                                  text102      00CB0E
__ptext103                                  text103      005626
__ptext104                                  text104      00AE24
__ptext105                                  text105      00D4F8
__ptext106                                  text106      00BF74
__ptext107                                  text107      00A346
__ptext108                                  text108      00D71E
__ptext109                                  text109      00D7B4
__ptext11                                   text11       00A478
__ptext110                                  text110      00D7BC
__ptext111                                  text111      00D644
__ptext112                                  text112      00D780
__ptext113                                  text113      00D7C4
__ptext114                                  text114      00D664
__ptext115                                  text115      00D790
__ptext116                                  text116      00D79A
__ptext117                                  text117      00D684
__ptext118                                  text118      00D6F4
__ptext119                                  text119      0045E4
__ptext12                                   text12       00AA16
__ptext120                                  text120      00CEC8
__ptext121                                  text121      00C996
__ptext122                                  text122      00C6BA
__ptext123                                  text123      00D522
__ptext124                                  text124      008B82
__ptext125                                  text125      00AF18
__ptext126                                  text126      00D288
__ptext127                                  text127      00C0BA
__ptext128                                  text128      00B912
__ptext129                                  text129      00D2BE
__ptext13                                   text13       007806
__ptext130                                  text130      00D3C2
__ptext131                                  text131      00D3F0
__ptext132                                  text132      00D41E
__ptext133                                  text133      00D0A8
__ptext134                                  text134      00848A
__ptext135                                  text135      00D328
__ptext136                                  text136      00D0E8
__ptext137                                  text137      00D6A4
__ptext138                                  text138      00C730
__ptext139                                  text139      009578
__ptext14                                   text14       009E44
__ptext140                                  text140      00BCB8
__ptext141                                  text141      00CA54
__ptext142                                  text142      00D574
__ptext143                                  text143      009F90
__ptext144                                  text144      00A7E2
__ptext145                                  text145      00BE20
__ptext147                                  text147      00D5E2
__ptext148                                  text148      00C3BA
__ptext149                                  text149      008FCC
__ptext15                                   text15       002524
__ptext150                                  text150      00D026
__ptext151                                  text151      00CC62
__ptext152                                  text152      00B54A
__ptext153                                  text153      00D35C
__ptext154                                  text154      00CCB4
__ptext155                                  text155      00C296
__ptext156                                  text156      00D166
__ptext157                                  text157      00D59C
__ptext158                                  text158      00A8FC
__ptext159                                  text159      00D478
__ptext16                                   text16       00C4CE
__ptext17                                   text17       00C7A4
__ptext18                                   text18       00CB68
__ptext19                                   text19       00CF9E
__ptext2                                    text2        00D740
__ptext20                                   text20       009BA6
__ptext21                                   text21       00D44C
__ptext22                                   text22       00181E
__ptext23                                   text23       00CDA0
__ptext24                                   text24       007534
__ptext25                                   text25       00C1FC
__ptext26                                   text26       00B9D0
__ptext27                                   text27       00D7A4
__ptext28                                   text28       00D7AC
__ptext29                                   text29       00D604
__ptext3                                    text3        00B47A
__ptext30                                   text30       00D760
__ptext31                                   text31       00CBBE
__ptext32                                   text32       008DCA
__ptext33                                   text33       00CD06
__ptext34                                   text34       00D390
__ptext35                                   text35       00722A
__ptext36                                   text36       00AD30
__ptext37                                   text37       00D21C
__ptext38                                   text38       00C018
__ptext39                                   text39       00D6DC
__ptext4                                    text4        00D750
__ptext40                                   text40       0091CE
__ptext41                                   text41       00D128
__ptext42                                   text42       00D770
__ptext43                                   text43       00C446
__ptext44                                   text44       00674A
__ptext45                                   text45       00BED0
__ptext46                                   text46       009CF6
__ptext47                                   text47       000416
__ptext48                                   text48       008230
__ptext49                                   text49       00D2F4
__ptext5                                    text5        00CD56
__ptext50                                   text50       00AB2A
__ptext51                                   text51       00CDEA
__ptext52                                   text52       00CE34
__ptext53                                   text53       005C9E
__ptext54                                   text54       00BB48
__ptext55                                   text55       00C812
__ptext56                                   text56       00B0FE
__ptext57                                   text57       00D4A4
__ptext58                                   text58       0086E4
__ptext59                                   text59       003070
__ptext6                                    text6        00D1A4
__ptext60                                   text60       00A214
__ptext61                                   text61       00D70C
__ptext62                                   text62       00D624
__ptext63                                   text63       006ED4
__ptext64                                   text64       00B1EA
__ptext65                                   text65       00B796
__ptext66                                   text66       00B854
__ptext67                                   text67       00CFE2
__ptext68                                   text68       00629C
__ptext69                                   text69       00B616
__ptext7                                    text7        009718
__ptext70                                   text70       00CC10
__ptext71                                   text71       00B2CE
__ptext72                                   text72       00A5A2
__ptext73                                   text73       00A0D4
__ptext74                                   text74       00893A
__ptext75                                   text75       00D252
__ptext76                                   text76       00BC00
__ptext77                                   text77       004EDA
__ptext78                                   text78       00C8D6
__ptext79                                   text79       00C54E
__ptext8                                    text8        003B40
__ptext80                                   text80       00C874
__ptext81                                   text81       00C5CC
__ptext82                                   text82       007FC8
__ptext83                                   text83       00BD70
__ptext84                                   text84       00B00C
__ptext85                                   text85       00A6C8
__ptext86                                   text86       00C15C
__ptext87                                   text87       007D52
__ptext88                                   text88       00C644
__ptext89                                   text89       00BA8C
__ptext9                                    text9        00CAB2
__ptext90                                   text90       00C9F6
__ptext91                                   text91       00B3A8
__ptext92                                   text92       00D068
__ptext93                                   text93       00D5C0
__ptext94                                   text94       00D4CE
__ptext95                                   text95       00D54C
__ptext97                                   text97       00CE7E
__ptext98                                   text98       00D1E0
__ptext99                                   text99       0093B4
__ramtop                                    ramtop       001000
__setInputTextProps                         text63       006ED4
__setInputTextProps@Aa                      cstackBANK2  000228
__setInputTextProps@F3601                   mediumconst  00FBFD
__setInputTextProps@F3603                   mediumconst  00FBE7
__setInputTextProps@F3605                   dataBANK4    0004A9
__setInputTextProps@F3607                   dataBANK4    00041B
__setInputTextProps@Lang                    cstackBANK2  000220
__setInputTextProps@_props                  cstackBANK1  000155
__setInputTextProps@i                       cstackBANK2  00022C
__setInputTextProps@i_2051                  cstackBANK2  00022D
__setInputTextProps@props                   cstackBANK2  00022E
__setInputTextProps@source_A                cstackBANK2  000216
__setInputTextProps@source_L                cstackBANK2  000200
__size_of_AddByteToUSARTbuff                (abs)        000000
__size_of_BCD_to_DEC                        (abs)        000000
__size_of_CalculateClockDelta               (abs)        000000
__size_of_CheckoutRegisterOfSymbol          (abs)        000000
__size_of_CleanStringArray                  (abs)        000000
__size_of_ConvKeyNum                        (abs)        000000
__size_of_ConvertCharToNumeric              (abs)        000000
__size_of_ConvertDayToBit                   (abs)        000000
__size_of_DEC_to_BCD                        (abs)        000000
__size_of_DeleteDataOfCell                  (abs)        000000
__size_of_EERD                              (abs)        000000
__size_of_EEWR                              (abs)        000000
__size_of_EditSchedule                      (abs)        000000
__size_of_EncodePhoneNumberToPDU            (abs)        000000
__size_of_F_h                               (abs)        000000
__size_of_F_l                               (abs)        000000
__size_of_FillArrayFromEEPROM               (abs)        000000
__size_of_FillArrayFromEEPROM_interr        (abs)        000000
__size_of_FillMinutes                       (abs)        000000
__size_of_FillPhonebookCellFromEEPROM       (abs)        000000
__size_of_FindCell                          (abs)        000000
__size_of_FindIncommingData                 (abs)        000000
__size_of_FindNextTimeStart                 (abs)        000000
__size_of_FindPhoneContactByNumber          (abs)        000000
__size_of_Format_EEPROM_Memory              (abs)        000000
__size_of_GetDayOfWeek                      (abs)        000000
__size_of_GetDayOfWeekByDate                (abs)        000000
__size_of_GetNumericFromString              (abs)        000000
__size_of_GetStringLength                   (abs)        000000
__size_of_GetSystemInfo                     (abs)        000000
__size_of_GetTimeSource                     (abs)        000000
__size_of_GetUnicodeSymbol                  (abs)        000000
__size_of_I2CAck                            (abs)        000000
__size_of_I2CInit                           (abs)        000000
__size_of_I2CNak                            (abs)        000000
__size_of_I2CRead                           (abs)        000000
__size_of_I2CRestart                        (abs)        000000
__size_of_I2CSend                           (abs)        000000
__size_of_I2CStart                          (abs)        000000
__size_of_I2CStop                           (abs)        000000
__size_of_Init_1wire                        (abs)        000000
__size_of_Init_GSM                          (abs)        000000
__size_of_Init_USART                        (abs)        000000
__size_of_InputText                         (abs)        000000
__size_of_InteractiveData_BlinkOFF          (abs)        000000
__size_of_ItemsToIndicator                  (abs)        000000
__size_of_NumericToHEXString                (abs)        000000
__size_of_NumericToString                   (abs)        000000
__size_of_OutputInteractiveData             (abs)        000000
__size_of_OutputString                      (abs)        000000
__size_of_OutputSystemMessage               (abs)        000000
__size_of_ParseDataRecord                   (abs)        000000
__size_of_ParseTime                         (abs)        000000
__size_of_PhonebookEdit                     (abs)        000000
__size_of_ProcessIncommingUartData          (abs)        000000
__size_of_ProcessSystemMessageShowing       (abs)        000000
__size_of_RX_1wire                          (abs)        000000
__size_of_ReIndTimeEdit                     (abs)        000000
__size_of_ReadDataOfCell                    (abs)        000000
__size_of_ReadDataOfCell_interr             (abs)        000000
__size_of_ReadTime                          (abs)        000000
__size_of_Read_USART_SpeedNumber            (abs)        000000
__size_of_RefreshSchedulerIndicator         (abs)        000000
__size_of_Save_USART_SpeedNumber            (abs)        000000
__size_of_Scheduler                         (abs)        000000
__size_of_SchedulerNew                      (abs)        000000
__size_of_Select_OK_NO                      (abs)        000000
__size_of_SendCommandToUSART                (abs)        000000
__size_of_SendSMS                           (abs)        000000
__size_of_SendSymbolToLCD                   (abs)        000000
__size_of_SetTimeSource                     (abs)        000000
__size_of_Settings                          (abs)        000000
__size_of_ShowMenu                          (abs)        000000
__size_of_ShowSchedulerMenu                 (abs)        000000
__size_of_SignalsOnOff                      (abs)        000000
__size_of_TX_1wire                          (abs)        000000
__size_of_TelephoneCall                     (abs)        000000
__size_of_TimeData_BlinkOFF                 (abs)        000000
__size_of_TimeData_INIT                     (abs)        000000
__size_of_TimeEdit                          (abs)        000000
__size_of_TimeToInd                         (abs)        000000
__size_of_USART_Speed_Choise                (abs)        000000
__size_of_UserDelay                         (abs)        000000
__size_of_WorkingWithGSM                    (abs)        000000
__size_of_WriteArrayToEEPROM                (abs)        000000
__size_of_WriteDataOfCell                   (abs)        000000
__size_of_WritePhonebookCellToEEPROM        (abs)        000000
__size_of_WriteTime                         (abs)        000000
__size_of__CleanStringArray_interrupt       (abs)        000000
__size_of__CleanStringArray_interrupt2      (abs)        000000
__size_of__FindIncommingData_interrupt      (abs)        000000
__size_of__GetStringLength_interr           (abs)        000000
__size_of___aldiv                           (abs)        000000
__size_of___almod                           (abs)        000000
__size_of___awdiv                           (abs)        000000
__size_of___awmod                           (abs)        000000
__size_of___lbdiv                           (abs)        000000
__size_of___lldiv                           (abs)        000000
__size_of___llmod                           (abs)        000000
__size_of___lmul                            (abs)        000000
__size_of___lwdiv                           (abs)        000000
__size_of___lwmod                           (abs)        000000
__size_of___wmul                            (abs)        000000
__size_of__getContainer_Clock_from_GSM      (abs)        000000
__size_of__getContainer_Incomming_Call_Data (abs)        000000
__size_of__getContainer_Incomming_DTMF_Data (abs)        000000
__size_of__load_TXREG                       (abs)        000000
__size_of__setInputTextProps                (abs)        000000
__size_of_clrInd                            (abs)        000000
__size_of_cp1251_to_unicode                 (abs)        000000
__size_of_delay                             (abs)        000000
__size_of_entNum                            (abs)        000000
__size_of_getLcdCodeOfChar                  (abs)        000000
__size_of_getNumChar                        (abs)        000000
__size_of_getSystemTimePoint                (abs)        000000
__size_of_get_temp                          (abs)        000000
__size_of_lcd_init                          (abs)        000000
__size_of_lcd_off                           (abs)        000000
__size_of_lcd_on                            (abs)        000000
__size_of_lcd_send_byte                     (abs)        000000
__size_of_lcd_send_initial_half_byte        (abs)        000000
__size_of_main                              (abs)        000000
__size_of_main2                             (abs)        000000
__size_of_setBlink                          (abs)        000000
__size_of_setDigit                          (abs)        000000
__size_of_strcat                            (abs)        000000
__size_of_strcpy                            (abs)        000000
__size_of_strlen                            (abs)        000000
__size_of_system_BlinkReset                 (abs)        000000
__size_of_testTimePoint                     (abs)        000000
__size_ofi1_CleanStringArray                (abs)        000000
__size_ofi1_EERD                            (abs)        000000
__size_ofi1_EEWR                            (abs)        000000
__size_ofi1_FillArrayFromEEPROM             (abs)        000000
__size_ofi1_FillPhonebookCellFromEEPROM     (abs)        000000
__size_ofi1_GetDayOfWeekByDate              (abs)        000000
__size_ofi1_I2CInit                         (abs)        000000
__size_ofi1_I2CSend                         (abs)        000000
__size_ofi1_I2CStart                        (abs)        000000
__size_ofi1_I2CStop                         (abs)        000000
__size_ofi1_OutputSystemMessage             (abs)        000000
__size_ofi1_SendCommandToUSART              (abs)        000000
__size_ofi1___aldiv                         (abs)        000000
__size_ofi1___awdiv                         (abs)        000000
__size_ofi1___awmod                         (abs)        000000
__size_ofi1___lmul                          (abs)        000000
__size_ofi1___wmul                          (abs)        000000
__size_ofi1_getSystemTimePoint              (abs)        000000
__size_ofi1_lcd_send_byte                   (abs)        000000
__size_ofi1_lcd_send_initial_half_byte      (abs)        000000
__size_ofi1_strcat                          (abs)        000000
__size_ofi1_strcpy                          (abs)        000000
__size_ofi1_testTimePoint                   (abs)        000000
__size_ofi2_ConvertDayToBit                 (abs)        000000
__size_ofi2_EERD                            (abs)        000000
__size_ofi2_EEWR                            (abs)        000000
__size_ofi2_FillMinutes                     (abs)        000000
__size_ofi2___aldiv                         (abs)        000000
__size_ofi2___lwdiv                         (abs)        000000
__size_ofi2___lwmod                         (abs)        000000
__smallconst                                smallconst   000000
__systemCounter                             bssBANK1     000189
_active_phone                               bssBANK5     0005ED
_buff_string_10                             bssBANK9     000900
_buff_string_11                             bssBANK10    000A00
_buff_string_8                              bssBANK7     000700
_buff_string_9                              bssBANK8     000800
_cDays                                      dataBANK1    0001BB
_cHours                                     bssCOMRAM    00006B
_cMinutes                                   bssCOMRAM    00006C
_cMonths                                    dataBANK1    0001BC
_cWeekDay                                   dataCOMRAM   00007C
_cYears                                     dataBANK1    0001BD
_clock_delta                                bssCOMRAM    000065
_clrInd                                     text71       00B2CE
_cp1251_to_unicode                          text45       00BED0
_current_showing                            bssBANK1     00019F
_delay                                      text105      00D4F8
_digits                                     bssBANK5     00058D
_digitsAtrib                                bssBANK5     0005AD
_digitsAtrib_system_message                 bssBANK5     0005CD
_digits_system_message                      bssBANK6     000624
_entNum                                     text23       00CDA0
_flags                                      bssBANK1     00018D
_getLcdCodeOfChar                           text103      005626
_getNumChar                                 text83       00BD70
_getSystemTimePoint                         text61       00D70C
_get_temp                                   text99       0093B4
_lastClock                                  bssCOMRAM    00005D
_lcd_init                                   text3        00B47A
_lcd_off                                    text4        00D750
_lcd_on                                     text2        00D740
_lcd_send_byte                              text5        00CD56
_lcd_send_initial_half_byte                 text6        00D1A4
_lcd_send_initial_half_byte$1557            cstackBANK1  000143
_main                                       text0        007AAE
_main$3179                                  cstackBANK3  0003E6
_main2                                      text1        006B4C
_setBlink                                   text65       00B796
_setDigit                                   text73       00A0D4
_setDigit$1241                              cstackBANK1  000147
_setDigit$1242                              cstackBANK1  000148
_strcat                                     text78       00C8D6
_strcpy                                     text52       00CE34
_strlen                                     text51       00CDEA
_system_BlinkReset                          text62       00D624
_temp_drob                                  bssBANK1     0001A0
_temperature                                bssBANK1     000196
_testTimePoint                              text60       00A214
btemp                                       temp         00007D
clrInd@line                                 cstackBANK1  000144
clrInd@symb                                 cstackBANK1  000145
cp1251_to_unicode@F3819                     dataBANK4    0004A0
cp1251_to_unicode@a                         cstackBANK1  000169
cp1251_to_unicode@dest                      cstackBANK1  00015E
cp1251_to_unicode@eof                       cstackBANK1  000162
cp1251_to_unicode@src                       cstackBANK1  000160
cp1251_to_unicode@t                         cstackBANK1  000164
delay@count                                 cstackBANK0  000080
delay@del                                   cstackBANK0  000082
drowText@F3562                              dataBANK5    000523
end_of_initialization                       cinit        009B98
entNum@KeyValue                             cstackBANK1  000144
entNum@borderDown                           cstackBANK1  000143
entNum@borderUp                             cstackBANK1  000142
getLcdCodeOfChar@dig                        cstackBANK0  000080
getNumChar@num                              cstackBANK1  000142
get_temp@init                               cstackBANK0  00009B
get_temp@sign                               cstackBANK0  00009A
get_temp@tClock                             cstackBANK0  000096
get_temp@temp1                              cstackBANK0  00009C
get_temp@temp2                              cstackBANK0  00009D
i1CleanStringArray@i                        cstackBANK0  000085
i1CleanStringArray@myArray                  cstackBANK0  000080
i1CleanStringArray@settingData              cstackBANK0  000084
i1CleanStringArray@size                     cstackBANK0  000082
i1EERD@EEDATA_BUP                           cstackBANK0  000083
i1EERD@INTCON_BUP                           cstackBANK0  000082
i1EERD@adress                               cstackBANK0  000080
i1EEWR@INTCON_BUP                           cstackBANK0  000083
i1EEWR@adress                               cstackBANK0  000080
i1EEWR@data                                 cstackBANK0  000082
i1FillArrayFromEEPROM@adress_start          cstackBANK0  000086
i1FillArrayFromEEPROM@container             cstackBANK0  000084
i1FillArrayFromEEPROM@i                     cstackBANK0  00008C
i1FillArrayFromEEPROM@quantity              cstackBANK0  000088
i1FillPhonebookCellFromEEPROM@adress_start  cstackBANK0  00008F
i1FillPhonebookCellFromEEPROM@container     cstackBANK0  00008D
i1GetDayOfWeekByDate@_day                   cstackBANK0  000095
i1GetDayOfWeekByDate@_mounth                cstackBANK0  000094
i1GetDayOfWeekByDate@_year                  cstackBANK0  00009B
i1GetDayOfWeekByDate@century_number         cstackBANK0  00009A
i1I2CSend@dat                               cstackBANK0  000081
i1OutputSystemMessage@i                     cstackBANK0  000087
i1OutputSystemMessage@l                     cstackBANK0  00008A
i1OutputSystemMessage@line                  cstackBANK0  00008B
i1OutputSystemMessage@position              cstackBANK0  000086
i1OutputSystemMessage@s                     cstackBANK0  000089
i1OutputSystemMessage@stringData            cstackBANK0  000080
i1OutputSystemMessage@symb                  cstackBANK0  00008C
i1SendCommandToUSART@command                cstackBANK0  000080
i1SendCommandToUSART@wait                   cstackBANK0  000082
i1_CleanStringArray                         text133      00D0A8
i1_EERD                                     text142      00D574
i1_EEWR                                     text129      00D2BE
i1_FillArrayFromEEPROM                      text141      00CA54
i1_FillPhonebookCellFromEEPROM              text140      00BCB8
i1_GetDayOfWeekByDate                       text125      00AF18
i1_I2CInit                                  text112      00D780
i1_I2CSend                                  text111      00D644
i1_I2CStart                                 text110      00D7BC
i1_I2CStop                                  text109      00D7B4
i1_OutputSystemMessage                      text124      008B82
i1_SendCommandToUSART                       text123      00D522
i1___aldiv                                  text144      00A7E2
i1___aldiv@counter                          cstackBANK0  000088
i1___aldiv@dividend                         cstackBANK0  000080
i1___aldiv@divisor                          cstackBANK0  000084
i1___aldiv@quotient                         cstackBANK0  00008A
i1___aldiv@sign                             cstackBANK0  000089
i1___awdiv                                  text128      00B912
i1___awdiv@counter                          cstackBANK0  00008A
i1___awdiv@dividend                         cstackBANK0  000086
i1___awdiv@divisor                          cstackBANK0  000088
i1___awdiv@quotient                         cstackBANK0  00008C
i1___awdiv@sign                             cstackBANK0  00008B
i1___awmod                                  text127      00C0BA
i1___awmod@counter                          cstackBANK0  000092
i1___awmod@dividend                         cstackBANK0  00008E
i1___awmod@divisor                          cstackBANK0  000090
i1___awmod@sign                             cstackBANK0  000093
i1___lmul                                   text122      00C6BA
i1___lmul@multiplicand                      cstackBANK0  0000A0
i1___lmul@multiplier                        cstackBANK0  00009C
i1___lmul@product                           cstackBANK0  0000A4
i1___wmul                                   text126      00D288
i1___wmul@multiplicand                      cstackBANK0  000082
i1___wmul@multiplier                        cstackBANK0  000080
i1___wmul@product                           cstackBANK0  000084
i1_getSystemTimePoint                       text108      00D71E
i1_lcd_send_byte                            text97       00CE7E
i1_lcd_send_initial_half_byte               text98       00D1E0
i1_lcd_send_initial_half_byte$1557          cstackBANK0  000081
i1_strcat                                   text121      00C996
i1_strcpy                                   text120      00CEC8
i1_testTimePoint                            text107      00A346
i1lcd_send_byte@data                        cstackBANK0  00008F
i1lcd_send_initial_half_byte@data           cstackBANK0  000080
i1strcat@cp                                 cstackBANK0  000084
i1strcat@from                               cstackBANK0  000082
i1strcat@to                                 cstackBANK0  000080
i1strcpy@cp                                 cstackBANK0  000084
i1strcpy@from                               cstackBANK0  000082
i1strcpy@to                                 cstackBANK0  000080
i1testTimePoint@_point                      cstackBANK0  000094
i1testTimePoint@point                       cstackBANK0  000084
i1testTimePoint@value                       cstackBANK0  000088
i2ConvertDayToBit@DayNumber                 cstackCOMRAM 000001
i2EERD@EEDATA_BUP                           cstackCOMRAM 000004
i2EERD@INTCON_BUP                           cstackCOMRAM 000003
i2EERD@adress                               cstackCOMRAM 000001
i2EEWR@INTCON_BUP                           cstackCOMRAM 000004
i2EEWR@adress                               cstackCOMRAM 000001
i2EEWR@data                                 cstackCOMRAM 000003
i2_ConvertDayToBit                          text154      00CCB4
i2_EERD                                     text157      00D59C
i2_EEWR                                     text153      00D35C
i2_FillMinutes                              text147      00D5E2
i2___aldiv                                  text152      00B54A
i2___aldiv@counter                          cstackCOMRAM 000009
i2___aldiv@dividend                         cstackCOMRAM 000001
i2___aldiv@divisor                          cstackCOMRAM 000005
i2___aldiv@quotient                         cstackCOMRAM 00000B
i2___aldiv@sign                             cstackCOMRAM 00000A
i2___lwdiv                                  text151      00CC62
i2___lwdiv@counter                          cstackCOMRAM 000007
i2___lwdiv@dividend                         cstackCOMRAM 000001
i2___lwdiv@divisor                          cstackCOMRAM 000003
i2___lwdiv@quotient                         cstackCOMRAM 000005
i2___lwmod                                  text150      00D026
i2___lwmod@counter                          cstackCOMRAM 000005
i2___lwmod@dividend                         cstackCOMRAM 000001
i2___lwmod@divisor                          cstackCOMRAM 000003
int$flags                                   temp         00007D
int_func                                    intcode_body 0098B0
intlevel0                                   text         000000
intlevel1                                   text         000000
intlevel2                                   text         000000
intlevel3                                   text         000000
lcd_init@INTCON_BUF                         cstackBANK1  000153
lcd_send_byte@data                          cstackBANK1  000151
lcd_send_initial_half_byte@data             cstackBANK1  000142
main2@F3782                                 dataBANK4    000423
main2@i                                     cstackBANK3  0003E4
main2@item                                  cstackBANK3  0003E5
main2@menu                                  cstackBANK3  0003DC
main@i                                      cstackBANK3  0003EB
main@i_1965                                 cstackBANK3  0003EA
setBlink@line                               cstackBANK1  000146
setBlink@symbol                             cstackBANK1  000142
setBlink@value                              cstackBANK1  000143
setDigit@data                               cstackBANK1  000144
setDigit@line                               cstackBANK1  00014B
setDigit@symbol                             cstackBANK1  000143
setDigit@value                              cstackBANK1  00014A
setDigit@value0                             cstackBANK1  000149
stackhi                                     (abs)        000F7F
stacklo                                     (abs)        000D5E
start                                       init         000412
start_initialization                        cinit        009A3A
strcat@cp                                   cstackBANK1  000149
strcat@from                                 cstackBANK1  000147
strcat@to                                   cstackBANK1  000145
strcpy@cp                                   cstackBANK1  000146
strcpy@from                                 cstackBANK1  000144
strcpy@to                                   cstackBANK1  000142
strlen@cp                                   cstackBANK1  000146
strlen@s                                    cstackBANK1  000142
system_BlinkReset@val                       cstackBANK1  000142
testSystemTimer@F3696                       dataBANK5    000534
testTimePoint@_point                        cstackBANK1  000156
testTimePoint@point                         cstackBANK1  000146
testTimePoint@value                         cstackBANK1  00014A


FUNCTION INFORMATION:

 *************** function _main *****************
 Defined at:
		line 2832 in file "prog.c"
 Parameters:    Size  Location     Type
		None
 Auto vars:     Size  Location     Type
  i               1  234[BANK3 ] unsigned char 
  i               1  235[BANK3 ] unsigned char 
 Return value:  Size  Location     Type
                  1    wreg      void 
 Registers used:
		wreg, fsr0l, fsr0h, fsr1l, fsr1h, fsr2l, fsr2h, status,2, status,0, tblptrl, tblptrh, tblptru, prodl, prodh, cstack
 Tracked objects:
		On entry : 
		On exit  : 
		Unchanged: 
 Data sizes:     COMRAM   BANK0   BANK1   BANK2   BANK3   BANK4   BANK5   BANK6   BANK7   BANK8   BANK9  BANK10  BANK11  BANK12  BANK13  BANK14  BANK15
      Params:         0       0       0       0       0       0       0       0       0       0       0       0       0       0       0       0       0
      Locals:         0       0       0       0       6       0       0       0       0       0       0       0       0       0       0       0       0
      Temps:          0       0       0       8       0       0       0       0       0       0       0       0       0       0       0       0       0
      Totals:         0       0       0       8       6       0       0       0       0       0       0       0       0       0       0       0       0
Total ram usage:       14 bytes
 Hardware stack levels required when called:   21
 This function calls:
		_CleanStringArray
		_EERD
		_GetTimeSource
		___lmul
		_clrInd
		_lcd_on
		_main2
 This function is called by:
		Startup code after reset
 This function uses a non-reentrant model


 *************** function _main2 *****************
 Defined at:
		line 3985 in file "prog.c"
 Parameters:    Size  Location     Type
		None
 Auto vars:     Size  Location     Type
  menu            8  220[BANK3 ] PTR unsigned char [4]
		 -> STR_89(10), STR_88(11), STR_87(12), STR_74(9), 
		 -> STR_73(10), STR_72(14), STR_71(15), STR_70(15), 
		 -> STR_69(15), STR_68(15), STR_67(6), STR_66(6), 
		 -> STR_65(6), STR_57(12), STR_56(8), STR_55(14), 
		 -> STR_54(9), STR_25(16), STR_24(8), STR_23(11), 
		 -> STR_22(9), STR_21(9), NULL(0), 
  item            1  229[BANK3 ] unsigned char 
  i               1  228[BANK3 ] unsigned char 
 Return value:  Size  Location     Type
                  1    wreg      void 
 Registers used:
		wreg, fsr0l, fsr0h, fsr1l, fsr1h, fsr2l, fsr2h, status,2, status,0, tblptrl, tblptrh, tblptru, prodl, prodh, cstack
 Tracked objects:
		On entry : 
		On exit  : 
		Unchanged: 
 Data sizes:     COMRAM   BANK0   BANK1   BANK2   BANK3   BANK4   BANK5   BANK6   BANK7   BANK8   BANK9  BANK10  BANK11  BANK12  BANK13  BANK14  BANK15
      Params:         0       0       0       0       0       0       0       0       0       0       0       0       0       0       0       0       0
      Locals:         0       0       0       0      10       0       0       0       0       0       0       0       0       0       0       0       0
      Temps:          0       0       1       0       0       0       0       0       0       0       0       0       0       0       0       0       0
      Totals:         0       0       1       0      10       0       0       0       0       0       0       0       0       0       0       0       0
Total ram usage:       11 bytes
 Hardware stack levels used:    1
 Hardware stack levels required when called:   20
 This function calls:
		_CleanStringArray
		_EERD
		_EEWR
		_FillMinutes
		_FindNextTimeStart
		_GetSystemInfo
		_Init_GSM
		_PhonebookEdit
		_Scheduler
		_SendSMS
		_Settings
		_ShowMenu
		_TimeToInd
		_UserDelay
		_WorkingWithGSM
		_clrInd
		_lcd_off
		_lcd_on
 This function is called by:
		_main
 This function uses a non-reentrant model


 *************** function _lcd_on *****************
 Defined at:
		line 1702 in file "prog.c"
 Parameters:    Size  Location     Type
		None
 Auto vars:     Size  Location     Type
		None
 Return value:  Size  Location     Type
                  1    wreg      void 
 Registers used:
		wreg, status,2, status,0, prodl, prodh, cstack
 Tracked objects:
		On entry : 
		On exit  : 
		Unchanged: 
 Data sizes:     COMRAM   BANK0   BANK1   BANK2   BANK3   BANK4   BANK5   BANK6   BANK7   BANK8   BANK9  BANK10  BANK11  BANK12  BANK13  BANK14  BANK15
      Params:         0       0       0       0       0       0       0       0       0       0       0       0       0       0       0       0       0
      Locals:         0       0       0       0       0       0       0       0       0       0       0       0       0       0       0       0       0
      Temps:          0       0       0       0       0       0       0       0       0       0       0       0       0       0       0       0       0
      Totals:         0       0       0       0       0       0       0       0       0       0       0       0       0       0       0       0       0
Total ram usage:        0 bytes
 Hardware stack levels used:    1
 Hardware stack levels required when called:   14
 This function calls:
		_lcd_init
		_lcd_send_byte
 This function is called by:
		_main
		_main2
 This function uses a non-reentrant model


 *************** function _lcd_init *****************
 Defined at:
		line 1709 in file "prog.c"
 Parameters:    Size  Location     Type
		None
 Auto vars:     Size  Location     Type
  INTCON_BUF      1   83[BANK1 ] unsigned char 
 Return value:  Size  Location     Type
                  1    wreg      void 
 Registers used:
		wreg, status,2, status,0, prodl, prodh, cstack
 Tracked objects:
		On entry : 
		On exit  : 
		Unchanged: 
 Data sizes:     COMRAM   BANK0   BANK1   BANK2   BANK3   BANK4   BANK5   BANK6   BANK7   BANK8   BANK9  BANK10  BANK11  BANK12  BANK13  BANK14  BANK15
      Params:         0       0       0       0       0       0       0       0       0       0       0       0       0       0       0       0       0
      Locals:         0       0       1       0       0       0       0       0       0       0       0       0       0       0       0       0       0
      Temps:          0       0       1       0       0       0       0       0       0       0       0       0       0       0       0       0       0
      Totals:         0       0       2       0       0       0       0       0       0       0       0       0       0       0       0       0       0
Total ram usage:        2 bytes
 Hardware stack levels used:    1
 Hardware stack levels required when called:   13
 This function calls:
		_lcd_send_byte
		_lcd_send_initial_half_byte
 This function is called by:
		_lcd_on
 This function uses a non-reentrant model


 *************** function _lcd_off *****************
 Defined at:
		line 1695 in file "prog.c"
 Parameters:    Size  Location     Type
		None
 Auto vars:     Size  Location     Type
		None
 Return value:  Size  Location     Type
                  1    wreg      void 
 Registers used:
		wreg, status,2, status,0, prodl, prodh, cstack
 Tracked objects:
		On entry : 
		On exit  : 
		Unchanged: 
 Data sizes:     COMRAM   BANK0   BANK1   BANK2   BANK3   BANK4   BANK5   BANK6   BANK7   BANK8   BANK9  BANK10  BANK11  BANK12  BANK13  BANK14  BANK15
      Params:         0       0       0       0       0       0       0       0       0       0       0       0       0       0       0       0       0
      Locals:         0       0       0       0       0       0       0       0       0       0       0       0       0       0       0       0       0
      Temps:          0       0       0       0       0       0       0       0       0       0       0       0       0       0       0       0       0
      Totals:         0       0       0       0       0       0       0       0       0       0       0       0       0       0       0       0       0
Total ram usage:        0 bytes
 Hardware stack levels used:    1
 Hardware stack levels required when called:   13
 This function calls:
		_lcd_send_byte
 This function is called by:
		_main2
 This function uses a non-reentrant model


 *************** function _lcd_send_byte *****************
 Defined at:
		line 1688 in file "prog.c"
 Parameters:    Size  Location     Type
  data            1    wreg     unsigned char 
 Auto vars:     Size  Location     Type
  data            1   81[BANK1 ] unsigned char 
 Return value:  Size  Location     Type
                  1    wreg      void 
 Registers used:
		wreg, status,2, status,0, prodl, prodh, cstack
 Tracked objects:
		On entry : 
		On exit  : 
		Unchanged: 
 Data sizes:     COMRAM   BANK0   BANK1   BANK2   BANK3   BANK4   BANK5   BANK6   BANK7   BANK8   BANK9  BANK10  BANK11  BANK12  BANK13  BANK14  BANK15
      Params:         0       0       0       0       0       0       0       0       0       0       0       0       0       0       0       0       0
      Locals:         0       0       1       0       0       0       0       0       0       0       0       0       0       0       0       0       0
      Temps:          0       0       1       0       0       0       0       0       0       0       0       0       0       0       0       0       0
      Totals:         0       0       2       0       0       0       0       0       0       0       0       0       0       0       0       0       0
Total ram usage:        2 bytes
 Hardware stack levels used:    1
 Hardware stack levels required when called:   12
 This function calls:
		___awdiv
		_lcd_send_initial_half_byte
 This function is called by:
		_lcd_off
		_lcd_on
		_lcd_init
 This function uses a non-reentrant model


 *************** function _lcd_send_initial_half_byte *****************
 Defined at:
		line 1681 in file "prog.c"
 Parameters:    Size  Location     Type
  data            1    wreg     unsigned char 
 Auto vars:     Size  Location     Type
  data            1   66[BANK1 ] unsigned char 
 Return value:  Size  Location     Type
                  1    wreg      void 
 Registers used:
		wreg, status,2, status,0, prodl, prodh
 Tracked objects:
		On entry : 
		On exit  : 
		Unchanged: 
 Data sizes:     COMRAM   BANK0   BANK1   BANK2   BANK3   BANK4   BANK5   BANK6   BANK7   BANK8   BANK9  BANK10  BANK11  BANK12  BANK13  BANK14  BANK15
      Params:         0       0       0       0       0       0       0       0       0       0       0       0       0       0       0       0       0
      Locals:         0       0       3       0       0       0       0       0       0       0       0       0       0       0       0       0       0
      Temps:          0       0       0       0       0       0       0       0       0       0       0       0       0       0       0       0       0
      Totals:         0       0       3       0       0       0       0       0       0       0       0       0       0       0       0       0       0
Total ram usage:        3 bytes
 Hardware stack levels used:    1
 Hardware stack levels required when called:   11
 This function calls:
		Nothing
 This function is called by:
		_lcd_send_byte
		_lcd_init
 This function uses a non-reentrant model


 *************** function _WorkingWithGSM *****************
 Defined at:
		line 3393 in file "prog.c"
 Parameters:    Size  Location     Type
		None
 Auto vars:     Size  Location     Type
  command         2  237[BANK2 ] PTR unsigned char 
		 -> InputText@ret_string(33), NULL(0), 
  speed           1  241[BANK2 ] unsigned char 
  i               1  242[BANK2 ] unsigned char 
  p               2  239[BANK2 ] PTR unsigned char 
		 -> buff_string_11(256), buff_string_10(256), buff_string_9(256), buff_string_8(256), 
  myOutputStri   33  204[BANK2 ] unsigned char [33]
 Return value:  Size  Location     Type
                  1    wreg      void 
 Registers used:
		wreg, fsr0l, fsr0h, fsr1l, fsr1h, fsr2l, fsr2h, status,2, status,0, tblptrl, tblptrh, tblptru, prodl, prodh, cstack
 Tracked objects:
		On entry : 
		On exit  : 
		Unchanged: 
 Data sizes:     COMRAM   BANK0   BANK1   BANK2   BANK3   BANK4   BANK5   BANK6   BANK7   BANK8   BANK9  BANK10  BANK11  BANK12  BANK13  BANK14  BANK15
      Params:         0       0       0       0       0       0       0       0       0       0       0       0       0       0       0       0       0
      Locals:         0       0       0      39       0       0       0       0       0       0       0       0       0       0       0       0       0
      Temps:          0       0       2       0       0       0       0       0       0       0       0       0       0       0       0       0       0
      Totals:         0       0       2      39       0       0       0       0       0       0       0       0       0       0       0       0       0
Total ram usage:       41 bytes
 Hardware stack levels used:    1
 Hardware stack levels required when called:   15
 This function calls:
		_Init_USART
		_InputText
		_OutputString
		_Save_USART_SpeedNumber
		_SendCommandToUSART
		_USART_Speed_Choise
		_clrInd
 This function is called by:
		_main2
 This function uses a non-reentrant model


 *************** function _TimeToInd *****************
 Defined at:
		line 1120 in file "prog.c"
 Parameters:    Size  Location     Type
		None
 Auto vars:     Size  Location     Type
  SignalOn        1  207[BANK2 ] unsigned char 
  d               1  210[BANK2 ] unsigned char 
  SignalOn        1  209[BANK2 ] unsigned char 
  i               1  233[BANK2 ] unsigned char 
  DataArrayOfL   13  164[BANK2 ] unsigned char [13]
  j2              2  236[BANK2 ] int 
  CellsNumber     1  235[BANK2 ] unsigned char 
  i               1  234[BANK2 ] unsigned char 
  tString         9  155[BANK2 ] unsigned char [9]
  ElapsedTime     4  203[BANK2 ] long 
  D               4  221[BANK2 ] unsigned char [4]
  DataArray      17  186[BANK2 ] unsigned char [17]
  CellsData       8  147[BANK2 ] unsigned char [8]
  Data            4  228[BANK2 ] unsigned long 
  Time            2  241[BANK2 ] unsigned int 
  TimeStop        2  239[BANK2 ] unsigned int 
  DataArray2      2  225[BANK2 ] PTR unsigned char 
		 -> STR_8(3), STR_7(3), STR_6(3), STR_5(3), 
		 -> STR_4(3), STR_3(3), STR_2(3), STR_1(3), 
  TimeStart       2  217[BANK2 ] unsigned int 
  Signals         1  232[BANK2 ] unsigned char 
  Day             1  227[BANK2 ] unsigned char 
  Days            1  220[BANK2 ] unsigned char 
  line            1  219[BANK2 ] unsigned char 
  TimeData        9  177[BANK2 ] unsigned char [9]
  temp            4  243[BANK2 ] long 
  SignalsFinal    1  238[BANK2 ] unsigned char 
  day             1  208[BANK2 ] unsigned char 
 Return value:  Size  Location     Type
                  1    wreg      void 
 Registers used:
		wreg, fsr0l, fsr0h, fsr1l, fsr1h, fsr2l, fsr2h, status,2, status,0, tblptrl, tblptrh, tblptru, prodl, prodh, cstack
 Tracked objects:
		On entry : 
		On exit  : 
		Unchanged: 
 Data sizes:     COMRAM   BANK0   BANK1   BANK2   BANK3   BANK4   BANK5   BANK6   BANK7   BANK8   BANK9  BANK10  BANK11  BANK12  BANK13  BANK14  BANK15
      Params:         0       0       0       0       0       0       0       0       0       0       0       0       0       0       0       0       0
      Locals:         0       0       0     100       0       0       0       0       0       0       0       0       0       0       0       0       0
      Temps:          0       0       0       4       0       0       0       0       0       0       0       0       0       0       0       0       0
      Totals:         0       0       0     104       0       0       0       0       0       0       0       0       0       0       0       0       0
Total ram usage:      104 bytes
 Hardware stack levels used:    1
 Hardware stack levels required when called:   19
 This function calls:
		_FindNextTimeStart
		_GetDayOfWeek
		_NumericToString
		_OutputString
		_ParseDataRecord
		_ParseTime
		_ReadDataOfCell
		_Scheduler
		___aldiv
		___almod
		___awmod
		___lbdiv
		___lwdiv
		___lwmod
		_clrInd
		_getNumChar
		_strcpy
 This function is called by:
		_main2
 This function uses a non-reentrant model


 *************** function ___lbdiv *****************
 Defined at:
		line 4 in file "/opt/microchip/xc8/v1.37/sources/common/lbdiv.c"
 Parameters:    Size  Location     Type
  dividend        1    wreg     unsigned char 
  divisor         1   66[BANK1 ] unsigned char 
 Auto vars:     Size  Location     Type
  dividend        1   67[BANK1 ] unsigned char 
  quotient        1   69[BANK1 ] unsigned char 
  counter         1   68[BANK1 ] unsigned char 
 Return value:  Size  Location     Type
                  1    wreg      unsigned char 
 Registers used:
		wreg, status,2, status,0
 Tracked objects:
		On entry : 
		On exit  : 
		Unchanged: 
 Data sizes:     COMRAM   BANK0   BANK1   BANK2   BANK3   BANK4   BANK5   BANK6   BANK7   BANK8   BANK9  BANK10  BANK11  BANK12  BANK13  BANK14  BANK15
      Params:         0       0       1       0       0       0       0       0       0       0       0       0       0       0       0       0       0
      Locals:         0       0       3       0       0       0       0       0       0       0       0       0       0       0       0       0       0
      Temps:          0       0       0       0       0       0       0       0       0       0       0       0       0       0       0       0       0
      Totals:         0       0       4       0       0       0       0       0       0       0       0       0       0       0       0       0       0
Total ram usage:        4 bytes
 Hardware stack levels used:    1
 Hardware stack levels required when called:   11
 This function calls:
		Nothing
 This function is called by:
		_TimeToInd
 This function uses a non-reentrant model


 *************** function _Scheduler *****************
 Defined at:
		line 2202 in file "prog.c"
 Parameters:    Size  Location     Type
  StartFrom       2  141[BANK2 ] unsigned int 
 Auto vars:     Size  Location     Type
		None
 Return value:  Size  Location     Type
                  1    wreg      void 
 Registers used:
		wreg, fsr0l, fsr0h, fsr1l, fsr1h, fsr2l, fsr2h, status,2, status,0, tblptrl, tblptrh, tblptru, prodl, prodh, cstack
 Tracked objects:
		On entry : 
		On exit  : 
		Unchanged: 
 Data sizes:     COMRAM   BANK0   BANK1   BANK2   BANK3   BANK4   BANK5   BANK6   BANK7   BANK8   BANK9  BANK10  BANK11  BANK12  BANK13  BANK14  BANK15
      Params:         0       0       0       2       0       0       0       0       0       0       0       0       0       0       0       0       0
      Locals:         0       0       0       0       0       0       0       0       0       0       0       0       0       0       0       0       0
      Temps:          0       0       0       0       0       0       0       0       0       0       0       0       0       0       0       0       0
      Totals:         0       0       0       2       0       0       0       0       0       0       0       0       0       0       0       0       0
Total ram usage:        2 bytes
 Hardware stack levels used:    1
 Hardware stack levels required when called:   18
 This function calls:
		_FindCell
		_RefreshSchedulerIndicator
		_ShowSchedulerMenu
		_clrInd
 This function is called by:
		_TimeToInd
		_main2
 This function uses a non-reentrant model


 *************** function _ShowSchedulerMenu *****************
 Defined at:
		line 2172 in file "prog.c"
 Parameters:    Size  Location     Type
  NumberOfCell    2  126[BANK2 ] unsigned int 
 Auto vars:     Size  Location     Type
  menu           12  128[BANK2 ] PTR unsigned char [6]
		 -> STR_89(10), STR_88(11), STR_87(12), STR_74(9), 
		 -> STR_73(10), STR_72(14), STR_71(15), STR_70(15), 
		 -> STR_69(15), STR_68(15), STR_67(6), STR_66(6), 
		 -> STR_65(6), STR_57(12), STR_56(8), STR_55(14), 
		 -> STR_54(9), STR_25(16), STR_24(8), STR_23(11), 
		 -> STR_22(9), STR_21(9), NULL(0), 
  item            1  140[BANK2 ] unsigned char 
 Return value:  Size  Location     Type
                  1    wreg      void 
 Registers used:
		wreg, fsr0l, fsr0h, fsr1l, fsr1h, fsr2l, fsr2h, status,2, status,0, tblptrl, tblptrh, tblptru, prodl, prodh, cstack
 Tracked objects:
		On entry : 
		On exit  : 
		Unchanged: 
 Data sizes:     COMRAM   BANK0   BANK1   BANK2   BANK3   BANK4   BANK5   BANK6   BANK7   BANK8   BANK9  BANK10  BANK11  BANK12  BANK13  BANK14  BANK15
      Params:         0       0       0       2       0       0       0       0       0       0       0       0       0       0       0       0       0
      Locals:         0       0       0      13       0       0       0       0       0       0       0       0       0       0       0       0       0
      Temps:          0       0       0       0       0       0       0       0       0       0       0       0       0       0       0       0       0
      Totals:         0       0       0      15       0       0       0       0       0       0       0       0       0       0       0       0       0
Total ram usage:       15 bytes
 Hardware stack levels used:    1
 Hardware stack levels required when called:   17
 This function calls:
		_DeleteDataOfCell
		_EditSchedule
		_Format_EEPROM_Memory
		_OutputSystemMessage
		_SchedulerNew
		_Select_OK_NO
		_ShowMenu
		_clrInd
 This function is called by:
		_Scheduler
 This function uses a non-reentrant model


 *************** function _SchedulerNew *****************
 Defined at:
		line 2232 in file "prog.c"
 Parameters:    Size  Location     Type
  SourceOfReco    2  124[BANK2 ] unsigned int 
 Auto vars:     Size  Location     Type
		None
 Return value:  Size  Location     Type
                  1    wreg      void 
 Registers used:
		wreg, fsr0l, fsr0h, fsr1l, fsr1h, fsr2l, fsr2h, status,2, status,0, tblptrl, tblptrh, tblptru, prodl, prodh, cstack
 Tracked objects:
		On entry : 
		On exit  : 
		Unchanged: 
 Data sizes:     COMRAM   BANK0   BANK1   BANK2   BANK3   BANK4   BANK5   BANK6   BANK7   BANK8   BANK9  BANK10  BANK11  BANK12  BANK13  BANK14  BANK15
      Params:         0       0       0       2       0       0       0       0       0       0       0       0       0       0       0       0       0
      Locals:         0       0       0       0       0       0       0       0       0       0       0       0       0       0       0       0       0
      Temps:          0       0       0       0       0       0       0       0       0       0       0       0       0       0       0       0       0
      Totals:         0       0       0       2       0       0       0       0       0       0       0       0       0       0       0       0       0
Total ram usage:        2 bytes
 Hardware stack levels used:    1
 Hardware stack levels required when called:   16
 This function calls:
		_EditSchedule
		_FindCell
		_RefreshSchedulerIndicator
		_clrInd
 This function is called by:
		_ShowSchedulerMenu
 This function uses a non-reentrant model


 *************** function _RefreshSchedulerIndicator *****************
 Defined at:
		line 1814 in file "prog.c"
 Parameters:    Size  Location     Type
  adress          2  102[BANK1 ] unsigned int 
  New             1  104[BANK1 ] unsigned char 
  CopyFrom        2  105[BANK1 ] unsigned int 
 Auto vars:     Size  Location     Type
  num             3   31[BANK2 ] unsigned char [3]
  num             3   28[BANK2 ] unsigned char [3]
  i               1   43[BANK2 ] unsigned char 
  CellsData       8   20[BANK2 ] unsigned char [8]
  Data            4   36[BANK2 ] unsigned long 
  cell            2   41[BANK2 ] unsigned int 
  CellIsEmpty     1   40[BANK2 ] unsigned char 
 Return value:  Size  Location     Type
                  2  102[BANK1 ] unsigned int 
 Registers used:
		wreg, fsr0l, fsr0h, fsr2l, fsr2h, status,2, status,0, tblptrl, tblptrh, tblptru, prodl, prodh, cstack
 Tracked objects:
		On entry : 
		On exit  : 
		Unchanged: 
 Data sizes:     COMRAM   BANK0   BANK1   BANK2   BANK3   BANK4   BANK5   BANK6   BANK7   BANK8   BANK9  BANK10  BANK11  BANK12  BANK13  BANK14  BANK15
      Params:         0       0       5       0       0       0       0       0       0       0       0       0       0       0       0       0       0
      Locals:         0       0       0      24       0       0       0       0       0       0       0       0       0       0       0       0       0
      Temps:          0       0       2       0       0       0       0       0       0       0       0       0       0       0       0       0       0
      Totals:         0       0       7      24       0       0       0       0       0       0       0       0       0       0       0       0       0
Total ram usage:       31 bytes
 Hardware stack levels used:    1
 Hardware stack levels required when called:   15
 This function calls:
		_FindCell
		_NumericToString
		_OutputString
		_ReadDataOfCell
 This function is called by:
		_Scheduler
		_SchedulerNew
 This function uses a non-reentrant model


 *************** function _FindCell *****************
 Defined at:
		line 1781 in file "prog.c"
 Parameters:    Size  Location     Type
  adressStart     2   96[BANK1 ] unsigned int 
  New             1   98[BANK1 ] unsigned char 
  previous        2   99[BANK1 ] unsigned int 
 Auto vars:     Size  Location     Type
  i               1   17[BANK2 ] unsigned char 
  CellsData       8    0[BANK2 ] unsigned char [8]
  Data            4   12[BANK2 ] unsigned long 
  CellIsEmpty     1   16[BANK2 ] unsigned char 
  adress          2   18[BANK2 ] unsigned int 
  adressNew       2    8[BANK2 ] unsigned int 
 Return value:  Size  Location     Type
                  2   96[BANK1 ] unsigned int 
 Registers used:
		wreg, fsr2l, fsr2h, status,2, status,0, prodl, prodh, cstack
 Tracked objects:
		On entry : 
		On exit  : 
		Unchanged: 
 Data sizes:     COMRAM   BANK0   BANK1   BANK2   BANK3   BANK4   BANK5   BANK6   BANK7   BANK8   BANK9  BANK10  BANK11  BANK12  BANK13  BANK14  BANK15
      Params:         0       0       5       0       0       0       0       0       0       0       0       0       0       0       0       0       0
      Locals:         0       0       0      20       0       0       0       0       0       0       0       0       0       0       0       0       0
      Temps:          0       0       1       0       0       0       0       0       0       0       0       0       0       0       0       0       0
      Totals:         0       0       6      20       0       0       0       0       0       0       0       0       0       0       0       0       0
Total ram usage:       26 bytes
 Hardware stack levels used:    1
 Hardware stack levels required when called:   14
 This function calls:
		_ReadDataOfCell
 This function is called by:
		_RefreshSchedulerIndicator
		_Scheduler
		_SchedulerNew
 This function uses a non-reentrant model


 *************** function _EditSchedule *****************
 Defined at:
		line 1940 in file "prog.c"
 Parameters:    Size  Location     Type
  adress          2   96[BANK1 ] unsigned int 
  SourceOfReco    2   98[BANK1 ] unsigned int 
 Auto vars:     Size  Location     Type
  j               1  112[BANK2 ] unsigned char 
  f               1  113[BANK2 ] unsigned char 
  ML              1   36[BANK2 ] unsigned char 
  MH              1   35[BANK2 ] unsigned char 
  HL              1   34[BANK2 ] unsigned char 
  HH              1   33[BANK2 ] unsigned char 
  j               1   57[BANK2 ] unsigned char 
  T               4   37[BANK2 ] unsigned int [2]
  OK              1  106[BANK2 ] unsigned char 
  i               1  111[BANK2 ] unsigned char 
  blinking        1  119[BANK2 ] unsigned char 
  i               1  110[BANK2 ] unsigned char 
  temp            2  122[BANK2 ] unsigned int 
  i               1  120[BANK2 ] unsigned char 
  _times         44   62[BANK2 ] struct .[11]
  TimesOutput    22    0[BANK2 ] PTR struct .[11]
		 -> InputText@_input_data(132), EditSchedule@_times(44), 
  Times          16   41[BANK2 ] PTR struct .[8]
		 -> InputText@_input_data(132), EditSchedule@_times(44), 
  CellsData       8   22[BANK2 ] unsigned char [8]
  Data            4  114[BANK2 ] unsigned long 
  TimeStop        2   60[BANK2 ] unsigned int 
  TimeStart       2   58[BANK2 ] unsigned int 
  TargetAdress    2   30[BANK2 ] unsigned int 
  i               1  121[BANK2 ] unsigned char 
  key             1  118[BANK2 ] unsigned char 
  mode            1  109[BANK2 ] unsigned char 
  Signals         1  108[BANK2 ] unsigned char 
  Days            1  107[BANK2 ] unsigned char 
  BeginEditTim    1   32[BANK2 ] unsigned char 
 Return value:  Size  Location     Type
                  1    wreg      unsigned char 
 Registers used:
		wreg, fsr0l, fsr0h, fsr1l, fsr1h, fsr2l, fsr2h, status,2, status,0, prodl, prodh, cstack
 Tracked objects:
		On entry : 
		On exit  : 
		Unchanged: 
 Data sizes:     COMRAM   BANK0   BANK1   BANK2   BANK3   BANK4   BANK5   BANK6   BANK7   BANK8   BANK9  BANK10  BANK11  BANK12  BANK13  BANK14  BANK15
      Params:         0       0       4       0       0       0       0       0       0       0       0       0       0       0       0       0       0
      Locals:         0       0       0     124       0       0       0       0       0       0       0       0       0       0       0       0       0
      Temps:          0       0      20       0       0       0       0       0       0       0       0       0       0       0       0       0       0
      Totals:         0       0      24     124       0       0       0       0       0       0       0       0       0       0       0       0       0
Total ram usage:      148 bytes
 Hardware stack levels used:    1
 Hardware stack levels required when called:   14
 This function calls:
		_ConvertDayToBit
		_InteractiveData_BlinkOFF
		_ItemsToIndicator
		_OutputInteractiveData
		_ParseDataRecord
		_ReadDataOfCell
		_WriteDataOfCell
		___lwdiv
		___lwmod
		___wmul
		_clrInd
		_entNum
		_getNumChar
 This function is called by:
		_ShowSchedulerMenu
		_SchedulerNew
 This function uses a non-reentrant model


 *************** function _WriteDataOfCell *****************
 Defined at:
		line 1908 in file "prog.c"
 Parameters:    Size  Location     Type
  CellsData       2   79[BANK1 ] PTR unsigned char 
		 -> EditSchedule@CellsData(8), 
  Data            2   81[BANK1 ] PTR unsigned long 
		 -> EditSchedule@Data(4), 
  TargetAdress    2   83[BANK1 ] unsigned int 
 Auto vars:     Size  Location     Type
  i               1   86[BANK1 ] unsigned char 
 Return value:  Size  Location     Type
                  1    wreg      void 
 Registers used:
		wreg, fsr1l, fsr1h, fsr2l, fsr2h, status,2, status,0, prodl, prodh, cstack
 Tracked objects:
		On entry : 
		On exit  : 
		Unchanged: 
 Data sizes:     COMRAM   BANK0   BANK1   BANK2   BANK3   BANK4   BANK5   BANK6   BANK7   BANK8   BANK9  BANK10  BANK11  BANK12  BANK13  BANK14  BANK15
      Params:         0       0       6       0       0       0       0       0       0       0       0       0       0       0       0       0       0
      Locals:         0       0       1       0       0       0       0       0       0       0       0       0       0       0       0       0       0
      Temps:          0       0       1       0       0       0       0       0       0       0       0       0       0       0       0       0       0
      Totals:         0       0       8       0       0       0       0       0       0       0       0       0       0       0       0       0       0
Total ram usage:        8 bytes
 Hardware stack levels used:    1
 Hardware stack levels required when called:   13
 This function calls:
		_WriteArrayToEEPROM
 This function is called by:
		_EditSchedule
 This function uses a non-reentrant model


 *************** function _ItemsToIndicator *****************
 Defined at:
		line 1859 in file "prog.c"
 Parameters:    Size  Location     Type
  items           1    wreg     unsigned char 
  max_i           1   76[BANK1 ] unsigned char 
  firstDigit      1   77[BANK1 ] unsigned char 
 Auto vars:     Size  Location     Type
  items           1   78[BANK1 ] unsigned char 
  i               1   79[BANK1 ] unsigned char 
 Return value:  Size  Location     Type
                  1    wreg      void 
 Registers used:
		wreg, fsr2l, fsr2h, status,2, status,0, prodl, prodh, cstack
 Tracked objects:
		On entry : 
		On exit  : 
		Unchanged: 
 Data sizes:     COMRAM   BANK0   BANK1   BANK2   BANK3   BANK4   BANK5   BANK6   BANK7   BANK8   BANK9  BANK10  BANK11  BANK12  BANK13  BANK14  BANK15
      Params:         0       0       2       0       0       0       0       0       0       0       0       0       0       0       0       0       0
      Locals:         0       0       2       0       0       0       0       0       0       0       0       0       0       0       0       0       0
      Temps:          0       0       0       0       0       0       0       0       0       0       0       0       0       0       0       0       0
      Totals:         0       0       4       0       0       0       0       0       0       0       0       0       0       0       0       0       0
Total ram usage:        4 bytes
 Hardware stack levels used:    1
 Hardware stack levels required when called:   12
 This function calls:
		_getNumChar
		_setDigit
 This function is called by:
		_EditSchedule
 This function uses a non-reentrant model


 *************** function _ConvertDayToBit *****************
 Defined at:
		line 1881 in file "prog.c"
 Parameters:    Size  Location     Type
  DayNumber       1    wreg     unsigned char 
 Auto vars:     Size  Location     Type
  DayNumber       1   66[BANK1 ] unsigned char 
 Return value:  Size  Location     Type
                  1    wreg      unsigned char 
 Registers used:
		wreg, status,2, status,0
 Tracked objects:
		On entry : 
		On exit  : 
		Unchanged: 
 Data sizes:     COMRAM   BANK0   BANK1   BANK2   BANK3   BANK4   BANK5   BANK6   BANK7   BANK8   BANK9  BANK10  BANK11  BANK12  BANK13  BANK14  BANK15
      Params:         0       0       0       0       0       0       0       0       0       0       0       0       0       0       0       0       0
      Locals:         0       0       1       0       0       0       0       0       0       0       0       0       0       0       0       0       0
      Temps:          0       0       0       0       0       0       0       0       0       0       0       0       0       0       0       0       0
      Totals:         0       0       1       0       0       0       0       0       0       0       0       0       0       0       0       0       0
Total ram usage:        1 bytes
 Hardware stack levels used:    1
 Hardware stack levels required when called:   11
 This function calls:
		Nothing
 This function is called by:
		_EditSchedule
 This function uses a non-reentrant model


 *************** function _DeleteDataOfCell *****************
 Defined at:
		line 1934 in file "prog.c"
 Parameters:    Size  Location     Type
  TargetAdress    2   79[BANK1 ] unsigned int 
 Auto vars:     Size  Location     Type
  CellsData       8   81[BANK1 ] unsigned char [8]
 Return value:  Size  Location     Type
                  1    wreg      void 
 Registers used:
		wreg, fsr2l, fsr2h, status,2, status,0, prodl, prodh, cstack
 Tracked objects:
		On entry : 
		On exit  : 
		Unchanged: 
 Data sizes:     COMRAM   BANK0   BANK1   BANK2   BANK3   BANK4   BANK5   BANK6   BANK7   BANK8   BANK9  BANK10  BANK11  BANK12  BANK13  BANK14  BANK15
      Params:         0       0       2       0       0       0       0       0       0       0       0       0       0       0       0       0       0
      Locals:         0       0       8       0       0       0       0       0       0       0       0       0       0       0       0       0       0
      Temps:          0       0       0       0       0       0       0       0       0       0       0       0       0       0       0       0       0
      Totals:         0       0      10       0       0       0       0       0       0       0       0       0       0       0       0       0       0
Total ram usage:       10 bytes
 Hardware stack levels used:    1
 Hardware stack levels required when called:   13
 This function calls:
		_CleanStringArray
		_WriteArrayToEEPROM
 This function is called by:
		_ShowSchedulerMenu
 This function uses a non-reentrant model


 *************** function _Settings *****************
 Defined at:
		line 3813 in file "prog.c"
 Parameters:    Size  Location     Type
		None
 Auto vars:     Size  Location     Type
  menu_GSM_on_    6  202[BANK2 ] PTR unsigned char [3]
		 -> STR_89(10), STR_88(11), STR_87(12), STR_74(9), 
		 -> STR_73(10), STR_72(14), STR_71(15), STR_70(15), 
		 -> STR_69(15), STR_68(15), STR_67(6), STR_66(6), 
		 -> STR_65(6), STR_57(12), STR_56(8), STR_55(14), 
		 -> STR_54(9), STR_25(16), STR_24(8), STR_23(11), 
		 -> STR_22(9), STR_21(9), NULL(0), 
  GSM_On_Off      1  210[BANK2 ] unsigned char 
  GSM_Conditio    1  209[BANK2 ] unsigned char 
  speed           1  208[BANK2 ] unsigned char 
  num             1  211[BANK2 ] unsigned char 
  menu           12  190[BANK2 ] PTR unsigned char [6]
		 -> STR_89(10), STR_88(11), STR_87(12), STR_74(9), 
		 -> STR_73(10), STR_72(14), STR_71(15), STR_70(15), 
		 -> STR_69(15), STR_68(15), STR_67(6), STR_66(6), 
		 -> STR_65(6), STR_57(12), STR_56(8), STR_55(14), 
		 -> STR_54(9), STR_25(16), STR_24(8), STR_23(11), 
		 -> STR_22(9), STR_21(9), NULL(0), 
  item            1  212[BANK2 ] unsigned char 
 Return value:  Size  Location     Type
                  1    wreg      void 
 Registers used:
		wreg, fsr0l, fsr0h, fsr1l, fsr1h, fsr2l, fsr2h, status,2, status,0, tblptrl, tblptrh, tblptru, prodl, prodh, cstack
 Tracked objects:
		On entry : 
		On exit  : 
		Unchanged: 
 Data sizes:     COMRAM   BANK0   BANK1   BANK2   BANK3   BANK4   BANK5   BANK6   BANK7   BANK8   BANK9  BANK10  BANK11  BANK12  BANK13  BANK14  BANK15
      Params:         0       0       0       0       0       0       0       0       0       0       0       0       0       0       0       0       0
      Locals:         0       0       0      23       0       0       0       0       0       0       0       0       0       0       0       0       0
      Temps:          0       0       0       0       0       0       0       0       0       0       0       0       0       0       0       0       0
      Totals:         0       0       0      23       0       0       0       0       0       0       0       0       0       0       0       0       0
Total ram usage:       23 bytes
 Hardware stack levels used:    1
 Hardware stack levels required when called:   15
 This function calls:
		_EERD
		_EEWR
		_Format_EEPROM_Memory
		_Init_GSM
		_Save_USART_SpeedNumber
		_ShowMenu
		_TimeEdit
		_USART_Speed_Choise
 This function is called by:
		_main2
 This function uses a non-reentrant model


 *************** function _USART_Speed_Choise *****************
 Defined at:
		line 3801 in file "prog.c"
 Parameters:    Size  Location     Type
		None
 Auto vars:     Size  Location     Type
  menu            8   94[BANK1 ] PTR unsigned char [4]
		 -> STR_89(10), STR_88(11), STR_87(12), STR_74(9), 
		 -> STR_73(10), STR_72(14), STR_71(15), STR_70(15), 
		 -> STR_69(15), STR_68(15), STR_67(6), STR_66(6), 
		 -> STR_65(6), STR_57(12), STR_56(8), STR_55(14), 
		 -> STR_54(9), STR_25(16), STR_24(8), STR_23(11), 
		 -> STR_22(9), STR_21(9), NULL(0), 
 Return value:  Size  Location     Type
                  1    wreg      unsigned char 
 Registers used:
		wreg, fsr0l, fsr0h, fsr1l, fsr1h, fsr2l, fsr2h, status,2, status,0, tblptrl, tblptrh, tblptru, prodl, prodh, cstack
 Tracked objects:
		On entry : 
		On exit  : 
		Unchanged: 
 Data sizes:     COMRAM   BANK0   BANK1   BANK2   BANK3   BANK4   BANK5   BANK6   BANK7   BANK8   BANK9  BANK10  BANK11  BANK12  BANK13  BANK14  BANK15
      Params:         0       0       0       0       0       0       0       0       0       0       0       0       0       0       0       0       0
      Locals:         0       0       8       0       0       0       0       0       0       0       0       0       0       0       0       0       0
      Temps:          0       0       0       0       0       0       0       0       0       0       0       0       0       0       0       0       0
      Totals:         0       0       8       0       0       0       0       0       0       0       0       0       0       0       0       0       0
Total ram usage:        8 bytes
 Hardware stack levels used:    1
 Hardware stack levels required when called:   14
 This function calls:
		_Read_USART_SpeedNumber
		_ShowMenu
 This function is called by:
		_WorkingWithGSM
		_Settings
 This function uses a non-reentrant model


 *************** function _TimeEdit *****************
 Defined at:
		line 1408 in file "prog.c"
 Parameters:    Size  Location     Type
		None
 Auto vars:     Size  Location     Type
  MonthDays      12   39[BANK2 ] unsigned char [12]
  month           1  122[BANK2 ] unsigned char 
  t               1  155[BANK2 ] unsigned char 
  i               1  149[BANK2 ] unsigned char 
  i               1  148[BANK2 ] unsigned char 
  i               1  147[BANK2 ] unsigned char 
  _date          40   59[BANK2 ] struct .[10]
  TimeData       33  157[BANK2 ] struct .
  symb_array     20  123[BANK2 ] PTR struct .[10]
		 -> TimeEdit@_date(40), TimeEdit@_time(20), 
  _time          20   99[BANK2 ] struct .[5]
  temp            4  151[BANK2 ] long 
  _weekday        4  143[BANK2 ] struct .[1]
  n               4   51[BANK2 ] long 
  p               1  156[BANK2 ] unsigned char 
  blinking        1  150[BANK2 ] unsigned char 
  symb_array_m    1  121[BANK2 ] unsigned char 
  input           1  120[BANK2 ] unsigned char 
  time_is_chan    1  119[BANK2 ] unsigned char 
 Return value:  Size  Location     Type
                  1    wreg      void 
 Registers used:
		wreg, fsr0l, fsr0h, fsr1l, fsr1h, fsr2l, fsr2h, status,2, status,0, tblptrl, tblptrh, tblptru, prodl, prodh, cstack
 Tracked objects:
		On entry : 
		On exit  : 
		Unchanged: 
 Data sizes:     COMRAM   BANK0   BANK1   BANK2   BANK3   BANK4   BANK5   BANK6   BANK7   BANK8   BANK9  BANK10  BANK11  BANK12  BANK13  BANK14  BANK15
      Params:         0       0       0       0       0       0       0       0       0       0       0       0       0       0       0       0       0
      Locals:         0       0       0     151       0       0       0       0       0       0       0       0       0       0       0       0       0
      Temps:          0       0      16       0       0       0       0       0       0       0       0       0       0       0       0       0       0
      Totals:         0       0      16     151       0       0       0       0       0       0       0       0       0       0       0       0       0
Total ram usage:      167 bytes
 Hardware stack levels used:    1
 Hardware stack levels required when called:   14
 This function calls:
		_GetDayOfWeekByDate
		_ReIndTimeEdit
		_SetTimeSource
		_TimeData_BlinkOFF
		_TimeData_INIT
		_WriteTime
		___aldiv
		___almod
		___awdiv
		___awmod
		___lmul
		_clrInd
		_entNum
 This function is called by:
		_Settings
 This function uses a non-reentrant model


 *************** function _entNum *****************
 Defined at:
		line 1058 in file "prog.c"
 Parameters:    Size  Location     Type
  borderDown      1    wreg     unsigned char 
  borderUp        1   66[BANK1 ] unsigned char 
 Auto vars:     Size  Location     Type
  borderDown      1   67[BANK1 ] unsigned char 
  KeyValue        1   68[BANK1 ] unsigned char 
 Return value:  Size  Location     Type
                  1    wreg      unsigned char 
 Registers used:
		wreg, status,2, status,0
 Tracked objects:
		On entry : 
		On exit  : 
		Unchanged: 
 Data sizes:     COMRAM   BANK0   BANK1   BANK2   BANK3   BANK4   BANK5   BANK6   BANK7   BANK8   BANK9  BANK10  BANK11  BANK12  BANK13  BANK14  BANK15
      Params:         0       0       1       0       0       0       0       0       0       0       0       0       0       0       0       0       0
      Locals:         0       0       2       0       0       0       0       0       0       0       0       0       0       0       0       0       0
      Temps:          0       0       0       0       0       0       0       0       0       0       0       0       0       0       0       0       0
      Totals:         0       0       3       0       0       0       0       0       0       0       0       0       0       0       0       0       0
Total ram usage:        3 bytes
 Hardware stack levels used:    1
 Hardware stack levels required when called:   11
 This function calls:
		Nothing
 This function is called by:
		_TimeEdit
		_EditSchedule
 This function uses a non-reentrant model


 *************** function _WriteTime *****************
 Defined at:
		line 4188 in file "prog.c"
 Parameters:    Size  Location     Type
  lClock          4   89[BANK1 ] unsigned long 
  days            1   93[BANK1 ] unsigned char 
  months          1   94[BANK1 ] unsigned char 
  years           1   95[BANK1 ] unsigned char 
 Auto vars:     Size  Location     Type
  comand         31    0[BANK2 ] unsigned char [31]
  temp            4   35[BANK2 ] long 
  minutes         1   33[BANK2 ] unsigned char 
  hours           1   32[BANK2 ] unsigned char 
  week_day        1   31[BANK2 ] unsigned char 
  INTCON_BUP      1   34[BANK2 ] volatile unsigned char 
 Return value:  Size  Location     Type
                  1    wreg      void 
 Registers used:
		wreg, fsr1l, fsr1h, fsr2l, fsr2h, status,2, status,0, cstack
 Tracked objects:
		On entry : 
		On exit  : 
		Unchanged: 
 Data sizes:     COMRAM   BANK0   BANK1   BANK2   BANK3   BANK4   BANK5   BANK6   BANK7   BANK8   BANK9  BANK10  BANK11  BANK12  BANK13  BANK14  BANK15
      Params:         0       0       7       0       0       0       0       0       0       0       0       0       0       0       0       0       0
      Locals:         0       0       0      39       0       0       0       0       0       0       0       0       0       0       0       0       0
      Temps:          0       0       0       0       0       0       0       0       0       0       0       0       0       0       0       0       0
      Totals:         0       0       7      39       0       0       0       0       0       0       0       0       0       0       0       0       0
Total ram usage:       46 bytes
 Hardware stack levels used:    1
 Hardware stack levels required when called:   13
 This function calls:
		_DEC_to_BCD
		_I2CInit
		_I2CSend
		_I2CStart
		_I2CStop
		_SendCommandToUSART
		___aldiv
		___almod
		___awdiv
		___awmod
		___lldiv
		___llmod
		_getNumChar
 This function is called by:
		_TimeEdit
 This function uses a non-reentrant model


 *************** function ___llmod *****************
 Defined at:
		line 8 in file "/opt/microchip/xc8/v1.37/sources/common/llmod.c"
 Parameters:    Size  Location     Type
  dividend        4   66[BANK1 ] unsigned long 
  divisor         4   70[BANK1 ] unsigned long 
 Auto vars:     Size  Location     Type
  counter         1   74[BANK1 ] unsigned char 
 Return value:  Size  Location     Type
                  4   66[BANK1 ] unsigned long 
 Registers used:
		wreg, status,2, status,0
 Tracked objects:
		On entry : 
		On exit  : 
		Unchanged: 
 Data sizes:     COMRAM   BANK0   BANK1   BANK2   BANK3   BANK4   BANK5   BANK6   BANK7   BANK8   BANK9  BANK10  BANK11  BANK12  BANK13  BANK14  BANK15
      Params:         0       0       8       0       0       0       0       0       0       0       0       0       0       0       0       0       0
      Locals:         0       0       1       0       0       0       0       0       0       0       0       0       0       0       0       0       0
      Temps:          0       0       0       0       0       0       0       0       0       0       0       0       0       0       0       0       0
      Totals:         0       0       9       0       0       0       0       0       0       0       0       0       0       0       0       0       0
Total ram usage:        9 bytes
 Hardware stack levels used:    1
 Hardware stack levels required when called:   11
 This function calls:
		Nothing
 This function is called by:
		_WriteTime
 This function uses a non-reentrant model


 *************** function ___lldiv *****************
 Defined at:
		line 8 in file "/opt/microchip/xc8/v1.37/sources/common/lldiv.c"
 Parameters:    Size  Location     Type
  dividend        4   66[BANK1 ] unsigned long 
  divisor         4   70[BANK1 ] unsigned long 
 Auto vars:     Size  Location     Type
  quotient        4   74[BANK1 ] unsigned long 
  counter         1   78[BANK1 ] unsigned char 
 Return value:  Size  Location     Type
                  4   66[BANK1 ] unsigned long 
 Registers used:
		wreg, status,2, status,0
 Tracked objects:
		On entry : 
		On exit  : 
		Unchanged: 
 Data sizes:     COMRAM   BANK0   BANK1   BANK2   BANK3   BANK4   BANK5   BANK6   BANK7   BANK8   BANK9  BANK10  BANK11  BANK12  BANK13  BANK14  BANK15
      Params:         0       0       8       0       0       0       0       0       0       0       0       0       0       0       0       0       0
      Locals:         0       0       5       0       0       0       0       0       0       0       0       0       0       0       0       0       0
      Temps:          0       0       0       0       0       0       0       0       0       0       0       0       0       0       0       0       0
      Totals:         0       0      13       0       0       0       0       0       0       0       0       0       0       0       0       0       0
Total ram usage:       13 bytes
 Hardware stack levels used:    1
 Hardware stack levels required when called:   11
 This function calls:
		Nothing
 This function is called by:
		_WriteTime
 This function uses a non-reentrant model


 *************** function _I2CStop *****************
 Defined at:
		line 4263 in file "prog.c"
 Parameters:    Size  Location     Type
		None
 Auto vars:     Size  Location     Type
		None
 Return value:  Size  Location     Type
                  1    wreg      void 
 Registers used:
		None
 Tracked objects:
		On entry : 
		On exit  : 
		Unchanged: 
 Data sizes:     COMRAM   BANK0   BANK1   BANK2   BANK3   BANK4   BANK5   BANK6   BANK7   BANK8   BANK9  BANK10  BANK11  BANK12  BANK13  BANK14  BANK15
      Params:         0       0       0       0       0       0       0       0       0       0       0       0       0       0       0       0       0
      Locals:         0       0       0       0       0       0       0       0       0       0       0       0       0       0       0       0       0
      Temps:          0       0       0       0       0       0       0       0       0       0       0       0       0       0       0       0       0
      Totals:         0       0       0       0       0       0       0       0       0       0       0       0       0       0       0       0       0
Total ram usage:        0 bytes
 Hardware stack levels used:    1
 Hardware stack levels required when called:   11
 This function calls:
		Nothing
 This function is called by:
		_WriteTime
 This function uses a non-reentrant model


 *************** function _I2CStart *****************
 Defined at:
		line 4257 in file "prog.c"
 Parameters:    Size  Location     Type
		None
 Auto vars:     Size  Location     Type
		None
 Return value:  Size  Location     Type
                  1    wreg      void 
 Registers used:
		None
 Tracked objects:
		On entry : 
		On exit  : 
		Unchanged: 
 Data sizes:     COMRAM   BANK0   BANK1   BANK2   BANK3   BANK4   BANK5   BANK6   BANK7   BANK8   BANK9  BANK10  BANK11  BANK12  BANK13  BANK14  BANK15
      Params:         0       0       0       0       0       0       0       0       0       0       0       0       0       0       0       0       0
      Locals:         0       0       0       0       0       0       0       0       0       0       0       0       0       0       0       0       0
      Temps:          0       0       0       0       0       0       0       0       0       0       0       0       0       0       0       0       0
      Totals:         0       0       0       0       0       0       0       0       0       0       0       0       0       0       0       0       0
Total ram usage:        0 bytes
 Hardware stack levels used:    1
 Hardware stack levels required when called:   11
 This function calls:
		Nothing
 This function is called by:
		_WriteTime
 This function uses a non-reentrant model


 *************** function _I2CSend *****************
 Defined at:
		line 4286 in file "prog.c"
 Parameters:    Size  Location     Type
  dat             1    wreg     unsigned char 
 Auto vars:     Size  Location     Type
  dat             1   67[BANK1 ] unsigned char 
 Return value:  Size  Location     Type
                  1    wreg      void 
 Registers used:
		wreg, status,2, status,0
 Tracked objects:
		On entry : 
		On exit  : 
		Unchanged: 
 Data sizes:     COMRAM   BANK0   BANK1   BANK2   BANK3   BANK4   BANK5   BANK6   BANK7   BANK8   BANK9  BANK10  BANK11  BANK12  BANK13  BANK14  BANK15
      Params:         0       0       0       0       0       0       0       0       0       0       0       0       0       0       0       0       0
      Locals:         0       0       1       0       0       0       0       0       0       0       0       0       0       0       0       0       0
      Temps:          0       0       1       0       0       0       0       0       0       0       0       0       0       0       0       0       0
      Totals:         0       0       2       0       0       0       0       0       0       0       0       0       0       0       0       0       0
Total ram usage:        2 bytes
 Hardware stack levels used:    1
 Hardware stack levels required when called:   11
 This function calls:
		Nothing
 This function is called by:
		_WriteTime
 This function uses a non-reentrant model


 *************** function _I2CInit *****************
 Defined at:
		line 4249 in file "prog.c"
 Parameters:    Size  Location     Type
		None
 Auto vars:     Size  Location     Type
		None
 Return value:  Size  Location     Type
                  1    wreg      void 
 Registers used:
		wreg, status,2, status,0
 Tracked objects:
		On entry : 
		On exit  : 
		Unchanged: 
 Data sizes:     COMRAM   BANK0   BANK1   BANK2   BANK3   BANK4   BANK5   BANK6   BANK7   BANK8   BANK9  BANK10  BANK11  BANK12  BANK13  BANK14  BANK15
      Params:         0       0       0       0       0       0       0       0       0       0       0       0       0       0       0       0       0
      Locals:         0       0       0       0       0       0       0       0       0       0       0       0       0       0       0       0       0
      Temps:          0       0       0       0       0       0       0       0       0       0       0       0       0       0       0       0       0
      Totals:         0       0       0       0       0       0       0       0       0       0       0       0       0       0       0       0       0
Total ram usage:        0 bytes
 Hardware stack levels used:    1
 Hardware stack levels required when called:   11
 This function calls:
		Nothing
 This function is called by:
		_WriteTime
 This function uses a non-reentrant model


 *************** function _DEC_to_BCD *****************
 Defined at:
		line 4115 in file "prog.c"
 Parameters:    Size  Location     Type
  DEC             1    wreg     unsigned char 
 Auto vars:     Size  Location     Type
  DEC             1   88[BANK1 ] unsigned char 
 Return value:  Size  Location     Type
                  1    wreg      unsigned char 
 Registers used:
		wreg, status,2, status,0, cstack
 Tracked objects:
		On entry : 
		On exit  : 
		Unchanged: 
 Data sizes:     COMRAM   BANK0   BANK1   BANK2   BANK3   BANK4   BANK5   BANK6   BANK7   BANK8   BANK9  BANK10  BANK11  BANK12  BANK13  BANK14  BANK15
      Params:         0       0       0       0       0       0       0       0       0       0       0       0       0       0       0       0       0
      Locals:         0       0       1       0       0       0       0       0       0       0       0       0       0       0       0       0       0
      Temps:          0       0       2       0       0       0       0       0       0       0       0       0       0       0       0       0       0
      Totals:         0       0       3       0       0       0       0       0       0       0       0       0       0       0       0       0       0
Total ram usage:        3 bytes
 Hardware stack levels used:    1
 Hardware stack levels required when called:   12
 This function calls:
		___awdiv
		___awmod
 This function is called by:
		_WriteTime
 This function uses a non-reentrant model


 *************** function _TimeData_INIT *****************
 Defined at:
		line 1386 in file "prog.c"
 Parameters:    Size  Location     Type
  TimeData        2   66[BANK1 ] PTR struct .
		 -> TimeEdit@TimeData(33), 
 Auto vars:     Size  Location     Type
  i               1   71[BANK1 ] unsigned char 
  i               1   70[BANK1 ] unsigned char 
 Return value:  Size  Location     Type
                  1    wreg      void 
 Registers used:
		wreg, fsr1l, fsr1h, fsr2l, fsr2h, status,2, status,0, prodl, prodh
 Tracked objects:
		On entry : 
		On exit  : 
		Unchanged: 
 Data sizes:     COMRAM   BANK0   BANK1   BANK2   BANK3   BANK4   BANK5   BANK6   BANK7   BANK8   BANK9  BANK10  BANK11  BANK12  BANK13  BANK14  BANK15
      Params:         0       0       2       0       0       0       0       0       0       0       0       0       0       0       0       0       0
      Locals:         0       0       2       0       0       0       0       0       0       0       0       0       0       0       0       0       0
      Temps:          0       0       2       0       0       0       0       0       0       0       0       0       0       0       0       0       0
      Totals:         0       0       6       0       0       0       0       0       0       0       0       0       0       0       0       0       0
Total ram usage:        6 bytes
 Hardware stack levels used:    1
 Hardware stack levels required when called:   11
 This function calls:
		Nothing
 This function is called by:
		_TimeEdit
 This function uses a non-reentrant model


 *************** function _TimeData_BlinkOFF *****************
 Defined at:
		line 1380 in file "prog.c"
 Parameters:    Size  Location     Type
  TimeData        2   72[BANK1 ] PTR struct .
		 -> TimeEdit@TimeData(33), 
 Auto vars:     Size  Location     Type
		None
 Return value:  Size  Location     Type
                  1    wreg      void 
 Registers used:
		wreg, fsr2l, fsr2h, status,2, status,0, prodl, prodh, cstack
 Tracked objects:
		On entry : 
		On exit  : 
		Unchanged: 
 Data sizes:     COMRAM   BANK0   BANK1   BANK2   BANK3   BANK4   BANK5   BANK6   BANK7   BANK8   BANK9  BANK10  BANK11  BANK12  BANK13  BANK14  BANK15
      Params:         0       0       2       0       0       0       0       0       0       0       0       0       0       0       0       0       0
      Locals:         0       0       0       0       0       0       0       0       0       0       0       0       0       0       0       0       0
      Temps:          0       0       0       0       0       0       0       0       0       0       0       0       0       0       0       0       0
      Totals:         0       0       2       0       0       0       0       0       0       0       0       0       0       0       0       0       0
Total ram usage:        2 bytes
 Hardware stack levels used:    1
 Hardware stack levels required when called:   12
 This function calls:
		_InteractiveData_BlinkOFF
 This function is called by:
		_TimeEdit
 This function uses a non-reentrant model


 *************** function _SetTimeSource *****************
 Defined at:
		line 741 in file "prog.c"
 Parameters:    Size  Location     Type
  time_source     1    wreg     unsigned char 
 Auto vars:     Size  Location     Type
  time_source     1   71[BANK1 ] unsigned char 
 Return value:  Size  Location     Type
                  1    wreg      void 
 Registers used:
		wreg, status,2, status,0, cstack
 Tracked objects:
		On entry : 
		On exit  : 
		Unchanged: 
 Data sizes:     COMRAM   BANK0   BANK1   BANK2   BANK3   BANK4   BANK5   BANK6   BANK7   BANK8   BANK9  BANK10  BANK11  BANK12  BANK13  BANK14  BANK15
      Params:         0       0       0       0       0       0       0       0       0       0       0       0       0       0       0       0       0
      Locals:         0       0       1       0       0       0       0       0       0       0       0       0       0       0       0       0       0
      Temps:          0       0       1       0       0       0       0       0       0       0       0       0       0       0       0       0       0
      Totals:         0       0       2       0       0       0       0       0       0       0       0       0       0       0       0       0       0
Total ram usage:        2 bytes
 Hardware stack levels used:    1
 Hardware stack levels required when called:   12
 This function calls:
		_EEWR
 This function is called by:
		_TimeEdit
 This function uses a non-reentrant model


 *************** function _ReIndTimeEdit *****************
 Defined at:
		line 1339 in file "prog.c"
 Parameters:    Size  Location     Type
  TimeData        2   89[BANK1 ] PTR struct .
		 -> TimeEdit@TimeData(33), 
 Auto vars:     Size  Location     Type
  i               1  102[BANK1 ] unsigned char 
  i               1  101[BANK1 ] unsigned char 
  sources_of_t    6   93[BANK1 ] PTR unsigned char [3]
		 -> STR_15(4), STR_14(4), STR_13(4), 
  n               1  100[BANK1 ] unsigned char 
  value           1   99[BANK1 ] unsigned char 
 Return value:  Size  Location     Type
                  1    wreg      void 
 Registers used:
		wreg, fsr0l, fsr0h, fsr1l, fsr1h, fsr2l, fsr2h, status,2, status,0, tblptrl, tblptrh, tblptru, prodl, prodh, cstack
 Tracked objects:
		On entry : 
		On exit  : 
		Unchanged: 
 Data sizes:     COMRAM   BANK0   BANK1   BANK2   BANK3   BANK4   BANK5   BANK6   BANK7   BANK8   BANK9  BANK10  BANK11  BANK12  BANK13  BANK14  BANK15
      Params:         0       0       2       0       0       0       0       0       0       0       0       0       0       0       0       0       0
      Locals:         0       0      10       0       0       0       0       0       0       0       0       0       0       0       0       0       0
      Temps:          0       0       2       0       0       0       0       0       0       0       0       0       0       0       0       0       0
      Totals:         0       0      14       0       0       0       0       0       0       0       0       0       0       0       0       0       0
Total ram usage:       14 bytes
 Hardware stack levels used:    1
 Hardware stack levels required when called:   13
 This function calls:
		_GetDayOfWeek
		_OutputInteractiveData
		_OutputString
		_getNumChar
 This function is called by:
		_TimeEdit
 This function uses a non-reentrant model


 *************** function _GetDayOfWeekByDate *****************
 Defined at:
		line 2447 in file "prog.c"
 Parameters:    Size  Location     Type
  _year           1    wreg     unsigned char 
  _mounth         1   86[BANK1 ] unsigned char 
  _day            1   87[BANK1 ] unsigned char 
 Auto vars:     Size  Location     Type
  _year           1   93[BANK1 ] unsigned char 
  century_numb    1   92[BANK1 ] const unsigned char 
 Return value:  Size  Location     Type
                  1    wreg      unsigned char 
 Registers used:
		wreg, status,2, status,0, prodl, prodh, cstack
 Tracked objects:
		On entry : 
		On exit  : 
		Unchanged: 
 Data sizes:     COMRAM   BANK0   BANK1   BANK2   BANK3   BANK4   BANK5   BANK6   BANK7   BANK8   BANK9  BANK10  BANK11  BANK12  BANK13  BANK14  BANK15
      Params:         0       0       2       0       0       0       0       0       0       0       0       0       0       0       0       0       0
      Locals:         0       0       2       0       0       0       0       0       0       0       0       0       0       0       0       0       0
      Temps:          0       0       4       0       0       0       0       0       0       0       0       0       0       0       0       0       0
      Totals:         0       0       8       0       0       0       0       0       0       0       0       0       0       0       0       0       0
Total ram usage:        8 bytes
 Hardware stack levels used:    1
 Hardware stack levels required when called:   12
 This function calls:
		___awdiv
		___awmod
		___wmul
 This function is called by:
		_TimeEdit
 This function uses a non-reentrant model


 *************** function ___wmul *****************
 Defined at:
		line 15 in file "/opt/microchip/xc8/v1.37/sources/common/Umul16.c"
 Parameters:    Size  Location     Type
  multiplier      2   66[BANK1 ] unsigned int 
  multiplicand    2   68[BANK1 ] unsigned int 
 Auto vars:     Size  Location     Type
  product         2   70[BANK1 ] unsigned int 
 Return value:  Size  Location     Type
                  2   66[BANK1 ] unsigned int 
 Registers used:
		wreg, status,2, status,0, prodl, prodh
 Tracked objects:
		On entry : 
		On exit  : 
		Unchanged: 
 Data sizes:     COMRAM   BANK0   BANK1   BANK2   BANK3   BANK4   BANK5   BANK6   BANK7   BANK8   BANK9  BANK10  BANK11  BANK12  BANK13  BANK14  BANK15
      Params:         0       0       4       0       0       0       0       0       0       0       0       0       0       0       0       0       0
      Locals:         0       0       2       0       0       0       0       0       0       0       0       0       0       0       0       0       0
      Temps:          0       0       0       0       0       0       0       0       0       0       0       0       0       0       0       0       0
      Totals:         0       0       6       0       0       0       0       0       0       0       0       0       0       0       0       0       0
Total ram usage:        6 bytes
 Hardware stack levels used:    1
 Hardware stack levels required when called:   11
 This function calls:
		Nothing
 This function is called by:
		_EditSchedule
		_GetDayOfWeekByDate
 This function uses a non-reentrant model


 *************** function ___awmod *****************
 Defined at:
		line 8 in file "/opt/microchip/xc8/v1.37/sources/common/awmod.c"
 Parameters:    Size  Location     Type
  dividend        2   80[BANK1 ] int 
  divisor         2   82[BANK1 ] int 
 Auto vars:     Size  Location     Type
  sign            1   85[BANK1 ] unsigned char 
  counter         1   84[BANK1 ] unsigned char 
 Return value:  Size  Location     Type
                  2   80[BANK1 ] int 
 Registers used:
		wreg, status,2, status,0
 Tracked objects:
		On entry : 
		On exit  : 
		Unchanged: 
 Data sizes:     COMRAM   BANK0   BANK1   BANK2   BANK3   BANK4   BANK5   BANK6   BANK7   BANK8   BANK9  BANK10  BANK11  BANK12  BANK13  BANK14  BANK15
      Params:         0       0       4       0       0       0       0       0       0       0       0       0       0       0       0       0       0
      Locals:         0       0       2       0       0       0       0       0       0       0       0       0       0       0       0       0       0
      Temps:          0       0       0       0       0       0       0       0       0       0       0       0       0       0       0       0       0
      Totals:         0       0       6       0       0       0       0       0       0       0       0       0       0       0       0       0       0
Total ram usage:        6 bytes
 Hardware stack levels used:    1
 Hardware stack levels required when called:   11
 This function calls:
		Nothing
 This function is called by:
		_TimeToInd
		_TimeEdit
		_GetDayOfWeekByDate
		_DEC_to_BCD
		_WriteTime
 This function uses a non-reentrant model


 *************** function _Save_USART_SpeedNumber *****************
 Defined at:
		line 3794 in file "prog.c"
 Parameters:    Size  Location     Type
  speed           1    wreg     unsigned char 
 Auto vars:     Size  Location     Type
  speed           1   70[BANK1 ] unsigned char 
 Return value:  Size  Location     Type
                  1    wreg      void 
 Registers used:
		wreg, status,2, status,0, cstack
 Tracked objects:
		On entry : 
		On exit  : 
		Unchanged: 
 Data sizes:     COMRAM   BANK0   BANK1   BANK2   BANK3   BANK4   BANK5   BANK6   BANK7   BANK8   BANK9  BANK10  BANK11  BANK12  BANK13  BANK14  BANK15
      Params:         0       0       0       0       0       0       0       0       0       0       0       0       0       0       0       0       0
      Locals:         0       0       1       0       0       0       0       0       0       0       0       0       0       0       0       0       0
      Temps:          0       0       0       0       0       0       0       0       0       0       0       0       0       0       0       0       0
      Totals:         0       0       1       0       0       0       0       0       0       0       0       0       0       0       0       0       0
Total ram usage:        1 bytes
 Hardware stack levels used:    1
 Hardware stack levels required when called:   12
 This function calls:
		_EEWR
 This function is called by:
		_WorkingWithGSM
		_Settings
 This function uses a non-reentrant model


 *************** function _Init_GSM *****************
 Defined at:
		line 3466 in file "prog.c"
 Parameters:    Size  Location     Type
  show            1    wreg     unsigned char 
 Auto vars:     Size  Location     Type
  show            1  105[BANK1 ] unsigned char 
 Return value:  Size  Location     Type
                  1    wreg      unsigned char 
 Registers used:
		wreg, fsr0l, fsr0h, fsr1l, fsr1h, fsr2l, fsr2h, status,2, status,0, tblptrl, tblptrh, tblptru, prodl, prodh, cstack
 Tracked objects:
		On entry : 
		On exit  : 
		Unchanged: 
 Data sizes:     COMRAM   BANK0   BANK1   BANK2   BANK3   BANK4   BANK5   BANK6   BANK7   BANK8   BANK9  BANK10  BANK11  BANK12  BANK13  BANK14  BANK15
      Params:         0       0       0       0       0       0       0       0       0       0       0       0       0       0       0       0       0
      Locals:         0       0       1       0       0       0       0       0       0       0       0       0       0       0       0       0       0
      Temps:          0       0       0       0       0       0       0       0       0       0       0       0       0       0       0       0       0
      Totals:         0       0       1       0       0       0       0       0       0       0       0       0       0       0       0       0       0
Total ram usage:        1 bytes
 Hardware stack levels used:    1
 Hardware stack levels required when called:   14
 This function calls:
		_FindIncommingData
		_Init_USART
		_OutputSystemMessage
		_Read_USART_SpeedNumber
		_SendCommandToUSART
		_UserDelay
		_clrInd
 This function is called by:
		_Settings
		_main2
 This function uses a non-reentrant model


 *************** function _UserDelay *****************
 Defined at:
		line 3461 in file "prog.c"
 Parameters:    Size  Location     Type
  value           2   90[BANK1 ] unsigned int 
 Auto vars:     Size  Location     Type
  timestamp       4   92[BANK1 ] unsigned long 
 Return value:  Size  Location     Type
                  1    wreg      void 
 Registers used:
		wreg, status,2, status,0, cstack
 Tracked objects:
		On entry : 
		On exit  : 
		Unchanged: 
 Data sizes:     COMRAM   BANK0   BANK1   BANK2   BANK3   BANK4   BANK5   BANK6   BANK7   BANK8   BANK9  BANK10  BANK11  BANK12  BANK13  BANK14  BANK15
      Params:         0       0       2       0       0       0       0       0       0       0       0       0       0       0       0       0       0
      Locals:         0       0       4       0       0       0       0       0       0       0       0       0       0       0       0       0       0
      Temps:          0       0       0       0       0       0       0       0       0       0       0       0       0       0       0       0       0
      Totals:         0       0       6       0       0       0       0       0       0       0       0       0       0       0       0       0       0
Total ram usage:        6 bytes
 Hardware stack levels used:    1
 Hardware stack levels required when called:   13
 This function calls:
		_getSystemTimePoint
		_testTimePoint
 This function is called by:
		_Init_GSM
		_main2
 This function uses a non-reentrant model


 *************** function _Read_USART_SpeedNumber *****************
 Defined at:
		line 3790 in file "prog.c"
 Parameters:    Size  Location     Type
		None
 Auto vars:     Size  Location     Type
		None
 Return value:  Size  Location     Type
                  1    wreg      unsigned char 
 Registers used:
		wreg, status,2, cstack
 Tracked objects:
		On entry : 
		On exit  : 
		Unchanged: 
 Data sizes:     COMRAM   BANK0   BANK1   BANK2   BANK3   BANK4   BANK5   BANK6   BANK7   BANK8   BANK9  BANK10  BANK11  BANK12  BANK13  BANK14  BANK15
      Params:         0       0       0       0       0       0       0       0       0       0       0       0       0       0       0       0       0
      Locals:         0       0       0       0       0       0       0       0       0       0       0       0       0       0       0       0       0
      Temps:          0       0       0       0       0       0       0       0       0       0       0       0       0       0       0       0       0
      Totals:         0       0       0       0       0       0       0       0       0       0       0       0       0       0       0       0       0
Total ram usage:        0 bytes
 Hardware stack levels used:    1
 Hardware stack levels required when called:   12
 This function calls:
		_EERD
 This function is called by:
		_Init_GSM
		_USART_Speed_Choise
 This function uses a non-reentrant model


 *************** function _Init_USART *****************
 Defined at:
		line 2798 in file "prog.c"
 Parameters:    Size  Location     Type
  SpeedNumber     1    wreg     unsigned char 
 Auto vars:     Size  Location     Type
  SpeedNumber     1   68[BANK1 ] unsigned char 
  _value          2   66[BANK1 ] unsigned int 
 Return value:  Size  Location     Type
                  1    wreg      void 
 Registers used:
		wreg, status,2, status,0
 Tracked objects:
		On entry : 
		On exit  : 
		Unchanged: 
 Data sizes:     COMRAM   BANK0   BANK1   BANK2   BANK3   BANK4   BANK5   BANK6   BANK7   BANK8   BANK9  BANK10  BANK11  BANK12  BANK13  BANK14  BANK15
      Params:         0       0       0       0       0       0       0       0       0       0       0       0       0       0       0       0       0
      Locals:         0       0       3       0       0       0       0       0       0       0       0       0       0       0       0       0       0
      Temps:          0       0       0       0       0       0       0       0       0       0       0       0       0       0       0       0       0
      Totals:         0       0       3       0       0       0       0       0       0       0       0       0       0       0       0       0       0
Total ram usage:        3 bytes
 Hardware stack levels used:    1
 Hardware stack levels required when called:   11
 This function calls:
		Nothing
 This function is called by:
		_WorkingWithGSM
		_Init_GSM
 This function uses a non-reentrant model


 *************** function _SendSMS *****************
 Defined at:
		line 4335 in file "prog.c"
 Parameters:    Size  Location     Type
  PhoneNumber     2  108[BANK1 ] PTR unsigned char 
		 -> active_phone(14), 
  Text            2  110[BANK1 ] PTR unsigned char 
		 -> GetSystemInfo@info(73), 
 Auto vars:     Size  Location     Type
  command        12  187[BANK2 ] unsigned char [12]
  y               4  199[BANK2 ] unsigned char [4]
  tt              4  209[BANK2 ] unsigned long 
  e               3  206[BANK2 ] unsigned char [3]
  tempString      3  203[BANK2 ] unsigned char [3]
  sc_len          2  223[BANK2 ] unsigned int 
  pn              2  221[BANK2 ] PTR unsigned char 
		 -> active_phone(14), 
  l               2  215[BANK2 ] unsigned int 
  myNumber        2  213[BANK2 ] PTR unsigned char 
		 -> EncodePhoneNumberToPDU@encoded(15), 
 Return value:  Size  Location     Type
                  1    wreg      void 
 Registers used:
		wreg, fsr0l, fsr0h, fsr1l, fsr1h, fsr2l, fsr2h, status,2, status,0, tblptrl, tblptrh, tblptru, prodl, prodh, cstack
 Tracked objects:
		On entry : 
		On exit  : 
		Unchanged: 
 Data sizes:     COMRAM   BANK0   BANK1   BANK2   BANK3   BANK4   BANK5   BANK6   BANK7   BANK8   BANK9  BANK10  BANK11  BANK12  BANK13  BANK14  BANK15
      Params:         0       0       4       0       0       0       0       0       0       0       0       0       0       0       0       0       0
      Locals:         0       0       0      38       0       0       0       0       0       0       0       0       0       0       0       0       0
      Temps:          0       0       4       0       0       0       0       0       0       0       0       0       0       0       0       0       0
      Totals:         0       0       8      38       0       0       0       0       0       0       0       0       0       0       0       0       0
Total ram usage:       46 bytes
 Hardware stack levels used:    1
 Hardware stack levels required when called:   14
 This function calls:
		_CleanStringArray
		_EncodePhoneNumberToPDU
		_FindIncommingData
		_NumericToHEXString
		_NumericToString
		_OutputSystemMessage
		_SendCommandToUSART
		_cp1251_to_unicode
		_getSystemTimePoint
		_strcat
		_strlen
		_testTimePoint
 This function is called by:
		_main2
 This function uses a non-reentrant model


 *************** function _cp1251_to_unicode *****************
 Defined at:
		line 4323 in file "prog.c"
 Parameters:    Size  Location     Type
  dest            2   94[BANK1 ] PTR unsigned char 
		 -> SMS(512), 
  src             2   96[BANK1 ] PTR unsigned char 
		 -> GetSystemInfo@info(73), 
  eof             2   98[BANK1 ] PTR unsigned char 
		 -> SMS(512), 
 Auto vars:     Size  Location     Type
  t               5  100[BANK1 ] unsigned char [5]
  a               2  105[BANK1 ] unsigned int 
 Return value:  Size  Location     Type
                  1    wreg      void 
 Registers used:
		wreg, fsr0l, fsr0h, fsr1l, fsr1h, fsr2l, fsr2h, status,2, status,0, tblptrl, tblptrh, tblptru, cstack
 Tracked objects:
		On entry : 
		On exit  : 
		Unchanged: 
 Data sizes:     COMRAM   BANK0   BANK1   BANK2   BANK3   BANK4   BANK5   BANK6   BANK7   BANK8   BANK9  BANK10  BANK11  BANK12  BANK13  BANK14  BANK15
      Params:         0       0       6       0       0       0       0       0       0       0       0       0       0       0       0       0       0
      Locals:         0       0       7       0       0       0       0       0       0       0       0       0       0       0       0       0       0
      Temps:          0       0       0       0       0       0       0       0       0       0       0       0       0       0       0       0       0
      Totals:         0       0      13       0       0       0       0       0       0       0       0       0       0       0       0       0       0
Total ram usage:       13 bytes
 Hardware stack levels used:    1
 Hardware stack levels required when called:   13
 This function calls:
		_GetUnicodeSymbol
		_NumericToHEXString
		_strcat
 This function is called by:
		_SendSMS
 This function uses a non-reentrant model


 *************** function _NumericToHEXString *****************
 Defined at:
		line 1089 in file "prog.c"
 Parameters:    Size  Location     Type
  n               4   80[BANK1 ] long 
  mySring         2   84[BANK1 ] PTR unsigned char 
		 -> SendSMS@e(3), SendSMS@tempString(3), cp1251_to_unicode@t(5), 
  size            1   86[BANK1 ] unsigned char 
 Auto vars:     Size  Location     Type
  displacement    1   93[BANK1 ] unsigned char 
 Return value:  Size  Location     Type
                  1    wreg      void 
 Registers used:
		wreg, fsr2l, fsr2h, status,2, status,0, cstack
 Tracked objects:
		On entry : 
		On exit  : 
		Unchanged: 
 Data sizes:     COMRAM   BANK0   BANK1   BANK2   BANK3   BANK4   BANK5   BANK6   BANK7   BANK8   BANK9  BANK10  BANK11  BANK12  BANK13  BANK14  BANK15
      Params:         0       0       7       0       0       0       0       0       0       0       0       0       0       0       0       0       0
      Locals:         0       0       1       0       0       0       0       0       0       0       0       0       0       0       0       0       0
      Temps:          0       0       6       0       0       0       0       0       0       0       0       0       0       0       0       0       0
      Totals:         0       0      14       0       0       0       0       0       0       0       0       0       0       0       0       0       0
Total ram usage:       14 bytes
 Hardware stack levels used:    1
 Hardware stack levels required when called:   12
 This function calls:
		___aldiv
		_getNumChar
 This function is called by:
		_cp1251_to_unicode
		_SendSMS
 This function uses a non-reentrant model


 *************** function _GetUnicodeSymbol *****************
 Defined at:
		line 474 in file "prog.c"
 Parameters:    Size  Location     Type
  symb            1    wreg     unsigned char 
 Auto vars:     Size  Location     Type
  symb            1   68[BANK1 ] unsigned char 
 Return value:  Size  Location     Type
                  2   66[BANK1 ] unsigned int 
 Registers used:
		wreg, status,2, status,0
 Tracked objects:
		On entry : 
		On exit  : 
		Unchanged: 
 Data sizes:     COMRAM   BANK0   BANK1   BANK2   BANK3   BANK4   BANK5   BANK6   BANK7   BANK8   BANK9  BANK10  BANK11  BANK12  BANK13  BANK14  BANK15
      Params:         0       0       2       0       0       0       0       0       0       0       0       0       0       0       0       0       0
      Locals:         0       0       1       0       0       0       0       0       0       0       0       0       0       0       0       0       0
      Temps:          0       0       0       0       0       0       0       0       0       0       0       0       0       0       0       0       0
      Totals:         0       0       3       0       0       0       0       0       0       0       0       0       0       0       0       0       0
Total ram usage:        3 bytes
 Hardware stack levels used:    1
 Hardware stack levels required when called:   11
 This function calls:
		Nothing
 This function is called by:
		_cp1251_to_unicode
 This function uses a non-reentrant model


 *************** function _FindIncommingData *****************
 Defined at:
		line 3008 in file "prog.c"
 Parameters:    Size  Location     Type
  regexp          2   73[BANK1 ] PTR unsigned char 
		 -> STR_99(3), STR_98(3), STR_44(3), StandardAnswer_OK(3), 
  container       2   75[BANK1 ] PTR unsigned char 
		 -> NULL(0), 
  history_inde    2   77[BANK1 ] int 
 Auto vars:     Size  Location     Type
  a               2   91[BANK1 ] unsigned int 
  s0              2   95[BANK1 ] unsigned int 
  s1              2   83[BANK1 ] unsigned int 
  j               2  103[BANK1 ] unsigned int 
  last_s          2  101[BANK1 ] unsigned int 
  not_found       2   89[BANK1 ] unsigned int 
  i               2   97[BANK1 ] unsigned int 
  pointer         2   99[BANK1 ] PTR unsigned char 
		 -> buff_string_11(256), buff_string_10(256), buff_string_9(256), buff_string_8(256), 
  end_of_regex    2   93[BANK1 ] PTR unsigned char 
		 -> STR_99(3), STR_98(3), STR_44(3), StandardAnswer_OK(3), 
  finish_index    2   87[BANK1 ] unsigned int 
  start_index     2   85[BANK1 ] unsigned int 
 Return value:  Size  Location     Type
                  1    wreg      unsigned char 
 Registers used:
		wreg, fsr1l, fsr1h, fsr2l, fsr2h, status,2, status,0, tblptrl, tblptrh, tblptru, cstack
 Tracked objects:
		On entry : 
		On exit  : 
		Unchanged: 
 Data sizes:     COMRAM   BANK0   BANK1   BANK2   BANK3   BANK4   BANK5   BANK6   BANK7   BANK8   BANK9  BANK10  BANK11  BANK12  BANK13  BANK14  BANK15
      Params:         0       0       6       0       0       0       0       0       0       0       0       0       0       0       0       0       0
      Locals:         0       0      22       0       0       0       0       0       0       0       0       0       0       0       0       0       0
      Temps:          0       0       4       0       0       0       0       0       0       0       0       0       0       0       0       0       0
      Totals:         0       0      32       0       0       0       0       0       0       0       0       0       0       0       0       0       0
Total ram usage:       32 bytes
 Hardware stack levels used:    1
 Hardware stack levels required when called:   12
 This function calls:
		_CleanStringArray
		_GetStringLength
 This function is called by:
		_Init_GSM
		_SendSMS
 This function uses a non-reentrant model


 *************** function _GetStringLength *****************
 Defined at:
		line 3049 in file "prog.c"
 Parameters:    Size  Location     Type
  container       2   66[BANK1 ] PTR unsigned char 
		 -> STR_99(3), STR_98(3), STR_44(3), StandardAnswer_OK(3), 
 Auto vars:     Size  Location     Type
  i               2   68[BANK1 ] unsigned int 
 Return value:  Size  Location     Type
                  2   66[BANK1 ] unsigned int 
 Registers used:
		wreg, status,2, status,0, tblptrl, tblptrh, tblptru
 Tracked objects:
		On entry : 
		On exit  : 
		Unchanged: 
 Data sizes:     COMRAM   BANK0   BANK1   BANK2   BANK3   BANK4   BANK5   BANK6   BANK7   BANK8   BANK9  BANK10  BANK11  BANK12  BANK13  BANK14  BANK15
      Params:         0       0       2       0       0       0       0       0       0       0       0       0       0       0       0       0       0
      Locals:         0       0       2       0       0       0       0       0       0       0       0       0       0       0       0       0       0
      Temps:          0       0       0       0       0       0       0       0       0       0       0       0       0       0       0       0       0
      Totals:         0       0       4       0       0       0       0       0       0       0       0       0       0       0       0       0       0
Total ram usage:        4 bytes
 Hardware stack levels used:    1
 Hardware stack levels required when called:   11
 This function calls:
		Nothing
 This function is called by:
		_FindIncommingData
 This function uses a non-reentrant model


 *************** function _EncodePhoneNumberToPDU *****************
 Defined at:
		line 4302 in file "prog.c"
 Parameters:    Size  Location     Type
  phone_number    2   75[BANK1 ] PTR unsigned char 
		 -> active_phone(14), 
 Auto vars:     Size  Location     Type
  i               1   96[BANK1 ] unsigned char 
  encoded        15   79[BANK1 ] unsigned char [15]
  temp            1   95[BANK1 ] unsigned char 
  number_legth    1   94[BANK1 ] unsigned char 
 Return value:  Size  Location     Type
                  2   75[BANK1 ] PTR unsigned char 
 Registers used:
		wreg, fsr0l, fsr0h, fsr1l, fsr1h, fsr2l, fsr2h, status,2, status,0, tblptrl, tblptrh, tblptru, prodl, prodh, cstack
 Tracked objects:
		On entry : 
		On exit  : 
		Unchanged: 
 Data sizes:     COMRAM   BANK0   BANK1   BANK2   BANK3   BANK4   BANK5   BANK6   BANK7   BANK8   BANK9  BANK10  BANK11  BANK12  BANK13  BANK14  BANK15
      Params:         0       0       2       0       0       0       0       0       0       0       0       0       0       0       0       0       0
      Locals:         0       0      18       0       0       0       0       0       0       0       0       0       0       0       0       0       0
      Temps:          0       0       2       0       0       0       0       0       0       0       0       0       0       0       0       0       0
      Totals:         0       0      22       0       0       0       0       0       0       0       0       0       0       0       0       0       0
Total ram usage:       22 bytes
 Hardware stack levels used:    1
 Hardware stack levels required when called:   12
 This function calls:
		_strcat
		_strcpy
		_strlen
 This function is called by:
		_SendSMS
 This function uses a non-reentrant model


 *************** function _strlen *****************
 Defined at:
		line 4 in file "/opt/microchip/xc8/v1.37/sources/common/strlen.c"
 Parameters:    Size  Location     Type
  s               2   66[BANK1 ] PTR const unsigned char 
		 -> SMS(512), GetSystemInfo@info(73), active_phone(14), 
 Auto vars:     Size  Location     Type
  cp              2   70[BANK1 ] PTR const unsigned char 
		 -> SMS(512), GetSystemInfo@info(73), active_phone(14), 
 Return value:  Size  Location     Type
                  2   66[BANK1 ] unsigned int 
 Registers used:
		wreg, fsr2l, fsr2h, status,2, status,0
 Tracked objects:
		On entry : 
		On exit  : 
		Unchanged: 
 Data sizes:     COMRAM   BANK0   BANK1   BANK2   BANK3   BANK4   BANK5   BANK6   BANK7   BANK8   BANK9  BANK10  BANK11  BANK12  BANK13  BANK14  BANK15
      Params:         0       0       2       0       0       0       0       0       0       0       0       0       0       0       0       0       0
      Locals:         0       0       2       0       0       0       0       0       0       0       0       0       0       0       0       0       0
      Temps:          0       0       2       0       0       0       0       0       0       0       0       0       0       0       0       0       0
      Totals:         0       0       6       0       0       0       0       0       0       0       0       0       0       0       0       0       0
Total ram usage:        6 bytes
 Hardware stack levels used:    1
 Hardware stack levels required when called:   11
 This function calls:
		Nothing
 This function is called by:
		_EncodePhoneNumberToPDU
		_SendSMS
 This function uses a non-reentrant model


 *************** function _strcpy *****************
 Defined at:
		line 8 in file "/opt/microchip/xc8/v1.37/sources/common/strcpy.c"
 Parameters:    Size  Location     Type
  to              2   66[BANK1 ] PTR unsigned char 
		 -> EncodePhoneNumberToPDU@encoded(15), active_phone(14), TimeToInd@tString(9), 
  from            2   68[BANK1 ] PTR const unsigned char 
		 -> active_phone(14), container.phone(14), FindPhoneContactByNumber@container(33), STR_10(9), 
		 -> STR_9(9), NULL(0), 
 Auto vars:     Size  Location     Type
  cp              2   70[BANK1 ] PTR unsigned char 
		 -> EncodePhoneNumberToPDU@encoded(15), active_phone(14), TimeToInd@tString(9), 
 Return value:  Size  Location     Type
                  2   66[BANK1 ] PTR unsigned char 
 Registers used:
		wreg, fsr0l, fsr0h, fsr2l, fsr2h, status,2, status,0, tblptrl, tblptrh, tblptru
 Tracked objects:
		On entry : 
		On exit  : 
		Unchanged: 
 Data sizes:     COMRAM   BANK0   BANK1   BANK2   BANK3   BANK4   BANK5   BANK6   BANK7   BANK8   BANK9  BANK10  BANK11  BANK12  BANK13  BANK14  BANK15
      Params:         0       0       4       0       0       0       0       0       0       0       0       0       0       0       0       0       0
      Locals:         0       0       2       0       0       0       0       0       0       0       0       0       0       0       0       0       0
      Temps:          0       0       0       0       0       0       0       0       0       0       0       0       0       0       0       0       0
      Totals:         0       0       6       0       0       0       0       0       0       0       0       0       0       0       0       0       0
Total ram usage:        6 bytes
 Hardware stack levels used:    1
 Hardware stack levels required when called:   11
 This function calls:
		Nothing
 This function is called by:
		_TimeToInd
		_EncodePhoneNumberToPDU
 This function uses a non-reentrant model


 *************** function _PhonebookEdit *****************
 Defined at:
		line 3631 in file "prog.c"
 Parameters:    Size  Location     Type
		None
 Auto vars:     Size  Location     Type
  aaa            33   10[BANK11] struct .
  i               1   58[BANK11] unsigned char 
  number          2   51[BANK11] PTR unsigned char 
		 -> InputText@ret_string(33), NULL(0), 
  input_props     1   50[BANK11] struct .
  field           2   56[BANK11] PTR unsigned char 
		 -> InputText@ret_string(33), NULL(0), 
  input_props     1   54[BANK11] struct .
  menu           10    0[BANK11] PTR unsigned char [5]
		 -> STR_89(10), STR_88(11), STR_87(12), STR_74(9), 
		 -> STR_73(10), STR_72(14), STR_71(15), STR_70(15), 
		 -> STR_69(15), STR_68(15), STR_67(6), STR_66(6), 
		 -> STR_65(6), STR_57(12), STR_56(8), STR_55(14), 
		 -> STR_54(9), STR_25(16), STR_24(8), STR_23(11), 
		 -> STR_22(9), STR_21(9), NULL(0), 
  result          1   55[BANK11] unsigned char 
  num_cell        3   43[BANK11] unsigned char [3]
  Contact        33   61[BANK11] struct .
  cell            2   59[BANK11] unsigned int 
  read            1   53[BANK11] unsigned char 
 Return value:  Size  Location     Type
                  1    wreg      void 
 Registers used:
		wreg, fsr0l, fsr0h, fsr1l, fsr1h, fsr2l, fsr2h, status,2, status,0, tblptrl, tblptrh, tblptru, prodl, prodh, cstack
 Tracked objects:
		On entry : 
		On exit  : 
		Unchanged: 
 Data sizes:     COMRAM   BANK0   BANK1   BANK2   BANK3   BANK4   BANK5   BANK6   BANK7   BANK8   BANK9  BANK10  BANK11  BANK12  BANK13  BANK14  BANK15
      Params:         0       0       0       0       0       0       0       0       0       0       0       0       0       0       0       0       0
      Locals:         0       0       0       0       0       0       0       0       0       0       0       0      94       0       0       0       0
      Temps:          0       0       0       0       0       0       0       0       0       0       0       0       0       0       0       0       0
      Totals:         0       0       0       0       0       0       0       0       0       0       0       0      94       0       0       0       0
Total ram usage:       94 bytes
 Hardware stack levels used:    1
 Hardware stack levels required when called:   15
 This function calls:
		_FillPhonebookCellFromEEPROM
		_Format_EEPROM_Memory
		_InputText
		_NumericToString
		_OutputString
		_OutputSystemMessage
		_Select_OK_NO
		_SendCommandToUSART
		_ShowMenu
		_TelephoneCall
		_WritePhonebookCellToEEPROM
		___lwdiv
		_clrInd
 This function is called by:
		_main2
 This function uses a non-reentrant model


 *************** function _WritePhonebookCellToEEPROM *****************
 Defined at:
		line 1633 in file "prog.c"
 Parameters:    Size  Location     Type
  container       2   79[BANK1 ] PTR struct .
		 -> PhonebookEdit@aaa(33), PhonebookEdit@Contact(33), 
  adress_start    2   81[BANK1 ] unsigned int 
 Auto vars:     Size  Location     Type
		None
 Return value:  Size  Location     Type
                  1    wreg      void 
 Registers used:
		wreg, fsr2l, fsr2h, status,2, status,0, prodl, prodh, cstack
 Tracked objects:
		On entry : 
		On exit  : 
		Unchanged: 
 Data sizes:     COMRAM   BANK0   BANK1   BANK2   BANK3   BANK4   BANK5   BANK6   BANK7   BANK8   BANK9  BANK10  BANK11  BANK12  BANK13  BANK14  BANK15
      Params:         0       0       4       0       0       0       0       0       0       0       0       0       0       0       0       0       0
      Locals:         0       0       0       0       0       0       0       0       0       0       0       0       0       0       0       0       0
      Temps:          0       0       0       0       0       0       0       0       0       0       0       0       0       0       0       0       0
      Totals:         0       0       4       0       0       0       0       0       0       0       0       0       0       0       0       0       0
Total ram usage:        4 bytes
 Hardware stack levels used:    1
 Hardware stack levels required when called:   13
 This function calls:
		_WriteArrayToEEPROM
 This function is called by:
		_PhonebookEdit
 This function uses a non-reentrant model


 *************** function _WriteArrayToEEPROM *****************
 Defined at:
		line 1627 in file "prog.c"
 Parameters:    Size  Location     Type
  container       2   70[BANK1 ] PTR unsigned char 
		 -> PhonebookEdit@aaa(33), PhonebookEdit@Contact(33), EditSchedule@CellsData(8), DeleteDataOfCell@CellsData(8), 
  adress_start    2   72[BANK1 ] unsigned int 
  quantity        2   74[BANK1 ] unsigned int 
 Auto vars:     Size  Location     Type
  i               1   78[BANK1 ] unsigned char 
 Return value:  Size  Location     Type
                  1    wreg      void 
 Registers used:
		wreg, fsr2l, fsr2h, status,2, status,0, prodl, prodh, cstack
 Tracked objects:
		On entry : 
		On exit  : 
		Unchanged: 
 Data sizes:     COMRAM   BANK0   BANK1   BANK2   BANK3   BANK4   BANK5   BANK6   BANK7   BANK8   BANK9  BANK10  BANK11  BANK12  BANK13  BANK14  BANK15
      Params:         0       0       6       0       0       0       0       0       0       0       0       0       0       0       0       0       0
      Locals:         0       0       1       0       0       0       0       0       0       0       0       0       0       0       0       0       0
      Temps:          0       0       2       0       0       0       0       0       0       0       0       0       0       0       0       0       0
      Totals:         0       0       9       0       0       0       0       0       0       0       0       0       0       0       0       0       0
Total ram usage:        9 bytes
 Hardware stack levels used:    1
 Hardware stack levels required when called:   12
 This function calls:
		_EEWR
 This function is called by:
		_WritePhonebookCellToEEPROM
		_WriteDataOfCell
		_DeleteDataOfCell
 This function uses a non-reentrant model


 *************** function _TelephoneCall *****************
 Defined at:
		line 3521 in file "prog.c"
 Parameters:    Size  Location     Type
  phone_number    2   69[BANK1 ] PTR unsigned char 
		 -> PhonebookEdit@Contact(33), InputText@ret_string(33), NULL(0), 
 Auto vars:     Size  Location     Type
  command        18   73[BANK1 ] volatile unsigned char [
  i               1   91[BANK1 ] unsigned char 
 Return value:  Size  Location     Type
                  1    wreg      void 
 Registers used:
		wreg, fsr1l, fsr1h, fsr2l, fsr2h, status,2, status,0, prodl, prodh, cstack
 Tracked objects:
		On entry : 
		On exit  : 
		Unchanged: 
 Data sizes:     COMRAM   BANK0   BANK1   BANK2   BANK3   BANK4   BANK5   BANK6   BANK7   BANK8   BANK9  BANK10  BANK11  BANK12  BANK13  BANK14  BANK15
      Params:         0       0       2       0       0       0       0       0       0       0       0       0       0       0       0       0       0
      Locals:         0       0      19       0       0       0       0       0       0       0       0       0       0       0       0       0       0
      Temps:          0       0       2       0       0       0       0       0       0       0       0       0       0       0       0       0       0
      Totals:         0       0      23       0       0       0       0       0       0       0       0       0       0       0       0       0       0
Total ram usage:       23 bytes
 Hardware stack levels used:    1
 Hardware stack levels required when called:   12
 This function calls:
		_SendCommandToUSART
 This function is called by:
		_PhonebookEdit
 This function uses a non-reentrant model


 *************** function _SendCommandToUSART *****************
 Defined at:
		line 3381 in file "prog.c"
 Parameters:    Size  Location     Type
  command         2   66[BANK1 ] PTR unsigned char 
		 -> SendSMS@command(12), SMS(512), WriteTime@comand(31), STR_90(9), 
		 -> STR_64(5), STR_62(4), TelephoneCall@command(18), STR_49(10), 
		 -> STR_47(5), STR_45(2), STR_42(3), STR_41(3), 
		 -> InputText@ret_string(33), STR_38(5), ProcessIncommingUartData@answerString(11), STR_37(10), 
		 -> STR_36(4), STR_34(5), NULL(0), 
  wait            1   68[BANK1 ] unsigned char 
 Auto vars:     Size  Location     Type
		None
 Return value:  Size  Location     Type
                  1    wreg      void 
 Registers used:
		wreg, status,2, status,0
 Tracked objects:
		On entry : 
		On exit  : 
		Unchanged: 
 Data sizes:     COMRAM   BANK0   BANK1   BANK2   BANK3   BANK4   BANK5   BANK6   BANK7   BANK8   BANK9  BANK10  BANK11  BANK12  BANK13  BANK14  BANK15
      Params:         0       0       3       0       0       0       0       0       0       0       0       0       0       0       0       0       0
      Locals:         0       0       0       0       0       0       0       0       0       0       0       0       0       0       0       0       0
      Temps:          0       0       0       0       0       0       0       0       0       0       0       0       0       0       0       0       0
      Totals:         0       0       3       0       0       0       0       0       0       0       0       0       0       0       0       0       0
Total ram usage:        3 bytes
 Hardware stack levels used:    1
 Hardware stack levels required when called:   11
 This function calls:
		Nothing
 This function is called by:
		_WorkingWithGSM
		_Init_GSM
		_TelephoneCall
		_PhonebookEdit
		_WriteTime
		_SendSMS
 This function uses a non-reentrant model


 *************** function _ShowMenu *****************
 Defined at:
		line 3557 in file "prog.c"
 Parameters:    Size  Location     Type
  menu            2   85[BANK1 ] PTR PTR unsigned char 
		 -> main2@menu(8), Settings@menu_GSM_on_off(6), Settings@menu(12), USART_Speed_Choise@menu(8), 
		 -> PhonebookEdit@menu(10), ShowSchedulerMenu@menu(12), 
  item            1   87[BANK1 ] unsigned char 
 Auto vars:     Size  Location     Type
  item_max        1   93[BANK1 ] unsigned char 
  result          1   92[BANK1 ] unsigned char 
 Return value:  Size  Location     Type
                  1    wreg      unsigned char 
 Registers used:
		wreg, fsr0l, fsr0h, fsr2l, fsr2h, status,2, status,0, tblptrl, tblptrh, tblptru, prodl, prodh, cstack
 Tracked objects:
		On entry : 
		On exit  : 
		Unchanged: 
 Data sizes:     COMRAM   BANK0   BANK1   BANK2   BANK3   BANK4   BANK5   BANK6   BANK7   BANK8   BANK9  BANK10  BANK11  BANK12  BANK13  BANK14  BANK15
      Params:         0       0       3       0       0       0       0       0       0       0       0       0       0       0       0       0       0
      Locals:         0       0       2       0       0       0       0       0       0       0       0       0       0       0       0       0       0
      Temps:          0       0       4       0       0       0       0       0       0       0       0       0       0       0       0       0       0
      Totals:         0       0       9       0       0       0       0       0       0       0       0       0       0       0       0       0       0
Total ram usage:        9 bytes
 Hardware stack levels used:    1
 Hardware stack levels required when called:   13
 This function calls:
		_OutputString
		_clrInd
 This function is called by:
		_ShowSchedulerMenu
		_PhonebookEdit
		_USART_Speed_Choise
		_Settings
		_main2
 This function uses a non-reentrant model


 *************** function _InputText *****************
 Defined at:
		line 3159 in file "prog.c"
 Parameters:    Size  Location     Type
  text            2   90[BANK1 ] PTR unsigned char 
		 -> Contact.phone(14), Contact.name(17), PhonebookEdit@Contact(33), NULL(0), 
  _props          2   92[BANK1 ] PTR struct .
		 -> PhonebookEdit@input_props_2239(1), PhonebookEdit@input_props(1), NULL(0), 
  capacity        1   94[BANK1 ] unsigned char 
 Auto vars:     Size  Location     Type
  i               1  212[BANK3 ] unsigned char 
  i               1  103[BANK1 ] unsigned char 
  temp            2  210[BANK3 ] PTR struct .
		 -> InputText@_input_data(132), EditSchedule@_times(44), 
  ret_string     33   65[BANK2 ] unsigned char [33]
  i               1  215[BANK3 ] unsigned char 
  temp            2  213[BANK3 ] PTR struct .
		 -> InputText@_input_data(132), EditSchedule@_times(44), 
  i               1  203[BANK2 ] unsigned char 
  i               1  218[BANK3 ] unsigned char 
  _input_data   132    0[BANK3 ] struct .[33]
  InputData      66  132[BANK3 ] PTR struct .[33]
		 -> InputText@_input_data(132), EditSchedule@_times(44), 
  symbols        60    0[BANK6 ] PTR unsigned char [30]
		 -> InputText@s_29(2), InputText@s_28(2), InputText@s_27(2), InputText@s_26(2), 
		 -> InputText@s_25(2), InputText@s_24(2), InputText@s_23(2), InputText@s_22(2), 
		 -> InputText@s_21(2), InputText@s_20(3), InputText@s_19(6), InputText@s_18(6), 
		 -> InputText@s_17(6), InputText@s_16(6), InputText@s_15(6), InputText@s_14(6), 
		 -> InputText@s_13(6), InputText@s_12(6), InputText@s_9(6), InputText@s_8(5), 
		 -> InputText@s_7(6), InputText@s_6(5), InputText@s_5(5), InputText@s_4(5), 
		 -> InputText@s_3(5), InputText@s_2(5), InputText@s_1(18), InputText@s_0(3), 
  s_1            18   47[BANK2 ] unsigned char [18]
  s_19            6  152[BANK2 ] unsigned char [6]
  s_18            6  146[BANK2 ] unsigned char [6]
  s_17            6  140[BANK2 ] unsigned char [6]
  s_16            6  134[BANK2 ] unsigned char [6]
  s_15            6  128[BANK2 ] unsigned char [6]
  s_14            6  122[BANK2 ] unsigned char [6]
  s_13            6  116[BANK2 ] unsigned char [6]
  s_12            6  110[BANK2 ] unsigned char [6]
  s_9             6  104[BANK2 ] unsigned char [6]
  s_7             6   98[BANK2 ] unsigned char [6]
  s_8             5  183[BANK2 ] unsigned char [5]
  s_6             5  178[BANK2 ] unsigned char [5]
  s_5             5  173[BANK2 ] unsigned char [5]
  s_4             5  168[BANK2 ] unsigned char [5]
  s_3             5  163[BANK2 ] unsigned char [5]
  s_2             5  158[BANK2 ] unsigned char [5]
  time_point      4  204[BANK3 ] unsigned long 
  s_0             3  188[BANK2 ] unsigned char [3]
  s_20            3  100[BANK1 ] unsigned char [3]
  cur_char        2  208[BANK3 ] PTR unsigned char 
		 -> InputText@s_29(2), InputText@s_28(2), InputText@s_27(2), InputText@s_26(2), 
		 -> InputText@s_25(2), InputText@s_24(2), InputText@s_23(2), InputText@s_22(2), 
		 -> InputText@s_21(2), InputText@s_20(3), InputText@s_19(6), InputText@s_18(6), 
		 -> InputText@s_17(6), InputText@s_16(6), InputText@s_15(6), InputText@s_14(6), 
		 -> InputText@s_13(6), InputText@s_12(6), InputText@s_9(6), InputText@s_8(5), 
		 -> InputText@s_7(6), InputText@s_6(5), InputText@s_5(5), InputText@s_4(5), 
		 -> InputText@s_3(5), InputText@s_2(5), InputText@s_1(18), InputText@s_0(3), 
  s_29            2  202[BANK3 ] unsigned char [2]
  s_28            2  200[BANK3 ] unsigned char [2]
  s_27            2  198[BANK3 ] unsigned char [2]
  s_26            2  201[BANK2 ] unsigned char [2]
  s_25            2  199[BANK2 ] unsigned char [2]
  s_24            2  197[BANK2 ] unsigned char [2]
  s_23            2  195[BANK2 ] unsigned char [2]
  s_22            2  193[BANK2 ] unsigned char [2]
  s_21            2  191[BANK2 ] unsigned char [2]
  active_cell     1  219[BANK3 ] unsigned char 
  props           1  217[BANK3 ] struct .
  lastKeyCode     1  216[BANK3 ] unsigned char 
 Return value:  Size  Location     Type
                  2   90[BANK1 ] PTR unsigned char 
 Registers used:
		wreg, fsr0l, fsr0h, fsr1l, fsr1h, fsr2l, fsr2h, status,2, status,0, tblptrl, tblptrh, tblptru, prodl, prodh, cstack
 Tracked objects:
		On entry : 
		On exit  : 
		Unchanged: 
 Data sizes:     COMRAM   BANK0   BANK1   BANK2   BANK3   BANK4   BANK5   BANK6   BANK7   BANK8   BANK9  BANK10  BANK11  BANK12  BANK13  BANK14  BANK15
      Params:         0       0       5       0       0       0       0       0       0       0       0       0       0       0       0       0       0
      Locals:         0       0       4     157     220       0       0      60       0       0       0       0       0       0       0       0       0
      Temps:          0       0       5       0       0       0       0       0       0       0       0       0       0       0       0       0       0
      Totals:         0       0      14     157     220       0       0      60       0       0       0       0       0       0       0       0       0
Total ram usage:      451 bytes
 Hardware stack levels used:    1
 Hardware stack levels required when called:   14
 This function calls:
		_CheckoutRegisterOfSymbol
		_InteractiveData_BlinkOFF
		_OutputInteractiveData
		__setInputTextProps
		_clrInd
		_getSystemTimePoint
		_system_BlinkReset
		_testTimePoint
 This function is called by:
		_WorkingWithGSM
		_PhonebookEdit
 This function uses a non-reentrant model


 *************** function _testTimePoint *****************
 Defined at:
		line 2678 in file "prog.c"
 Parameters:    Size  Location     Type
  point           4   70[BANK1 ] unsigned long 
  value           4   74[BANK1 ] unsigned long 
 Auto vars:     Size  Location     Type
  _point          4   86[BANK1 ] unsigned long 
 Return value:  Size  Location     Type
                  1    wreg      unsigned char 
 Registers used:
		wreg, status,2, status,0, cstack
 Tracked objects:
		On entry : 
		On exit  : 
		Unchanged: 
 Data sizes:     COMRAM   BANK0   BANK1   BANK2   BANK3   BANK4   BANK5   BANK6   BANK7   BANK8   BANK9  BANK10  BANK11  BANK12  BANK13  BANK14  BANK15
      Params:         0       0       8       0       0       0       0       0       0       0       0       0       0       0       0       0       0
      Locals:         0       0       4       0       0       0       0       0       0       0       0       0       0       0       0       0       0
      Temps:          0       0       8       0       0       0       0       0       0       0       0       0       0       0       0       0       0
      Totals:         0       0      20       0       0       0       0       0       0       0       0       0       0       0       0       0       0
Total ram usage:       20 bytes
 Hardware stack levels used:    1
 Hardware stack levels required when called:   12
 This function calls:
		_getSystemTimePoint
 This function is called by:
		_InputText
		_UserDelay
		_SendSMS
 This function uses a non-reentrant model


 *************** function _getSystemTimePoint *****************
 Defined at:
		line 2674 in file "prog.c"
 Parameters:    Size  Location     Type
		None
 Auto vars:     Size  Location     Type
		None
 Return value:  Size  Location     Type
                  4   66[BANK1 ] unsigned long 
 Registers used:
		None
 Tracked objects:
		On entry : 
		On exit  : 
		Unchanged: 
 Data sizes:     COMRAM   BANK0   BANK1   BANK2   BANK3   BANK4   BANK5   BANK6   BANK7   BANK8   BANK9  BANK10  BANK11  BANK12  BANK13  BANK14  BANK15
      Params:         0       0       4       0       0       0       0       0       0       0       0       0       0       0       0       0       0
      Locals:         0       0       0       0       0       0       0       0       0       0       0       0       0       0       0       0       0
      Temps:          0       0       0       0       0       0       0       0       0       0       0       0       0       0       0       0       0
      Totals:         0       0       4       0       0       0       0       0       0       0       0       0       0       0       0       0       0
Total ram usage:        4 bytes
 Hardware stack levels used:    1
 Hardware stack levels required when called:   11
 This function calls:
		Nothing
 This function is called by:
		_testTimePoint
		_InputText
		_UserDelay
		_SendSMS
		_testSystemTimer
 This function uses a non-reentrant model


 *************** function _system_BlinkReset *****************
 Defined at:
		line 2688 in file "prog.c"
 Parameters:    Size  Location     Type
  val             1    wreg     unsigned char 
 Auto vars:     Size  Location     Type
  val             1   66[BANK1 ] unsigned char 
 Return value:  Size  Location     Type
                  1    wreg      void 
 Registers used:
		wreg, status,2
 Tracked objects:
		On entry : 
		On exit  : 
		Unchanged: 
 Data sizes:     COMRAM   BANK0   BANK1   BANK2   BANK3   BANK4   BANK5   BANK6   BANK7   BANK8   BANK9  BANK10  BANK11  BANK12  BANK13  BANK14  BANK15
      Params:         0       0       0       0       0       0       0       0       0       0       0       0       0       0       0       0       0
      Locals:         0       0       1       0       0       0       0       0       0       0       0       0       0       0       0       0       0
      Temps:          0       0       0       0       0       0       0       0       0       0       0       0       0       0       0       0       0
      Totals:         0       0       1       0       0       0       0       0       0       0       0       0       0       0       0       0       0
Total ram usage:        1 bytes
 Hardware stack levels used:    1
 Hardware stack levels required when called:   11
 This function calls:
		Nothing
 This function is called by:
		_InputText
 This function uses a non-reentrant model


 *************** function __setInputTextProps *****************
 Defined at:
		line 3109 in file "prog.c"
 Parameters:    Size  Location     Type
  _props          2   85[BANK1 ] PTR struct .
		 -> InputText@props(1), 
 Auto vars:     Size  Location     Type
  i               1   45[BANK2 ] unsigned char 
  i               1   44[BANK2 ] unsigned char 
  source_L       22    0[BANK2 ] const unsigned char [22]
  source_A       10   22[BANK2 ] const unsigned char [10]
  Lang            8   32[BANK2 ] unsigned char [8]
  Aa              4   40[BANK2 ] unsigned char [4]
  props           1   46[BANK2 ] struct .
 Return value:  Size  Location     Type
                  1    wreg      void 
 Registers used:
		wreg, fsr0l, fsr0h, fsr1l, fsr1h, fsr2l, fsr2h, status,2, status,0, tblptrl, tblptrh, tblptru, prodl, prodh, cstack
 Tracked objects:
		On entry : 
		On exit  : 
		Unchanged: 
 Data sizes:     COMRAM   BANK0   BANK1   BANK2   BANK3   BANK4   BANK5   BANK6   BANK7   BANK8   BANK9  BANK10  BANK11  BANK12  BANK13  BANK14  BANK15
      Params:         0       0       2       0       0       0       0       0       0       0       0       0       0       0       0       0       0
      Locals:         0       0       0      47       0       0       0       0       0       0       0       0       0       0       0       0       0
      Temps:          0       0       3       0       0       0       0       0       0       0       0       0       0       0       0       0       0
      Totals:         0       0       5      47       0       0       0       0       0       0       0       0       0       0       0       0       0
Total ram usage:       52 bytes
 Hardware stack levels used:    1
 Hardware stack levels required when called:   13
 This function calls:
		_OutputString
		_clrInd
 This function is called by:
		_InputText
 This function uses a non-reentrant model


 *************** function _OutputInteractiveData *****************
 Defined at:
		line 1327 in file "prog.c"
 Parameters:    Size  Location     Type
  data            2   80[BANK1 ] PTR PTR struct .
		 -> InputText@InputData(66), EditSchedule@TimesOutput(22), TimeEdit@TimeData(33), 
  length          1   82[BANK1 ] unsigned char 
  start_symbol    1   83[BANK1 ] unsigned char 
 Auto vars:     Size  Location     Type
  s               1   87[BANK1 ] unsigned char 
  line            1   86[BANK1 ] unsigned char 
  i               1   88[BANK1 ] unsigned char 
 Return value:  Size  Location     Type
                  1    wreg      void 
 Registers used:
		wreg, fsr1l, fsr1h, fsr2l, fsr2h, status,2, status,0, prodl, prodh, cstack
 Tracked objects:
		On entry : 
		On exit  : 
		Unchanged: 
 Data sizes:     COMRAM   BANK0   BANK1   BANK2   BANK3   BANK4   BANK5   BANK6   BANK7   BANK8   BANK9  BANK10  BANK11  BANK12  BANK13  BANK14  BANK15
      Params:         0       0       4       0       0       0       0       0       0       0       0       0       0       0       0       0       0
      Locals:         0       0       3       0       0       0       0       0       0       0       0       0       0       0       0       0       0
      Temps:          0       0       2       0       0       0       0       0       0       0       0       0       0       0       0       0       0
      Totals:         0       0       9       0       0       0       0       0       0       0       0       0       0       0       0       0       0
Total ram usage:        9 bytes
 Hardware stack levels used:    1
 Hardware stack levels required when called:   12
 This function calls:
		___awdiv
		_setBlink
		_setDigit
 This function is called by:
		_ReIndTimeEdit
		_EditSchedule
		_InputText
 This function uses a non-reentrant model


 *************** function _setBlink *****************
 Defined at:
		line 446 in file "prog.c"
 Parameters:    Size  Location     Type
  line            1    wreg     unsigned char 
  symbol          1   66[BANK1 ] unsigned char 
  value           1   67[BANK1 ] unsigned char 
 Auto vars:     Size  Location     Type
  line            1   70[BANK1 ] unsigned char 
 Return value:  Size  Location     Type
                  1    wreg      void 
 Registers used:
		wreg, fsr2l, fsr2h, status,2, status,0, prodl, prodh
 Tracked objects:
		On entry : 
		On exit  : 
		Unchanged: 
 Data sizes:     COMRAM   BANK0   BANK1   BANK2   BANK3   BANK4   BANK5   BANK6   BANK7   BANK8   BANK9  BANK10  BANK11  BANK12  BANK13  BANK14  BANK15
      Params:         0       0       2       0       0       0       0       0       0       0       0       0       0       0       0       0       0
      Locals:         0       0       1       0       0       0       0       0       0       0       0       0       0       0       0       0       0
      Temps:          0       0       2       0       0       0       0       0       0       0       0       0       0       0       0       0       0
      Totals:         0       0       5       0       0       0       0       0       0       0       0       0       0       0       0       0       0
Total ram usage:        5 bytes
 Hardware stack levels used:    1
 Hardware stack levels required when called:   11
 This function calls:
		Nothing
 This function is called by:
		_OutputInteractiveData
 This function uses a non-reentrant model


 *************** function ___awdiv *****************
 Defined at:
		line 8 in file "/opt/microchip/xc8/v1.37/sources/common/awdiv.c"
 Parameters:    Size  Location     Type
  dividend        2   72[BANK1 ] int 
  divisor         2   74[BANK1 ] int 
 Auto vars:     Size  Location     Type
  quotient        2   78[BANK1 ] int 
  sign            1   77[BANK1 ] unsigned char 
  counter         1   76[BANK1 ] unsigned char 
 Return value:  Size  Location     Type
                  2   72[BANK1 ] int 
 Registers used:
		wreg, status,2, status,0
 Tracked objects:
		On entry : 
		On exit  : 
		Unchanged: 
 Data sizes:     COMRAM   BANK0   BANK1   BANK2   BANK3   BANK4   BANK5   BANK6   BANK7   BANK8   BANK9  BANK10  BANK11  BANK12  BANK13  BANK14  BANK15
      Params:         0       0       4       0       0       0       0       0       0       0       0       0       0       0       0       0       0
      Locals:         0       0       4       0       0       0       0       0       0       0       0       0       0       0       0       0       0
      Temps:          0       0       0       0       0       0       0       0       0       0       0       0       0       0       0       0       0
      Totals:         0       0       8       0       0       0       0       0       0       0       0       0       0       0       0       0       0
Total ram usage:        8 bytes
 Hardware stack levels used:    1
 Hardware stack levels required when called:   11
 This function calls:
		Nothing
 This function is called by:
		_OutputInteractiveData
		_TimeEdit
		_lcd_send_byte
		_GetDayOfWeekByDate
		_DEC_to_BCD
		_WriteTime
 This function uses a non-reentrant model


 *************** function _InteractiveData_BlinkOFF *****************
 Defined at:
		line 1374 in file "prog.c"
 Parameters:    Size  Location     Type
  InteractiveD    2   66[BANK1 ] PTR PTR struct .
		 -> InputText@InputData(66), EditSchedule@Times(16), TimeEdit@TimeData(33), 
  leght           1   68[BANK1 ] unsigned char 
 Auto vars:     Size  Location     Type
  i               1   71[BANK1 ] unsigned char 
 Return value:  Size  Location     Type
                  1    wreg      void 
 Registers used:
		wreg, fsr2l, fsr2h, status,2, status,0, prodl, prodh
 Tracked objects:
		On entry : 
		On exit  : 
		Unchanged: 
 Data sizes:     COMRAM   BANK0   BANK1   BANK2   BANK3   BANK4   BANK5   BANK6   BANK7   BANK8   BANK9  BANK10  BANK11  BANK12  BANK13  BANK14  BANK15
      Params:         0       0       3       0       0       0       0       0       0       0       0       0       0       0       0       0       0
      Locals:         0       0       1       0       0       0       0       0       0       0       0       0       0       0       0       0       0
      Temps:          0       0       2       0       0       0       0       0       0       0       0       0       0       0       0       0       0
      Totals:         0       0       6       0       0       0       0       0       0       0       0       0       0       0       0       0       0
Total ram usage:        6 bytes
 Hardware stack levels used:    1
 Hardware stack levels required when called:   11
 This function calls:
		Nothing
 This function is called by:
		_TimeData_BlinkOFF
		_EditSchedule
		_InputText
 This function uses a non-reentrant model


 *************** function _CheckoutRegisterOfSymbol *****************
 Defined at:
		line 934 in file "prog.c"
 Parameters:    Size  Location     Type
  dig             1    wreg     unsigned char 
 Auto vars:     Size  Location     Type
  dig             1   66[BANK1 ] unsigned char 
 Return value:  Size  Location     Type
                  1    wreg      unsigned char 
 Registers used:
		wreg, status,2, status,0
 Tracked objects:
		On entry : 
		On exit  : 
		Unchanged: 
 Data sizes:     COMRAM   BANK0   BANK1   BANK2   BANK3   BANK4   BANK5   BANK6   BANK7   BANK8   BANK9  BANK10  BANK11  BANK12  BANK13  BANK14  BANK15
      Params:         0       0       0       0       0       0       0       0       0       0       0       0       0       0       0       0       0
      Locals:         0       0       1       0       0       0       0       0       0       0       0       0       0       0       0       0       0
      Temps:          0       0       0       0       0       0       0       0       0       0       0       0       0       0       0       0       0
      Totals:         0       0       1       0       0       0       0       0       0       0       0       0       0       0       0       0       0
Total ram usage:        1 bytes
 Hardware stack levels used:    1
 Hardware stack levels required when called:   11
 This function calls:
		Nothing
 This function is called by:
		_InputText
 This function uses a non-reentrant model


 *************** function _Format_EEPROM_Memory *****************
 Defined at:
		line 2326 in file "prog.c"
 Parameters:    Size  Location     Type
  first_cell      2   87[BANK1 ] unsigned int 
  last_cell       2   89[BANK1 ] unsigned int 
  interactive     1   91[BANK1 ] unsigned char 
 Auto vars:     Size  Location     Type
  i               2   96[BANK1 ] unsigned int 
 Return value:  Size  Location     Type
                  1    wreg      void 
 Registers used:
		wreg, fsr0l, fsr0h, fsr2l, fsr2h, status,2, status,0, tblptrl, tblptrh, tblptru, prodl, prodh, cstack
 Tracked objects:
		On entry : 
		On exit  : 
		Unchanged: 
 Data sizes:     COMRAM   BANK0   BANK1   BANK2   BANK3   BANK4   BANK5   BANK6   BANK7   BANK8   BANK9  BANK10  BANK11  BANK12  BANK13  BANK14  BANK15
      Params:         0       0       5       0       0       0       0       0       0       0       0       0       0       0       0       0       0
      Locals:         0       0       2       0       0       0       0       0       0       0       0       0       0       0       0       0       0
      Temps:          0       0       4       0       0       0       0       0       0       0       0       0       0       0       0       0       0
      Totals:         0       0      11       0       0       0       0       0       0       0       0       0       0       0       0       0       0
Total ram usage:       11 bytes
 Hardware stack levels used:    1
 Hardware stack levels required when called:   14
 This function calls:
		_EEWR
		_OutputSystemMessage
		_Select_OK_NO
 This function is called by:
		_ShowSchedulerMenu
		_PhonebookEdit
		_Settings
 This function uses a non-reentrant model


 *************** function _Select_OK_NO *****************
 Defined at:
		line 3537 in file "prog.c"
 Parameters:    Size  Location     Type
  text            2   85[BANK1 ] PTR unsigned char 
		 -> STR_63(17), STR_59(27), STR_58(15), STR_30(33), 
		 -> STR_29(17), STR_26(30), 
 Auto vars:     Size  Location     Type
		None
 Return value:  Size  Location     Type
                  1    wreg      unsigned char 
 Registers used:
		wreg, fsr0l, fsr0h, fsr2l, fsr2h, status,2, status,0, tblptrl, tblptrh, tblptru, prodl, prodh, cstack
 Tracked objects:
		On entry : 
		On exit  : 
		Unchanged: 
 Data sizes:     COMRAM   BANK0   BANK1   BANK2   BANK3   BANK4   BANK5   BANK6   BANK7   BANK8   BANK9  BANK10  BANK11  BANK12  BANK13  BANK14  BANK15
      Params:         0       0       2       0       0       0       0       0       0       0       0       0       0       0       0       0       0
      Locals:         0       0       0       0       0       0       0       0       0       0       0       0       0       0       0       0       0
      Temps:          0       0       0       0       0       0       0       0       0       0       0       0       0       0       0       0       0
      Totals:         0       0       2       0       0       0       0       0       0       0       0       0       0       0       0       0       0
Total ram usage:        2 bytes
 Hardware stack levels used:    1
 Hardware stack levels required when called:   13
 This function calls:
		_OutputString
		_clrInd
 This function is called by:
		_ShowSchedulerMenu
		_Format_EEPROM_Memory
		_PhonebookEdit
 This function uses a non-reentrant model


 *************** function _clrInd *****************
 Defined at:
		line 456 in file "prog.c"
 Parameters:    Size  Location     Type
		None
 Auto vars:     Size  Location     Type
  symb            1   69[BANK1 ] unsigned char 
  line            1   68[BANK1 ] unsigned char 
 Return value:  Size  Location     Type
                  1    wreg      void 
 Registers used:
		wreg, fsr2l, fsr2h, status,2, status,0, prodl, prodh
 Tracked objects:
		On entry : 
		On exit  : 
		Unchanged: 
 Data sizes:     COMRAM   BANK0   BANK1   BANK2   BANK3   BANK4   BANK5   BANK6   BANK7   BANK8   BANK9  BANK10  BANK11  BANK12  BANK13  BANK14  BANK15
      Params:         0       0       0       0       0       0       0       0       0       0       0       0       0       0       0       0       0
      Locals:         0       0       2       0       0       0       0       0       0       0       0       0       0       0       0       0       0
      Temps:          0       0       2       0       0       0       0       0       0       0       0       0       0       0       0       0       0
      Totals:         0       0       4       0       0       0       0       0       0       0       0       0       0       0       0       0       0
Total ram usage:        4 bytes
 Hardware stack levels used:    1
 Hardware stack levels required when called:   11
 This function calls:
		Nothing
 This function is called by:
		_TimeToInd
		_TimeEdit
		_EditSchedule
		_ShowSchedulerMenu
		_Scheduler
		_SchedulerNew
		_main
		__setInputTextProps
		_InputText
		_WorkingWithGSM
		_Init_GSM
		_Select_OK_NO
		_ShowMenu
		_PhonebookEdit
		_main2
		_testSystemTimer
 This function uses a non-reentrant model


 *************** function _OutputString *****************
 Defined at:
		line 2935 in file "prog.c"
 Parameters:    Size  Location     Type
  stringData      2   76[BANK1 ] PTR unsigned char 
		 -> STR_89(10), STR_88(11), STR_87(12), STR_74(9), 
		 -> STR_73(10), STR_72(14), STR_71(15), STR_70(15), 
		 -> STR_69(15), STR_68(15), STR_67(6), STR_66(6), 
		 -> STR_65(6), STR_63(17), STR_59(27), STR_58(15), 
		 -> STR_57(12), STR_56(8), STR_55(14), STR_54(9), 
		 -> STR_53(14), STR_52(17), PhonebookEdit@num_cell(3), PhonebookEdit@Contact(33), 
		 -> STR_51(2), testSystemTimer@string(17), WorkingWithGSM@myOutputString(33), _setInputTextProps@Lang(8), 
		 -> _setInputTextProps@Aa(4), drowText@cutedString(17), STR_30(33), STR_29(17), 
		 -> STR_26(30), STR_25(16), STR_24(8), STR_23(11), 
		 -> STR_22(9), STR_21(9), STR_20(8), STR_19(7), 
		 -> RefreshSchedulerIndicator@num_1604(3), STR_18(13), STR_17(3), RefreshSchedulerIndicator@num(3), 
		 -> STR_16(5), STR_15(4), STR_14(4), STR_13(4), 
		 -> STR_12(17), TimeToInd@DataArrayOfLine2(13), TimeToInd@DataArray(17), STR_11(17), 
		 -> TimeToInd@tString(9), TimeToInd@TimeData(9), TimeToInd@D(4), STR_8(3), 
		 -> STR_7(3), STR_6(3), STR_5(3), STR_4(3), 
		 -> STR_3(3), STR_2(3), STR_1(3), NULL(0), 
  line            1   78[BANK1 ] unsigned char 
  position        1   79[BANK1 ] unsigned char 
  transfer_lin    1   80[BANK1 ] unsigned char 
 Auto vars:     Size  Location     Type
  i               1   84[BANK1 ] unsigned char 
  cont            1   83[BANK1 ] unsigned char 
 Return value:  Size  Location     Type
                  1    wreg      void 
 Registers used:
		wreg, fsr0l, fsr0h, fsr2l, fsr2h, status,2, status,0, tblptrl, tblptrh, tblptru, prodl, prodh, cstack
 Tracked objects:
		On entry : 
		On exit  : 
		Unchanged: 
 Data sizes:     COMRAM   BANK0   BANK1   BANK2   BANK3   BANK4   BANK5   BANK6   BANK7   BANK8   BANK9  BANK10  BANK11  BANK12  BANK13  BANK14  BANK15
      Params:         0       0       5       0       0       0       0       0       0       0       0       0       0       0       0       0       0
      Locals:         0       0       2       0       0       0       0       0       0       0       0       0       0       0       0       0       0
      Temps:          0       0       2       0       0       0       0       0       0       0       0       0       0       0       0       0       0
      Totals:         0       0       9       0       0       0       0       0       0       0       0       0       0       0       0       0       0
Total ram usage:        9 bytes
 Hardware stack levels used:    1
 Hardware stack levels required when called:   12
 This function calls:
		_setDigit
 This function is called by:
		_TimeToInd
		_ReIndTimeEdit
		_RefreshSchedulerIndicator
		__setInputTextProps
		_WorkingWithGSM
		_Select_OK_NO
		_ShowMenu
		_PhonebookEdit
		_drowText
		_testSystemTimer
 This function uses a non-reentrant model


 *************** function _setDigit *****************
 Defined at:
		line 438 in file "prog.c"
 Parameters:    Size  Location     Type
  line            1    wreg     unsigned char 
  symbol          1   67[BANK1 ] unsigned char 
  data            1   68[BANK1 ] unsigned char 
 Auto vars:     Size  Location     Type
  line            1   75[BANK1 ] unsigned char 
  value           1   74[BANK1 ] unsigned char 
  value0          1   73[BANK1 ] unsigned char 
 Return value:  Size  Location     Type
                  1    wreg      void 
 Registers used:
		wreg, fsr2l, fsr2h, status,2, status,0, prodl, prodh
 Tracked objects:
		On entry : 
		On exit  : 
		Unchanged: 
 Data sizes:     COMRAM   BANK0   BANK1   BANK2   BANK3   BANK4   BANK5   BANK6   BANK7   BANK8   BANK9  BANK10  BANK11  BANK12  BANK13  BANK14  BANK15
      Params:         0       0       2       0       0       0       0       0       0       0       0       0       0       0       0       0       0
      Locals:         0       0       5       0       0       0       0       0       0       0       0       0       0       0       0       0       0
      Temps:          0       0       2       0       0       0       0       0       0       0       0       0       0       0       0       0       0
      Totals:         0       0       9       0       0       0       0       0       0       0       0       0       0       0       0       0       0
Total ram usage:        9 bytes
 Hardware stack levels used:    1
 Hardware stack levels required when called:   11
 This function calls:
		Nothing
 This function is called by:
		_OutputInteractiveData
		_ItemsToIndicator
		_OutputString
		_SendArrayToLCD
 This function uses a non-reentrant model


 *************** function _OutputSystemMessage *****************
 Defined at:
		line 2955 in file "prog.c"
 Parameters:    Size  Location     Type
  stringData      2   66[BANK1 ] PTR unsigned char 
		 -> STR_100(31), STR_61(8), STR_60(20), STR_50(27), 
		 -> STR_48(23), STR_46(20), STR_43(23), STR_40(26), 
		 -> STR_39(11), ProcessIncommingUartData@msg(33), STR_32(8), STR_31(20), 
		 -> STR_28(8), STR_27(20), 
 Auto vars:     Size  Location     Type
  position        1   72[BANK1 ] unsigned char 
  s               1   75[BANK1 ] unsigned char 
  symb            1   78[BANK1 ] unsigned char 
  l               1   76[BANK1 ] unsigned char 
  line            1   77[BANK1 ] unsigned char 
  i               2   73[BANK1 ] unsigned int 
 Return value:  Size  Location     Type
                  1    wreg      void 
 Registers used:
		wreg, fsr0l, fsr0h, fsr2l, fsr2h, status,2, status,0, tblptrl, tblptrh, tblptru, prodl, prodh
 Tracked objects:
		On entry : 
		On exit  : 
		Unchanged: 
 Data sizes:     COMRAM   BANK0   BANK1   BANK2   BANK3   BANK4   BANK5   BANK6   BANK7   BANK8   BANK9  BANK10  BANK11  BANK12  BANK13  BANK14  BANK15
      Params:         0       0       2       0       0       0       0       0       0       0       0       0       0       0       0       0       0
      Locals:         0       0       7       0       0       0       0       0       0       0       0       0       0       0       0       0       0
      Temps:          0       0       4       0       0       0       0       0       0       0       0       0       0       0       0       0       0
      Totals:         0       0      13       0       0       0       0       0       0       0       0       0       0       0       0       0       0
Total ram usage:       13 bytes
 Hardware stack levels used:    1
 Hardware stack levels required when called:   11
 This function calls:
		Nothing
 This function is called by:
		_ShowSchedulerMenu
		_Format_EEPROM_Memory
		_Init_GSM
		_PhonebookEdit
		_SendSMS
 This function uses a non-reentrant model


 *************** function _EEWR *****************
 Defined at:
		line 1290 in file "prog.c"
 Parameters:    Size  Location     Type
  adress          2   66[BANK1 ] unsigned int 
  data            1   68[BANK1 ] unsigned char 
 Auto vars:     Size  Location     Type
  INTCON_BUP      1   69[BANK1 ] volatile unsigned char 
 Return value:  Size  Location     Type
                  1    wreg      void 
 Registers used:
		wreg, status,2
 Tracked objects:
		On entry : 
		On exit  : 
		Unchanged: 
 Data sizes:     COMRAM   BANK0   BANK1   BANK2   BANK3   BANK4   BANK5   BANK6   BANK7   BANK8   BANK9  BANK10  BANK11  BANK12  BANK13  BANK14  BANK15
      Params:         0       0       3       0       0       0       0       0       0       0       0       0       0       0       0       0       0
      Locals:         0       0       1       0       0       0       0       0       0       0       0       0       0       0       0       0       0
      Temps:          0       0       0       0       0       0       0       0       0       0       0       0       0       0       0       0       0
      Totals:         0       0       4       0       0       0       0       0       0       0       0       0       0       0       0       0       0
Total ram usage:        4 bytes
 Hardware stack levels used:    1
 Hardware stack levels required when called:   11
 This function calls:
		Nothing
 This function is called by:
		_SetTimeSource
		_WriteArrayToEEPROM
		_Format_EEPROM_Memory
		_Save_USART_SpeedNumber
		_Settings
		_main2
		_WriteFourBytesEE
 This function uses a non-reentrant model


 *************** function _FillPhonebookCellFromEEPROM *****************
 Defined at:
		line 1604 in file "prog.c"
 Parameters:    Size  Location     Type
  container       2   79[BANK1 ] PTR struct .
		 -> PhonebookEdit@Contact(33), FindPhoneContactByNumber@container(33), 
  adress_start    2   81[BANK1 ] unsigned int 
 Auto vars:     Size  Location     Type
		None
 Return value:  Size  Location     Type
                  1    wreg      void 
 Registers used:
		wreg, fsr2l, fsr2h, status,2, status,0, prodl, prodh, cstack
 Tracked objects:
		On entry : 
		On exit  : 
		Unchanged: 
 Data sizes:     COMRAM   BANK0   BANK1   BANK2   BANK3   BANK4   BANK5   BANK6   BANK7   BANK8   BANK9  BANK10  BANK11  BANK12  BANK13  BANK14  BANK15
      Params:         0       0       4       0       0       0       0       0       0       0       0       0       0       0       0       0       0
      Locals:         0       0       0       0       0       0       0       0       0       0       0       0       0       0       0       0       0
      Temps:          0       0       0       0       0       0       0       0       0       0       0       0       0       0       0       0       0
      Totals:         0       0       4       0       0       0       0       0       0       0       0       0       0       0       0       0       0
Total ram usage:        4 bytes
 Hardware stack levels used:    1
 Hardware stack levels required when called:   13
 This function calls:
		_FillArrayFromEEPROM
 This function is called by:
		_PhonebookEdit
 This function uses a non-reentrant model


 *************** function _GetSystemInfo *****************
 Defined at:
		line 3864 in file "prog.c"
 Parameters:    Size  Location     Type
		None
 Auto vars:     Size  Location     Type
  i               1  185[BANK2 ] unsigned char 
  DataArray      19  118[BANK2 ] unsigned char [19]
  CellsData       8  110[BANK2 ] unsigned char [8]
  sss             5  147[BANK2 ] unsigned char [5]
  Data            4  169[BANK2 ] unsigned long 
  h_2             3  161[BANK2 ] unsigned char [3]
  m_2             3  158[BANK2 ] unsigned char [3]
  h_1             3  155[BANK2 ] unsigned char [3]
  m_1             3  152[BANK2 ] unsigned char [3]
  Time            2  177[BANK2 ] unsigned int 
  TimeStop        2  175[BANK2 ] unsigned int 
  TimeStart       2  164[BANK2 ] unsigned int 
  Day             1  168[BANK2 ] unsigned char 
  Signals         1  167[BANK2 ] unsigned char 
  Days            1  166[BANK2 ] unsigned char 
  i               1  183[BANK2 ] unsigned char 
  cTime           4  179[BANK2 ] long 
  NextCell        2  173[BANK2 ] unsigned int 
  i               1  184[BANK2 ] unsigned char 
  s_auto          5  137[BANK2 ] unsigned char [5]
  info           73   37[BANK2 ] unsigned char [73]
  s_hand          5  142[BANK2 ] unsigned char [5]
  d               1  186[BANK2 ] unsigned char 
 Return value:  Size  Location     Type
                  2  102[BANK1 ] PTR unsigned char 
 Registers used:
		wreg, fsr0l, fsr0h, fsr1l, fsr1h, fsr2l, fsr2h, status,2, status,0, tblptrl, tblptrh, tblptru, prodl, prodh, cstack
 Tracked objects:
		On entry : 
		On exit  : 
		Unchanged: 
 Data sizes:     COMRAM   BANK0   BANK1   BANK2   BANK3   BANK4   BANK5   BANK6   BANK7   BANK8   BANK9  BANK10  BANK11  BANK12  BANK13  BANK14  BANK15
      Params:         0       0       2       0       0       0       0       0       0       0       0       0       0       0       0       0       0
      Locals:         0       0       0     150       0       0       0       0       0       0       0       0       0       0       0       0       0
      Temps:          0       0       4       0       0       0       0       0       0       0       0       0       0       0       0       0       0
      Totals:         0       0       6     150       0       0       0       0       0       0       0       0       0       0       0       0       0
Total ram usage:      156 bytes
 Hardware stack levels used:    1
 Hardware stack levels required when called:   15
 This function calls:
		_CleanStringArray
		_FindNextTimeStart
		_GetDayOfWeek
		_NumericToString
		_ParseDataRecord
		_ParseTime
		_ReadDataOfCell
		___lwdiv
		___lwmod
		_getNumChar
		_strcat
 This function is called by:
		_main2
 This function uses a non-reentrant model


 *************** function _strcat *****************
 Defined at:
		line 8 in file "/opt/microchip/xc8/v1.37/sources/common/strcat.c"
 Parameters:    Size  Location     Type
  to              2   69[BANK1 ] PTR unsigned char 
		 -> SendSMS@command(12), SMS(512), EncodePhoneNumberToPDU@encoded(15), GetSystemInfo@DataArray(19), 
		 -> GetSystemInfo@info(73), ProcessIncommingUartData@msg(33), 
  from            2   71[BANK1 ] PTR const unsigned char 
		 -> SendSMS@y(4), STR_97(2), SendSMS@e(3), STR_96(3), 
		 -> STR_95(3), STR_94(3), SendSMS@tempString(3), STR_93(5), 
		 -> STR_92(3), cp1251_to_unicode@t(5), STR_91(2), EncodePhoneNumberToPDU@encoded(15), 
		 -> STR_86(8), GetSystemInfo@sss(5), STR_85(2), STR_84(2), 
		 -> STR_83(2), STR_82(2), STR_81(2), GetSystemInfo@h_2(3), 
		 -> GetSystemInfo@m_2(3), GetSystemInfo@h_1(3), GetSystemInfo@m_1(3), GetSystemInfo@DataArray(19), 
		 -> STR_80(13), STR_79(20), STR_78(18), GetSystemInfo@s_hand(5), 
		 -> STR_77(7), GetSystemInfo@s_auto(5), STR_76(7), STR_75(13), 
		 -> STR_35(20), ProcessIncommingUartData@number(11), STR_8(3), STR_7(3), 
		 -> STR_6(3), STR_5(3), STR_4(3), STR_3(3), 
		 -> STR_2(3), STR_1(3), 
 Auto vars:     Size  Location     Type
  cp              2   73[BANK1 ] PTR unsigned char 
		 -> SendSMS@command(12), SMS(512), EncodePhoneNumberToPDU@encoded(15), GetSystemInfo@DataArray(19), 
		 -> GetSystemInfo@info(73), ProcessIncommingUartData@msg(33), 
 Return value:  Size  Location     Type
                  2   69[BANK1 ] PTR unsigned char 
 Registers used:
		wreg, fsr0l, fsr0h, fsr2l, fsr2h, status,2, status,0, tblptrl, tblptrh, tblptru
 Tracked objects:
		On entry : 
		On exit  : 
		Unchanged: 
 Data sizes:     COMRAM   BANK0   BANK1   BANK2   BANK3   BANK4   BANK5   BANK6   BANK7   BANK8   BANK9  BANK10  BANK11  BANK12  BANK13  BANK14  BANK15
      Params:         0       0       4       0       0       0       0       0       0       0       0       0       0       0       0       0       0
      Locals:         0       0       2       0       0       0       0       0       0       0       0       0       0       0       0       0       0
      Temps:          0       0       0       0       0       0       0       0       0       0       0       0       0       0       0       0       0
      Totals:         0       0       6       0       0       0       0       0       0       0       0       0       0       0       0       0       0
Total ram usage:        6 bytes
 Hardware stack levels used:    1
 Hardware stack levels required when called:   11
 This function calls:
		Nothing
 This function is called by:
		_GetSystemInfo
		_EncodePhoneNumberToPDU
		_cp1251_to_unicode
		_SendSMS
 This function uses a non-reentrant model


 *************** function _ParseTime *****************
 Defined at:
		line 2259 in file "prog.c"
 Parameters:    Size  Location     Type
  TimeValue       4   80[BANK1 ] long 
  Time            2   84[BANK1 ] PTR unsigned int 
		 -> GetSystemInfo@Time(2), TimeToInd@Time(2), 
  Day             2   86[BANK1 ] PTR unsigned char 
		 -> GetSystemInfo@Day(1), TimeToInd@Day(1), 
 Auto vars:     Size  Location     Type
  DayTime         2   88[BANK1 ] unsigned int 
 Return value:  Size  Location     Type
                  1    wreg      void 
 Registers used:
		wreg, fsr2l, fsr2h, status,2, status,0, cstack
 Tracked objects:
		On entry : 
		On exit  : 
		Unchanged: 
 Data sizes:     COMRAM   BANK0   BANK1   BANK2   BANK3   BANK4   BANK5   BANK6   BANK7   BANK8   BANK9  BANK10  BANK11  BANK12  BANK13  BANK14  BANK15
      Params:         0       0       8       0       0       0       0       0       0       0       0       0       0       0       0       0       0
      Locals:         0       0       2       0       0       0       0       0       0       0       0       0       0       0       0       0       0
      Temps:          0       0       0       0       0       0       0       0       0       0       0       0       0       0       0       0       0
      Totals:         0       0      10       0       0       0       0       0       0       0       0       0       0       0       0       0       0
Total ram usage:       10 bytes
 Hardware stack levels used:    1
 Hardware stack levels required when called:   12
 This function calls:
		___aldiv
		___lwdiv
		___lwmod
 This function is called by:
		_TimeToInd
		_GetSystemInfo
 This function uses a non-reentrant model


 *************** function ___lwmod *****************
 Defined at:
		line 8 in file "/opt/microchip/xc8/v1.37/sources/common/lwmod.c"
 Parameters:    Size  Location     Type
  dividend        2   66[BANK1 ] unsigned int 
  divisor         2   68[BANK1 ] unsigned int 
 Auto vars:     Size  Location     Type
  counter         1   70[BANK1 ] unsigned char 
 Return value:  Size  Location     Type
                  2   66[BANK1 ] unsigned int 
 Registers used:
		wreg, status,2, status,0
 Tracked objects:
		On entry : 
		On exit  : 
		Unchanged: 
 Data sizes:     COMRAM   BANK0   BANK1   BANK2   BANK3   BANK4   BANK5   BANK6   BANK7   BANK8   BANK9  BANK10  BANK11  BANK12  BANK13  BANK14  BANK15
      Params:         0       0       4       0       0       0       0       0       0       0       0       0       0       0       0       0       0
      Locals:         0       0       1       0       0       0       0       0       0       0       0       0       0       0       0       0       0
      Temps:          0       0       0       0       0       0       0       0       0       0       0       0       0       0       0       0       0
      Totals:         0       0       5       0       0       0       0       0       0       0       0       0       0       0       0       0       0
Total ram usage:        5 bytes
 Hardware stack levels used:    1
 Hardware stack levels required when called:   11
 This function calls:
		Nothing
 This function is called by:
		_TimeToInd
		_EditSchedule
		_ParseTime
		_GetSystemInfo
 This function uses a non-reentrant model


 *************** function ___lwdiv *****************
 Defined at:
		line 8 in file "/opt/microchip/xc8/v1.37/sources/common/lwdiv.c"
 Parameters:    Size  Location     Type
  dividend        2   66[BANK1 ] unsigned int 
  divisor         2   68[BANK1 ] unsigned int 
 Auto vars:     Size  Location     Type
  quotient        2   71[BANK1 ] unsigned int 
  counter         1   70[BANK1 ] unsigned char 
 Return value:  Size  Location     Type
                  2   66[BANK1 ] unsigned int 
 Registers used:
		wreg, status,2, status,0
 Tracked objects:
		On entry : 
		On exit  : 
		Unchanged: 
 Data sizes:     COMRAM   BANK0   BANK1   BANK2   BANK3   BANK4   BANK5   BANK6   BANK7   BANK8   BANK9  BANK10  BANK11  BANK12  BANK13  BANK14  BANK15
      Params:         0       0       4       0       0       0       0       0       0       0       0       0       0       0       0       0       0
      Locals:         0       0       3       0       0       0       0       0       0       0       0       0       0       0       0       0       0
      Temps:          0       0       0       0       0       0       0       0       0       0       0       0       0       0       0       0       0
      Totals:         0       0       7       0       0       0       0       0       0       0       0       0       0       0       0       0       0
Total ram usage:        7 bytes
 Hardware stack levels used:    1
 Hardware stack levels required when called:   11
 This function calls:
		Nothing
 This function is called by:
		_TimeToInd
		_EditSchedule
		_ParseTime
		_PhonebookEdit
		_GetSystemInfo
 This function uses a non-reentrant model


 *************** function _NumericToString *****************
 Defined at:
		line 1068 in file "prog.c"
 Parameters:    Size  Location     Type
  n               4   80[BANK1 ] long 
  mySring         2   84[BANK1 ] PTR unsigned char 
		 -> SendSMS@y(4), GetSystemInfo@h_2(3), GetSystemInfo@m_2(3), GetSystemInfo@h_1(3), 
		 -> GetSystemInfo@m_1(3), PhonebookEdit@num_cell(3), testSystemTimer@string(17), RefreshSchedulerIndicator@num_1604(3), 
		 -> RefreshSchedulerIndicator@num(3), TimeToInd@tString(9), 
  size            1   86[BANK1 ] unsigned char 
 Auto vars:     Size  Location     Type
  displacement    1   94[BANK1 ] unsigned char 
  negative        1   93[BANK1 ] unsigned char 
 Return value:  Size  Location     Type
                  1    wreg      void 
 Registers used:
		wreg, fsr2l, fsr2h, status,2, status,0, cstack
 Tracked objects:
		On entry : 
		On exit  : 
		Unchanged: 
 Data sizes:     COMRAM   BANK0   BANK1   BANK2   BANK3   BANK4   BANK5   BANK6   BANK7   BANK8   BANK9  BANK10  BANK11  BANK12  BANK13  BANK14  BANK15
      Params:         0       0       7       0       0       0       0       0       0       0       0       0       0       0       0       0       0
      Locals:         0       0       2       0       0       0       0       0       0       0       0       0       0       0       0       0       0
      Temps:          0       0       6       0       0       0       0       0       0       0       0       0       0       0       0       0       0
      Totals:         0       0      15       0       0       0       0       0       0       0       0       0       0       0       0       0       0
Total ram usage:       15 bytes
 Hardware stack levels used:    1
 Hardware stack levels required when called:   12
 This function calls:
		___aldiv
		___almod
		___lmul
		_getNumChar
 This function is called by:
		_TimeToInd
		_RefreshSchedulerIndicator
		_PhonebookEdit
		_GetSystemInfo
		_SendSMS
		_testSystemTimer
 This function uses a non-reentrant model


 *************** function _getNumChar *****************
 Defined at:
		line 2913 in file "prog.c"
 Parameters:    Size  Location     Type
  num             1    wreg     unsigned char 
 Auto vars:     Size  Location     Type
  num             1   66[BANK1 ] unsigned char 
 Return value:  Size  Location     Type
                  1    wreg      unsigned char 
 Registers used:
		wreg, status,2, status,0
 Tracked objects:
		On entry : 
		On exit  : 
		Unchanged: 
 Data sizes:     COMRAM   BANK0   BANK1   BANK2   BANK3   BANK4   BANK5   BANK6   BANK7   BANK8   BANK9  BANK10  BANK11  BANK12  BANK13  BANK14  BANK15
      Params:         0       0       0       0       0       0       0       0       0       0       0       0       0       0       0       0       0
      Locals:         0       0       1       0       0       0       0       0       0       0       0       0       0       0       0       0       0
      Temps:          0       0       0       0       0       0       0       0       0       0       0       0       0       0       0       0       0
      Totals:         0       0       1       0       0       0       0       0       0       0       0       0       0       0       0       0       0
Total ram usage:        1 bytes
 Hardware stack levels used:    1
 Hardware stack levels required when called:   11
 This function calls:
		Nothing
 This function is called by:
		_NumericToString
		_NumericToHEXString
		_TimeToInd
		_ReIndTimeEdit
		_ItemsToIndicator
		_EditSchedule
		_GetSystemInfo
		_WriteTime
 This function uses a non-reentrant model


 *************** function ___almod *****************
 Defined at:
		line 8 in file "/opt/microchip/xc8/v1.37/sources/common/almod.c"
 Parameters:    Size  Location     Type
  dividend        4   66[BANK1 ] long 
  divisor         4   70[BANK1 ] long 
 Auto vars:     Size  Location     Type
  sign            1   75[BANK1 ] unsigned char 
  counter         1   74[BANK1 ] unsigned char 
 Return value:  Size  Location     Type
                  4   66[BANK1 ] long 
 Registers used:
		wreg, status,2, status,0
 Tracked objects:
		On entry : 
		On exit  : 
		Unchanged: 
 Data sizes:     COMRAM   BANK0   BANK1   BANK2   BANK3   BANK4   BANK5   BANK6   BANK7   BANK8   BANK9  BANK10  BANK11  BANK12  BANK13  BANK14  BANK15
      Params:         0       0       8       0       0       0       0       0       0       0       0       0       0       0       0       0       0
      Locals:         0       0       2       0       0       0       0       0       0       0       0       0       0       0       0       0       0
      Temps:          0       0       0       0       0       0       0       0       0       0       0       0       0       0       0       0       0
      Totals:         0       0      10       0       0       0       0       0       0       0       0       0       0       0       0       0       0
Total ram usage:       10 bytes
 Hardware stack levels used:    1
 Hardware stack levels required when called:   11
 This function calls:
		Nothing
 This function is called by:
		_NumericToString
		_TimeToInd
		_TimeEdit
		_WriteTime
 This function uses a non-reentrant model


 *************** function ___aldiv *****************
 Defined at:
		line 8 in file "/opt/microchip/xc8/v1.37/sources/common/aldiv.c"
 Parameters:    Size  Location     Type
  dividend        4   66[BANK1 ] long 
  divisor         4   70[BANK1 ] long 
 Auto vars:     Size  Location     Type
  quotient        4   76[BANK1 ] long 
  sign            1   75[BANK1 ] unsigned char 
  counter         1   74[BANK1 ] unsigned char 
 Return value:  Size  Location     Type
                  4   66[BANK1 ] long 
 Registers used:
		wreg, status,2, status,0
 Tracked objects:
		On entry : 
		On exit  : 
		Unchanged: 
 Data sizes:     COMRAM   BANK0   BANK1   BANK2   BANK3   BANK4   BANK5   BANK6   BANK7   BANK8   BANK9  BANK10  BANK11  BANK12  BANK13  BANK14  BANK15
      Params:         0       0       8       0       0       0       0       0       0       0       0       0       0       0       0       0       0
      Locals:         0       0       6       0       0       0       0       0       0       0       0       0       0       0       0       0       0
      Temps:          0       0       0       0       0       0       0       0       0       0       0       0       0       0       0       0       0
      Totals:         0       0      14       0       0       0       0       0       0       0       0       0       0       0       0       0       0
Total ram usage:       14 bytes
 Hardware stack levels used:    1
 Hardware stack levels required when called:   11
 This function calls:
		Nothing
 This function is called by:
		_NumericToString
		_NumericToHEXString
		_TimeToInd
		_TimeEdit
		_ParseTime
		_WriteTime
 This function uses a non-reentrant model


 *************** function _GetDayOfWeek *****************
 Defined at:
		line 1101 in file "prog.c"
 Parameters:    Size  Location     Type
  day             1    wreg     unsigned char 
 Auto vars:     Size  Location     Type
  day             1   68[BANK1 ] unsigned char 
 Return value:  Size  Location     Type
                  2   66[BANK1 ] PTR unsigned char 
 Registers used:
		wreg, status,2, status,0
 Tracked objects:
		On entry : 
		On exit  : 
		Unchanged: 
 Data sizes:     COMRAM   BANK0   BANK1   BANK2   BANK3   BANK4   BANK5   BANK6   BANK7   BANK8   BANK9  BANK10  BANK11  BANK12  BANK13  BANK14  BANK15
      Params:         0       0       2       0       0       0       0       0       0       0       0       0       0       0       0       0       0
      Locals:         0       0       1       0       0       0       0       0       0       0       0       0       0       0       0       0       0
      Temps:          0       0       0       0       0       0       0       0       0       0       0       0       0       0       0       0       0
      Totals:         0       0       3       0       0       0       0       0       0       0       0       0       0       0       0       0       0
Total ram usage:        3 bytes
 Hardware stack levels used:    1
 Hardware stack levels required when called:   11
 This function calls:
		Nothing
 This function is called by:
		_TimeToInd
		_ReIndTimeEdit
		_GetSystemInfo
 This function uses a non-reentrant model


 *************** function _FindNextTimeStart *****************
 Defined at:
		line 2277 in file "prog.c"
 Parameters:    Size  Location     Type
  TimeFrom        2   96[BANK1 ] PTR unsigned long 
		 -> GetSystemInfo@cTime(4), NearTimeStart(4), 
 Auto vars:     Size  Location     Type
  TimeOfSignal    4   26[BANK2 ] unsigned long 
  DayOn           1   12[BANK2 ] unsigned char 
  DayIndex        1   32[BANK2 ] unsigned char 
  CellsData       8    0[BANK2 ] unsigned char [8]
  Data            4   33[BANK2 ] unsigned long 
  TimeStart       2   21[BANK2 ] unsigned int 
  TimeStop        2   15[BANK2 ] unsigned int 
  Days            1   25[BANK2 ] unsigned char 
  Signals         1   24[BANK2 ] unsigned char 
  LastFoundTim    4   17[BANK2 ] unsigned long 
  adress          2   30[BANK2 ] unsigned int 
  adressStart     2   13[BANK2 ] unsigned int 
  TimeIsFound     1   23[BANK2 ] unsigned char 
 Return value:  Size  Location     Type
                  2   96[BANK1 ] unsigned int 
 Registers used:
		wreg, fsr2l, fsr2h, status,2, status,0, prodl, prodh, cstack
 Tracked objects:
		On entry : 
		On exit  : 
		Unchanged: 
 Data sizes:     COMRAM   BANK0   BANK1   BANK2   BANK3   BANK4   BANK5   BANK6   BANK7   BANK8   BANK9  BANK10  BANK11  BANK12  BANK13  BANK14  BANK15
      Params:         0       0       2       0       0       0       0       0       0       0       0       0       0       0       0       0       0
      Locals:         0       0       0      37       0       0       0       0       0       0       0       0       0       0       0       0       0
      Temps:          0       0       4       0       0       0       0       0       0       0       0       0       0       0       0       0       0
      Totals:         0       0       6      37       0       0       0       0       0       0       0       0       0       0       0       0       0
Total ram usage:       43 bytes
 Hardware stack levels used:    1
 Hardware stack levels required when called:   14
 This function calls:
		_ParseDataRecord
		_ReadDataOfCell
		___lmul
 This function is called by:
		_TimeToInd
		_GetSystemInfo
		_main2
 This function uses a non-reentrant model


 *************** function ___lmul *****************
 Defined at:
		line 15 in file "/opt/microchip/xc8/v1.37/sources/common/Umul32.c"
 Parameters:    Size  Location     Type
  multiplier      4   66[BANK1 ] unsigned long 
  multiplicand    4   70[BANK1 ] unsigned long 
 Auto vars:     Size  Location     Type
  product         4   74[BANK1 ] unsigned long 
 Return value:  Size  Location     Type
                  4   66[BANK1 ] unsigned long 
 Registers used:
		wreg, status,2, status,0
 Tracked objects:
		On entry : 
		On exit  : 
		Unchanged: 
 Data sizes:     COMRAM   BANK0   BANK1   BANK2   BANK3   BANK4   BANK5   BANK6   BANK7   BANK8   BANK9  BANK10  BANK11  BANK12  BANK13  BANK14  BANK15
      Params:         0       0       8       0       0       0       0       0       0       0       0       0       0       0       0       0       0
      Locals:         0       0       4       0       0       0       0       0       0       0       0       0       0       0       0       0       0
      Temps:          0       0       0       0       0       0       0       0       0       0       0       0       0       0       0       0       0
      Totals:         0       0      12       0       0       0       0       0       0       0       0       0       0       0       0       0       0
Total ram usage:       12 bytes
 Hardware stack levels used:    1
 Hardware stack levels required when called:   11
 This function calls:
		Nothing
 This function is called by:
		_NumericToString
		_TimeEdit
		_FindNextTimeStart
		_main
 This function uses a non-reentrant model


 *************** function _ReadDataOfCell *****************
 Defined at:
		line 1894 in file "prog.c"
 Parameters:    Size  Location     Type
  CellsData       2   79[BANK1 ] PTR unsigned char 
		 -> GetSystemInfo@CellsData(8), FindNextTimeStart@CellsData(8), EditSchedule@CellsData(8), RefreshSchedulerIndicator@CellsData(8), 
		 -> FindCell@CellsData(8), TimeToInd@CellsData(8), 
  Data            2   81[BANK1 ] PTR unsigned long 
		 -> GetSystemInfo@Data(4), FindNextTimeStart@Data(4), EditSchedule@Data(4), RefreshSchedulerIndicator@Data(4), 
		 -> FindCell@Data(4), TimeToInd@Data(4), 
  TargetAdress    2   83[BANK1 ] unsigned int 
 Auto vars:     Size  Location     Type
  i               2   94[BANK1 ] int 
 Return value:  Size  Location     Type
                  1    wreg      void 
 Registers used:
		wreg, fsr2l, fsr2h, status,2, status,0, prodl, prodh, cstack
 Tracked objects:
		On entry : 
		On exit  : 
		Unchanged: 
 Data sizes:     COMRAM   BANK0   BANK1   BANK2   BANK3   BANK4   BANK5   BANK6   BANK7   BANK8   BANK9  BANK10  BANK11  BANK12  BANK13  BANK14  BANK15
      Params:         0       0       6       0       0       0       0       0       0       0       0       0       0       0       0       0       0
      Locals:         0       0       2       0       0       0       0       0       0       0       0       0       0       0       0       0       0
      Temps:          0       0       9       0       0       0       0       0       0       0       0       0       0       0       0       0       0
      Totals:         0       0      17       0       0       0       0       0       0       0       0       0       0       0       0       0       0
Total ram usage:       17 bytes
 Hardware stack levels used:    1
 Hardware stack levels required when called:   13
 This function calls:
		_FillArrayFromEEPROM
 This function is called by:
		_TimeToInd
		_FindCell
		_RefreshSchedulerIndicator
		_EditSchedule
		_FindNextTimeStart
		_GetSystemInfo
 This function uses a non-reentrant model


 *************** function _FillArrayFromEEPROM *****************
 Defined at:
		line 1598 in file "prog.c"
 Parameters:    Size  Location     Type
  container       2   70[BANK1 ] PTR unsigned char 
		 -> GetSystemInfo@CellsData(8), PhonebookEdit@Contact(33), FindPhoneContactByNumber@container(33), FindNextTimeStart@CellsData(8), 
		 -> EditSchedule@CellsData(8), RefreshSchedulerIndicator@CellsData(8), FindCell@CellsData(8), TimeToInd@CellsData(8), 
  adress_start    2   72[BANK1 ] unsigned int 
  quantity        2   74[BANK1 ] unsigned int 
 Auto vars:     Size  Location     Type
  i               1   78[BANK1 ] unsigned char 
 Return value:  Size  Location     Type
                  1    wreg      void 
 Registers used:
		wreg, fsr2l, fsr2h, status,2, status,0, prodl, prodh, cstack
 Tracked objects:
		On entry : 
		On exit  : 
		Unchanged: 
 Data sizes:     COMRAM   BANK0   BANK1   BANK2   BANK3   BANK4   BANK5   BANK6   BANK7   BANK8   BANK9  BANK10  BANK11  BANK12  BANK13  BANK14  BANK15
      Params:         0       0       6       0       0       0       0       0       0       0       0       0       0       0       0       0       0
      Locals:         0       0       1       0       0       0       0       0       0       0       0       0       0       0       0       0       0
      Temps:          0       0       2       0       0       0       0       0       0       0       0       0       0       0       0       0       0
      Totals:         0       0       9       0       0       0       0       0       0       0       0       0       0       0       0       0       0
Total ram usage:        9 bytes
 Hardware stack levels used:    1
 Hardware stack levels required when called:   12
 This function calls:
		_EERD
 This function is called by:
		_FillPhonebookCellFromEEPROM
		_ReadDataOfCell
 This function uses a non-reentrant model


 *************** function _ParseDataRecord *****************
 Defined at:
		line 2265 in file "prog.c"
 Parameters:    Size  Location     Type
  Data            4   66[BANK1 ] unsigned long 
  TimeStart       2   70[BANK1 ] PTR unsigned int 
		 -> GetSystemInfo@TimeStart(2), FindNextTimeStart@TimeStart(2), EditSchedule@TimeStart(2), TimeToInd@TimeStart(2), 
  TimeStop        2   72[BANK1 ] PTR unsigned int 
		 -> GetSystemInfo@TimeStop(2), FindNextTimeStart@TimeStop(2), EditSchedule@TimeStop(2), TimeToInd@TimeStop(2), 
  Days            2   74[BANK1 ] PTR unsigned char 
		 -> GetSystemInfo@Days(1), FindNextTimeStart@Days(1), EditSchedule@Days(1), TimeToInd@Days(1), 
  Signals         2   76[BANK1 ] PTR unsigned char 
		 -> GetSystemInfo@Signals(1), FindNextTimeStart@Signals(1), EditSchedule@Signals(1), TimeToInd@Signals(1), 
 Auto vars:     Size  Location     Type
		None
 Return value:  Size  Location     Type
                  1    wreg      void 
 Registers used:
		wreg, fsr2l, fsr2h, status,2, status,0
 Tracked objects:
		On entry : 
		On exit  : 
		Unchanged: 
 Data sizes:     COMRAM   BANK0   BANK1   BANK2   BANK3   BANK4   BANK5   BANK6   BANK7   BANK8   BANK9  BANK10  BANK11  BANK12  BANK13  BANK14  BANK15
      Params:         0       0      12       0       0       0       0       0       0       0       0       0       0       0       0       0       0
      Locals:         0       0       0       0       0       0       0       0       0       0       0       0       0       0       0       0       0
      Temps:          0       0       4       0       0       0       0       0       0       0       0       0       0       0       0       0       0
      Totals:         0       0      16       0       0       0       0       0       0       0       0       0       0       0       0       0       0
Total ram usage:       16 bytes
 Hardware stack levels used:    1
 Hardware stack levels required when called:   11
 This function calls:
		Nothing
 This function is called by:
		_TimeToInd
		_EditSchedule
		_FindNextTimeStart
		_GetSystemInfo
 This function uses a non-reentrant model


 *************** function _CleanStringArray *****************
 Defined at:
		line 1916 in file "prog.c"
 Parameters:    Size  Location     Type
  myArray         2   66[BANK1 ] PTR unsigned char 
		 -> SMS(512), GetSystemInfo@DataArray(19), GetSystemInfo@info(73), buff_string_11(256), 
		 -> buff_string_10(256), buff_string_9(256), buff_string_8(256), active_phone(14), 
		 -> Incomming_DTMF_Data(8), Incomming_Call_Data(36), Clock_from_GSM(30), DeleteDataOfCell@CellsData(8), 
  size            2   68[BANK1 ] unsigned int 
  settingData     1   70[BANK1 ] unsigned char 
 Auto vars:     Size  Location     Type
  i               2   71[BANK1 ] unsigned int 
 Return value:  Size  Location     Type
                  1    wreg      void 
 Registers used:
		wreg, fsr2l, fsr2h, status,2, status,0
 Tracked objects:
		On entry : 
		On exit  : 
		Unchanged: 
 Data sizes:     COMRAM   BANK0   BANK1   BANK2   BANK3   BANK4   BANK5   BANK6   BANK7   BANK8   BANK9  BANK10  BANK11  BANK12  BANK13  BANK14  BANK15
      Params:         0       0       5       0       0       0       0       0       0       0       0       0       0       0       0       0       0
      Locals:         0       0       2       0       0       0       0       0       0       0       0       0       0       0       0       0       0
      Temps:          0       0       0       0       0       0       0       0       0       0       0       0       0       0       0       0       0
      Totals:         0       0       7       0       0       0       0       0       0       0       0       0       0       0       0       0       0
Total ram usage:        7 bytes
 Hardware stack levels used:    1
 Hardware stack levels required when called:   11
 This function calls:
		Nothing
 This function is called by:
		_DeleteDataOfCell
		_main
		_FindIncommingData
		_GetSystemInfo
		_main2
		_SendSMS
 This function uses a non-reentrant model


 *************** function _FillMinutes *****************
 Defined at:
		line 2391 in file "prog.c"
 Parameters:    Size  Location     Type
		None
 Auto vars:     Size  Location     Type
		None
 Return value:  Size  Location     Type
                  1    wreg      void 
 Registers used:
		wreg, status,2, status,0
 Tracked objects:
		On entry : 
		On exit  : 
		Unchanged: 
 Data sizes:     COMRAM   BANK0   BANK1   BANK2   BANK3   BANK4   BANK5   BANK6   BANK7   BANK8   BANK9  BANK10  BANK11  BANK12  BANK13  BANK14  BANK15
      Params:         0       0       0       0       0       0       0       0       0       0       0       0       0       0       0       0       0
      Locals:         0       0       0       0       0       0       0       0       0       0       0       0       0       0       0       0       0
      Temps:          0       0       0       0       0       0       0       0       0       0       0       0       0       0       0       0       0
      Totals:         0       0       0       0       0       0       0       0       0       0       0       0       0       0       0       0       0
Total ram usage:        0 bytes
 Hardware stack levels used:    1
 Hardware stack levels required when called:   11
 This function calls:
		Nothing
 This function is called by:
		_main2
 This function uses a non-reentrant model


 *************** function _GetTimeSource *****************
 Defined at:
		line 736 in file "prog.c"
 Parameters:    Size  Location     Type
		None
 Auto vars:     Size  Location     Type
		None
 Return value:  Size  Location     Type
                  1    wreg      unsigned char 
 Registers used:
		wreg, status,2, status,0, cstack
 Tracked objects:
		On entry : 
		On exit  : 
		Unchanged: 
 Data sizes:     COMRAM   BANK0   BANK1   BANK2   BANK3   BANK4   BANK5   BANK6   BANK7   BANK8   BANK9  BANK10  BANK11  BANK12  BANK13  BANK14  BANK15
      Params:         0       0       0       0       0       0       0       0       0       0       0       0       0       0       0       0       0
      Locals:         0       0       0       0       0       0       0       0       0       0       0       0       0       0       0       0       0
      Temps:          0       0       1       0       0       0       0       0       0       0       0       0       0       0       0       0       0
      Totals:         0       0       1       0       0       0       0       0       0       0       0       0       0       0       0       0       0
Total ram usage:        1 bytes
 Hardware stack levels used:    1
 Hardware stack levels required when called:   12
 This function calls:
		_EERD
 This function is called by:
		_main
 This function uses a non-reentrant model


 *************** function _EERD *****************
 Defined at:
		line 1311 in file "prog.c"
 Parameters:    Size  Location     Type
  adress          2   66[BANK1 ] unsigned int 
 Auto vars:     Size  Location     Type
  EEDATA_BUP      1   69[BANK1 ] volatile unsigned char 
  INTCON_BUP      1   68[BANK1 ] volatile unsigned char 
 Return value:  Size  Location     Type
                  1    wreg      unsigned char 
 Registers used:
		wreg, status,2
 Tracked objects:
		On entry : 
		On exit  : 
		Unchanged: 
 Data sizes:     COMRAM   BANK0   BANK1   BANK2   BANK3   BANK4   BANK5   BANK6   BANK7   BANK8   BANK9  BANK10  BANK11  BANK12  BANK13  BANK14  BANK15
      Params:         0       0       2       0       0       0       0       0       0       0       0       0       0       0       0       0       0
      Locals:         0       0       2       0       0       0       0       0       0       0       0       0       0       0       0       0       0
      Temps:          0       0       0       0       0       0       0       0       0       0       0       0       0       0       0       0       0
      Totals:         0       0       4       0       0       0       0       0       0       0       0       0       0       0       0       0       0
Total ram usage:        4 bytes
 Hardware stack levels used:    1
 Hardware stack levels required when called:   11
 This function calls:
		Nothing
 This function is called by:
		_GetTimeSource
		_FillArrayFromEEPROM
		_main
		_Read_USART_SpeedNumber
		_Settings
		_main2
		_ReadFourBytesEE
 This function uses a non-reentrant model


 *************** function _F_l *****************
 Defined at:
		line 2701 in file "prog.c"
 Parameters:    Size  Location     Type
		None
 Auto vars:     Size  Location     Type
  digit           1  118[BANK0 ] unsigned char 
  symbol          2  125[BANK0 ] int 
  a               2  121[BANK0 ] int 
  _KeyIndex       1  120[BANK0 ] unsigned char 
  data_temp       1  119[BANK0 ] unsigned char 
  line            1  127[BANK0 ] unsigned char 
  ElapsedTime     4  111[BANK0 ] long 
  digsAtrib       2  123[BANK0 ] PTR struct .
		 -> digitsAtrib_system_message(32), digitsAtrib(32), 
  digs            2  115[BANK0 ] PTR unsigned char 
		 -> digits_system_message(32), digits(32), 
  _5seconds       1  117[BANK0 ] unsigned char 
 Return value:  Size  Location     Type
                  1    wreg      void 
 Registers used:
		wreg, fsr0l, fsr0h, fsr1l, fsr1h, fsr2l, fsr2h, status,2, status,0, tblptrl, tblptrh, tblptru, prodl, prodh, cstack
 Tracked objects:
		On entry : 
		On exit  : 
		Unchanged: 
 Data sizes:     COMRAM   BANK0   BANK1   BANK2   BANK3   BANK4   BANK5   BANK6   BANK7   BANK8   BANK9  BANK10  BANK11  BANK12  BANK13  BANK14  BANK15
      Params:         0       0       0       0       0       0       0       0       0       0       0       0       0       0       0       0       0
      Locals:         0      17       0       0       0       0       0       0       0       0       0       0       0       0       0       0       0
      Temps:          0      21       0       0       0       0       0       0       0       0       0       0       0       0       0       0       0
      Totals:         0      38       0       0       0       0       0       0       0       0       0       0       0       0       0       0       0
Total ram usage:       38 bytes
 Hardware stack levels used:    1
 Hardware stack levels required when called:   10
 This function calls:
		_ConvKeyNum
		_ProcessIncommingUartData
		_ProcessSystemMessageShowing
		_ReadTime
		_SendSymbolToLCD
		_getLcdCodeOfChar
		_get_temp
		i1_lcd_send_byte
 This function is called by:
		Interrupt level 1
 This function uses a non-reentrant model


 *************** function i1_lcd_send_byte *****************
 Defined at:
		line 1688 in file "prog.c"
 Parameters:    Size  Location     Type
  data            1    wreg     unsigned char 
 Auto vars:     Size  Location     Type
  data            1   15[BANK0 ] unsigned char 
 Return value:  Size  Location     Type
                  1    wreg      void 
 Registers used:
		wreg, status,2, status,0, prodl, prodh, cstack
 Tracked objects:
		On entry : 
		On exit  : 
		Unchanged: 
 Data sizes:     COMRAM   BANK0   BANK1   BANK2   BANK3   BANK4   BANK5   BANK6   BANK7   BANK8   BANK9  BANK10  BANK11  BANK12  BANK13  BANK14  BANK15
      Params:         0       0       0       0       0       0       0       0       0       0       0       0       0       0       0       0       0
      Locals:         0       1       0       0       0       0       0       0       0       0       0       0       0       0       0       0       0
      Temps:          0       1       0       0       0       0       0       0       0       0       0       0       0       0       0       0       0
      Totals:         0       2       0       0       0       0       0       0       0       0       0       0       0       0       0       0       0
Total ram usage:        2 bytes
 Hardware stack levels used:    1
 Hardware stack levels required when called:    6
 This function calls:
		i1___awdiv
		i1_lcd_send_initial_half_byte
 This function is called by:
		_F_l
 This function uses a non-reentrant model


 *************** function i1_lcd_send_initial_half_byte *****************
 Defined at:
		line 1681 in file "prog.c"
 Parameters:    Size  Location     Type
  data            1    wreg     unsigned char 
 Auto vars:     Size  Location     Type
  data            1    0[BANK0 ] unsigned char 
 Return value:  Size  Location     Type
                  1    wreg      void 
 Registers used:
		wreg, status,2, status,0, prodl, prodh
 Tracked objects:
		On entry : 
		On exit  : 
		Unchanged: 
 Data sizes:     COMRAM   BANK0   BANK1   BANK2   BANK3   BANK4   BANK5   BANK6   BANK7   BANK8   BANK9  BANK10  BANK11  BANK12  BANK13  BANK14  BANK15
      Params:         0       0       0       0       0       0       0       0       0       0       0       0       0       0       0       0       0
      Locals:         0       3       0       0       0       0       0       0       0       0       0       0       0       0       0       0       0
      Temps:          0       0       0       0       0       0       0       0       0       0       0       0       0       0       0       0       0
      Totals:         0       3       0       0       0       0       0       0       0       0       0       0       0       0       0       0       0
Total ram usage:        3 bytes
 Hardware stack levels used:    1
 Hardware stack levels required when called:    5
 This function calls:
		Nothing
 This function is called by:
		i1_lcd_send_byte
 This function uses a non-reentrant model


 *************** function _get_temp *****************
 Defined at:
		line 376 in file "prog.c"
 Parameters:    Size  Location     Type
		None
 Auto vars:     Size  Location     Type
  tClock          4   22[BANK0 ] long 
  temp2           1   29[BANK0 ] unsigned char 
  temp1           1   28[BANK0 ] unsigned char 
  init            1   27[BANK0 ] unsigned char 
  sign            1   26[BANK0 ] unsigned char 
 Return value:  Size  Location     Type
                  1    wreg      unsigned char 
 Registers used:
		wreg, status,2, status,0, prodl, prodh, cstack
 Tracked objects:
		On entry : 
		On exit  : 
		Unchanged: 
 Data sizes:     COMRAM   BANK0   BANK1   BANK2   BANK3   BANK4   BANK5   BANK6   BANK7   BANK8   BANK9  BANK10  BANK11  BANK12  BANK13  BANK14  BANK15
      Params:         0       0       0       0       0       0       0       0       0       0       0       0       0       0       0       0       0
      Locals:         0       8       0       0       0       0       0       0       0       0       0       0       0       0       0       0       0
      Temps:          0       8       0       0       0       0       0       0       0       0       0       0       0       0       0       0       0
      Totals:         0      16       0       0       0       0       0       0       0       0       0       0       0       0       0       0       0
Total ram usage:       16 bytes
 Hardware stack levels used:    1
 Hardware stack levels required when called:    6
 This function calls:
		_Init_1wire
		_RX_1wire
		_TX_1wire
		i1___awdiv
		i1___wmul
 This function is called by:
		_F_l
 This function uses a non-reentrant model


 *************** function _TX_1wire *****************
 Defined at:
		line 342 in file "prog.c"
 Parameters:    Size  Location     Type
  cmd             1    wreg     unsigned char 
 Auto vars:     Size  Location     Type
  cmd             1    0[BANK0 ] unsigned char 
  i               1    2[BANK0 ] unsigned char 
  temp            1    1[BANK0 ] unsigned char 
 Return value:  Size  Location     Type
                  1    wreg      void 
 Registers used:
		wreg, status,2, status,0
 Tracked objects:
		On entry : 
		On exit  : 
		Unchanged: 
 Data sizes:     COMRAM   BANK0   BANK1   BANK2   BANK3   BANK4   BANK5   BANK6   BANK7   BANK8   BANK9  BANK10  BANK11  BANK12  BANK13  BANK14  BANK15
      Params:         0       0       0       0       0       0       0       0       0       0       0       0       0       0       0       0       0
      Locals:         0       3       0       0       0       0       0       0       0       0       0       0       0       0       0       0       0
      Temps:          0       0       0       0       0       0       0       0       0       0       0       0       0       0       0       0       0
      Totals:         0       3       0       0       0       0       0       0       0       0       0       0       0       0       0       0       0
Total ram usage:        3 bytes
 Hardware stack levels used:    1
 Hardware stack levels required when called:    5
 This function calls:
		Nothing
 This function is called by:
		_get_temp
 This function uses a non-reentrant model


 *************** function _RX_1wire *****************
 Defined at:
		line 361 in file "prog.c"
 Parameters:    Size  Location     Type
		None
 Auto vars:     Size  Location     Type
  i               1    1[BANK0 ] unsigned char 
  d               1    0[BANK0 ] unsigned char 
 Return value:  Size  Location     Type
                  1    wreg      unsigned char 
 Registers used:
		wreg, status,2, status,0
 Tracked objects:
		On entry : 
		On exit  : 
		Unchanged: 
 Data sizes:     COMRAM   BANK0   BANK1   BANK2   BANK3   BANK4   BANK5   BANK6   BANK7   BANK8   BANK9  BANK10  BANK11  BANK12  BANK13  BANK14  BANK15
      Params:         0       0       0       0       0       0       0       0       0       0       0       0       0       0       0       0       0
      Locals:         0       2       0       0       0       0       0       0       0       0       0       0       0       0       0       0       0
      Temps:          0       0       0       0       0       0       0       0       0       0       0       0       0       0       0       0       0
      Totals:         0       2       0       0       0       0       0       0       0       0       0       0       0       0       0       0       0
Total ram usage:        2 bytes
 Hardware stack levels used:    1
 Hardware stack levels required when called:    5
 This function calls:
		Nothing
 This function is called by:
		_get_temp
 This function uses a non-reentrant model


 *************** function _Init_1wire *****************
 Defined at:
		line 329 in file "prog.c"
 Parameters:    Size  Location     Type
		None
 Auto vars:     Size  Location     Type
  b               1    1[BANK0 ] unsigned char 
 Return value:  Size  Location     Type
                  1    wreg      unsigned char 
 Registers used:
		wreg, status,2, status,0
 Tracked objects:
		On entry : 
		On exit  : 
		Unchanged: 
 Data sizes:     COMRAM   BANK0   BANK1   BANK2   BANK3   BANK4   BANK5   BANK6   BANK7   BANK8   BANK9  BANK10  BANK11  BANK12  BANK13  BANK14  BANK15
      Params:         0       0       0       0       0       0       0       0       0       0       0       0       0       0       0       0       0
      Locals:         0       1       0       0       0       0       0       0       0       0       0       0       0       0       0       0       0
      Temps:          0       1       0       0       0       0       0       0       0       0       0       0       0       0       0       0       0
      Totals:         0       2       0       0       0       0       0       0       0       0       0       0       0       0       0       0       0
Total ram usage:        2 bytes
 Hardware stack levels used:    1
 Hardware stack levels required when called:    5
 This function calls:
		Nothing
 This function is called by:
		_get_temp
 This function uses a non-reentrant model


 *************** function _getLcdCodeOfChar *****************
 Defined at:
		line 746 in file "prog.c"
 Parameters:    Size  Location     Type
  dig             1    wreg     unsigned char 
 Auto vars:     Size  Location     Type
  dig             1    0[BANK0 ] unsigned char 
 Return value:  Size  Location     Type
                  1    wreg      unsigned char 
 Registers used:
		wreg, status,2, status,0
 Tracked objects:
		On entry : 
		On exit  : 
		Unchanged: 
 Data sizes:     COMRAM   BANK0   BANK1   BANK2   BANK3   BANK4   BANK5   BANK6   BANK7   BANK8   BANK9  BANK10  BANK11  BANK12  BANK13  BANK14  BANK15
      Params:         0       0       0       0       0       0       0       0       0       0       0       0       0       0       0       0       0
      Locals:         0       1       0       0       0       0       0       0       0       0       0       0       0       0       0       0       0
      Temps:          0       0       0       0       0       0       0       0       0       0       0       0       0       0       0       0       0
      Totals:         0       1       0       0       0       0       0       0       0       0       0       0       0       0       0       0       0
Total ram usage:        1 bytes
 Hardware stack levels used:    1
 Hardware stack levels required when called:    5
 This function calls:
		Nothing
 This function is called by:
		_F_l
 This function uses a non-reentrant model


 *************** function _SendSymbolToLCD *****************
 Defined at:
		line 1654 in file "prog.c"
 Parameters:    Size  Location     Type
  Symb            1    wreg     unsigned char 
 Auto vars:     Size  Location     Type
  Symb            1   19[BANK0 ] unsigned char 
 Return value:  Size  Location     Type
                  1    wreg      void 
 Registers used:
		wreg, status,2, status,0, prodl, prodh, cstack
 Tracked objects:
		On entry : 
		On exit  : 
		Unchanged: 
 Data sizes:     COMRAM   BANK0   BANK1   BANK2   BANK3   BANK4   BANK5   BANK6   BANK7   BANK8   BANK9  BANK10  BANK11  BANK12  BANK13  BANK14  BANK15
      Params:         0       0       0       0       0       0       0       0       0       0       0       0       0       0       0       0       0
      Locals:         0       5       0       0       0       0       0       0       0       0       0       0       0       0       0       0       0
      Temps:          0       1       0       0       0       0       0       0       0       0       0       0       0       0       0       0       0
      Totals:         0       6       0       0       0       0       0       0       0       0       0       0       0       0       0       0       0
Total ram usage:        6 bytes
 Hardware stack levels used:    1
 Hardware stack levels required when called:    6
 This function calls:
		_delay
		i1___awdiv
 This function is called by:
		_F_l
 This function uses a non-reentrant model


 *************** function _delay *****************
 Defined at:
		line 1643 in file "prog.c"
 Parameters:    Size  Location     Type
  del             1    wreg     unsigned char 
  count           2    0[BANK0 ] unsigned int 
 Auto vars:     Size  Location     Type
  del             1    2[BANK0 ] unsigned char 
 Return value:  Size  Location     Type
                  1    wreg      void 
 Registers used:
		wreg, status,2, status,0
 Tracked objects:
		On entry : 
		On exit  : 
		Unchanged: 
 Data sizes:     COMRAM   BANK0   BANK1   BANK2   BANK3   BANK4   BANK5   BANK6   BANK7   BANK8   BANK9  BANK10  BANK11  BANK12  BANK13  BANK14  BANK15
      Params:         0       2       0       0       0       0       0       0       0       0       0       0       0       0       0       0       0
      Locals:         0       1       0       0       0       0       0       0       0       0       0       0       0       0       0       0       0
      Temps:          0       0       0       0       0       0       0       0       0       0       0       0       0       0       0       0       0
      Totals:         0       3       0       0       0       0       0       0       0       0       0       0       0       0       0       0       0
Total ram usage:        3 bytes
 Hardware stack levels used:    1
 Hardware stack levels required when called:    5
 This function calls:
		Nothing
 This function is called by:
		_SendSymbolToLCD
 This function uses a non-reentrant model


 *************** function _ReadTime *****************
 Defined at:
		line 4122 in file "prog.c"
 Parameters:    Size  Location     Type
		None
 Auto vars:     Size  Location     Type
  I               1   53[BANK0 ] unsigned char 
  Seconds         1   52[BANK0 ] unsigned char 
 Return value:  Size  Location     Type
                  1    wreg      void 
 Registers used:
		wreg, status,2, status,0, prodl, prodh, cstack
 Tracked objects:
		On entry : 
		On exit  : 
		Unchanged: 
 Data sizes:     COMRAM   BANK0   BANK1   BANK2   BANK3   BANK4   BANK5   BANK6   BANK7   BANK8   BANK9  BANK10  BANK11  BANK12  BANK13  BANK14  BANK15
      Params:         0       0       0       0       0       0       0       0       0       0       0       0       0       0       0       0       0
      Locals:         0       6       0       0       0       0       0       0       0       0       0       0       0       0       0       0       0
      Temps:          0       8       0       0       0       0       0       0       0       0       0       0       0       0       0       0       0
      Totals:         0      14       0       0       0       0       0       0       0       0       0       0       0       0       0       0       0
Total ram usage:       14 bytes
 Hardware stack levels used:    1
 Hardware stack levels required when called:    7
 This function calls:
		_BCD_to_DEC
		_I2CAck
		_I2CNak
		_I2CRead
		_I2CRestart
		i1_EERD
		i1_I2CInit
		i1_I2CSend
		i1_I2CStart
		i1_I2CStop
		i1_SendCommandToUSART
		i1___lmul
		i1_getSystemTimePoint
		i1_testTimePoint
 This function is called by:
		_F_l
 This function uses a non-reentrant model


 *************** function i1_testTimePoint *****************
 Defined at:
		line 2678 in file "prog.c"
 Parameters:    Size  Location     Type
  point           4    4[BANK0 ] unsigned long 
  value           4    8[BANK0 ] unsigned long 
 Auto vars:     Size  Location     Type
  testTimePoin    4   20[BANK0 ] unsigned long 
 Return value:  Size  Location     Type
                  1    wreg      unsigned char 
 Registers used:
		wreg, status,2, status,0, cstack
 Tracked objects:
		On entry : 
		On exit  : 
		Unchanged: 
 Data sizes:     COMRAM   BANK0   BANK1   BANK2   BANK3   BANK4   BANK5   BANK6   BANK7   BANK8   BANK9  BANK10  BANK11  BANK12  BANK13  BANK14  BANK15
      Params:         0       8       0       0       0       0       0       0       0       0       0       0       0       0       0       0       0
      Locals:         0       4       0       0       0       0       0       0       0       0       0       0       0       0       0       0       0
      Temps:          0       8       0       0       0       0       0       0       0       0       0       0       0       0       0       0       0
      Totals:         0      20       0       0       0       0       0       0       0       0       0       0       0       0       0       0       0
Total ram usage:       20 bytes
 Hardware stack levels used:    1
 Hardware stack levels required when called:    6
 This function calls:
		i1_getSystemTimePoint
 This function is called by:
		_ReadTime
 This function uses a non-reentrant model


 *************** function i1_getSystemTimePoint *****************
 Defined at:
		line 2674 in file "prog.c"
 Parameters:    Size  Location     Type
		None
 Auto vars:     Size  Location     Type
		None
 Return value:  Size  Location     Type
                  4    0[BANK0 ] unsigned long 
 Registers used:
		None
 Tracked objects:
		On entry : 
		On exit  : 
		Unchanged: 
 Data sizes:     COMRAM   BANK0   BANK1   BANK2   BANK3   BANK4   BANK5   BANK6   BANK7   BANK8   BANK9  BANK10  BANK11  BANK12  BANK13  BANK14  BANK15
      Params:         0       4       0       0       0       0       0       0       0       0       0       0       0       0       0       0       0
      Locals:         0       0       0       0       0       0       0       0       0       0       0       0       0       0       0       0       0
      Temps:          0       0       0       0       0       0       0       0       0       0       0       0       0       0       0       0       0
      Totals:         0       4       0       0       0       0       0       0       0       0       0       0       0       0       0       0       0
Total ram usage:        4 bytes
 Hardware stack levels used:    1
 Hardware stack levels required when called:    5
 This function calls:
		Nothing
 This function is called by:
		_ReadTime
		i1_testTimePoint
 This function uses a non-reentrant model


 *************** function i1_I2CStop *****************
 Defined at:
		line 4263 in file "prog.c"
 Parameters:    Size  Location     Type
		None
 Auto vars:     Size  Location     Type
		None
 Return value:  Size  Location     Type
                  1    wreg      void 
 Registers used:
		None
 Tracked objects:
		On entry : 
		On exit  : 
		Unchanged: 
 Data sizes:     COMRAM   BANK0   BANK1   BANK2   BANK3   BANK4   BANK5   BANK6   BANK7   BANK8   BANK9  BANK10  BANK11  BANK12  BANK13  BANK14  BANK15
      Params:         0       0       0       0       0       0       0       0       0       0       0       0       0       0       0       0       0
      Locals:         0       0       0       0       0       0       0       0       0       0       0       0       0       0       0       0       0
      Temps:          0       0       0       0       0       0       0       0       0       0       0       0       0       0       0       0       0
      Totals:         0       0       0       0       0       0       0       0       0       0       0       0       0       0       0       0       0
Total ram usage:        0 bytes
 Hardware stack levels used:    1
 Hardware stack levels required when called:    5
 This function calls:
		Nothing
 This function is called by:
		_ReadTime
 This function uses a non-reentrant model


 *************** function i1_I2CStart *****************
 Defined at:
		line 4257 in file "prog.c"
 Parameters:    Size  Location     Type
		None
 Auto vars:     Size  Location     Type
		None
 Return value:  Size  Location     Type
                  1    wreg      void 
 Registers used:
		None
 Tracked objects:
		On entry : 
		On exit  : 
		Unchanged: 
 Data sizes:     COMRAM   BANK0   BANK1   BANK2   BANK3   BANK4   BANK5   BANK6   BANK7   BANK8   BANK9  BANK10  BANK11  BANK12  BANK13  BANK14  BANK15
      Params:         0       0       0       0       0       0       0       0       0       0       0       0       0       0       0       0       0
      Locals:         0       0       0       0       0       0       0       0       0       0       0       0       0       0       0       0       0
      Temps:          0       0       0       0       0       0       0       0       0       0       0       0       0       0       0       0       0
      Totals:         0       0       0       0       0       0       0       0       0       0       0       0       0       0       0       0       0
Total ram usage:        0 bytes
 Hardware stack levels used:    1
 Hardware stack levels required when called:    5
 This function calls:
		Nothing
 This function is called by:
		_ReadTime
 This function uses a non-reentrant model


 *************** function i1_I2CSend *****************
 Defined at:
		line 4286 in file "prog.c"
 Parameters:    Size  Location     Type
  dat             1    wreg     unsigned char 
 Auto vars:     Size  Location     Type
  dat             1    1[BANK0 ] unsigned char 
 Return value:  Size  Location     Type
                  1    wreg      void 
 Registers used:
		wreg, status,2, status,0
 Tracked objects:
		On entry : 
		On exit  : 
		Unchanged: 
 Data sizes:     COMRAM   BANK0   BANK1   BANK2   BANK3   BANK4   BANK5   BANK6   BANK7   BANK8   BANK9  BANK10  BANK11  BANK12  BANK13  BANK14  BANK15
      Params:         0       0       0       0       0       0       0       0       0       0       0       0       0       0       0       0       0
      Locals:         0       1       0       0       0       0       0       0       0       0       0       0       0       0       0       0       0
      Temps:          0       1       0       0       0       0       0       0       0       0       0       0       0       0       0       0       0
      Totals:         0       2       0       0       0       0       0       0       0       0       0       0       0       0       0       0       0
Total ram usage:        2 bytes
 Hardware stack levels used:    1
 Hardware stack levels required when called:    5
 This function calls:
		Nothing
 This function is called by:
		_ReadTime
 This function uses a non-reentrant model


 *************** function i1_I2CInit *****************
 Defined at:
		line 4249 in file "prog.c"
 Parameters:    Size  Location     Type
		None
 Auto vars:     Size  Location     Type
		None
 Return value:  Size  Location     Type
                  1    wreg      void 
 Registers used:
		wreg, status,2, status,0
 Tracked objects:
		On entry : 
		On exit  : 
		Unchanged: 
 Data sizes:     COMRAM   BANK0   BANK1   BANK2   BANK3   BANK4   BANK5   BANK6   BANK7   BANK8   BANK9  BANK10  BANK11  BANK12  BANK13  BANK14  BANK15
      Params:         0       0       0       0       0       0       0       0       0       0       0       0       0       0       0       0       0
      Locals:         0       0       0       0       0       0       0       0       0       0       0       0       0       0       0       0       0
      Temps:          0       0       0       0       0       0       0       0       0       0       0       0       0       0       0       0       0
      Totals:         0       0       0       0       0       0       0       0       0       0       0       0       0       0       0       0       0
Total ram usage:        0 bytes
 Hardware stack levels used:    1
 Hardware stack levels required when called:    5
 This function calls:
		Nothing
 This function is called by:
		_ReadTime
 This function uses a non-reentrant model


 *************** function _I2CRestart *****************
 Defined at:
		line 4269 in file "prog.c"
 Parameters:    Size  Location     Type
		None
 Auto vars:     Size  Location     Type
		None
 Return value:  Size  Location     Type
                  1    wreg      void 
 Registers used:
		None
 Tracked objects:
		On entry : 
		On exit  : 
		Unchanged: 
 Data sizes:     COMRAM   BANK0   BANK1   BANK2   BANK3   BANK4   BANK5   BANK6   BANK7   BANK8   BANK9  BANK10  BANK11  BANK12  BANK13  BANK14  BANK15
      Params:         0       0       0       0       0       0       0       0       0       0       0       0       0       0       0       0       0
      Locals:         0       0       0       0       0       0       0       0       0       0       0       0       0       0       0       0       0
      Temps:          0       0       0       0       0       0       0       0       0       0       0       0       0       0       0       0       0
      Totals:         0       0       0       0       0       0       0       0       0       0       0       0       0       0       0       0       0
Total ram usage:        0 bytes
 Hardware stack levels used:    1
 Hardware stack levels required when called:    5
 This function calls:
		Nothing
 This function is called by:
		_ReadTime
 This function uses a non-reentrant model


 *************** function _I2CRead *****************
 Defined at:
		line 4292 in file "prog.c"
 Parameters:    Size  Location     Type
		None
 Auto vars:     Size  Location     Type
  temp            1    1[BANK0 ] unsigned char 
 Return value:  Size  Location     Type
                  1    wreg      unsigned char 
 Registers used:
		wreg, status,2, status,0
 Tracked objects:
		On entry : 
		On exit  : 
		Unchanged: 
 Data sizes:     COMRAM   BANK0   BANK1   BANK2   BANK3   BANK4   BANK5   BANK6   BANK7   BANK8   BANK9  BANK10  BANK11  BANK12  BANK13  BANK14  BANK15
      Params:         0       0       0       0       0       0       0       0       0       0       0       0       0       0       0       0       0
      Locals:         0       1       0       0       0       0       0       0       0       0       0       0       0       0       0       0       0
      Temps:          0       1       0       0       0       0       0       0       0       0       0       0       0       0       0       0       0
      Totals:         0       2       0       0       0       0       0       0       0       0       0       0       0       0       0       0       0
Total ram usage:        2 bytes
 Hardware stack levels used:    1
 Hardware stack levels required when called:    5
 This function calls:
		Nothing
 This function is called by:
		_ReadTime
 This function uses a non-reentrant model


 *************** function _I2CNak *****************
 Defined at:
		line 4280 in file "prog.c"
 Parameters:    Size  Location     Type
		None
 Auto vars:     Size  Location     Type
		None
 Return value:  Size  Location     Type
                  1    wreg      void 
 Registers used:
		None
 Tracked objects:
		On entry : 
		On exit  : 
		Unchanged: 
 Data sizes:     COMRAM   BANK0   BANK1   BANK2   BANK3   BANK4   BANK5   BANK6   BANK7   BANK8   BANK9  BANK10  BANK11  BANK12  BANK13  BANK14  BANK15
      Params:         0       0       0       0       0       0       0       0       0       0       0       0       0       0       0       0       0
      Locals:         0       0       0       0       0       0       0       0       0       0       0       0       0       0       0       0       0
      Temps:          0       0       0       0       0       0       0       0       0       0       0       0       0       0       0       0       0
      Totals:         0       0       0       0       0       0       0       0       0       0       0       0       0       0       0       0       0
Total ram usage:        0 bytes
 Hardware stack levels used:    1
 Hardware stack levels required when called:    5
 This function calls:
		Nothing
 This function is called by:
		_ReadTime
 This function uses a non-reentrant model


 *************** function _I2CAck *****************
 Defined at:
		line 4274 in file "prog.c"
 Parameters:    Size  Location     Type
		None
 Auto vars:     Size  Location     Type
		None
 Return value:  Size  Location     Type
                  1    wreg      void 
 Registers used:
		None
 Tracked objects:
		On entry : 
		On exit  : 
		Unchanged: 
 Data sizes:     COMRAM   BANK0   BANK1   BANK2   BANK3   BANK4   BANK5   BANK6   BANK7   BANK8   BANK9  BANK10  BANK11  BANK12  BANK13  BANK14  BANK15
      Params:         0       0       0       0       0       0       0       0       0       0       0       0       0       0       0       0       0
      Locals:         0       0       0       0       0       0       0       0       0       0       0       0       0       0       0       0       0
      Temps:          0       0       0       0       0       0       0       0       0       0       0       0       0       0       0       0       0
      Totals:         0       0       0       0       0       0       0       0       0       0       0       0       0       0       0       0       0
Total ram usage:        0 bytes
 Hardware stack levels used:    1
 Hardware stack levels required when called:    5
 This function calls:
		Nothing
 This function is called by:
		_ReadTime
 This function uses a non-reentrant model


 *************** function _BCD_to_DEC *****************
 Defined at:
		line 4111 in file "prog.c"
 Parameters:    Size  Location     Type
  BCD             1    wreg     unsigned char 
 Auto vars:     Size  Location     Type
  BCD             1    1[BANK0 ] unsigned char 
 Return value:  Size  Location     Type
                  1    wreg      unsigned char 
 Registers used:
		wreg, status,2, status,0, prodl, prodh
 Tracked objects:
		On entry : 
		On exit  : 
		Unchanged: 
 Data sizes:     COMRAM   BANK0   BANK1   BANK2   BANK3   BANK4   BANK5   BANK6   BANK7   BANK8   BANK9  BANK10  BANK11  BANK12  BANK13  BANK14  BANK15
      Params:         0       0       0       0       0       0       0       0       0       0       0       0       0       0       0       0       0
      Locals:         0       1       0       0       0       0       0       0       0       0       0       0       0       0       0       0       0
      Temps:          0       1       0       0       0       0       0       0       0       0       0       0       0       0       0       0       0
      Totals:         0       2       0       0       0       0       0       0       0       0       0       0       0       0       0       0       0
Total ram usage:        2 bytes
 Hardware stack levels used:    1
 Hardware stack levels required when called:    5
 This function calls:
		Nothing
 This function is called by:
		_ReadTime
 This function uses a non-reentrant model


 *************** function _ProcessSystemMessageShowing *****************
 Defined at:
		line 2694 in file "prog.c"
 Parameters:    Size  Location     Type
		None
 Auto vars:     Size  Location     Type
		None
 Return value:  Size  Location     Type
                  1    wreg      void 
 Registers used:
		wreg, status,2
 Tracked objects:
		On entry : 
		On exit  : 
		Unchanged: 
 Data sizes:     COMRAM   BANK0   BANK1   BANK2   BANK3   BANK4   BANK5   BANK6   BANK7   BANK8   BANK9  BANK10  BANK11  BANK12  BANK13  BANK14  BANK15
      Params:         0       0       0       0       0       0       0       0       0       0       0       0       0       0       0       0       0
      Locals:         0       0       0       0       0       0       0       0       0       0       0       0       0       0       0       0       0
      Temps:          0       0       0       0       0       0       0       0       0       0       0       0       0       0       0       0       0
      Totals:         0       0       0       0       0       0       0       0       0       0       0       0       0       0       0       0       0
Total ram usage:        0 bytes
 Hardware stack levels used:    1
 Hardware stack levels required when called:    5
 This function calls:
		Nothing
 This function is called by:
		_F_l
 This function uses a non-reentrant model


 *************** function _ProcessIncommingUartData *****************
 Defined at:
		line 2460 in file "prog.c"
 Parameters:    Size  Location     Type
		None
 Auto vars:     Size  Location     Type
  answerString   11   33[BANK1 ] unsigned char [11]
  msg            33    0[BANK1 ] unsigned char [33]
  i               1   65[BANK1 ] unsigned char 
  number         11   44[BANK1 ] unsigned char [11]
  contact         2   63[BANK1 ] PTR struct .
		 -> FindPhoneContactByNumber@container(33), NULL(0), 
  tClock          4   59[BANK1 ] long 
 Return value:  Size  Location     Type
                  1    wreg      void 
 Registers used:
		wreg, fsr0l, fsr0h, fsr1l, fsr1h, fsr2l, fsr2h, status,2, status,0, tblptrl, tblptrh, tblptru, prodl, prodh, cstack
 Tracked objects:
		On entry : 
		On exit  : 
		Unchanged: 
 Data sizes:     COMRAM   BANK0   BANK1   BANK2   BANK3   BANK4   BANK5   BANK6   BANK7   BANK8   BANK9  BANK10  BANK11  BANK12  BANK13  BANK14  BANK15
      Params:         0       0       0       0       0       0       0       0       0       0       0       0       0       0       0       0       0
      Locals:         0       0      66       0       0       0       0       0       0       0       0       0       0       0       0       0       0
      Temps:          0      26       0       0       0       0       0       0       0       0       0       0       0       0       0       0       0
      Totals:         0      26      66       0       0       0       0       0       0       0       0       0       0       0       0       0       0
Total ram usage:       92 bytes
 Hardware stack levels used:    1
 Hardware stack levels required when called:    9
 This function calls:
		_CalculateClockDelta
		_FindPhoneContactByNumber
		_GetNumericFromString
		__CleanStringArray_interrupt
		__FindIncommingData_interrupt
		__getContainer_Clock_from_GSM
		__getContainer_Incomming_Call_Data
		__getContainer_Incomming_DTMF_Data
		i1_EEWR
		i1_GetDayOfWeekByDate
		i1_OutputSystemMessage
		i1_SendCommandToUSART
		i1___lmul
		i1_strcat
		i1_strcpy
 This function is called by:
		_F_l
 This function uses a non-reentrant model


 *************** function i1_strcpy *****************
 Defined at:
		line 8 in file "/opt/microchip/xc8/v1.37/sources/common/strcpy.c"
 Parameters:    Size  Location     Type
  to              2    0[BANK0 ] PTR unsigned char 
		 -> EncodePhoneNumberToPDU@encoded(15), active_phone(14), TimeToInd@tString(9), 
  from            2    2[BANK0 ] PTR const unsigned char 
		 -> active_phone(14), container.phone(14), FindPhoneContactByNumber@container(33), STR_10(9), 
		 -> STR_9(9), NULL(0), 
 Auto vars:     Size  Location     Type
  strcpy          2    4[BANK0 ] PTR unsigned char 
		 -> EncodePhoneNumberToPDU@encoded(15), active_phone(14), TimeToInd@tString(9), 
 Return value:  Size  Location     Type
                  2    0[BANK0 ] PTR unsigned char 
 Registers used:
		wreg, fsr0l, fsr0h, fsr2l, fsr2h, status,2, status,0, tblptrl, tblptrh, tblptru
 Tracked objects:
		On entry : 
		On exit  : 
		Unchanged: 
 Data sizes:     COMRAM   BANK0   BANK1   BANK2   BANK3   BANK4   BANK5   BANK6   BANK7   BANK8   BANK9  BANK10  BANK11  BANK12  BANK13  BANK14  BANK15
      Params:         0       4       0       0       0       0       0       0       0       0       0       0       0       0       0       0       0
      Locals:         0       2       0       0       0       0       0       0       0       0       0       0       0       0       0       0       0
      Temps:          0       0       0       0       0       0       0       0       0       0       0       0       0       0       0       0       0
      Totals:         0       6       0       0       0       0       0       0       0       0       0       0       0       0       0       0       0
Total ram usage:        6 bytes
 Hardware stack levels used:    1
 Hardware stack levels required when called:    5
 This function calls:
		Nothing
 This function is called by:
		_ProcessIncommingUartData
 This function uses a non-reentrant model


 *************** function i1_strcat *****************
 Defined at:
		line 8 in file "/opt/microchip/xc8/v1.37/sources/common/strcat.c"
 Parameters:    Size  Location     Type
  to              2    0[BANK0 ] PTR unsigned char 
		 -> SendSMS@command(12), SMS(512), EncodePhoneNumberToPDU@encoded(15), GetSystemInfo@DataArray(19), 
		 -> GetSystemInfo@info(73), ProcessIncommingUartData@msg(33), 
  from            2    2[BANK0 ] PTR const unsigned char 
		 -> SendSMS@y(4), STR_97(2), SendSMS@e(3), STR_96(3), 
		 -> STR_95(3), STR_94(3), SendSMS@tempString(3), STR_93(5), 
		 -> STR_92(3), cp1251_to_unicode@t(5), STR_91(2), EncodePhoneNumberToPDU@encoded(15), 
		 -> STR_86(8), GetSystemInfo@sss(5), STR_85(2), STR_84(2), 
		 -> STR_83(2), STR_82(2), STR_81(2), GetSystemInfo@h_2(3), 
		 -> GetSystemInfo@m_2(3), GetSystemInfo@h_1(3), GetSystemInfo@m_1(3), GetSystemInfo@DataArray(19), 
		 -> STR_80(13), STR_79(20), STR_78(18), GetSystemInfo@s_hand(5), 
		 -> STR_77(7), GetSystemInfo@s_auto(5), STR_76(7), STR_75(13), 
		 -> STR_35(20), ProcessIncommingUartData@number(11), STR_8(3), STR_7(3), 
		 -> STR_6(3), STR_5(3), STR_4(3), STR_3(3), 
		 -> STR_2(3), STR_1(3), 
 Auto vars:     Size  Location     Type
  strcat          2    4[BANK0 ] PTR unsigned char 
		 -> SendSMS@command(12), SMS(512), EncodePhoneNumberToPDU@encoded(15), GetSystemInfo@DataArray(19), 
		 -> GetSystemInfo@info(73), ProcessIncommingUartData@msg(33), 
 Return value:  Size  Location     Type
                  2    0[BANK0 ] PTR unsigned char 
 Registers used:
		wreg, fsr0l, fsr0h, fsr2l, fsr2h, status,2, status,0, tblptrl, tblptrh, tblptru
 Tracked objects:
		On entry : 
		On exit  : 
		Unchanged: 
 Data sizes:     COMRAM   BANK0   BANK1   BANK2   BANK3   BANK4   BANK5   BANK6   BANK7   BANK8   BANK9  BANK10  BANK11  BANK12  BANK13  BANK14  BANK15
      Params:         0       4       0       0       0       0       0       0       0       0       0       0       0       0       0       0       0
      Locals:         0       2       0       0       0       0       0       0       0       0       0       0       0       0       0       0       0
      Temps:          0       0       0       0       0       0       0       0       0       0       0       0       0       0       0       0       0
      Totals:         0       6       0       0       0       0       0       0       0       0       0       0       0       0       0       0       0
Total ram usage:        6 bytes
 Hardware stack levels used:    1
 Hardware stack levels required when called:    5
 This function calls:
		Nothing
 This function is called by:
		_ProcessIncommingUartData
 This function uses a non-reentrant model


 *************** function i1___lmul *****************
 Defined at:
		line 15 in file "/opt/microchip/xc8/v1.37/sources/common/Umul32.c"
 Parameters:    Size  Location     Type
  multiplier      4   28[BANK0 ] unsigned long 
  multiplicand    4   32[BANK0 ] unsigned long 
 Auto vars:     Size  Location     Type
  __lmul          4   36[BANK0 ] unsigned long 
 Return value:  Size  Location     Type
                  4   28[BANK0 ] unsigned long 
 Registers used:
		wreg, status,2, status,0
 Tracked objects:
		On entry : 
		On exit  : 
		Unchanged: 
 Data sizes:     COMRAM   BANK0   BANK1   BANK2   BANK3   BANK4   BANK5   BANK6   BANK7   BANK8   BANK9  BANK10  BANK11  BANK12  BANK13  BANK14  BANK15
      Params:         0       8       0       0       0       0       0       0       0       0       0       0       0       0       0       0       0
      Locals:         0       4       0       0       0       0       0       0       0       0       0       0       0       0       0       0       0
      Temps:          0       0       0       0       0       0       0       0       0       0       0       0       0       0       0       0       0
      Totals:         0      12       0       0       0       0       0       0       0       0       0       0       0       0       0       0       0
Total ram usage:       12 bytes
 Hardware stack levels used:    1
 Hardware stack levels required when called:    5
 This function calls:
		Nothing
 This function is called by:
		_ProcessIncommingUartData
		_ReadTime
 This function uses a non-reentrant model


 *************** function i1_SendCommandToUSART *****************
 Defined at:
		line 3381 in file "prog.c"
 Parameters:    Size  Location     Type
  command         2    0[BANK0 ] PTR unsigned char 
		 -> SendSMS@command(12), SMS(512), WriteTime@comand(31), STR_90(9), 
		 -> STR_64(5), STR_62(4), TelephoneCall@command(18), STR_49(10), 
		 -> STR_47(5), STR_45(2), STR_42(3), STR_41(3), 
		 -> InputText@ret_string(33), STR_38(5), ProcessIncommingUartData@answerString(11), STR_37(10), 
		 -> STR_36(4), STR_34(5), NULL(0), 
  wait            1    2[BANK0 ] unsigned char 
 Auto vars:     Size  Location     Type
		None
 Return value:  Size  Location     Type
                  1    wreg      void 
 Registers used:
		wreg, status,2, status,0
 Tracked objects:
		On entry : 
		On exit  : 
		Unchanged: 
 Data sizes:     COMRAM   BANK0   BANK1   BANK2   BANK3   BANK4   BANK5   BANK6   BANK7   BANK8   BANK9  BANK10  BANK11  BANK12  BANK13  BANK14  BANK15
      Params:         0       3       0       0       0       0       0       0       0       0       0       0       0       0       0       0       0
      Locals:         0       0       0       0       0       0       0       0       0       0       0       0       0       0       0       0       0
      Temps:          0       0       0       0       0       0       0       0       0       0       0       0       0       0       0       0       0
      Totals:         0       3       0       0       0       0       0       0       0       0       0       0       0       0       0       0       0
Total ram usage:        3 bytes
 Hardware stack levels used:    1
 Hardware stack levels required when called:    5
 This function calls:
		Nothing
 This function is called by:
		_ProcessIncommingUartData
		_ReadTime
 This function uses a non-reentrant model


 *************** function i1_OutputSystemMessage *****************
 Defined at:
		line 2955 in file "prog.c"
 Parameters:    Size  Location     Type
  stringData      2    0[BANK0 ] PTR unsigned char 
		 -> STR_100(31), STR_61(8), STR_60(20), STR_50(27), 
		 -> STR_48(23), STR_46(20), STR_43(23), STR_40(26), 
		 -> STR_39(11), ProcessIncommingUartData@msg(33), STR_32(8), STR_31(20), 
		 -> STR_28(8), STR_27(20), 
 Auto vars:     Size  Location     Type
  OutputSystem    2    7[BANK0 ] unsigned int 
  OutputSystem    1   12[BANK0 ] unsigned char 
  OutputSystem    1   11[BANK0 ] unsigned char 
  OutputSystem    1   10[BANK0 ] unsigned char 
  OutputSystem    1    9[BANK0 ] unsigned char 
  OutputSystem    1    6[BANK0 ] unsigned char 
 Return value:  Size  Location     Type
                  1    wreg      void 
 Registers used:
		wreg, fsr0l, fsr0h, fsr2l, fsr2h, status,2, status,0, tblptrl, tblptrh, tblptru, prodl, prodh
 Tracked objects:
		On entry : 
		On exit  : 
		Unchanged: 
 Data sizes:     COMRAM   BANK0   BANK1   BANK2   BANK3   BANK4   BANK5   BANK6   BANK7   BANK8   BANK9  BANK10  BANK11  BANK12  BANK13  BANK14  BANK15
      Params:         0       2       0       0       0       0       0       0       0       0       0       0       0       0       0       0       0
      Locals:         0       7       0       0       0       0       0       0       0       0       0       0       0       0       0       0       0
      Temps:          0       4       0       0       0       0       0       0       0       0       0       0       0       0       0       0       0
      Totals:         0      13       0       0       0       0       0       0       0       0       0       0       0       0       0       0       0
Total ram usage:       13 bytes
 Hardware stack levels used:    1
 Hardware stack levels required when called:    5
 This function calls:
		Nothing
 This function is called by:
		_ProcessIncommingUartData
 This function uses a non-reentrant model


 *************** function i1_GetDayOfWeekByDate *****************
 Defined at:
		line 2447 in file "prog.c"
 Parameters:    Size  Location     Type
  _year           1    wreg     unsigned char 
  _mounth         1   20[BANK0 ] unsigned char 
  _day            1   21[BANK0 ] unsigned char 
 Auto vars:     Size  Location     Type
  _year           1   27[BANK0 ] unsigned char 
  GetDayOfWeek    1   26[BANK0 ] const unsigned char 
 Return value:  Size  Location     Type
                  1    wreg      unsigned char 
 Registers used:
		wreg, status,2, status,0, prodl, prodh, cstack
 Tracked objects:
		On entry : 
		On exit  : 
		Unchanged: 
 Data sizes:     COMRAM   BANK0   BANK1   BANK2   BANK3   BANK4   BANK5   BANK6   BANK7   BANK8   BANK9  BANK10  BANK11  BANK12  BANK13  BANK14  BANK15
      Params:         0       2       0       0       0       0       0       0       0       0       0       0       0       0       0       0       0
      Locals:         0       2       0       0       0       0       0       0       0       0       0       0       0       0       0       0       0
      Temps:          0       4       0       0       0       0       0       0       0       0       0       0       0       0       0       0       0
      Totals:         0       8       0       0       0       0       0       0       0       0       0       0       0       0       0       0       0
Total ram usage:        8 bytes
 Hardware stack levels used:    1
 Hardware stack levels required when called:    6
 This function calls:
		i1___awdiv
		i1___awmod
		i1___wmul
 This function is called by:
		_ProcessIncommingUartData
 This function uses a non-reentrant model


 *************** function i1___wmul *****************
 Defined at:
		line 15 in file "/opt/microchip/xc8/v1.37/sources/common/Umul16.c"
 Parameters:    Size  Location     Type
  multiplier      2    0[BANK0 ] unsigned int 
  multiplicand    2    2[BANK0 ] unsigned int 
 Auto vars:     Size  Location     Type
  __wmul          2    4[BANK0 ] unsigned int 
 Return value:  Size  Location     Type
                  2    0[BANK0 ] unsigned int 
 Registers used:
		wreg, status,2, status,0, prodl, prodh
 Tracked objects:
		On entry : 
		On exit  : 
		Unchanged: 
 Data sizes:     COMRAM   BANK0   BANK1   BANK2   BANK3   BANK4   BANK5   BANK6   BANK7   BANK8   BANK9  BANK10  BANK11  BANK12  BANK13  BANK14  BANK15
      Params:         0       4       0       0       0       0       0       0       0       0       0       0       0       0       0       0       0
      Locals:         0       2       0       0       0       0       0       0       0       0       0       0       0       0       0       0       0
      Temps:          0       0       0       0       0       0       0       0       0       0       0       0       0       0       0       0       0
      Totals:         0       6       0       0       0       0       0       0       0       0       0       0       0       0       0       0       0
Total ram usage:        6 bytes
 Hardware stack levels used:    1
 Hardware stack levels required when called:    5
 This function calls:
		Nothing
 This function is called by:
		_get_temp
		i1_GetDayOfWeekByDate
 This function uses a non-reentrant model


 *************** function i1___awmod *****************
 Defined at:
		line 8 in file "/opt/microchip/xc8/v1.37/sources/common/awmod.c"
 Parameters:    Size  Location     Type
  dividend        2   14[BANK0 ] int 
  divisor         2   16[BANK0 ] int 
 Auto vars:     Size  Location     Type
  __awmod         1   19[BANK0 ] unsigned char 
  __awmod         1   18[BANK0 ] unsigned char 
 Return value:  Size  Location     Type
                  2   14[BANK0 ] int 
 Registers used:
		wreg, status,2, status,0
 Tracked objects:
		On entry : 
		On exit  : 
		Unchanged: 
 Data sizes:     COMRAM   BANK0   BANK1   BANK2   BANK3   BANK4   BANK5   BANK6   BANK7   BANK8   BANK9  BANK10  BANK11  BANK12  BANK13  BANK14  BANK15
      Params:         0       4       0       0       0       0       0       0       0       0       0       0       0       0       0       0       0
      Locals:         0       2       0       0       0       0       0       0       0       0       0       0       0       0       0       0       0
      Temps:          0       0       0       0       0       0       0       0       0       0       0       0       0       0       0       0       0
      Totals:         0       6       0       0       0       0       0       0       0       0       0       0       0       0       0       0       0
Total ram usage:        6 bytes
 Hardware stack levels used:    1
 Hardware stack levels required when called:    5
 This function calls:
		Nothing
 This function is called by:
		i1_GetDayOfWeekByDate
 This function uses a non-reentrant model


 *************** function i1___awdiv *****************
 Defined at:
		line 8 in file "/opt/microchip/xc8/v1.37/sources/common/awdiv.c"
 Parameters:    Size  Location     Type
  dividend        2    6[BANK0 ] int 
  divisor         2    8[BANK0 ] int 
 Auto vars:     Size  Location     Type
  __awdiv         2   12[BANK0 ] int 
  __awdiv         1   11[BANK0 ] unsigned char 
  __awdiv         1   10[BANK0 ] unsigned char 
 Return value:  Size  Location     Type
                  2    6[BANK0 ] int 
 Registers used:
		wreg, status,2, status,0
 Tracked objects:
		On entry : 
		On exit  : 
		Unchanged: 
 Data sizes:     COMRAM   BANK0   BANK1   BANK2   BANK3   BANK4   BANK5   BANK6   BANK7   BANK8   BANK9  BANK10  BANK11  BANK12  BANK13  BANK14  BANK15
      Params:         0       4       0       0       0       0       0       0       0       0       0       0       0       0       0       0       0
      Locals:         0       4       0       0       0       0       0       0       0       0       0       0       0       0       0       0       0
      Temps:          0       0       0       0       0       0       0       0       0       0       0       0       0       0       0       0       0
      Totals:         0       8       0       0       0       0       0       0       0       0       0       0       0       0       0       0       0
Total ram usage:        8 bytes
 Hardware stack levels used:    1
 Hardware stack levels required when called:    5
 This function calls:
		Nothing
 This function is called by:
		_get_temp
		_SendSymbolToLCD
		i1_lcd_send_byte
		i1_GetDayOfWeekByDate
 This function uses a non-reentrant model


 *************** function i1_EEWR *****************
 Defined at:
		line 1290 in file "prog.c"
 Parameters:    Size  Location     Type
  adress          2    0[BANK0 ] unsigned int 
  data            1    2[BANK0 ] unsigned char 
 Auto vars:     Size  Location     Type
  EEWR            1    3[BANK0 ] volatile unsigned char 
 Return value:  Size  Location     Type
                  1    wreg      void 
 Registers used:
		wreg, status,2
 Tracked objects:
		On entry : 
		On exit  : 
		Unchanged: 
 Data sizes:     COMRAM   BANK0   BANK1   BANK2   BANK3   BANK4   BANK5   BANK6   BANK7   BANK8   BANK9  BANK10  BANK11  BANK12  BANK13  BANK14  BANK15
      Params:         0       3       0       0       0       0       0       0       0       0       0       0       0       0       0       0       0
      Locals:         0       1       0       0       0       0       0       0       0       0       0       0       0       0       0       0       0
      Temps:          0       0       0       0       0       0       0       0       0       0       0       0       0       0       0       0       0
      Totals:         0       4       0       0       0       0       0       0       0       0       0       0       0       0       0       0       0
Total ram usage:        4 bytes
 Hardware stack levels used:    1
 Hardware stack levels required when called:    5
 This function calls:
		Nothing
 This function is called by:
		_ProcessIncommingUartData
 This function uses a non-reentrant model


 *************** function __getContainer_Incomming_DTMF_Data *****************
 Defined at:
		line 2442 in file "prog.c"
 Parameters:    Size  Location     Type
		None
 Auto vars:     Size  Location     Type
		None
 Return value:  Size  Location     Type
                  2    7[BANK0 ] PTR unsigned char 
 Registers used:
		wreg, fsr2l, fsr2h, status,2, status,0, cstack
 Tracked objects:
		On entry : 
		On exit  : 
		Unchanged: 
 Data sizes:     COMRAM   BANK0   BANK1   BANK2   BANK3   BANK4   BANK5   BANK6   BANK7   BANK8   BANK9  BANK10  BANK11  BANK12  BANK13  BANK14  BANK15
      Params:         0       2       0       0       0       0       0       0       0       0       0       0       0       0       0       0       0
      Locals:         0       0       0       0       0       0       0       0       0       0       0       0       0       0       0       0       0
      Temps:          0       0       0       0       0       0       0       0       0       0       0       0       0       0       0       0       0
      Totals:         0       2       0       0       0       0       0       0       0       0       0       0       0       0       0       0       0
Total ram usage:        2 bytes
 Hardware stack levels used:    1
 Hardware stack levels required when called:    6
 This function calls:
		i1_CleanStringArray
 This function is called by:
		_ProcessIncommingUartData
 This function uses a non-reentrant model


 *************** function __getContainer_Incomming_Call_Data *****************
 Defined at:
		line 2437 in file "prog.c"
 Parameters:    Size  Location     Type
		None
 Auto vars:     Size  Location     Type
		None
 Return value:  Size  Location     Type
                  2    7[BANK0 ] PTR unsigned char 
 Registers used:
		wreg, fsr2l, fsr2h, status,2, status,0, cstack
 Tracked objects:
		On entry : 
		On exit  : 
		Unchanged: 
 Data sizes:     COMRAM   BANK0   BANK1   BANK2   BANK3   BANK4   BANK5   BANK6   BANK7   BANK8   BANK9  BANK10  BANK11  BANK12  BANK13  BANK14  BANK15
      Params:         0       2       0       0       0       0       0       0       0       0       0       0       0       0       0       0       0
      Locals:         0       0       0       0       0       0       0       0       0       0       0       0       0       0       0       0       0
      Temps:          0       0       0       0       0       0       0       0       0       0       0       0       0       0       0       0       0
      Totals:         0       2       0       0       0       0       0       0       0       0       0       0       0       0       0       0       0
Total ram usage:        2 bytes
 Hardware stack levels used:    1
 Hardware stack levels required when called:    6
 This function calls:
		i1_CleanStringArray
 This function is called by:
		_ProcessIncommingUartData
 This function uses a non-reentrant model


 *************** function __getContainer_Clock_from_GSM *****************
 Defined at:
		line 2432 in file "prog.c"
 Parameters:    Size  Location     Type
		None
 Auto vars:     Size  Location     Type
		None
 Return value:  Size  Location     Type
                  2    7[BANK0 ] PTR unsigned char 
 Registers used:
		wreg, fsr2l, fsr2h, status,2, status,0, cstack
 Tracked objects:
		On entry : 
		On exit  : 
		Unchanged: 
 Data sizes:     COMRAM   BANK0   BANK1   BANK2   BANK3   BANK4   BANK5   BANK6   BANK7   BANK8   BANK9  BANK10  BANK11  BANK12  BANK13  BANK14  BANK15
      Params:         0       2       0       0       0       0       0       0       0       0       0       0       0       0       0       0       0
      Locals:         0       0       0       0       0       0       0       0       0       0       0       0       0       0       0       0       0
      Temps:          0       0       0       0       0       0       0       0       0       0       0       0       0       0       0       0       0
      Totals:         0       2       0       0       0       0       0       0       0       0       0       0       0       0       0       0       0
Total ram usage:        2 bytes
 Hardware stack levels used:    1
 Hardware stack levels required when called:    6
 This function calls:
		i1_CleanStringArray
 This function is called by:
		_ProcessIncommingUartData
 This function uses a non-reentrant model


 *************** function i1_CleanStringArray *****************
 Defined at:
		line 1916 in file "prog.c"
 Parameters:    Size  Location     Type
  myArray         2    0[BANK0 ] PTR unsigned char 
		 -> SMS(512), GetSystemInfo@DataArray(19), GetSystemInfo@info(73), buff_string_11(256), 
		 -> buff_string_10(256), buff_string_9(256), buff_string_8(256), active_phone(14), 
		 -> Incomming_DTMF_Data(8), Incomming_Call_Data(36), Clock_from_GSM(30), DeleteDataOfCell@CellsData(8), 
  size            2    2[BANK0 ] unsigned int 
  settingData     1    4[BANK0 ] unsigned char 
 Auto vars:     Size  Location     Type
  CleanStringA    2    5[BANK0 ] unsigned int 
 Return value:  Size  Location     Type
                  1    wreg      void 
 Registers used:
		wreg, fsr2l, fsr2h, status,2, status,0
 Tracked objects:
		On entry : 
		On exit  : 
		Unchanged: 
 Data sizes:     COMRAM   BANK0   BANK1   BANK2   BANK3   BANK4   BANK5   BANK6   BANK7   BANK8   BANK9  BANK10  BANK11  BANK12  BANK13  BANK14  BANK15
      Params:         0       5       0       0       0       0       0       0       0       0       0       0       0       0       0       0       0
      Locals:         0       2       0       0       0       0       0       0       0       0       0       0       0       0       0       0       0
      Temps:          0       0       0       0       0       0       0       0       0       0       0       0       0       0       0       0       0
      Totals:         0       7       0       0       0       0       0       0       0       0       0       0       0       0       0       0       0
Total ram usage:        7 bytes
 Hardware stack levels used:    1
 Hardware stack levels required when called:    5
 This function calls:
		Nothing
 This function is called by:
		__getContainer_Clock_from_GSM
		__getContainer_Incomming_Call_Data
		__getContainer_Incomming_DTMF_Data
 This function uses a non-reentrant model


 *************** function __FindIncommingData_interrupt *****************
 Defined at:
		line 3067 in file "prog.c"
 Parameters:    Size  Location     Type
  regexp          2    9[BANK0 ] PTR unsigned char 
		 -> StandardAnswer_NORMAL_POWER_DOWN(18), StandardAnswer_ERROR(6), StandardAnswer_NO_DIALTONE(12), StandardAnswer_NO_ANSWER(10), 
		 -> StandardAnswer_BUSY(5), StandardAnswer_NO_CARRIER(11), StandardAnswer_DTMF(8), StandardAnswer_INCCALL(36), 
		 -> StandardAnswer_CLOCK(30), STR_33(5), StandardAnswer_OK(3), 
  container       2   11[BANK0 ] PTR unsigned char 
		 -> Incomming_DTMF_Data(8), Incomming_Call_Data(36), Clock_from_GSM(30), NULL(0), 
  history_inde    2   13[BANK0 ] int 
 Auto vars:     Size  Location     Type
  a               2   27[BANK0 ] unsigned int 
  s0              2   31[BANK0 ] unsigned int 
  s1              2   19[BANK0 ] unsigned int 
  j               2   39[BANK0 ] unsigned int 
  last_s          2   37[BANK0 ] unsigned int 
  not_found       2   25[BANK0 ] unsigned int 
  i               2   33[BANK0 ] unsigned int 
  pointer         2   35[BANK0 ] PTR unsigned char 
		 -> buff_string_11(256), buff_string_10(256), buff_string_9(256), buff_string_8(256), 
  end_of_regex    2   29[BANK0 ] PTR unsigned char 
		 -> StandardAnswer_NORMAL_POWER_DOWN(18), StandardAnswer_ERROR(6), StandardAnswer_NO_DIALTONE(12), StandardAnswer_NO_ANSWER(10), 
		 -> StandardAnswer_BUSY(5), StandardAnswer_NO_CARRIER(11), StandardAnswer_DTMF(8), StandardAnswer_INCCALL(36), 
		 -> StandardAnswer_CLOCK(30), STR_33(5), StandardAnswer_OK(3), 
  finish_index    2   23[BANK0 ] unsigned int 
  start_index     2   21[BANK0 ] unsigned int 
 Return value:  Size  Location     Type
                  1    wreg      unsigned char 
 Registers used:
		wreg, fsr1l, fsr1h, fsr2l, fsr2h, status,2, status,0, tblptrl, tblptrh, tblptru, cstack
 Tracked objects:
		On entry : 
		On exit  : 
		Unchanged: 
 Data sizes:     COMRAM   BANK0   BANK1   BANK2   BANK3   BANK4   BANK5   BANK6   BANK7   BANK8   BANK9  BANK10  BANK11  BANK12  BANK13  BANK14  BANK15
      Params:         0       6       0       0       0       0       0       0       0       0       0       0       0       0       0       0       0
      Locals:         0      22       0       0       0       0       0       0       0       0       0       0       0       0       0       0       0
      Temps:          0       4       0       0       0       0       0       0       0       0       0       0       0       0       0       0       0
      Totals:         0      32       0       0       0       0       0       0       0       0       0       0       0       0       0       0       0
Total ram usage:       32 bytes
 Hardware stack levels used:    1
 Hardware stack levels required when called:    6
 This function calls:
		__CleanStringArray_interrupt
		__GetStringLength_interr
 This function is called by:
		_ProcessIncommingUartData
 This function uses a non-reentrant model


 *************** function __GetStringLength_interr *****************
 Defined at:
		line 3058 in file "prog.c"
 Parameters:    Size  Location     Type
  container       2    0[BANK0 ] PTR unsigned char 
		 -> StandardAnswer_NORMAL_POWER_DOWN(18), StandardAnswer_ERROR(6), StandardAnswer_NO_DIALTONE(12), StandardAnswer_NO_ANSWER(10), 
		 -> StandardAnswer_BUSY(5), StandardAnswer_NO_CARRIER(11), StandardAnswer_DTMF(8), StandardAnswer_INCCALL(36), 
		 -> StandardAnswer_CLOCK(30), STR_33(5), StandardAnswer_OK(3), 
 Auto vars:     Size  Location     Type
  i               2    2[BANK0 ] unsigned int 
 Return value:  Size  Location     Type
                  2    0[BANK0 ] unsigned int 
 Registers used:
		wreg, status,2, status,0, tblptrl, tblptrh, tblptru
 Tracked objects:
		On entry : 
		On exit  : 
		Unchanged: 
 Data sizes:     COMRAM   BANK0   BANK1   BANK2   BANK3   BANK4   BANK5   BANK6   BANK7   BANK8   BANK9  BANK10  BANK11  BANK12  BANK13  BANK14  BANK15
      Params:         0       2       0       0       0       0       0       0       0       0       0       0       0       0       0       0       0
      Locals:         0       2       0       0       0       0       0       0       0       0       0       0       0       0       0       0       0
      Temps:          0       0       0       0       0       0       0       0       0       0       0       0       0       0       0       0       0
      Totals:         0       4       0       0       0       0       0       0       0       0       0       0       0       0       0       0       0
Total ram usage:        4 bytes
 Hardware stack levels used:    1
 Hardware stack levels required when called:    5
 This function calls:
		Nothing
 This function is called by:
		__FindIncommingData_interrupt
 This function uses a non-reentrant model


 *************** function __CleanStringArray_interrupt *****************
 Defined at:
		line 1922 in file "prog.c"
 Parameters:    Size  Location     Type
  myArray         2    0[BANK0 ] PTR unsigned char 
		 -> buff_string_11(256), buff_string_10(256), buff_string_9(256), buff_string_8(256), 
		 -> ProcessIncommingUartData@msg(33), ProcessIncommingUartData@number(11), 
  size            2    2[BANK0 ] unsigned int 
  settingData     1    4[BANK0 ] unsigned char 
 Auto vars:     Size  Location     Type
  i               2    5[BANK0 ] unsigned int 
 Return value:  Size  Location     Type
                  1    wreg      void 
 Registers used:
		wreg, fsr2l, fsr2h, status,2, status,0
 Tracked objects:
		On entry : 
		On exit  : 
		Unchanged: 
 Data sizes:     COMRAM   BANK0   BANK1   BANK2   BANK3   BANK4   BANK5   BANK6   BANK7   BANK8   BANK9  BANK10  BANK11  BANK12  BANK13  BANK14  BANK15
      Params:         0       5       0       0       0       0       0       0       0       0       0       0       0       0       0       0       0
      Locals:         0       2       0       0       0       0       0       0       0       0       0       0       0       0       0       0       0
      Temps:          0       0       0       0       0       0       0       0       0       0       0       0       0       0       0       0       0
      Totals:         0       7       0       0       0       0       0       0       0       0       0       0       0       0       0       0       0
Total ram usage:        7 bytes
 Hardware stack levels used:    1
 Hardware stack levels required when called:    5
 This function calls:
		Nothing
 This function is called by:
		_ProcessIncommingUartData
		__FindIncommingData_interrupt
 This function uses a non-reentrant model


 *************** function _GetNumericFromString *****************
 Defined at:
		line 2456 in file "prog.c"
 Parameters:    Size  Location     Type
  string          2    1[BANK0 ] PTR unsigned char 
		 -> Clock_from_GSM(30), 
  index           1    3[BANK0 ] unsigned char 
 Auto vars:     Size  Location     Type
		None
 Return value:  Size  Location     Type
                  1    wreg      unsigned char 
 Registers used:
		wreg, fsr2l, fsr2h, status,2, status,0, prodl, prodh, cstack
 Tracked objects:
		On entry : 
		On exit  : 
		Unchanged: 
 Data sizes:     COMRAM   BANK0   BANK1   BANK2   BANK3   BANK4   BANK5   BANK6   BANK7   BANK8   BANK9  BANK10  BANK11  BANK12  BANK13  BANK14  BANK15
      Params:         0       3       0       0       0       0       0       0       0       0       0       0       0       0       0       0       0
      Locals:         0       0       0       0       0       0       0       0       0       0       0       0       0       0       0       0       0
      Temps:          0       0       0       0       0       0       0       0       0       0       0       0       0       0       0       0       0
      Totals:         0       3       0       0       0       0       0       0       0       0       0       0       0       0       0       0       0
Total ram usage:        3 bytes
 Hardware stack levels used:    1
 Hardware stack levels required when called:    6
 This function calls:
		_ConvertCharToNumeric
 This function is called by:
		_ProcessIncommingUartData
 This function uses a non-reentrant model


 *************** function _ConvertCharToNumeric *****************
 Defined at:
		line 918 in file "prog.c"
 Parameters:    Size  Location     Type
  symbol          1    wreg     unsigned char 
 Auto vars:     Size  Location     Type
  symbol          1    0[BANK0 ] unsigned char 
 Return value:  Size  Location     Type
                  1    wreg      unsigned char 
 Registers used:
		wreg, status,2, status,0
 Tracked objects:
		On entry : 
		On exit  : 
		Unchanged: 
 Data sizes:     COMRAM   BANK0   BANK1   BANK2   BANK3   BANK4   BANK5   BANK6   BANK7   BANK8   BANK9  BANK10  BANK11  BANK12  BANK13  BANK14  BANK15
      Params:         0       0       0       0       0       0       0       0       0       0       0       0       0       0       0       0       0
      Locals:         0       1       0       0       0       0       0       0       0       0       0       0       0       0       0       0       0
      Temps:          0       0       0       0       0       0       0       0       0       0       0       0       0       0       0       0       0
      Totals:         0       1       0       0       0       0       0       0       0       0       0       0       0       0       0       0       0
Total ram usage:        1 bytes
 Hardware stack levels used:    1
 Hardware stack levels required when called:    5
 This function calls:
		Nothing
 This function is called by:
		_GetNumericFromString
 This function uses a non-reentrant model


 *************** function _FindPhoneContactByNumber *****************
 Defined at:
		line 2395 in file "prog.c"
 Parameters:    Size  Location     Type
  number          2   17[BANK0 ] PTR unsigned char 
		 -> ProcessIncommingUartData@number(11), 
 Auto vars:     Size  Location     Type
  j               1   30[BANK0 ] unsigned char 
  end_of_phone    1   29[BANK0 ] unsigned char 
  i               1   28[BANK0 ] unsigned char 
  container      33   31[BANK0 ] struct .
  found           1   27[BANK0 ] unsigned char 
 Return value:  Size  Location     Type
                  2   17[BANK0 ] PTR struct .
 Registers used:
		wreg, fsr1l, fsr1h, fsr2l, fsr2h, status,2, status,0, prodl, prodh, cstack
 Tracked objects:
		On entry : 
		On exit  : 
		Unchanged: 
 Data sizes:     COMRAM   BANK0   BANK1   BANK2   BANK3   BANK4   BANK5   BANK6   BANK7   BANK8   BANK9  BANK10  BANK11  BANK12  BANK13  BANK14  BANK15
      Params:         0       2       0       0       0       0       0       0       0       0       0       0       0       0       0       0       0
      Locals:         0      37       0       0       0       0       0       0       0       0       0       0       0       0       0       0       0
      Temps:          0       8       0       0       0       0       0       0       0       0       0       0       0       0       0       0       0
      Totals:         0      47       0       0       0       0       0       0       0       0       0       0       0       0       0       0       0
Total ram usage:       47 bytes
 Hardware stack levels used:    1
 Hardware stack levels required when called:    8
 This function calls:
		i1_FillPhonebookCellFromEEPROM
 This function is called by:
		_ProcessIncommingUartData
 This function uses a non-reentrant model


 *************** function i1_FillPhonebookCellFromEEPROM *****************
 Defined at:
		line 1604 in file "prog.c"
 Parameters:    Size  Location     Type
  container       2   13[BANK0 ] PTR struct .
		 -> PhonebookEdit@Contact(33), FindPhoneContactByNumber@container(33), 
  adress_start    2   15[BANK0 ] unsigned int 
 Auto vars:     Size  Location     Type
		None
 Return value:  Size  Location     Type
                  1    wreg      void 
 Registers used:
		wreg, fsr2l, fsr2h, status,2, status,0, prodl, prodh, cstack
 Tracked objects:
		On entry : 
		On exit  : 
		Unchanged: 
 Data sizes:     COMRAM   BANK0   BANK1   BANK2   BANK3   BANK4   BANK5   BANK6   BANK7   BANK8   BANK9  BANK10  BANK11  BANK12  BANK13  BANK14  BANK15
      Params:         0       4       0       0       0       0       0       0       0       0       0       0       0       0       0       0       0
      Locals:         0       0       0       0       0       0       0       0       0       0       0       0       0       0       0       0       0
      Temps:          0       0       0       0       0       0       0       0       0       0       0       0       0       0       0       0       0
      Totals:         0       4       0       0       0       0       0       0       0       0       0       0       0       0       0       0       0
Total ram usage:        4 bytes
 Hardware stack levels used:    1
 Hardware stack levels required when called:    7
 This function calls:
		i1_FillArrayFromEEPROM
 This function is called by:
		_FindPhoneContactByNumber
 This function uses a non-reentrant model


 *************** function i1_FillArrayFromEEPROM *****************
 Defined at:
		line 1598 in file "prog.c"
 Parameters:    Size  Location     Type
  container       2    4[BANK0 ] PTR unsigned char 
		 -> GetSystemInfo@CellsData(8), PhonebookEdit@Contact(33), FindPhoneContactByNumber@container(33), FindNextTimeStart@CellsData(8), 
		 -> EditSchedule@CellsData(8), RefreshSchedulerIndicator@CellsData(8), FindCell@CellsData(8), TimeToInd@CellsData(8), 
  adress_start    2    6[BANK0 ] unsigned int 
  quantity        2    8[BANK0 ] unsigned int 
 Auto vars:     Size  Location     Type
  FillArrayFro    1   12[BANK0 ] unsigned char 
 Return value:  Size  Location     Type
                  1    wreg      void 
 Registers used:
		wreg, fsr2l, fsr2h, status,2, status,0, prodl, prodh, cstack
 Tracked objects:
		On entry : 
		On exit  : 
		Unchanged: 
 Data sizes:     COMRAM   BANK0   BANK1   BANK2   BANK3   BANK4   BANK5   BANK6   BANK7   BANK8   BANK9  BANK10  BANK11  BANK12  BANK13  BANK14  BANK15
      Params:         0       6       0       0       0       0       0       0       0       0       0       0       0       0       0       0       0
      Locals:         0       1       0       0       0       0       0       0       0       0       0       0       0       0       0       0       0
      Temps:          0       2       0       0       0       0       0       0       0       0       0       0       0       0       0       0       0
      Totals:         0       9       0       0       0       0       0       0       0       0       0       0       0       0       0       0       0
Total ram usage:        9 bytes
 Hardware stack levels used:    1
 Hardware stack levels required when called:    6
 This function calls:
		i1_EERD
 This function is called by:
		i1_FillPhonebookCellFromEEPROM
 This function uses a non-reentrant model


 *************** function i1_EERD *****************
 Defined at:
		line 1311 in file "prog.c"
 Parameters:    Size  Location     Type
  adress          2    0[BANK0 ] unsigned int 
 Auto vars:     Size  Location     Type
  EERD            1    3[BANK0 ] volatile unsigned char 
  EERD            1    2[BANK0 ] volatile unsigned char 
 Return value:  Size  Location     Type
                  1    wreg      unsigned char 
 Registers used:
		wreg, status,2
 Tracked objects:
		On entry : 
		On exit  : 
		Unchanged: 
 Data sizes:     COMRAM   BANK0   BANK1   BANK2   BANK3   BANK4   BANK5   BANK6   BANK7   BANK8   BANK9  BANK10  BANK11  BANK12  BANK13  BANK14  BANK15
      Params:         0       2       0       0       0       0       0       0       0       0       0       0       0       0       0       0       0
      Locals:         0       2       0       0       0       0       0       0       0       0       0       0       0       0       0       0       0
      Temps:          0       0       0       0       0       0       0       0       0       0       0       0       0       0       0       0       0
      Totals:         0       4       0       0       0       0       0       0       0       0       0       0       0       0       0       0       0
Total ram usage:        4 bytes
 Hardware stack levels used:    1
 Hardware stack levels required when called:    5
 This function calls:
		Nothing
 This function is called by:
		_ReadTime
		i1_FillArrayFromEEPROM
 This function uses a non-reentrant model


 *************** function _CalculateClockDelta *****************
 Defined at:
		line 467 in file "prog.c"
 Parameters:    Size  Location     Type
  newTime         4   14[BANK0 ] long 
 Auto vars:     Size  Location     Type
		None
 Return value:  Size  Location     Type
                  1    wreg      void 
 Registers used:
		wreg, status,2, status,0, cstack
 Tracked objects:
		On entry : 
		On exit  : 
		Unchanged: 
 Data sizes:     COMRAM   BANK0   BANK1   BANK2   BANK3   BANK4   BANK5   BANK6   BANK7   BANK8   BANK9  BANK10  BANK11  BANK12  BANK13  BANK14  BANK15
      Params:         0       4       0       0       0       0       0       0       0       0       0       0       0       0       0       0       0
      Locals:         0       4       0       0       0       0       0       0       0       0       0       0       0       0       0       0       0
      Temps:          0       4       0       0       0       0       0       0       0       0       0       0       0       0       0       0       0
      Totals:         0      12       0       0       0       0       0       0       0       0       0       0       0       0       0       0       0
Total ram usage:       12 bytes
 Hardware stack levels used:    1
 Hardware stack levels required when called:    6
 This function calls:
		i1___aldiv
 This function is called by:
		_ProcessIncommingUartData
 This function uses a non-reentrant model


 *************** function i1___aldiv *****************
 Defined at:
		line 8 in file "/opt/microchip/xc8/v1.37/sources/common/aldiv.c"
 Parameters:    Size  Location     Type
  dividend        4    0[BANK0 ] long 
  divisor         4    4[BANK0 ] long 
 Auto vars:     Size  Location     Type
  __aldiv         4   10[BANK0 ] long 
  __aldiv         1    9[BANK0 ] unsigned char 
  __aldiv         1    8[BANK0 ] unsigned char 
 Return value:  Size  Location     Type
                  4    0[BANK0 ] long 
 Registers used:
		wreg, status,2, status,0
 Tracked objects:
		On entry : 
		On exit  : 
		Unchanged: 
 Data sizes:     COMRAM   BANK0   BANK1   BANK2   BANK3   BANK4   BANK5   BANK6   BANK7   BANK8   BANK9  BANK10  BANK11  BANK12  BANK13  BANK14  BANK15
      Params:         0       8       0       0       0       0       0       0       0       0       0       0       0       0       0       0       0
      Locals:         0       6       0       0       0       0       0       0       0       0       0       0       0       0       0       0       0
      Temps:          0       0       0       0       0       0       0       0       0       0       0       0       0       0       0       0       0
      Totals:         0      14       0       0       0       0       0       0       0       0       0       0       0       0       0       0       0
Total ram usage:       14 bytes
 Hardware stack levels used:    1
 Hardware stack levels required when called:    5
 This function calls:
		Nothing
 This function is called by:
		_CalculateClockDelta
 This function uses a non-reentrant model


 *************** function _ConvKeyNum *****************
 Defined at:
		line 1759 in file "prog.c"
 Parameters:    Size  Location     Type
  Num             1    wreg     unsigned char 
 Auto vars:     Size  Location     Type
  Num             1    0[BANK0 ] unsigned char 
 Return value:  Size  Location     Type
                  1    wreg      unsigned char 
 Registers used:
		wreg, status,2, status,0
 Tracked objects:
		On entry : 
		On exit  : 
		Unchanged: 
 Data sizes:     COMRAM   BANK0   BANK1   BANK2   BANK3   BANK4   BANK5   BANK6   BANK7   BANK8   BANK9  BANK10  BANK11  BANK12  BANK13  BANK14  BANK15
      Params:         0       0       0       0       0       0       0       0       0       0       0       0       0       0       0       0       0
      Locals:         0       1       0       0       0       0       0       0       0       0       0       0       0       0       0       0       0
      Temps:          0       0       0       0       0       0       0       0       0       0       0       0       0       0       0       0       0
      Totals:         0       1       0       0       0       0       0       0       0       0       0       0       0       0       0       0       0
Total ram usage:        1 bytes
 Hardware stack levels used:    1
 Hardware stack levels required when called:    5
 This function calls:
		Nothing
 This function is called by:
		_F_l
 This function uses a non-reentrant model


 *************** function _F_h *****************
 Defined at:
		line 2648 in file "prog.c"
 Parameters:    Size  Location     Type
		None
 Auto vars:     Size  Location     Type
  MinuteAgo       1   79[COMRAM] unsigned char 
 Return value:  Size  Location     Type
                  1    wreg      void 
 Registers used:
		wreg, fsr0l, fsr0h, fsr1l, fsr1h, fsr2l, fsr2h, status,2, status,0, tblptrl, tblptrh, tblptru, prodl, prodh, cstack
 Tracked objects:
		On entry : 
		On exit  : 
		Unchanged: 
 Data sizes:     COMRAM   BANK0   BANK1   BANK2   BANK3   BANK4   BANK5   BANK6   BANK7   BANK8   BANK9  BANK10  BANK11  BANK12  BANK13  BANK14  BANK15
      Params:         0       0       0       0       0       0       0       0       0       0       0       0       0       0       0       0       0
      Locals:         1       0       0       0       0       0       0       0       0       0       0       0       0       0       0       0       0
      Temps:         22       0       0       0       0       0       0       0       0       0       0       0       0       0       0       0       0
      Totals:        23       0       0       0       0       0       0       0       0       0       0       0       0       0       0       0       0
Total ram usage:       23 bytes
 Hardware stack levels used:    1
 Hardware stack levels required when called:    4
 This function calls:
		_AddByteToUSARTbuff
		_SignalsOnOff
		__load_TXREG
		i2_FillMinutes
 This function is called by:
		Interrupt level 2
 This function uses a non-reentrant model


 *************** function i2_FillMinutes *****************
 Defined at:
		line 2391 in file "prog.c"
 Parameters:    Size  Location     Type
		None
 Auto vars:     Size  Location     Type
		None
 Return value:  Size  Location     Type
                  1    wreg      void 
 Registers used:
		wreg, status,2, status,0
 Tracked objects:
		On entry : 
		On exit  : 
		Unchanged: 
 Data sizes:     COMRAM   BANK0   BANK1   BANK2   BANK3   BANK4   BANK5   BANK6   BANK7   BANK8   BANK9  BANK10  BANK11  BANK12  BANK13  BANK14  BANK15
      Params:         0       0       0       0       0       0       0       0       0       0       0       0       0       0       0       0       0
      Locals:         0       0       0       0       0       0       0       0       0       0       0       0       0       0       0       0       0
      Temps:          0       0       0       0       0       0       0       0       0       0       0       0       0       0       0       0       0
      Totals:         0       0       0       0       0       0       0       0       0       0       0       0       0       0       0       0       0
Total ram usage:        0 bytes
 Hardware stack levels used:    1
 This function calls:
		Nothing
 This function is called by:
		_F_h
 This function uses a non-reentrant model


 *************** function __load_TXREG *****************
 Defined at:
		line 2633 in file "prog.c"
 Parameters:    Size  Location     Type
		None
 Auto vars:     Size  Location     Type
		None
 Return value:  Size  Location     Type
                  1    wreg      void 
 Registers used:
		wreg, fsr0l, fsr0h, status,2, status,0, tblptrl, tblptrh, tblptru
 Tracked objects:
		On entry : 
		On exit  : 
		Unchanged: 
 Data sizes:     COMRAM   BANK0   BANK1   BANK2   BANK3   BANK4   BANK5   BANK6   BANK7   BANK8   BANK9  BANK10  BANK11  BANK12  BANK13  BANK14  BANK15
      Params:         0       0       0       0       0       0       0       0       0       0       0       0       0       0       0       0       0
      Locals:         0       0       0       0       0       0       0       0       0       0       0       0       0       0       0       0       0
      Temps:          0       0       0       0       0       0       0       0       0       0       0       0       0       0       0       0       0
      Totals:         0       0       0       0       0       0       0       0       0       0       0       0       0       0       0       0       0
Total ram usage:        0 bytes
 Hardware stack levels used:    1
 This function calls:
		Nothing
 This function is called by:
		_F_h
 This function uses a non-reentrant model


 *************** function _SignalsOnOff *****************
 Defined at:
		line 2340 in file "prog.c"
 Parameters:    Size  Location     Type
		None
 Auto vars:     Size  Location     Type
  DayTime         2   47[COMRAM] unsigned int 
  ThisTime        2   45[COMRAM] unsigned int 
  ThisDay         1   51[COMRAM] unsigned char 
  TimeStop        2   41[COMRAM] unsigned int 
  TimeStart       2   39[COMRAM] unsigned int 
  Signals         1   50[COMRAM] unsigned char 
  Days            1   49[COMRAM] unsigned char 
  Data            1   52[COMRAM] unsigned char 
  CellsData       8   31[COMRAM] unsigned char [8]
  Data            4   53[COMRAM] unsigned long 
 Return value:  Size  Location     Type
                  1    wreg      void 
 Registers used:
		wreg, fsr2l, fsr2h, status,2, status,0, prodl, prodh, cstack
 Tracked objects:
		On entry : 
		On exit  : 
		Unchanged: 
 Data sizes:     COMRAM   BANK0   BANK1   BANK2   BANK3   BANK4   BANK5   BANK6   BANK7   BANK8   BANK9  BANK10  BANK11  BANK12  BANK13  BANK14  BANK15
      Params:         0       0       0       0       0       0       0       0       0       0       0       0       0       0       0       0       0
      Locals:        26       0       0       0       0       0       0       0       0       0       0       0       0       0       0       0       0
      Temps:          1       0       0       0       0       0       0       0       0       0       0       0       0       0       0       0       0
      Totals:        27       0       0       0       0       0       0       0       0       0       0       0       0       0       0       0       0
Total ram usage:       27 bytes
 Hardware stack levels used:    1
 Hardware stack levels required when called:    3
 This function calls:
		_ReadDataOfCell_interr
		i2_ConvertDayToBit
		i2_EEWR
		i2___aldiv
		i2___lwdiv
		i2___lwmod
 This function is called by:
		_F_h
 This function uses a non-reentrant model


 *************** function i2___lwmod *****************
 Defined at:
		line 8 in file "/opt/microchip/xc8/v1.37/sources/common/lwmod.c"
 Parameters:    Size  Location     Type
  dividend        2    0[COMRAM] unsigned int 
  divisor         2    2[COMRAM] unsigned int 
 Auto vars:     Size  Location     Type
  __lwmod         1    4[COMRAM] unsigned char 
 Return value:  Size  Location     Type
                  2    0[COMRAM] unsigned int 
 Registers used:
		wreg, status,2, status,0
 Tracked objects:
		On entry : 
		On exit  : 
		Unchanged: 
 Data sizes:     COMRAM   BANK0   BANK1   BANK2   BANK3   BANK4   BANK5   BANK6   BANK7   BANK8   BANK9  BANK10  BANK11  BANK12  BANK13  BANK14  BANK15
      Params:         4       0       0       0       0       0       0       0       0       0       0       0       0       0       0       0       0
      Locals:         1       0       0       0       0       0       0       0       0       0       0       0       0       0       0       0       0
      Temps:          0       0       0       0       0       0       0       0       0       0       0       0       0       0       0       0       0
      Totals:         5       0       0       0       0       0       0       0       0       0       0       0       0       0       0       0       0
Total ram usage:        5 bytes
 Hardware stack levels used:    1
 This function calls:
		Nothing
 This function is called by:
		_SignalsOnOff
 This function uses a non-reentrant model


 *************** function i2___lwdiv *****************
 Defined at:
		line 8 in file "/opt/microchip/xc8/v1.37/sources/common/lwdiv.c"
 Parameters:    Size  Location     Type
  dividend        2    0[COMRAM] unsigned int 
  divisor         2    2[COMRAM] unsigned int 
 Auto vars:     Size  Location     Type
  __lwdiv         2    4[COMRAM] unsigned int 
  __lwdiv         1    6[COMRAM] unsigned char 
 Return value:  Size  Location     Type
                  2    0[COMRAM] unsigned int 
 Registers used:
		wreg, status,2, status,0
 Tracked objects:
		On entry : 
		On exit  : 
		Unchanged: 
 Data sizes:     COMRAM   BANK0   BANK1   BANK2   BANK3   BANK4   BANK5   BANK6   BANK7   BANK8   BANK9  BANK10  BANK11  BANK12  BANK13  BANK14  BANK15
      Params:         4       0       0       0       0       0       0       0       0       0       0       0       0       0       0       0       0
      Locals:         3       0       0       0       0       0       0       0       0       0       0       0       0       0       0       0       0
      Temps:          0       0       0       0       0       0       0       0       0       0       0       0       0       0       0       0       0
      Totals:         7       0       0       0       0       0       0       0       0       0       0       0       0       0       0       0       0
Total ram usage:        7 bytes
 Hardware stack levels used:    1
 This function calls:
		Nothing
 This function is called by:
		_SignalsOnOff
 This function uses a non-reentrant model


 *************** function i2___aldiv *****************
 Defined at:
		line 8 in file "/opt/microchip/xc8/v1.37/sources/common/aldiv.c"
 Parameters:    Size  Location     Type
  dividend        4    0[COMRAM] long 
  divisor         4    4[COMRAM] long 
 Auto vars:     Size  Location     Type
  __aldiv         4   10[COMRAM] long 
  __aldiv         1    9[COMRAM] unsigned char 
  __aldiv         1    8[COMRAM] unsigned char 
 Return value:  Size  Location     Type
                  4    0[COMRAM] long 
 Registers used:
		wreg, status,2, status,0
 Tracked objects:
		On entry : 
		On exit  : 
		Unchanged: 
 Data sizes:     COMRAM   BANK0   BANK1   BANK2   BANK3   BANK4   BANK5   BANK6   BANK7   BANK8   BANK9  BANK10  BANK11  BANK12  BANK13  BANK14  BANK15
      Params:         8       0       0       0       0       0       0       0       0       0       0       0       0       0       0       0       0
      Locals:         6       0       0       0       0       0       0       0       0       0       0       0       0       0       0       0       0
      Temps:          0       0       0       0       0       0       0       0       0       0       0       0       0       0       0       0       0
      Totals:        14       0       0       0       0       0       0       0       0       0       0       0       0       0       0       0       0
Total ram usage:       14 bytes
 Hardware stack levels used:    1
 This function calls:
		Nothing
 This function is called by:
		_SignalsOnOff
 This function uses a non-reentrant model


 *************** function i2_EEWR *****************
 Defined at:
		line 1290 in file "prog.c"
 Parameters:    Size  Location     Type
  adress          2    0[COMRAM] unsigned int 
  data            1    2[COMRAM] unsigned char 
 Auto vars:     Size  Location     Type
  EEWR            1    3[COMRAM] volatile unsigned char 
 Return value:  Size  Location     Type
                  1    wreg      void 
 Registers used:
		wreg, status,2
 Tracked objects:
		On entry : 
		On exit  : 
		Unchanged: 
 Data sizes:     COMRAM   BANK0   BANK1   BANK2   BANK3   BANK4   BANK5   BANK6   BANK7   BANK8   BANK9  BANK10  BANK11  BANK12  BANK13  BANK14  BANK15
      Params:         3       0       0       0       0       0       0       0       0       0       0       0       0       0       0       0       0
      Locals:         1       0       0       0       0       0       0       0       0       0       0       0       0       0       0       0       0
      Temps:          0       0       0       0       0       0       0       0       0       0       0       0       0       0       0       0       0
      Totals:         4       0       0       0       0       0       0       0       0       0       0       0       0       0       0       0       0
Total ram usage:        4 bytes
 Hardware stack levels used:    1
 This function calls:
		Nothing
 This function is called by:
		_SignalsOnOff
 This function uses a non-reentrant model


 *************** function i2_ConvertDayToBit *****************
 Defined at:
		line 1881 in file "prog.c"
 Parameters:    Size  Location     Type
  DayNumber       1    wreg     unsigned char 
 Auto vars:     Size  Location     Type
  DayNumber       1    0[COMRAM] unsigned char 
 Return value:  Size  Location     Type
                  1    wreg      unsigned char 
 Registers used:
		wreg, status,2, status,0
 Tracked objects:
		On entry : 
		On exit  : 
		Unchanged: 
 Data sizes:     COMRAM   BANK0   BANK1   BANK2   BANK3   BANK4   BANK5   BANK6   BANK7   BANK8   BANK9  BANK10  BANK11  BANK12  BANK13  BANK14  BANK15
      Params:         0       0       0       0       0       0       0       0       0       0       0       0       0       0       0       0       0
      Locals:         1       0       0       0       0       0       0       0       0       0       0       0       0       0       0       0       0
      Temps:          0       0       0       0       0       0       0       0       0       0       0       0       0       0       0       0       0
      Totals:         1       0       0       0       0       0       0       0       0       0       0       0       0       0       0       0       0
Total ram usage:        1 bytes
 Hardware stack levels used:    1
 This function calls:
		Nothing
 This function is called by:
		_SignalsOnOff
 This function uses a non-reentrant model


 *************** function _ReadDataOfCell_interr *****************
 Defined at:
		line 1901 in file "prog.c"
 Parameters:    Size  Location     Type
  CellsData       2   13[COMRAM] PTR unsigned char 
		 -> SignalsOnOff@CellsData(8), 
  Data            2   15[COMRAM] PTR unsigned long 
		 -> SignalsOnOff@Data(4), 
  TargetAdress    2   17[COMRAM] unsigned int 
 Auto vars:     Size  Location     Type
  i               2   28[COMRAM] int 
 Return value:  Size  Location     Type
                  1    wreg      void 
 Registers used:
		wreg, fsr2l, fsr2h, status,2, status,0, prodl, prodh, cstack
 Tracked objects:
		On entry : 
		On exit  : 
		Unchanged: 
 Data sizes:     COMRAM   BANK0   BANK1   BANK2   BANK3   BANK4   BANK5   BANK6   BANK7   BANK8   BANK9  BANK10  BANK11  BANK12  BANK13  BANK14  BANK15
      Params:         6       0       0       0       0       0       0       0       0       0       0       0       0       0       0       0       0
      Locals:         2       0       0       0       0       0       0       0       0       0       0       0       0       0       0       0       0
      Temps:          9       0       0       0       0       0       0       0       0       0       0       0       0       0       0       0       0
      Totals:        17       0       0       0       0       0       0       0       0       0       0       0       0       0       0       0       0
Total ram usage:       17 bytes
 Hardware stack levels used:    1
 Hardware stack levels required when called:    2
 This function calls:
		_FillArrayFromEEPROM_interr
 This function is called by:
		_SignalsOnOff
 This function uses a non-reentrant model


 *************** function _FillArrayFromEEPROM_interr *****************
 Defined at:
		line 1614 in file "prog.c"
 Parameters:    Size  Location     Type
  container       2    4[COMRAM] PTR unsigned char 
		 -> SignalsOnOff@CellsData(8), 
  adress_start    2    6[COMRAM] unsigned int 
  quantity        2    8[COMRAM] unsigned int 
 Auto vars:     Size  Location     Type
  i               1   12[COMRAM] unsigned char 
 Return value:  Size  Location     Type
                  1    wreg      void 
 Registers used:
		wreg, fsr2l, fsr2h, status,2, status,0, prodl, prodh, cstack
 Tracked objects:
		On entry : 
		On exit  : 
		Unchanged: 
 Data sizes:     COMRAM   BANK0   BANK1   BANK2   BANK3   BANK4   BANK5   BANK6   BANK7   BANK8   BANK9  BANK10  BANK11  BANK12  BANK13  BANK14  BANK15
      Params:         6       0       0       0       0       0       0       0       0       0       0       0       0       0       0       0       0
      Locals:         1       0       0       0       0       0       0       0       0       0       0       0       0       0       0       0       0
      Temps:          2       0       0       0       0       0       0       0       0       0       0       0       0       0       0       0       0
      Totals:         9       0       0       0       0       0       0       0       0       0       0       0       0       0       0       0       0
Total ram usage:        9 bytes
 Hardware stack levels used:    1
 Hardware stack levels required when called:    1
 This function calls:
		i2_EERD
 This function is called by:
		_ReadDataOfCell_interr
 This function uses a non-reentrant model


 *************** function i2_EERD *****************
 Defined at:
		line 1311 in file "prog.c"
 Parameters:    Size  Location     Type
  adress          2    0[COMRAM] unsigned int 
 Auto vars:     Size  Location     Type
  EERD            1    3[COMRAM] volatile unsigned char 
  EERD            1    2[COMRAM] volatile unsigned char 
 Return value:  Size  Location     Type
                  1    wreg      unsigned char 
 Registers used:
		wreg, status,2
 Tracked objects:
		On entry : 
		On exit  : 
		Unchanged: 
 Data sizes:     COMRAM   BANK0   BANK1   BANK2   BANK3   BANK4   BANK5   BANK6   BANK7   BANK8   BANK9  BANK10  BANK11  BANK12  BANK13  BANK14  BANK15
      Params:         2       0       0       0       0       0       0       0       0       0       0       0       0       0       0       0       0
      Locals:         2       0       0       0       0       0       0       0       0       0       0       0       0       0       0       0       0
      Temps:          0       0       0       0       0       0       0       0       0       0       0       0       0       0       0       0       0
      Totals:         4       0       0       0       0       0       0       0       0       0       0       0       0       0       0       0       0
Total ram usage:        4 bytes
 Hardware stack levels used:    1
 This function calls:
		Nothing
 This function is called by:
		_FillArrayFromEEPROM_interr
 This function uses a non-reentrant model


 *************** function _AddByteToUSARTbuff *****************
 Defined at:
		line 2586 in file "prog.c"
 Parameters:    Size  Location     Type
  byte            1    wreg     unsigned char 
 Auto vars:     Size  Location     Type
  byte            1   11[COMRAM] unsigned char 
  i               2   12[COMRAM] unsigned int 
  i               1   14[COMRAM] unsigned char 
  buff            2    9[COMRAM] PTR unsigned char 
		 -> buff_string_11(256), buff_string_10(256), buff_string_9(256), buff_string_8(256), 
 Return value:  Size  Location     Type
                  1    wreg      void 
 Registers used:
		wreg, fsr1l, fsr1h, fsr2l, fsr2h, status,2, status,0, prodl, prodh, cstack
 Tracked objects:
		On entry : 
		On exit  : 
		Unchanged: 
 Data sizes:     COMRAM   BANK0   BANK1   BANK2   BANK3   BANK4   BANK5   BANK6   BANK7   BANK8   BANK9  BANK10  BANK11  BANK12  BANK13  BANK14  BANK15
      Params:         0       0       0       0       0       0       0       0       0       0       0       0       0       0       0       0       0
      Locals:         6       0       0       0       0       0       0       0       0       0       0       0       0       0       0       0       0
      Temps:          2       0       0       0       0       0       0       0       0       0       0       0       0       0       0       0       0
      Totals:         8       0       0       0       0       0       0       0       0       0       0       0       0       0       0       0       0
Total ram usage:        8 bytes
 Hardware stack levels used:    1
 Hardware stack levels required when called:    1
 This function calls:
		__CleanStringArray_interrupt2
 This function is called by:
		_F_h
 This function uses a non-reentrant model


 *************** function __CleanStringArray_interrupt2 *****************
 Defined at:
		line 1928 in file "prog.c"
 Parameters:    Size  Location     Type
  myArray         2    0[COMRAM] PTR unsigned char 
		 -> buff_string_11(256), buff_string_10(256), buff_string_9(256), buff_string_8(256), 
  size            2    2[COMRAM] unsigned int 
  settingData     1    4[COMRAM] unsigned char 
 Auto vars:     Size  Location     Type
  i               2    5[COMRAM] unsigned int 
 Return value:  Size  Location     Type
                  1    wreg      void 
 Registers used:
		wreg, fsr2l, fsr2h, status,2, status,0
 Tracked objects:
		On entry : 
		On exit  : 
		Unchanged: 
 Data sizes:     COMRAM   BANK0   BANK1   BANK2   BANK3   BANK4   BANK5   BANK6   BANK7   BANK8   BANK9  BANK10  BANK11  BANK12  BANK13  BANK14  BANK15
      Params:         5       0       0       0       0       0       0       0       0       0       0       0       0       0       0       0       0
      Locals:         2       0       0       0       0       0       0       0       0       0       0       0       0       0       0       0       0
      Temps:          0       0       0       0       0       0       0       0       0       0       0       0       0       0       0       0       0
      Totals:         7       0       0       0       0       0       0       0       0       0       0       0       0       0       0       0       0
Total ram usage:        7 bytes
 Hardware stack levels used:    1
 This function calls:
		Nothing
 This function is called by:
		_AddByteToUSARTbuff
 This function uses a non-reentrant model



MODULE INFORMATION

Module		Function		Class		Link	Load	Size
/opt/microchip/xc8/v1.37/sources/common/awmod.c
		___awmod       		CODE           	C018	0000	163

/opt/microchip/xc8/v1.37/sources/common/awmod.c estimated size: 163

/opt/microchip/xc8/v1.37/sources/common/llmod.c
		___llmod       		CODE           	C1FC	0000	155

/opt/microchip/xc8/v1.37/sources/common/llmod.c estimated size: 155

/opt/microchip/xc8/v1.37/sources/common/almod.c
		___almod       		CODE           	B00C	0000	243

/opt/microchip/xc8/v1.37/sources/common/almod.c estimated size: 243

/opt/microchip/xc8/v1.37/sources/common/Umul32.c
		___lmul        		CODE           	C644	0000	119

/opt/microchip/xc8/v1.37/sources/common/Umul32.c estimated size: 119

/opt/microchip/xc8/v1.37/sources/common/strcat.c
		_strcat        		CODE           	C8D6	0000	97

/opt/microchip/xc8/v1.37/sources/common/strcat.c estimated size: 97

/opt/microchip/xc8/v1.37/sources/common/lwdiv.c
		___lwdiv       		CODE           	C5CC	0000	121

/opt/microchip/xc8/v1.37/sources/common/lwdiv.c estimated size: 121

/opt/microchip/xc8/v1.37/sources/common/awdiv.c
		___awdiv       		CODE           	B854	0000	191

/opt/microchip/xc8/v1.37/sources/common/awdiv.c estimated size: 191

/opt/microchip/xc8/v1.37/sources/common/strlen.c
		_strlen        		CODE           	CDEA	0000	75

/opt/microchip/xc8/v1.37/sources/common/strlen.c estimated size: 75

/opt/microchip/xc8/v1.37/sources/common/lldiv.c
		___lldiv       		CODE           	B9D0	0000	189

/opt/microchip/xc8/v1.37/sources/common/lldiv.c estimated size: 189

/opt/microchip/xc8/v1.37/sources/common/aldiv.c
		___aldiv       		CODE           	A6C8	0000	283

/opt/microchip/xc8/v1.37/sources/common/aldiv.c estimated size: 283

/opt/microchip/xc8/v1.37/sources/common/strcpy.c
		_strcpy        		CODE           	CE34	0000	75

/opt/microchip/xc8/v1.37/sources/common/strcpy.c estimated size: 75

shared
		i1_strcat      		CODE           	C996	0000	97
		i1_I2CStop     		CODE           	D7B4	0000	9
		i1_I2CStart    		CODE           	D7BC	0000	9
		i1_CleanStringArray		CODE           	D0A8	0000	65
		i1_EERD        		CODE           	D574	0000	41
		_StandardAnswer_ERROR		MEDIUMCONST    	FC8D	0000	7
		i2_EERD        		CODE           	D59C	0000	37
		i1_GetDayOfWeekByDate		CODE           	AF18	0000	245
		_StandardAnswer_NO_ANSWER		MEDIUMCONST    	FC7B	0000	11
		i1_FillArrayFromEEPROM		CODE           	CA54	0000	95
		_StandardAnswer_NORMAL_POWER_DOWN		MEDIUMCONST    	FC52	0000	19
		_StandardAnswer_NO_DIALTONE		MEDIUMCONST    	FC64	0000	13
		i1_OutputSystemMessage		CODE           	8B82	0000	585
		i2___lwdiv     		CODE           	CC62	0000	83
		__setInputTextProps@F3601		MEDIUMCONST    	FBFD	0000	11
		__setInputTextProps@F3603		MEDIUMCONST    	FBE7	0000	23
		i1_strcpy      		CODE           	CEC8	0000	75
		i1___awdiv     		CODE           	B912	0000	191
		i1_FillPhonebookCellFromEEPROM		CODE           	BCB8	0000	185
		i2_ConvertDayToBit		CODE           	CCB4	0000	83
		i1_SendCommandToUSART		CODE           	D522	0000	43
		i1___wmul      		CODE           	D288	0000	55
		i1_lcd_send_byte		CODE           	CE7E	0000	75
		i1_testTimePoint		CODE           	A346	0000	307
		i1_I2CInit     		CODE           	D780	0000	17
		i2___lwmod     		CODE           	D026	0000	67
		i1_lcd_send_initial_half_byte		CODE           	D1E0	0000	61
		__initialization		CODE           	9A3A	0000	351
		_StandardAnswer_BUSY		MEDIUMCONST    	FC93	0000	6
		i1___lmul      		CODE           	C6BA	0000	119
		i1___awmod     		CODE           	C0BA	0000	163
		_StandardAnswer_DTMF		MEDIUMCONST    	FC85	0000	9
		i1___aldiv     		CODE           	A7E2	0000	283
		i2_FillMinutes 		CODE           	D5E2	0000	35
		i2___aldiv     		CODE           	B54A	0000	205
		i1_getSystemTimePoint		CODE           	D71E	0000	19
		i1_I2CSend     		CODE           	D644	0000	33
		i1_EEWR        		CODE           	D2BE	0000	55
		i2_EEWR        		CODE           	D35C	0000	53
		_StandardAnswer_CLOCK		MEDIUMCONST    	FC34	0000	31
		_StandardAnswer_OK		MEDIUMCONST    	FC98	0000	4
		_StandardAnswer_NO_CARRIER		MEDIUMCONST    	FC70	0000	12
		_StandardAnswer_INCCALL		MEDIUMCONST    	FC10	0000	37
		_StandardAnswer_STAT		MEDIUMCONST    	FC07	0000	10

shared estimated size: 3934

/opt/microchip/xc8/v1.37/sources/common/lbdiv.c
		___lbdiv       		CODE           	CAB2	0000	93

/opt/microchip/xc8/v1.37/sources/common/lbdiv.c estimated size: 93

prog.c
		_GetNumericFromString		CODE           	D6A4	0000	31
		_I2CNak        		CODE           	D790	0000	11
		_ConvertDayToBit		CODE           	CB68	0000	87
		_TelephoneCall 		CODE           	B0FE	0000	237
		_ReadDataOfCell		CODE           	BA8C	0000	189
		_setDigit      		CODE           	A0D4	0000	321
		__CleanStringArray_interrupt		CODE           	D0E8	0000	65
		_SchedulerNew  		CODE           	AA16	0000	277
		_FindIncommingData		CODE           	8230	0000	603
		__CleanStringArray_interrupt2		CODE           	D478	0000	45
		_FillMinutes   		CODE           	D5C0	0000	35
		_EEWR          		CODE           	D252	0000	55
		_FillPhonebookCellFromEEPROM		CODE           	BC00	0000	185
		_TimeData_BlinkOFF		CODE           	CD06	0000	81
		_GetStringLength		CODE           	D2F4	0000	53
		_TimeEdit      		CODE           	181E	0000	3335
		_testTimePoint 		CODE           	A214	0000	307
		_delay         		CODE           	D4F8	0000	43
		_SignalsOnOff  		CODE           	8FCC	0000	515
		_I2CStop       		CODE           	D7A4	0000	9
		_FindPhoneContactByNumber		CODE           	9578	0000	417
		_ConvertCharToNumeric		CODE           	C730	0000	117
		_RX_1wire      		CODE           	CF12	0000	73
		_NumericToHEXString		CODE           	9CF6	0000	335
		__setInputTextProps		CODE           	6ED4	0000	855
		_lcd_send_byte 		CODE           	CD56	0000	75
		_lcd_off       		CODE           	D750	0000	17
		_TX_1wire      		CODE           	C936	0000	97
		_get_temp      		CODE           	93B4	0000	453
		_ReIndTimeEdit 		CODE           	722A	0000	779
		_NumericToString		CODE           	7FC8	0000	617
		__load_TXREG   		CODE           	C3BA	0000	141
		_I2CAck        		CODE           	D79A	0000	11
		_OutputString  		CODE           	A5A2	0000	295
		_CleanStringArray		CODE           	D068	0000	65
		_Format_EEPROM_Memory		CODE           	B616	0000	193
		_ReadDataOfCell_interr		CODE           	C296	0000	151
		_main          		CODE           	7AAE	0000	677
		_ItemsToIndicator		CODE           	C7A4	0000	111
		__getContainer_Clock_from_GSM		CODE           	D41E	0000	47
		_ParseTime     		CODE           	C54E	0000	127
		_SendSMS       		CODE           	674A	0000	1027
		_F_h           		CODE           	0008	0000	409
		_UserDelay     		CODE           	D128	0000	63
		_USART_Speed_Choise		CODE           	D44C	0000	45
		__FindIncommingData_interrupt		CODE           	848A	0000	603
		_GetTimeSource 		CODE           	D4CE	0000	43
		_I2CRead       		CODE           	D664	0000	33
		_EditSchedule  		CODE           	2524	0000	2893
		_Init_USART    		CODE           	C446	0000	137
		_system_BlinkReset		CODE           	D624	0000	33
		_getSystemTimePoint		CODE           	D70C	0000	19
		_InputText     		CODE           	3070	0000	2769
		_GetSystemInfo 		CODE           	4EDA	0000	1869
		_ReadTime      		CODE           	BF74	0000	165
		_ShowSchedulerMenu		CODE           	A478	0000	299
		_WriteTime     		CODE           	7534	0000	723
		_TimeToInd     		CODE           	3B40	0000	2725
		_FillArrayFromEEPROM_interr		CODE           	D166	0000	63
		__getContainer_Incomming_DTMF_Data		CODE           	D3C2	0000	47
		_WorkingWithGSM		CODE           	9718	0000	409
		_WriteArrayToEEPROM		CODE           	C812	0000	99
		_cp1251_to_unicode		CODE           	BED0	0000	165
		__getContainer_Incomming_Call_Data		CODE           	D3F0	0000	47
		_AddByteToUSARTbuff		CODE           	A8FC	0000	283
		_F_l           		CODE           	0018	0000	1019
		_getLcdCodeOfChar		CODE           	5626	0000	1657
		_setBlink      		CODE           	B796	0000	191
		_SetTimeSource 		CODE           	D390	0000	51
		_FindNextTimeStart		CODE           	7D52	0000	631
		_lcd_send_initial_half_byte		CODE           	D1A4	0000	61
		_GetDayOfWeek  		CODE           	C15C	0000	161
		_Init_GSM      		CODE           	91CE	0000	487
		_FillArrayFromEEPROM		CODE           	C9F6	0000	95
		_TimeData_INIT 		CODE           	8DCA	0000	515
		_ProcessIncommingUartData		CODE           	45E4	0000	2295
		_GetUnicodeSymbol		CODE           	0416	0000	5129
		_I2CRestart    		CODE           	D7C4	0000	9
		_Save_USART_SpeedNumber		CODE           	D6DC	0000	25
		_RefreshSchedulerIndicator		CODE           	7806	0000	681
		_EERD          		CODE           	D54C	0000	41
		_SendCommandToUSART		CODE           	D4A4	0000	43
		_EncodePhoneNumberToPDU		CODE           	AB2A	0000	275
		__GetStringLength_interr		CODE           	D328	0000	53
		_WritePhonebookCellToEEPROM		CODE           	BB48	0000	185
		_I2CStart      		CODE           	D7AC	0000	9
		_Read_USART_SpeedNumber		CODE           	D770	0000	17
		_ProcessSystemMessageShowing		CODE           	D6F4	0000	25
		_SendSymbolToLCD		CODE           	AE24	0000	245
		_lcd_on        		CODE           	D740	0000	17
		_InteractiveData_BlinkOFF		CODE           	CFE2	0000	69
		_getNumChar    		CODE           	BD70	0000	177
		_Init_1wire    		CODE           	CB0E	0000	91
		_Select_OK_NO  		CODE           	CC10	0000	83
		_BCD_to_DEC    		CODE           	D684	0000	33
		_entNum        		CODE           	CDA0	0000	75
		_DEC_to_BCD    		CODE           	CBBE	0000	83
		_Settings      		CODE           	9BA6	0000	337
		_ParseDataRecord		CODE           	B3A8	0000	211
		_CalculateClockDelta		CODE           	9F90	0000	325
		_ShowMenu      		CODE           	86E4	0000	599
		_OutputInteractiveData		CODE           	B1EA	0000	229
		_DeleteDataOfCell		CODE           	CF9E	0000	69
		_GetDayOfWeekByDate		CODE           	AD30	0000	245
		_main2         		CODE           	6B4C	0000	905
		_I2CInit       		CODE           	D760	0000	17
		_clrInd        		CODE           	B2CE	0000	219
		_I2CSend       		CODE           	D604	0000	33
		_ConvKeyNum    		CODE           	BE20	0000	177
		_lcd_init      		CODE           	B47A	0000	209
		_OutputSystemMessage		CODE           	893A	0000	585
		_FindCell      		CODE           	9E44	0000	333
		_PhonebookEdit 		CODE           	5C9E	0000	1535
		_CheckoutRegisterOfSymbol		CODE           	629C	0000	1199
		_WriteDataOfCell		CODE           	C4CE	0000	129
		_Scheduler     		CODE           	AC3C	0000	245

prog.c estimated size: 49234

/opt/microchip/xc8/v1.37/sources/common/Umul16.c
		___wmul        		CODE           	D21C	0000	55

/opt/microchip/xc8/v1.37/sources/common/Umul16.c estimated size: 55

/opt/microchip/xc8/v1.37/sources/common/lwmod.c
		___lwmod       		CODE           	C874	0000	99

/opt/microchip/xc8/v1.37/sources/common/lwmod.c estimated size: 99

