Microchip MPLAB XC8 Compiler V1.37 ()

Linker command line:

-W9 --edf=/opt/microchip/xc8/v1.37/dat/en_msgs.txt -cs \
  -h+dist/default/production/Water_PIC18_test.production.sym \
  --cmf=dist/default/production/Water_PIC18_test.production.cmf -z \
  -Q18F2620 -o/tmp/xcX2Xm1An \
  -Mdist/default/production/Water_PIC18_test.production.map -E1 -ver=XC8 \
  --acfsm=1493 -ASTACK=0A00h-0f7fh -pstack=STACK -ACODE=00h-0FFFFh \
  -ACONST=00h-0FFFFh -ASMALLCONST=01000h-010FFhx240 \
  -AMEDIUMCONST=01000h-0FFFFh -ACOMRAM=01h-07Fh -AABS1=00h-0F7Fh \
  -ABIGRAM=01h-0F7Fh -ARAM=080h-0FFh,0100h-01FFhx14,0F00h-0F7Fh \
  -ABANK0=080h-0FFh -ABANK1=0100h-01FFh -ABANK2=0200h-02FFh \
  -ABANK3=0300h-03FFh -ABANK4=0400h-04FFh -ABANK5=0500h-05FFh \
  -ABANK6=0600h-06FFh -ABANK7=0700h-07FFh -ABANK8=0800h-08FFh \
  -ABANK9=0900h-09FFh -ABANK10=0A00h-0AFFh -ABANK11=0B00h-0BFFh \
  -ABANK12=0C00h-0CFFh -ABANK13=0D00h-0DFFh -ABANK14=0E00h-0EFFh \
  -ABANK15=0F00h-0F7Fh -ASFR=0F80h-0FFFh \
  -preset_vec=00h,intcode=08h,intcodelo=018h,powerup,init,end_init \
  -pramtop=01000h -psmallconst=SMALLCONST -pmediumconst=MEDIUMCONST \
  -pconst=CONST -AFARRAM=00h-00h -ACONFIG=0300000h-030000Dh -pconfig=CONFIG \
  -AIDLOC=0200000h-0200007h -pidloc=IDLOC -AEEDATA=0F00000h-0F003FFh \
  -peeprom_data=EEDATA \
  -prdata=COMRAM,nvrram=COMRAM,nvbit=COMRAM,rbss=COMRAM,rbit=COMRAM \
  -pfarbss=FARRAM,fardata=FARRAM,nvFARRAM=FARRAM \
  -pintsave_regs=BIGRAM,bigbss=BIGRAM,bigdata=BIGRAM -pbss=RAM \
  -pidata=CODE,irdata=CODE,ibigdata=CODE,ifardata=CODE -prparam=COMRAM \
  /tmp/xcXuKt4xF.obj \
  dist/default/production/Water_PIC18_test.production.obj 

Object code version is 3.11

Machine type is 18F2620

Call graph: (short form)




                Name                               Link     Load   Length Selector   Space Scale
/tmp/xcXuKt4xF.obj
                end_init                            30A      30A        4        C       0
                reset_vec                             0        0        4        0       0
                config                           300000   300000        E   300000       0
dist/default/production/Water_PIC18_test.production.obj
                intcodelo                            18       18      2F2        C       0
                intcode                               8        8        E        4       0
                temp                                 5D       5D        1        1       1
                mediumconst                        FD0A     FD0A      2F6     7E85       0
                text106                            542C     542C       26     26D5       0
                text105                            3ABE     3ABE       DA        C       0
                text104                            49AA     49AA       6C        C       0
                intcode_body                       4938     4938       72        C       0
                text102                            4C82     4C82       64        C       0
                text101                            5476     5476       24     26D5       0
                text100                            511A     511A       36     26D5       0
                text99                             4B4E     4B4E       68        C       0
                text98                             3E92     3E92       B2        C       0
                text97                             5406     5406       26     26D5       0
                text96                             53E0     53E0       26     26D5       0
                text95                             3390     3390      13E        C       0
                text94                             5594     5594       1E     26D5       0
                text93                             5576     5576       1E     26D5       0
                text92                             5558     5558       1E     26D5       0
                text91                             5076     5076       38     26D5       0
                text90                             38F6     38F6       EE        C       0
                text89                             54FC     54FC       20     26D5       0
                text88                             258C     258C      1E8        C       0
                text87                             5614     5614        A     2B0A       0
                text86                             553A     553A       1E     26D5       0
                text85                             48C2     48C2       76        C       0
                text84                             524A     524A       30     26D5       0
                text83                             5184     5184       34     26D5       0
                text82                             455A     455A       82        C       0
                text81                             3D1E     3D1E       BC        C       0
                text80                             4EFE     4EFE       4A     26D5       0
                text79                             4F86     4F86       3E     26D5       0
                text78                             2AEA     2AEA      1B6        C       0
                text77                             1AE6     1AE6      3DE        C       0
                text76                             52A8     52A8       2A     26D5       0
                text75                             53BA     53BA       26     26D5       0
                text74                             5452     5452       24     26D5       0
                text72                             5628     5628        4     2B14       0
                text71                             5394     5394       26     26D5       0
                text70                             50E4     50E4       36     26D5       0
                text69                             4AE6     4AE6       68        C       0
                text68                             54DC     54DC       20     26D5       0
                text67                             37FA     37FA       FC        C       0
                text66                             4284     4284       9C        C       0
                text65                             4142     4142       A2        C       0
                text64                             4C1C     4C1C       66        C       0
                text63                             5000     5000       3C     26D5       0
                text62                             47D2     47D2       7A        C       0
                text61                             1EC4     1EC4      2D4        C       0
                text60                             521A     521A       30     26D5       0
                text59                             4E0A     4E0A       5E     26D5       0
                text58                             44D6     44D6       84        C       0
                text57                             2198     2198      20A        C       0
                text56                             551C     551C       1E     26D5       0
                text55                             55D8     55D8       12     26D5       0
                text54                             45DC     45DC       80        C       0
                text53                              30E      30E      79A        C       0
                text52                             484C     484C       76        C       0
                text51                             4CE6     4CE6       62        C       0
                text50                             4BB6     4BB6       66        C       0
                text49                             3DDA     3DDA       B8        C       0
                text48                             2FB0     2FB0      15C        C       0
                text47                             549A     549A       22     26D5       0
                text46                             43BA     43BA       90        C       0
                text45                             503C     503C       3A     26D5       0
                text44                             4A7E     4A7E       68        C       0
                text43                             4EB4     4EB4       4A     26D5       0
                text42                             1700     1700      3E6        C       0
                text41                             536E     536E       26     26D5       0
                text40                             5348     5348       26     26D5       0
                text39                             310C     310C      146        C       0
                text38                             4DAA     4DAA       60     26D5       0
                text37                             54BC     54BC       20     26D5       0
                text36                             4FC4     4FC4       3C     26D5       0
                text35                             34CE     34CE      120        C       0
                text34                             55B2     55B2       14     26D5       0
                text33                             2E4E     2E4E      162        C       0
                text32                             5150     5150       34     26D5       0
                text31                             36F4     36F4      106        C       0
                text30                             3C62     3C62       BC        C       0
                text29                             4320     4320       9A        C       0
                text28                             50AE     50AE       36     26D5       0
                text27                             52FA     52FA       28     26D5       0
                text26                             4E68     4E68       4C     26D5       0
                text25                             51EA     51EA       30     26D5       0
                text24                              AA8      AA8      68C        C       0
                text23                             5322     5322       26     26D5       0
                text22                             4756     4756       7C        C       0
                text21                             465C     465C       7E        C       0
                text20                             444A     444A       8C        C       0
                text19                             2774     2774      1C0        C       0
                text18                             46DA     46DA       7C        C       0
                text17                             4F48     4F48       3E     26D5       0
                text16                             4A16     4A16       68        C       0
                text15                             527A     527A       2E     26D5       0
                text14                             562C     562C        2     2B14       0
                text13                             39E4     39E4       DA        C       0
                text12                             2CA0     2CA0      1AE        C       0
                text11                             3FF4     3FF4       AC        C       0
                text10                             40A0     40A0       A2        C       0
                text9                              3F44     3F44       B0        C       0
                text8                              1134     1134      5CC        C       0
                text7                              35EE     35EE      106        C       0
                text6                              51B8     51B8       32     26D5       0
                text5                              52D2     52D2       28     26D5       0
                text4                              55FA     55FA        E     26D5       0
                text3                              3B98     3B98       CA        C       0
                text2                              55EA     55EA       10     26D5       0
                text1                              23A2     23A2      1EA        C       0
                text0                              2934     2934      1B6        C       0
                cstackCOMRAM                          1        1       42        1       1
                cstackBANK0                          80       80       52       80       1
                cstackBANK1                         100      100       FB      100       1
                cstackBANK2                         200      200       E4      200       1
                cstackBANK3                         3A0      3A0       48      300       1
                cstackBANK5                         500      500       5E      500       1
                bssBANK9                            900      900      100      900       1
                bssBANK8                            800      800      100      800       1
                bssBANK7                            700      700      100      700       1
                bssBANK6                            600      600      100      600       1
                bssBANK5                            55E      55E       24      500       1
                dataBANK4                           49E      49E       61      400       1
                bssBANK4                            400      400       9E      400       1
                dataBANK3                           300      300       A0      300       1
                dataBANK2                           2E4      2E4       12      200       1
                bssBANK2                            2F6      2F6        8      200       1
                bssBANK1                            1FB      1FB        1      100       1
                dataBANK0                            E6       E6        B       80       1
                bssBANK0                             D2       D2       14       80       1
                dataCOMRAM                           54       54        9        1       1
                bssCOMRAM                            43       43       11        1       1
                cinit                              3252     3252      13E        C       0
                idataBANK4                         4D48     4D48       61        C       0
                idataBANK3                         41E4     41E4       A0        C       0
                idataBANK2                         55C6     55C6       12     26D5       0
                idataBANK0                         5608     5608        B     26D5       0
                idataCOMRAM                        561E     561E        9     2B0A       0

TOTAL           Name                               Link     Load   Length     Space
        CLASS   STACK          

        CLASS   CODE           
                end_init                            30A      30A        4         0
                intcodelo                            18       18      2F2         0
                intcode                               8        8        E         0
                reset_vec                             0        0        4         0
                text106                            542C     542C       26         0
                text105                            3ABE     3ABE       DA         0
                text104                            49AA     49AA       6C         0
                intcode_body                       4938     4938       72         0
                text102                            4C82     4C82       64         0
                text101                            5476     5476       24         0
                text100                            511A     511A       36         0
                text99                             4B4E     4B4E       68         0
                text98                             3E92     3E92       B2         0
                text97                             5406     5406       26         0
                text96                             53E0     53E0       26         0
                text95                             3390     3390      13E         0
                text94                             5594     5594       1E         0
                text93                             5576     5576       1E         0
                text92                             5558     5558       1E         0
                text91                             5076     5076       38         0
                text90                             38F6     38F6       EE         0
                text89                             54FC     54FC       20         0
                text88                             258C     258C      1E8         0
                text87                             5614     5614        A         0
                text86                             553A     553A       1E         0
                text85                             48C2     48C2       76         0
                text84                             524A     524A       30         0
                text83                             5184     5184       34         0
                text82                             455A     455A       82         0
                text81                             3D1E     3D1E       BC         0
                text80                             4EFE     4EFE       4A         0
                text79                             4F86     4F86       3E         0
                text78                             2AEA     2AEA      1B6         0
                text77                             1AE6     1AE6      3DE         0
                text76                             52A8     52A8       2A         0
                text75                             53BA     53BA       26         0
                text74                             5452     5452       24         0
                text72                             5628     5628        4         0
                text71                             5394     5394       26         0
                text70                             50E4     50E4       36         0
                text69                             4AE6     4AE6       68         0
                text68                             54DC     54DC       20         0
                text67                             37FA     37FA       FC         0
                text66                             4284     4284       9C         0
                text65                             4142     4142       A2         0
                text64                             4C1C     4C1C       66         0
                text63                             5000     5000       3C         0
                text62                             47D2     47D2       7A         0
                text61                             1EC4     1EC4      2D4         0
                text60                             521A     521A       30         0
                text59                             4E0A     4E0A       5E         0
                text58                             44D6     44D6       84         0
                text57                             2198     2198      20A         0
                text56                             551C     551C       1E         0
                text55                             55D8     55D8       12         0
                text54                             45DC     45DC       80         0
                text53                              30E      30E      79A         0
                text52                             484C     484C       76         0
                text51                             4CE6     4CE6       62         0
                text50                             4BB6     4BB6       66         0
                text49                             3DDA     3DDA       B8         0
                text48                             2FB0     2FB0      15C         0
                text47                             549A     549A       22         0
                text46                             43BA     43BA       90         0
                text45                             503C     503C       3A         0
                text44                             4A7E     4A7E       68         0
                text43                             4EB4     4EB4       4A         0
                text42                             1700     1700      3E6         0
                text41                             536E     536E       26         0
                text40                             5348     5348       26         0
                text39                             310C     310C      146         0
                text38                             4DAA     4DAA       60         0
                text37                             54BC     54BC       20         0
                text36                             4FC4     4FC4       3C         0
                text35                             34CE     34CE      120         0
                text34                             55B2     55B2       14         0
                text33                             2E4E     2E4E      162         0
                text32                             5150     5150       34         0
                text31                             36F4     36F4      106         0
                text30                             3C62     3C62       BC         0
                text29                             4320     4320       9A         0
                text28                             50AE     50AE       36         0
                text27                             52FA     52FA       28         0
                text26                             4E68     4E68       4C         0
                text25                             51EA     51EA       30         0
                text24                              AA8      AA8      68C         0
                text23                             5322     5322       26         0
                text22                             4756     4756       7C         0
                text21                             465C     465C       7E         0
                text20                             444A     444A       8C         0
                text19                             2774     2774      1C0         0
                text18                             46DA     46DA       7C         0
                text17                             4F48     4F48       3E         0
                text16                             4A16     4A16       68         0
                text15                             527A     527A       2E         0
                text14                             562C     562C        2         0
                text13                             39E4     39E4       DA         0
                text12                             2CA0     2CA0      1AE         0
                text11                             3FF4     3FF4       AC         0
                text10                             40A0     40A0       A2         0
                text9                              3F44     3F44       B0         0
                text8                              1134     1134      5CC         0
                text7                              35EE     35EE      106         0
                text6                              51B8     51B8       32         0
                text5                              52D2     52D2       28         0
                text4                              55FA     55FA        E         0
                text3                              3B98     3B98       CA         0
                text2                              55EA     55EA       10         0
                text1                              23A2     23A2      1EA         0
                text0                              2934     2934      1B6         0
                cinit                              3252     3252      13E         0
                idataBANK4                         4D48     4D48       61         0
                idataBANK3                         41E4     41E4       A0         0
                idataBANK2                         55C6     55C6       12         0
                idataBANK0                         5608     5608        B         0
                idataCOMRAM                        561E     561E        9         0

        CLASS   CONST          

        CLASS   SMALLCONST     

        CLASS   MEDIUMCONST    
                mediumconst                        FD0A     FD0A      2F6         0

        CLASS   COMRAM         
                temp                                 5D       5D        1         1
                cstackCOMRAM                          1        1       42         1
                dataCOMRAM                           54       54        9         1
                bssCOMRAM                            43       43       11         1

        CLASS   ABS1           

        CLASS   BIGRAM         

        CLASS   RAM            

        CLASS   BANK0          
                cstackBANK0                          80       80       52         1
                dataBANK0                            E6       E6        B         1
                bssBANK0                             D2       D2       14         1

        CLASS   BANK1          
                cstackBANK1                         100      100       FB         1
                bssBANK1                            1FB      1FB        1         1

        CLASS   BANK2          
                cstackBANK2                         200      200       E4         1
                dataBANK2                           2E4      2E4       12         1
                bssBANK2                            2F6      2F6        8         1

        CLASS   BANK3          
                cstackBANK3                         3A0      3A0       48         1
                dataBANK3                           300      300       A0         1

        CLASS   BANK4          
                dataBANK4                           49E      49E       61         1
                bssBANK4                            400      400       9E         1

        CLASS   BANK5          
                cstackBANK5                         500      500       5E         1
                bssBANK5                            55E      55E       24         1

        CLASS   BANK6          
                bssBANK6                            600      600      100         1

        CLASS   BANK7          
                bssBANK7                            700      700      100         1

        CLASS   BANK8          
                bssBANK8                            800      800      100         1

        CLASS   BANK9          
                bssBANK9                            900      900      100         1

        CLASS   BANK10         

        CLASS   BANK11         

        CLASS   BANK12         

        CLASS   BANK13         

        CLASS   BANK14         

        CLASS   BANK15         

        CLASS   SFR            

        CLASS   FARRAM         

        CLASS   CONFIG         
                config                           300000   300000        E         0

        CLASS   IDLOC          

        CLASS   EEDATA         



SEGMENTS        Name                           Load    Length   Top    Selector   Space  Class

                reset_vec                      000000  000004  000004         0       0  CODE    
                cstackCOMRAM                   000001  00005D  00005E         1       1  COMRAM  
                intcode                        000008  00000E  000016         4       0  CODE    
                intcodelo                      000018  004D91  004DA9         C       0  CODE    
                cstackBANK0                    000080  000071  0000F1        80       1  BANK0   
                cstackBANK1                    000100  0000FC  0001FC       100       1  BANK1   
                cstackBANK2                    000200  0000FE  0002FE       200       1  BANK2   
                dataBANK3                      000300  0000E8  0003E8       300       1  BANK3   
                bssBANK4                       000400  0000FF  0004FF       400       1  BANK4   
                cstackBANK5                    000500  000082  000582       500       1  BANK5   
                bssBANK6                       000600  000100  000700       600       1  BANK6   
                bssBANK7                       000700  000100  000800       700       1  BANK7   
                bssBANK8                       000800  000100  000900       800       1  BANK8   
                bssBANK9                       000900  000100  000A00       900       1  BANK9   
                text38                         004DAA  000869  005613      26D5       0  CODE    
                text87                         005614  000013  005627      2B0A       0  CODE    
                text72                         005628  000006  00562E      2B14       0  CODE    
                mediumconst                    00FD0A  0002F6  010000      7E85       0  MEDIUMCO
                config                         300000  00000E  30000E    300000       0  CONFIG  


UNUSED ADDRESS RANGES

        Name                Unused          Largest block    Delta
        BANK0            0000F1-0000FF                F
        BANK1            0001FC-0001FF                4
        BANK10           000A00-000AFF              100
        BANK11           000B00-000BFF              100
        BANK12           000C00-000CFF              100
        BANK13           000D00-000DFF              100
        BANK14           000E00-000EFF              100
        BANK15           000F00-000F7F               80
        BANK2            0002FE-0002FF                2
        BANK3            0003E8-0003FF               18
        BANK4            0004FF-0004FF                1
        BANK5            000582-0005FF               7E
        BIGRAM           00005E-00007F               22
                         0000F1-0000FF                F
                         0001FC-0001FF                4
                         0002FE-0002FF                2
                         0003E8-0003FF               18
                         0004FF-0004FF                1
                         000582-0005FF               7E
                         000A00-000F7F              580
        CODE             000004-000007                4
                         000016-000017                2
                         004DA9-004DA9                1
                         005613-005613                1
                         005627-005627                1
                         00562E-00FD09             A6DC
        COMRAM           00005E-00007F               22
        CONST            000004-000007                4
                         000016-000017                2
                         004DA9-004DA9                1
                         005613-005613                1
                         005627-005627                1
                         00562E-00FD09             A6DC
        EEDATA           F00000-F003FF              400
        IDLOC            200000-200007                8
        MEDIUMCONST      004DA9-004DA9                1
                         005613-005613                1
                         005627-005627                1
                         00562E-00FD09             A6DC
        RAM              0000F1-0000FF                F
                         0001FC-0001FF                4
                         0002FE-0002FF                2
                         0003E8-0003FF               18
                         0004FF-0004FF                1
                         000582-0005FF               7E
                         000A00-000F7F              100
        SFR              000F80-000FFF               80
        SMALLCONST       004DA9-004DA9                1
                         005613-005613                1
                         005627-005627                1
                         00562E-00FD09              100
        STACK            000A00-000F7F              580

                                  Symbol Table

?_FindCell                                  cstackBANK1  00011D
?_FindNextTimeStart                         cstackBANK1  00011D
?_FindPhoneContactByNumber                  cstackCOMRAM 00002D
?_GetDayOfWeek                              cstackBANK1  000100
?_GetStringLength                           cstackBANK1  000100
?_InputText                                 cstackBANK1  000147
?_RefreshSchedulerIndicator                 cstackBANK1  000137
?__GetStringLength_interr                   cstackCOMRAM 00001C
?___aldiv                                   cstackBANK1  000100
?___almod                                   cstackBANK1  000100
?___lldiv                                   cstackBANK1  000100
?___llmod                                   cstackBANK1  000100
?___lmul                                    cstackBANK1  000100
?___lwdiv                                   cstackBANK1  000100
?___lwmod                                   cstackBANK1  000100
?__getContainer_Clock_from_GSM              cstackCOMRAM 000023
?__getContainer_Incomming_Call_Data         cstackCOMRAM 000023
?__getContainer_Incomming_DTMF_Data         cstackCOMRAM 000023
?_getSystemTimePoint                        cstackBANK1  000100
?i1___aldiv                                 cstackCOMRAM 00001C
?i1___lwdiv                                 cstackCOMRAM 00001C
?i1___lwmod                                 cstackCOMRAM 00001C
AddByteToUSARTbuff@buff                     cstackCOMRAM 00000A
AddByteToUSARTbuff@byte                     cstackCOMRAM 00000C
AddByteToUSARTbuff@i                        cstackCOMRAM 00000D
AddByteToUSARTbuff@i_1654                   cstackCOMRAM 00000F
AddByteToUSARTbuff@lastdata                 bssCOMRAM    00004D
CheckoutRegisterOfSymbol@dig                cstackBANK1  000100
CleanStringArray@i                          cstackBANK1  000105
CleanStringArray@myArray                    cstackBANK1  000100
CleanStringArray@settingData                cstackBANK1  000104
CleanStringArray@size                       cstackBANK1  000102
ConvKeyNum@Num                              cstackCOMRAM 00001C
ConvertDayToBit@DayNumber                   cstackCOMRAM 00001C
DeleteDataOfCell@CellsData                  cstackBANK1  00010F
DeleteDataOfCell@TargetAdress               cstackBANK1  00010D
EERD@EEDATA_BUP                             cstackBANK1  000103
EERD@INTCON_BUP                             cstackBANK1  000102
EERD@adress                                 cstackBANK1  000100
EEWR@INTCON_BUP                             cstackBANK1  000103
EEWR@adress                                 cstackBANK1  000100
EEWR@data                                   cstackBANK1  000102
EditSchedule@SourceOfRecord                 cstackBANK1  000102
EditSchedule@adress                         cstackBANK1  000100
F_l@ButtonPressTimeOut                      bssCOMRAM    00004E
F_l@KeyIndex                                bssCOMRAM    00004F
F_l@MinuteAgo                               cstackBANK0  0000C5
F_l@PressedKeyIndex                         dataCOMRAM   000054
F_l@_KeyIndex                               cstackBANK0  0000CA
F_l@a                                       cstackBANK0  0000CB
F_l@data_temp                               cstackBANK0  0000C9
F_l@digit                                   cstackBANK0  0000C8
F_l@digs                                    cstackBANK0  0000C6
F_l@digsAtrib                               cstackBANK0  0000CD
F_l@line                                    cstackBANK0  0000D1
F_l@symbol                                  cstackBANK0  0000CF
FillArrayFromEEPROM@adress_start            cstackBANK1  000106
FillArrayFromEEPROM@container               cstackBANK1  000104
FillArrayFromEEPROM@i                       cstackBANK1  00010C
FillArrayFromEEPROM@quantity                cstackBANK1  000108
FillArrayFromEEPROM_interr@adress_start     cstackCOMRAM 000020
FillArrayFromEEPROM_interr@container        cstackCOMRAM 000026
FillArrayFromEEPROM_interr@i                cstackCOMRAM 000027
FillArrayFromEEPROM_interr@quantity         cstackCOMRAM 000022
FillPhonebookCellFromEEPROM@adress_start    cstackBANK1  00010F
FillPhonebookCellFromEEPROM@container       cstackBANK1  00010D
FindCell@CellIsEmpty                        cstackBANK1  000133
FindCell@CellsData                          cstackBANK1  000123
FindCell@Data                               cstackBANK1  00012F
FindCell@New                                cstackBANK1  00011F
FindCell@adress                             cstackBANK1  000135
FindCell@adressNew                          cstackBANK1  00012B
FindCell@adressStart                        cstackBANK1  00011D
FindCell@i                                  cstackBANK1  000134
FindCell@previous                           cstackBANK1  000120
FindIncommingData@a                         cstackBANK1  000117
FindIncommingData@container                 cstackBANK1  000109
FindIncommingData@end_of_regexp             cstackBANK1  000119
FindIncommingData@finish_index              cstackBANK1  000113
FindIncommingData@history_index             cstackBANK1  00010B
FindIncommingData@i                         cstackBANK1  00011D
FindIncommingData@j                         cstackBANK1  000123
FindIncommingData@last_s                    cstackBANK1  000121
FindIncommingData@not_found                 cstackBANK1  000115
FindIncommingData@pointer                   cstackBANK1  00011F
FindIncommingData@regexp                    cstackBANK1  000107
FindIncommingData@s0                        cstackBANK1  00011B
FindIncommingData@s1                        cstackBANK1  00010F
FindIncommingData@start_index               cstackBANK1  000111
FindNextTimeStart@CellsData                 cstackBANK1  000123
FindNextTimeStart@Data                      cstackBANK1  000144
FindNextTimeStart@DayIndex                  cstackBANK1  000143
FindNextTimeStart@DayOn                     cstackBANK1  00012F
FindNextTimeStart@Days                      cstackBANK1  00013C
FindNextTimeStart@LastFoundTimeStart        cstackBANK1  000134
FindNextTimeStart@Signals                   cstackBANK1  00013B
FindNextTimeStart@TimeFrom                  cstackBANK1  000148
FindNextTimeStart@TimeIsFound               cstackBANK1  00013A
FindNextTimeStart@TimeOfSignals             cstackBANK1  00013D
FindNextTimeStart@TimeStart                 cstackBANK1  000138
FindNextTimeStart@TimeStop                  cstackBANK1  000132
FindNextTimeStart@adress                    cstackBANK1  000141
FindNextTimeStart@adressStart               cstackBANK1  000130
FindPhoneContactByNumber@container          cstackBANK0  000085
FindPhoneContactByNumber@end_of_phone       cstackBANK0  000083
FindPhoneContactByNumber@found              cstackBANK0  000081
FindPhoneContactByNumber@i                  cstackBANK0  000082
FindPhoneContactByNumber@j                  cstackBANK0  000084
FindPhoneContactByNumber@number             cstackBANK0  000080
Format_EEPROM_Memory@first_cell             cstackBANK1  000116
Format_EEPROM_Memory@i                      cstackBANK1  00011F
Format_EEPROM_Memory@interactive            cstackBANK1  00011A
Format_EEPROM_Memory@last_cell              cstackBANK1  000118
GetDayOfWeek@day                            cstackBANK1  000102
GetStringLength@container                   cstackBANK1  000100
GetStringLength@i                           cstackBANK1  000102
Init_GSM@show                               cstackBANK1  000125
Init_USART@SpeedNumber                      cstackBANK1  000102
Init_USART@_value                           cstackBANK1  000100
InputText@F3418                             dataBANK3    00038E
InputText@F3420                             dataBANK4    00049E
InputText@F3422                             dataBANK3    000368
InputText@F3424                             dataBANK3    00036D
InputText@F3426                             dataBANK3    000372
InputText@F3428                             dataBANK3    000377
InputText@F3430                             dataBANK3    00037C
InputText@F3432                             dataBANK3    00032C
InputText@F3434                             dataBANK3    000381
InputText@F3436                             dataBANK3    000332
InputText@F3438                             dataBANK3    000338
InputText@F3440                             dataBANK3    00033E
InputText@F3442                             dataBANK3    000344
InputText@F3444                             dataBANK3    00034A
InputText@F3446                             dataBANK3    000350
InputText@F3448                             dataBANK3    000356
InputText@F3450                             dataBANK3    00035C
InputText@F3452                             dataBANK3    000362
InputText@F3454                             dataBANK3    000391
InputText@F3456                             dataBANK0    0000E6
InputText@F3458                             dataBANK0    0000E8
InputText@F3460                             dataBANK0    0000EA
InputText@F3462                             dataBANK2    0002EA
InputText@F3464                             dataBANK2    0002EC
InputText@F3466                             dataBANK2    0002EE
InputText@F3468                             dataBANK2    0002F0
InputText@F3470                             dataBANK2    0002F2
InputText@F3472                             dataBANK2    0002F4
InputText@InputData                         cstackBANK2  000284
InputText@_input_data                       cstackBANK2  000200
InputText@_props                            cstackBANK1  000149
InputText@active_cell                       cstackBANK2  0002E3
InputText@capacity                          cstackBANK1  00014B
InputText@cur_char                          cstackBANK2  0002D6
InputText@i                                 cstackBANK2  0002E2
InputText@i_1943                            cstackBANK2  0002DB
InputText@i_1952                            cstackBANK2  0002DA
InputText@i_1962                            cstackBANK2  0002DF
InputText@i_1971                            cstackBANK2  0002DC
InputText@lastKeyCode                       cstackBANK2  0002E0
InputText@props                             cstackBANK2  0002E1
InputText@ret_string                        cstackBANK1  000162
InputText@s_0                               cstackBANK1  0001E0
InputText@s_1                               cstackBANK1  000150
InputText@s_12                              cstackBANK1  00018F
InputText@s_13                              cstackBANK1  000195
InputText@s_14                              cstackBANK1  00019B
InputText@s_15                              cstackBANK1  0001A1
InputText@s_16                              cstackBANK1  0001A7
InputText@s_17                              cstackBANK1  0001AD
InputText@s_18                              cstackBANK1  0001B3
InputText@s_19                              cstackBANK1  0001B9
InputText@s_2                               cstackBANK1  0001BF
InputText@s_20                              cstackBANK1  0001DD
InputText@s_21                              cstackBANK1  0001E3
InputText@s_22                              cstackBANK1  0001E5
InputText@s_23                              cstackBANK1  0001E7
InputText@s_24                              cstackBANK2  0002C6
InputText@s_25                              cstackBANK2  0002C8
InputText@s_26                              cstackBANK2  0002CA
InputText@s_27                              cstackBANK2  0002CC
InputText@s_28                              cstackBANK2  0002CE
InputText@s_29                              cstackBANK2  0002D0
InputText@s_3                               cstackBANK1  0001C4
InputText@s_4                               cstackBANK1  0001C9
InputText@s_5                               cstackBANK1  0001CE
InputText@s_6                               cstackBANK1  0001D3
InputText@s_7                               cstackBANK1  000183
InputText@s_8                               cstackBANK1  0001D8
InputText@s_9                               cstackBANK1  000189
InputText@symbols                           cstackBANK3  0003A0
InputText@temp                              cstackBANK2  0002DD
InputText@temp_1964                         cstackBANK2  0002D8
InputText@text                              cstackBANK1  000147
InputText@time_point                        cstackBANK2  0002D2
InteractiveData_BlinkOFF@InteractiveData    cstackBANK1  000100
InteractiveData_BlinkOFF@i                  cstackBANK1  000105
InteractiveData_BlinkOFF@leght              cstackBANK1  000102
NumericToString@displacement                cstackBANK1  000116
NumericToString@mySring                     cstackBANK1  000111
NumericToString@n                           cstackBANK1  00010D
NumericToString@size                        cstackBANK1  000113
OutputInteractiveData@data                  cstackBANK1  000109
OutputInteractiveData@i                     cstackBANK1  000111
OutputInteractiveData@length                cstackBANK1  00010B
OutputInteractiveData@line                  cstackBANK1  00010F
OutputInteractiveData@s                     cstackBANK1  000110
OutputInteractiveData@start_symbol          cstackBANK1  00010C
OutputString@i                              cstackBANK1  000111
OutputString@l                              cstackBANK1  000113
OutputString@line                           cstackBANK1  00010B
OutputString@position                       cstackBANK1  00010C
OutputString@s                              cstackBANK1  000110
OutputString@stringData                     cstackBANK1  000109
OutputString@transfer_line                  cstackBANK1  00010D
OutputSystemMessage@i                       cstackBANK1  000106
OutputSystemMessage@l                       cstackBANK1  000109
OutputSystemMessage@line                    cstackBANK1  00010A
OutputSystemMessage@s                       cstackBANK1  000108
OutputSystemMessage@stringData              cstackBANK1  000100
OutputSystemMessage@symb                    cstackBANK1  00010B
PL10                                        text31       00379C
PL100                                       text35       0035CC
PL102                                       text1        00255A
PL104                                       text24       00100A
PL106                                       text48       0030D0
PL108                                       text42       001A6E
PL110                                       text24       001026
PL112                                       text24       00102E
PL114                                       text65       0041D8
PL116                                       text91       005094
PL118                                       text33       002F88
PL12                                        text8        001642
PL120                                       text19       002912
PL122                                       text1        00256C
PL124                                       text21       0046A8
PL126                                       text53       000A0C
PL128                                       text42       001A7C
PL130                                       text19       002922
PL132                                       text24       00103A
PL134                                       text53       000A24
PL136                                       text48       0030EC
PL138                                       text19       00292A
PL14                                        text8        001654
PL140                                       text42       001A88
PL142                                       text12       002E2C
PL144                                       text33       002F98
PL146                                       text24       001044
PL148                                       text46       00441E
PL150                                       text9        003FE2
PL152                                       text0        002AD8
PL154                                       text29       0043A8
PL156                                       text24       001050
PL158                                       text88       00275A
PL16                                        text53       0009D2
PL160                                       text11       00408E
PL162                                       text24       001062
PL164                                       text24       001074
PL166                                       text24       00107C
PL168                                       text24       001084
PL170                                       text78       002C94
PL172                                       text8        00168E
PL174                                       text21       0046C0
PL176                                       text53       000A2E
PL178                                       text24       001096
PL18                                        text33       002F54
PL180                                       text8        00169A
PL182                                       text8        0016A6
PL184                                       text8        0016B2
PL186                                       text53       000A36
PL188                                       text0        002AE0
PL190                                       text42       001A9E
PL192                                       text24       0010A2
PL194                                       text24       0010AE
PL196                                       text57       002354
PL198                                       text88       00276C
PL2                                         text59       004E34
PL20                                        text66       0042F2
PL200                                       text104      004A06
PL202                                       text24       0010BA
PL204                                       text85       004920
PL206                                       text53       000A46
PL208                                       text85       00492C
PL210                                       text24       0010CA
PL212                                       text42       001AAE
PL214                                       text46       004432
PL216                                       text7        0036E6
PL218                                       text49       003E84
PL22                                        text59       004E4A
PL220                                       text21       0046CC
PL222                                       text24       0010D2
PL224                                       text39       003224
PL226                                       text39       003232
PL228                                       text95       0034B2
PL230                                       text24       0010E0
PL232                                       text24       0010E8
PL234                                       text53       000A54
PL236                                       text95       0034C0
PL238                                       text24       0010F0
PL24                                        text31       0037AE
PL240                                       text53       000A62
PL242                                       text53       000A6C
PL244                                       text53       000A76
PL246                                       text24       0010F8
PL248                                       text24       001102
PL250                                       text24       00110A
PL252                                       text57       00235E
PL254                                       text42       001ABC
PL256                                       text57       002368
PL258                                       text42       001AC6
PL26                                        text65       0041BC
PL260                                       text33       002FA4
PL262                                       text24       001114
PL264                                       text8        0016BE
PL266                                       text57       002374
PL268                                       text24       001120
PL270                                       text12       002E3A
PL272                                       text32       005178
PL274                                       text57       002380
PL276                                       text42       001AD2
PL278                                       text24       00112C
PL28                                        text88       00274C
PL280                                       text57       00238C
PL282                                       text8        0016C8
PL284                                       text20       0044CC
PL286                                       text57       002398
PL288                                       text53       000A80
PL290                                       text48       0030F8
PL292                                       text35       0035DE
PL294                                       text67       0038E4
PL296                                       text8        0016D2
PL298                                       text63       005032
PL30                                        text8        001666
PL300                                       text8        0016DC
PL302                                       text6        0051E2
PL304                                       text67       0038EC
PL306                                       text46       004440
PL308                                       text8        0016E6
PL310                                       text42       001ADE
PL312                                       text53       000A8A
PL314                                       text53       000A94
PL316                                       text53       000A9E
PL318                                       text39       003240
PL32                                        text58       004542
PL320                                       text48       003102
PL322                                       text3        003C5A
PL324                                       text12       002E46
PL326                                       text8        0016F0
PL328                                       text39       00324A
PL330                                       text35       0035E6
PL332                                       text8        0016F8
PL334                                       text1        002584
PL34                                        text24       000F72
PL36                                        text53       0009DC
PL38                                        text76       0052AA
PL4                                         text53       0009C2
PL40                                        text67       0038AE
PL42                                        text24       000F7E
PL44                                        text64       004C62
PL46                                        text90       0039AE
PL48                                        text33       002F76
PL50                                        text24       000F96
PL52                                        text24       000FA4
PL54                                        text24       000FB6
PL56                                        text99       004BA0
PL58                                        text24       000FC2
PL6                                         text8        001620
PL60                                        text69       004B38
PL62                                        text44       004AD0
PL64                                        text90       0039C6
PL66                                        text0        002ACC
PL68                                        text67       0038C6
PL70                                        text66       00430A
PL72                                        text24       000FD8
PL74                                        text31       0037E0
PL76                                        text53       0009EA
PL78                                        text8        00167A
PL8                                         text31       003782
PL80                                        text8        001684
PL82                                        text31       0037F2
PL84                                        text64       004C7A
PL86                                        text66       004318
PL88                                        text48       0030B2
PL90                                        text24       000FE6
PL92                                        text67       0038DC
PL94                                        text24       000FF8
PL96                                        text58       00454A
PL98                                        text90       0039DC
ParseDataRecord@Data                        cstackBANK1  000100
ParseDataRecord@Days                        cstackBANK1  000108
ParseDataRecord@Signals                     cstackBANK1  00010A
ParseDataRecord@TimeStart                   cstackBANK1  000104
ParseDataRecord@TimeStop                    cstackBANK1  000106
ParseTime@Day                               cstackBANK1  000114
ParseTime@DayTime                           cstackBANK1  000116
ParseTime@Time                              cstackBANK1  000112
ParseTime@TimeValue                         cstackBANK1  00010E
PhonebookEdit@Contact                       cstackBANK5  00053D
PhonebookEdit@F3522                         dataBANK3    000394
PhonebookEdit@F3524                         dataBANK3    000300
PhonebookEdit@aaa                           cstackBANK5  00050A
PhonebookEdit@cell                          cstackBANK5  00053A
PhonebookEdit@field                         cstackBANK5  000538
PhonebookEdit@i                             cstackBANK5  00053C
PhonebookEdit@input_props                   cstackBANK5  000536
PhonebookEdit@input_props_2048              cstackBANK5  000532
PhonebookEdit@menu                          cstackBANK5  000500
PhonebookEdit@num_cell                      cstackBANK5  00052B
PhonebookEdit@number                        cstackBANK5  000533
PhonebookEdit@read                          cstackBANK5  000535
PhonebookEdit@result                        cstackBANK5  000537
ProcessIncommingUartData@contact            cstackBANK0  0000B1
ProcessIncommingUartData@i                  cstackBANK0  0000B3
ProcessIncommingUartData@number             cstackBANK0  0000A6
ReIndTimeEdit@TimeData                      cstackBANK1  000112
ReIndTimeEdit@i                             cstackBANK1  000119
ReIndTimeEdit@i_1273                        cstackBANK1  00011A
ReadDataOfCell@CellsData                    cstackBANK1  00010D
ReadDataOfCell@Data                         cstackBANK1  00010F
ReadDataOfCell@TargetAdress                 cstackBANK1  000111
ReadDataOfCell@i                            cstackBANK1  00011B
ReadDataOfCell_interr@CellsData             cstackCOMRAM 000033
ReadDataOfCell_interr@Data                  cstackCOMRAM 000028
ReadDataOfCell_interr@TargetAdress          cstackCOMRAM 000029
ReadDataOfCell_interr@i                     cstackCOMRAM 000034
Read_USART_SpeedNumber@value                cstackBANK1  000104
RefreshSchedulerIndicator@CellIsEmpty       cstackBANK1  000152
RefreshSchedulerIndicator@CellsData         cstackBANK1  00013E
RefreshSchedulerIndicator@CopyFrom          cstackBANK1  00013A
RefreshSchedulerIndicator@Data              cstackBANK1  00014E
RefreshSchedulerIndicator@F3172             dataBANK2    0002E4
RefreshSchedulerIndicator@F3174             dataBANK2    0002E7
RefreshSchedulerIndicator@New               cstackBANK1  000139
RefreshSchedulerIndicator@adress            cstackBANK1  000137
RefreshSchedulerIndicator@cell              cstackBANK1  000153
RefreshSchedulerIndicator@i                 cstackBANK1  000155
RefreshSchedulerIndicator@num               cstackBANK1  000146
RefreshSchedulerIndicator@num_1481          cstackBANK1  000149
Save_USART_SpeedNumber@speed                cstackBANK1  000104
Scheduler@NumberOfCells                     bssBANK0     0000D6
Scheduler@StartFrom                         cstackBANK1  000163
SchedulerNew@NumberOfCells                  bssBANK0     0000D8
SchedulerNew@SourceOfRecord                 cstackBANK1  000156
Select_OK_NO@text                           cstackBANK1  000114
SendCommandToUSART@command                  cstackBANK1  000100
SendCommandToUSART@wait                     cstackBANK1  000102
SendSymbolToLCD@Symb                        cstackCOMRAM 000023
Settings@F3545                              dataBANK4    0004EC
Settings@item                               cstackBANK1  0001C7
Settings@menu                               cstackBANK1  0001BC
Settings@speed                              cstackBANK1  0001C6
ShowMenu@item                               cstackBANK1  000116
ShowMenu@item_max                           cstackBANK1  00011C
ShowMenu@line                               bssBANK0     0000DE
ShowMenu@menu                               cstackBANK1  000114
ShowMenu@result                             cstackBANK1  00011B
ShowSchedulerMenu@F3228                     dataBANK3    000314
ShowSchedulerMenu@NumberOfCells             cstackBANK1  000158
ShowSchedulerMenu@item                      cstackBANK1  000162
ShowSchedulerMenu@menu                      cstackBANK1  00015A
SignalsOnOff@CellsData                      cstackBANK0  000080
SignalsOnOff@Data                           cstackBANK0  000096
SignalsOnOff@Data_1605                      cstackBANK0  000095
SignalsOnOff@DayTime                        cstackBANK0  000090
SignalsOnOff@Days                           cstackBANK0  000092
SignalsOnOff@Signals                        cstackBANK0  000093
SignalsOnOff@ThisDay                        cstackBANK0  000094
SignalsOnOff@ThisTime                       cstackBANK0  00008E
SignalsOnOff@TimeStart                      cstackBANK0  000088
SignalsOnOff@TimeStop                       cstackBANK0  00008A
TelephoneCall@F3509                         dataBANK4    0004B0
TelephoneCall@command                       cstackBANK1  000107
TelephoneCall@i                             cstackBANK1  000119
TelephoneCall@phone_number                  cstackBANK1  000103
TimeData_BlinkOFF@TimeData                  cstackBANK1  000106
TimeData_INIT@TimeData                      cstackBANK1  000100
TimeData_INIT@i                             cstackBANK1  000106
TimeData_INIT@i_1316                        cstackBANK1  000107
TimeEdit@F3092                              dataBANK4    0004E0
TimeEdit@MonthDays                          cstackBANK1  000127
TimeEdit@TimeData                           cstackBANK1  00019C
TimeEdit@_date                              cstackBANK1  00013B
TimeEdit@_time                              cstackBANK1  000164
TimeEdit@_weekday                           cstackBANK1  000198
TimeEdit@blinking                           cstackBANK1  000192
TimeEdit@i                                  cstackBANK1  00018F
TimeEdit@i_1340                             cstackBANK1  000190
TimeEdit@i_1341                             cstackBANK1  000191
TimeEdit@input                              cstackBANK1  000163
TimeEdit@month                              cstackBANK1  000178
TimeEdit@n                                  cstackBANK1  000133
TimeEdit@symb_array                         cstackBANK1  000179
TimeEdit@t                                  cstackBANK1  000197
TimeEdit@temp                               cstackBANK1  000193
TimeToInd@CellsData                         cstackBANK1  000167
TimeToInd@CellsNumber                       cstackBANK1  0001B0
TimeToInd@D                                 cstackBANK1  0001A2
TimeToInd@Data                              cstackBANK1  0001A9
TimeToInd@DataArray                         cstackBANK1  000185
TimeToInd@DataArray2                        cstackBANK1  0001A6
TimeToInd@DataArrayOfLine2                  cstackBANK1  00016F
TimeToInd@Day                               cstackBANK1  0001A8
TimeToInd@Days                              cstackBANK1  0001A1
TimeToInd@F3022                             dataBANK3    000386
TimeToInd@F3026                             dataBANK4    0004F6
TimeToInd@F3030                             dataBANK4    0004C2
TimeToInd@F3044                             dataBANK4    0004D3
TimeToInd@SignalOn                          cstackBANK1  000196
TimeToInd@SignalOn_1211                     cstackBANK1  000198
TimeToInd@Signals                           cstackBANK1  0001AD
TimeToInd@SignalsFinal                      cstackBANK1  0001B3
TimeToInd@Time                              cstackBANK1  0001B6
TimeToInd@TimeData                          cstackBANK1  00017C
TimeToInd@TimeStart                         cstackBANK1  00019E
TimeToInd@TimeStop                          cstackBANK1  0001B4
TimeToInd@d                                 cstackBANK1  000199
TimeToInd@day                               cstackBANK1  000197
TimeToInd@i                                 cstackBANK1  0001AE
TimeToInd@i_1210                            cstackBANK1  0001AF
TimeToInd@j2                                cstackBANK1  0001B1
TimeToInd@line                              cstackBANK1  0001A0
TimeToInd@temp                              cstackBANK1  0001B8
USART_Speed_Choise@F3542                    dataBANK3    00030A
USART_Speed_Choise@menu                     cstackBANK1  00011D
UserDelay@timestamp                         cstackBANK1  000116
UserDelay@value                             cstackBANK1  000114
WorkingWithGSM@command                      cstackBANK5  000521
WorkingWithGSM@i                            cstackBANK5  000526
WorkingWithGSM@line                         dataBANK3    000397
WorkingWithGSM@myOutputString               cstackBANK5  000500
WorkingWithGSM@p                            cstackBANK5  000523
WorkingWithGSM@speed                        cstackBANK5  000525
WriteArrayToEEPROM@adress_start             cstackBANK1  000106
WriteArrayToEEPROM@container                cstackBANK1  000104
WriteArrayToEEPROM@i                        cstackBANK1  00010C
WriteArrayToEEPROM@quantity                 cstackBANK1  000108
WritePhonebookCellToEEPROM@adress_start     cstackBANK1  00010F
WritePhonebookCellToEEPROM@container        cstackBANK1  00010D
_ADCON1                                     (abs)        000FC1
_AddByteToUSARTbuff                         text105      003ABE
_AdressOfNextStartCell                      dataBANK0    0000EC
_BAUDCONbits                                (abs)        000FB8
_CheckoutRegisterOfSymbol                   text61       001EC4
_CleanStringArray                           text41       00536E
_Clock                                      bssBANK0     0000D2
_Clock_from_GSM                             bssBANK4     000480
_ConvKeyNum                                 text102      004C82
_ConvertDayToBit                            text84       00524A
_CurrentReadingCell                         bssCOMRAM    00004B
_CurrentSignals                             bssBANK0     0000DF
_CurrentSignalsData                         bssCOMRAM    000050
_DTMF_Symbol                                bssBANK0     0000E0
_DeleteDataOfCell                           text15       00527A
_EEADR                                      (abs)        000FA9
_EEADRH                                     (abs)        000FAA
_EECON1bits                                 (abs)        000FA6
_EECON2                                     (abs)        000FA7
_EEDATA                                     (abs)        000FA8
_EERD                                       text71       005394
_EEWR                                       text68       0054DC
_EditSchedule                               text14       00562C
_F_h                                        intcode      000008
_F_l                                        intcodelo    000018
_FillArrayFromEEPROM                        text70       0050E4
_FillArrayFromEEPROM_interr                 text83       005184
_FillMinutes                                text72       005628
_FillPhonebookCellFromEEPROM                text69       004AE6
_FindCell                                   text13       0039E4
_FindCell$1463                              cstackBANK1  00012D
_FindIncommingData                          text39       00310C
_FindNextTimeStart                          text19       002774
_FindNextTimeStart$2853                     cstackBANK1  00012B
_FindPhoneContactByNumber                   text98       003E92
_Format_EEPROM_Memory                       text62       0047D2
_GetDayOfWeek                               text18       0046DA
_GetStringLength                            text40       005348
_GlobalBlinkCycleTime                       dataCOMRAM   000055
_INTCON                                     (abs)        000FF2
_INTCON2                                    (abs)        000FF1
_INTCON3                                    (abs)        000FF0
_INTCONbits                                 (abs)        000FF2
_IPR1                                       (abs)        000F9F
_IPR1bits                                   (abs)        000F9F
_IPR2                                       (abs)        000FA2
_IncommingBuffer                            bssCOMRAM    000043
_Incomming_Call_Data                        bssBANK5     00055E
_Incomming_DTMF_Data                        dataBANK3    000398
_Init_GSM                                   text35       0034CE
_Init_USART                                 text38       004DAA
_InputText                                  text53       00030E
_InteractiveData_BlinkOFF                   text60       00521A
_KeyCode                                    bssBANK0     0000E1
_LATA                                       (abs)        000F89
_LATB                                       (abs)        000F8A
_LATC                                       (abs)        000F8B
_Minutes                                    bssBANK2     0002F6
_NearTimeStart                              bssBANK0     0000E2
_NumericToString                            text49       003DDA
_OutcommingBuffer                           bssBANK0     0000DA
_OutputInteractiveData                      text58       0044D6
_OutputString                               text65       004142
_OutputSystemMessage                        text67       0037FA
_PIE1                                       (abs)        000F9D
_PIE1bits                                   (abs)        000F9D
_PIE2                                       (abs)        000FA0
_PIR1                                       (abs)        000F9E
_PIR1bits                                   (abs)        000F9E
_PIR2                                       (abs)        000FA1
_PIR2bits                                   (abs)        000FA1
_PORTA                                      (abs)        000F80
_PORTB                                      (abs)        000F81
_PR2                                        (abs)        000FCB
_ParseDataRecord                            text21       00465C
_ParseTime                                  text16       004A16
_PhonebookEdit                              text42       001700
_PhonebookEdit$2043                         cstackBANK5  00052E
_PhonebookEdit$2046                         cstackBANK5  000530
_ProcessIncommingUartData                   text88       00258C
_ProcessSystemMessageShowing                text87       005614
_RB7                                        (abs)        007C0F
_RC0                                        (abs)        007C10
_RC2                                        (abs)        007C12
_RCON                                       (abs)        000FD0
_RCONbits                                   (abs)        000FD0
_RCREG                                      (abs)        000FAE
_RCSTAbits                                  (abs)        000FAB
_ReIndTimeEdit                              text33       002E4E
_ReadDataOfCell                             text20       00444A
_ReadDataOfCell_interr                      text82       00455A
_Read_USART_SpeedNumber                     text37       0054BC
_RefreshSchedulerIndicator                  text12       002CA0
_RefreshSchedulerIndicator$1473             cstackBANK1  00014C
_SPBRG                                      (abs)        000FAF
_SPBRGH                                     (abs)        000FB0
_Save_USART_SpeedNumber                     text34       0055B2
_Scheduler                                  text9        003F44
_SchedulerNew                               text11       003FF4
_Select_OK_NO                               text63       005000
_SendCommandToUSART                         text47       00549A
_SendSymbolToLCD                            text85       0048C2
_SendSymbolToLCD$1423                       cstackCOMRAM 00001F
_SendSymbolToLCD$1425                       cstackCOMRAM 000021
_Settings                                   text22       004756
_ShowMenu                                   text48       002FB0
_ShowSchedulerMenu                          text10       0040A0
_SignalsForInd                              bssBANK1     0001FB
_SignalsOnOff                               text78       002AEA
_SignalsOnOff$1604                          cstackBANK0  00008C
_SignalsOut                                 bssCOMRAM    000051
_StandardAnswer_BUSY                        mediumconst  00FD9C
_StandardAnswer_CLOCK                       mediumconst  00FD4F
_StandardAnswer_DTMF                        mediumconst  00FD8E
_StandardAnswer_ERROR                       mediumconst  00FD96
_StandardAnswer_INCCALL                     mediumconst  00FD2B
_StandardAnswer_NO_ANSWER                   mediumconst  00FD84
_StandardAnswer_NO_CARRIER                  mediumconst  00FD79
_StandardAnswer_NO_DIALTONE                 mediumconst  00FD6D
_StandardAnswer_OK                          mediumconst  00FDA1
_T0IF                                       (abs)        007F92
_T1CONbits                                  (abs)        000FCD
_T2CON                                      (abs)        000FCA
_T2CONbits                                  (abs)        000FCA
_TMR1                                       (abs)        000FCE
_TMR1IF                                     (abs)        007CF0
_TMR2                                       (abs)        000FCC
_TMR2IF                                     (abs)        007CF1
_TRISA                                      (abs)        000F92
_TRISB                                      (abs)        000F93
_TRISC                                      (abs)        000F94
_TRISCbits                                  (abs)        000F94
_TXREG                                      (abs)        000FAD
_TXSTAbits                                  (abs)        000FAC
_TelephoneCall                              text46       0043BA
_TimeData_BlinkOFF                          text32       005150
_TimeData_INIT                              text31       0036F4
_TimeEdit                                   text24       000AA8
_TimeEdit$2852                              cstackBANK1  000137
_TimeToInd                                  text8        001134
_TimeToInd$1196                             cstackBANK1  00019A
_TimeToInd$1197                             cstackBANK1  00019C
_USART_Speed_Choise                         text23       005322
_UserDelay                                  text36       004FC4
_WorkingWithGSM                             text7        0035EE
_WriteArrayToEEPROM                         text45       00503C
_WritePhonebookCellToEEPROM                 text44       004A7E
__CFG_BOREN$SBORDIS                         (abs)        000000
__CFG_BORV$3                                (abs)        000000
__CFG_CCP2MX$PORTC                          (abs)        000000
__CFG_CP0$OFF                               (abs)        000000
__CFG_CP1$OFF                               (abs)        000000
__CFG_CP2$OFF                               (abs)        000000
__CFG_CP3$OFF                               (abs)        000000
__CFG_CPB$OFF                               (abs)        000000
__CFG_CPD$OFF                               (abs)        000000
__CFG_EBTR0$OFF                             (abs)        000000
__CFG_EBTR1$OFF                             (abs)        000000
__CFG_EBTR2$OFF                             (abs)        000000
__CFG_EBTR3$OFF                             (abs)        000000
__CFG_EBTRB$OFF                             (abs)        000000
__CFG_FCMEN$OFF                             (abs)        000000
__CFG_IESO$ON                               (abs)        000000
__CFG_LPT1OSC$ON                            (abs)        000000
__CFG_LVP$OFF                               (abs)        000000
__CFG_MCLRE$OFF                             (abs)        000000
__CFG_OSC$HSPLL                             (abs)        000000
__CFG_PBADEN$OFF                            (abs)        000000
__CFG_PWRT$ON                               (abs)        000000
__CFG_STVREN$ON                             (abs)        000000
__CFG_WDT$OFF                               (abs)        000000
__CFG_WDTPS$32768                           (abs)        000000
__CFG_WRT0$OFF                              (abs)        000000
__CFG_WRT1$OFF                              (abs)        000000
__CFG_WRT2$OFF                              (abs)        000000
__CFG_WRT3$OFF                              (abs)        000000
__CFG_WRTB$OFF                              (abs)        000000
__CFG_WRTC$OFF                              (abs)        000000
__CFG_WRTD$OFF                              (abs)        000000
__CFG_XINST$OFF                             (abs)        000000
__CleanStringArray_interrupt                text106      00542C
__CleanStringArray_interrupt@i              cstackCOMRAM 000006
__CleanStringArray_interrupt@myArray        cstackCOMRAM 000001
__CleanStringArray_interrupt@settingData    cstackCOMRAM 000005
__CleanStringArray_interrupt@size           cstackCOMRAM 000003
__FindIncommingData_interrupt               text95       003390
__FindIncommingData_interrupt@a             cstackCOMRAM 000035
__FindIncommingData_interrupt@container     cstackCOMRAM 000027
__FindIncommingData_interrupt@end_of_regexp cstackCOMRAM 000037
__FindIncommingData_interrupt@finish_index  cstackCOMRAM 000031
__FindIncommingData_interrupt@history_index cstackCOMRAM 000029
__FindIncommingData_interrupt@i             cstackCOMRAM 00003B
__FindIncommingData_interrupt@j             cstackCOMRAM 000041
__FindIncommingData_interrupt@last_s        cstackCOMRAM 00003F
__FindIncommingData_interrupt@not_found     cstackCOMRAM 000033
__FindIncommingData_interrupt@pointer       cstackCOMRAM 00003D
__FindIncommingData_interrupt@regexp        cstackCOMRAM 000025
__FindIncommingData_interrupt@s0            cstackCOMRAM 000039
__FindIncommingData_interrupt@s1            cstackCOMRAM 00002D
__FindIncommingData_interrupt@start_index   cstackCOMRAM 00002F
__GetStringLength_interr                    text97       005406
__GetStringLength_interr@container          cstackCOMRAM 00001C
__GetStringLength_interr@i                  cstackCOMRAM 00001E
__HRAM                                      (abs)        000000
__Habs1                                     abs1         000000
__Hbank0                                    bank0        000000
__Hbank1                                    bank1        000000
__Hbank10                                   bank10       000000
__Hbank11                                   bank11       000000
__Hbank12                                   bank12       000000
__Hbank13                                   bank13       000000
__Hbank14                                   bank14       000000
__Hbank15                                   bank15       000000
__Hbank2                                    bank2        000000
__Hbank3                                    bank3        000000
__Hbank4                                    bank4        000000
__Hbank5                                    bank5        000000
__Hbank6                                    bank6        000000
__Hbank7                                    bank7        000000
__Hbank8                                    bank8        000000
__Hbank9                                    bank9        000000
__Hbigbss                                   bigbss       000000
__Hbigdata                                  bigdata      000000
__Hbigram                                   bigram       000000
__Hbss                                      bss          000000
__HbssBANK0                                 bssBANK0     000000
__HbssBANK1                                 bssBANK1     000000
__HbssBANK2                                 bssBANK2     000000
__HbssBANK4                                 bssBANK4     000000
__HbssBANK5                                 bssBANK5     000000
__HbssBANK6                                 bssBANK6     000000
__HbssBANK7                                 bssBANK7     000000
__HbssBANK8                                 bssBANK8     000000
__HbssBANK9                                 bssBANK9     000000
__HbssCOMRAM                                bssCOMRAM    000000
__Hcinit                                    cinit        000000
__Hclrtext                                  clrtext      000000
__Hcomram                                   comram       000000
__Hconfig                                   config       30000E
__Hconst                                    const        000000
__HcstackBANK0                              cstackBANK0  000000
__HcstackBANK1                              cstackBANK1  000000
__HcstackBANK2                              cstackBANK2  000000
__HcstackBANK3                              cstackBANK3  000000
__HcstackBANK5                              cstackBANK5  000000
__HcstackCOMRAM                             cstackCOMRAM 000000
__Hdata                                     data         000000
__HdataBANK0                                dataBANK0    000000
__HdataBANK2                                dataBANK2    000000
__HdataBANK3                                dataBANK3    000000
__HdataBANK4                                dataBANK4    000000
__HdataCOMRAM                               dataCOMRAM   000000
__Heeprom_data                              eeprom_data  000000
__Hend_init                                 end_init     00030E
__Hfarbss                                   farbss       000000
__Hfardata                                  fardata      000000
__Hibigdata                                 ibigdata     000000
__Hidata                                    idata        000000
__HidataBANK0                               idataBANK0   000000
__HidataBANK2                               idataBANK2   000000
__HidataBANK3                               idataBANK3   000000
__HidataBANK4                               idataBANK4   000000
__HidataCOMRAM                              idataCOMRAM  000000
__Hidloc                                    idloc        000000
__Hifardata                                 ifardata     000000
__Hinit                                     init         00030A
__Hintcode                                  intcode      000016
__Hintcode_body                             intcode_body 000000
__Hintcodelo                                intcodelo    00030A
__Hintentry                                 intentry     000000
__Hintret                                   intret       000000
__Hintsave_regs                             intsave_regs 000000
__Hirdata                                   irdata       000000
__Hmediumconst                              mediumconst  010000
__HnvFARRAM                                 nvFARRAM     000000
__Hnvbit                                    nvbit        000000
__Hnvrram                                   nvrram       000000
__Hpa_nodes                                 pa_nodes     000000
__Hparam                                    rparam       000000
__Hpowerup                                  powerup      00030A
__Hram                                      ram          000000
__Hramtop                                   ramtop       001000
__Hrbit                                     rbit         000000
__Hrbss                                     rbss         000000
__Hrdata                                    rdata        000000
__Hreset_vec                                reset_vec    000004
__Hrparam                                   rparam       000000
__Hsfr                                      sfr          000000
__Hsmallconst                               smallconst   000000
__Hspace_0                                  (abs)        30000E
__Hspace_1                                  (abs)        000A00
__Hspace_2                                  (abs)        000000
__Hstack                                    stack        000000
__Hstruct                                   struct       000000
__Htemp                                     temp         00005E
__Htext                                     text         000000
__Htext0                                    text0        000000
__Htext1                                    text1        000000
__Htext10                                   text10       000000
__Htext100                                  text100      000000
__Htext101                                  text101      000000
__Htext102                                  text102      000000
__Htext104                                  text104      000000
__Htext105                                  text105      000000
__Htext106                                  text106      000000
__Htext11                                   text11       000000
__Htext12                                   text12       000000
__Htext13                                   text13       000000
__Htext14                                   text14       000000
__Htext15                                   text15       000000
__Htext16                                   text16       000000
__Htext17                                   text17       000000
__Htext18                                   text18       000000
__Htext19                                   text19       000000
__Htext2                                    text2        000000
__Htext20                                   text20       000000
__Htext21                                   text21       000000
__Htext22                                   text22       000000
__Htext23                                   text23       000000
__Htext24                                   text24       000000
__Htext25                                   text25       000000
__Htext26                                   text26       000000
__Htext27                                   text27       000000
__Htext28                                   text28       000000
__Htext29                                   text29       000000
__Htext3                                    text3        000000
__Htext30                                   text30       000000
__Htext31                                   text31       000000
__Htext32                                   text32       000000
__Htext33                                   text33       000000
__Htext34                                   text34       000000
__Htext35                                   text35       000000
__Htext36                                   text36       000000
__Htext37                                   text37       000000
__Htext38                                   text38       000000
__Htext39                                   text39       000000
__Htext4                                    text4        000000
__Htext40                                   text40       000000
__Htext41                                   text41       000000
__Htext42                                   text42       000000
__Htext43                                   text43       000000
__Htext44                                   text44       000000
__Htext45                                   text45       000000
__Htext46                                   text46       000000
__Htext47                                   text47       000000
__Htext48                                   text48       000000
__Htext49                                   text49       000000
__Htext5                                    text5        000000
__Htext50                                   text50       000000
__Htext51                                   text51       000000
__Htext52                                   text52       000000
__Htext53                                   text53       000000
__Htext54                                   text54       000000
__Htext55                                   text55       000000
__Htext56                                   text56       000000
__Htext57                                   text57       000000
__Htext58                                   text58       000000
__Htext59                                   text59       000000
__Htext6                                    text6        000000
__Htext60                                   text60       000000
__Htext61                                   text61       000000
__Htext62                                   text62       000000
__Htext63                                   text63       000000
__Htext64                                   text64       000000
__Htext65                                   text65       000000
__Htext66                                   text66       000000
__Htext67                                   text67       000000
__Htext68                                   text68       000000
__Htext69                                   text69       000000
__Htext7                                    text7        000000
__Htext70                                   text70       000000
__Htext71                                   text71       000000
__Htext72                                   text72       000000
__Htext74                                   text74       000000
__Htext75                                   text75       000000
__Htext76                                   text76       000000
__Htext77                                   text77       000000
__Htext78                                   text78       000000
__Htext79                                   text79       000000
__Htext8                                    text8        000000
__Htext80                                   text80       000000
__Htext81                                   text81       000000
__Htext82                                   text82       000000
__Htext83                                   text83       000000
__Htext84                                   text84       000000
__Htext85                                   text85       000000
__Htext86                                   text86       000000
__Htext87                                   text87       000000
__Htext88                                   text88       000000
__Htext89                                   text89       000000
__Htext9                                    text9        000000
__Htext90                                   text90       000000
__Htext91                                   text91       000000
__Htext92                                   text92       000000
__Htext93                                   text93       000000
__Htext94                                   text94       000000
__Htext95                                   text95       000000
__Htext96                                   text96       000000
__Htext97                                   text97       000000
__Htext98                                   text98       000000
__Htext99                                   text99       000000
__LRAM                                      (abs)        000001
__Labs1                                     abs1         000000
__Lbank0                                    bank0        000000
__Lbank1                                    bank1        000000
__Lbank10                                   bank10       000000
__Lbank11                                   bank11       000000
__Lbank12                                   bank12       000000
__Lbank13                                   bank13       000000
__Lbank14                                   bank14       000000
__Lbank15                                   bank15       000000
__Lbank2                                    bank2        000000
__Lbank3                                    bank3        000000
__Lbank4                                    bank4        000000
__Lbank5                                    bank5        000000
__Lbank6                                    bank6        000000
__Lbank7                                    bank7        000000
__Lbank8                                    bank8        000000
__Lbank9                                    bank9        000000
__Lbigbss                                   bigbss       000000
__Lbigdata                                  bigdata      000000
__Lbigram                                   bigram       000000
__Lbss                                      bss          000000
__LbssBANK0                                 bssBANK0     000000
__LbssBANK1                                 bssBANK1     000000
__LbssBANK2                                 bssBANK2     000000
__LbssBANK4                                 bssBANK4     000000
__LbssBANK5                                 bssBANK5     000000
__LbssBANK6                                 bssBANK6     000000
__LbssBANK7                                 bssBANK7     000000
__LbssBANK8                                 bssBANK8     000000
__LbssBANK9                                 bssBANK9     000000
__LbssCOMRAM                                bssCOMRAM    000000
__Lcinit                                    cinit        000000
__Lclrtext                                  clrtext      000000
__Lcomram                                   comram       000000
__Lconfig                                   config       300000
__Lconst                                    const        000000
__LcstackBANK0                              cstackBANK0  000000
__LcstackBANK1                              cstackBANK1  000000
__LcstackBANK2                              cstackBANK2  000000
__LcstackBANK3                              cstackBANK3  000000
__LcstackBANK5                              cstackBANK5  000000
__LcstackCOMRAM                             cstackCOMRAM 000000
__Ldata                                     data         000000
__LdataBANK0                                dataBANK0    000000
__LdataBANK2                                dataBANK2    000000
__LdataBANK3                                dataBANK3    000000
__LdataBANK4                                dataBANK4    000000
__LdataCOMRAM                               dataCOMRAM   000000
__Leeprom_data                              eeprom_data  000000
__Lend_init                                 end_init     00030A
__Lfarbss                                   farbss       000000
__Lfardata                                  fardata      000000
__Libigdata                                 ibigdata     000000
__Lidata                                    idata        000000
__LidataBANK0                               idataBANK0   000000
__LidataBANK2                               idataBANK2   000000
__LidataBANK3                               idataBANK3   000000
__LidataBANK4                               idataBANK4   000000
__LidataCOMRAM                              idataCOMRAM  000000
__Lidloc                                    idloc        000000
__Lifardata                                 ifardata     000000
__Linit                                     init         00030A
__Lintcode                                  intcode      000008
__Lintcode_body                             intcode_body 000000
__Lintcodelo                                intcodelo    000018
__Lintentry                                 intentry     000000
__Lintret                                   intret       000000
__Lintsave_regs                             intsave_regs 000000
__Lirdata                                   irdata       000000
__Lmediumconst                              mediumconst  00FD0A
__LnvFARRAM                                 nvFARRAM     000000
__Lnvbit                                    nvbit        000000
__Lnvrram                                   nvrram       000000
__Lpa_nodes                                 pa_nodes     000000
__Lparam                                    rparam       000000
__Lpowerup                                  powerup      00030A
__Lram                                      ram          000000
__Lramtop                                   ramtop       001000
__Lrbit                                     rbit         000000
__Lrbss                                     rbss         000000
__Lrdata                                    rdata        000000
__Lreset_vec                                reset_vec    000000
__Lrparam                                   rparam       000000
__Lsfr                                      sfr          000000
__Lsmallconst                               smallconst   000000
__Lspace_0                                  (abs)        000000
__Lspace_1                                  (abs)        000000
__Lspace_2                                  (abs)        000000
__Lstack                                    stack        000000
__Lstruct                                   struct       000000
__Ltemp                                     temp         00005D
__Ltext                                     text         000000
__Ltext0                                    text0        000000
__Ltext1                                    text1        000000
__Ltext10                                   text10       000000
__Ltext100                                  text100      000000
__Ltext101                                  text101      000000
__Ltext102                                  text102      000000
__Ltext104                                  text104      000000
__Ltext105                                  text105      000000
__Ltext106                                  text106      000000
__Ltext11                                   text11       000000
__Ltext12                                   text12       000000
__Ltext13                                   text13       000000
__Ltext14                                   text14       000000
__Ltext15                                   text15       000000
__Ltext16                                   text16       000000
__Ltext17                                   text17       000000
__Ltext18                                   text18       000000
__Ltext19                                   text19       000000
__Ltext2                                    text2        000000
__Ltext20                                   text20       000000
__Ltext21                                   text21       000000
__Ltext22                                   text22       000000
__Ltext23                                   text23       000000
__Ltext24                                   text24       000000
__Ltext25                                   text25       000000
__Ltext26                                   text26       000000
__Ltext27                                   text27       000000
__Ltext28                                   text28       000000
__Ltext29                                   text29       000000
__Ltext3                                    text3        000000
__Ltext30                                   text30       000000
__Ltext31                                   text31       000000
__Ltext32                                   text32       000000
__Ltext33                                   text33       000000
__Ltext34                                   text34       000000
__Ltext35                                   text35       000000
__Ltext36                                   text36       000000
__Ltext37                                   text37       000000
__Ltext38                                   text38       000000
__Ltext39                                   text39       000000
__Ltext4                                    text4        000000
__Ltext40                                   text40       000000
__Ltext41                                   text41       000000
__Ltext42                                   text42       000000
__Ltext43                                   text43       000000
__Ltext44                                   text44       000000
__Ltext45                                   text45       000000
__Ltext46                                   text46       000000
__Ltext47                                   text47       000000
__Ltext48                                   text48       000000
__Ltext49                                   text49       000000
__Ltext5                                    text5        000000
__Ltext50                                   text50       000000
__Ltext51                                   text51       000000
__Ltext52                                   text52       000000
__Ltext53                                   text53       000000
__Ltext54                                   text54       000000
__Ltext55                                   text55       000000
__Ltext56                                   text56       000000
__Ltext57                                   text57       000000
__Ltext58                                   text58       000000
__Ltext59                                   text59       000000
__Ltext6                                    text6        000000
__Ltext60                                   text60       000000
__Ltext61                                   text61       000000
__Ltext62                                   text62       000000
__Ltext63                                   text63       000000
__Ltext64                                   text64       000000
__Ltext65                                   text65       000000
__Ltext66                                   text66       000000
__Ltext67                                   text67       000000
__Ltext68                                   text68       000000
__Ltext69                                   text69       000000
__Ltext7                                    text7        000000
__Ltext70                                   text70       000000
__Ltext71                                   text71       000000
__Ltext72                                   text72       000000
__Ltext74                                   text74       000000
__Ltext75                                   text75       000000
__Ltext76                                   text76       000000
__Ltext77                                   text77       000000
__Ltext78                                   text78       000000
__Ltext79                                   text79       000000
__Ltext8                                    text8        000000
__Ltext80                                   text80       000000
__Ltext81                                   text81       000000
__Ltext82                                   text82       000000
__Ltext83                                   text83       000000
__Ltext84                                   text84       000000
__Ltext85                                   text85       000000
__Ltext86                                   text86       000000
__Ltext87                                   text87       000000
__Ltext88                                   text88       000000
__Ltext89                                   text89       000000
__Ltext9                                    text9        000000
__Ltext90                                   text90       000000
__Ltext91                                   text91       000000
__Ltext92                                   text92       000000
__Ltext93                                   text93       000000
__Ltext94                                   text94       000000
__Ltext95                                   text95       000000
__Ltext96                                   text96       000000
__Ltext97                                   text97       000000
__Ltext98                                   text98       000000
__Ltext99                                   text99       000000
__S0                                        (abs)        30000E
__S1                                        (abs)        000A00
__S2                                        (abs)        000000
___aldiv                                    text30       003C62
___aldiv@counter                            cstackBANK1  000108
___aldiv@dividend                           cstackBANK1  000100
___aldiv@divisor                            cstackBANK1  000104
___aldiv@quotient                           cstackBANK1  00010A
___aldiv@sign                               cstackBANK1  000109
___almod                                    text29       004320
___almod@counter                            cstackBANK1  000108
___almod@dividend                           cstackBANK1  000100
___almod@divisor                            cstackBANK1  000104
___almod@sign                               cstackBANK1  000109
___inthi_sp                                 stack        000000
___intlo_sp                                 stack        000000
___lbdiv                                    text28       0050AE
___lbdiv@counter                            cstackBANK1  000102
___lbdiv@dividend                           cstackBANK1  000101
___lbdiv@divisor                            cstackBANK1  000100
___lbdiv@quotient                           cstackBANK1  000103
___lbmod                                    text27       0052FA
___lbmod@counter                            cstackBANK1  000102
___lbmod@dividend                           cstackBANK1  000101
___lbmod@divisor                            cstackBANK1  000100
___lbmod@rem                                cstackBANK1  000103
___lldiv                                    text52       00484C
___lldiv@counter                            cstackBANK1  00010C
___lldiv@dividend                           cstackBANK1  000100
___lldiv@divisor                            cstackBANK1  000104
___lldiv@quotient                           cstackBANK1  000108
___llmod                                    text51       004CE6
___llmod@counter                            cstackBANK1  000108
___llmod@dividend                           cstackBANK1  000100
___llmod@divisor                            cstackBANK1  000104
___lmul                                     text26       004E68
___lmul@multiplicand                        cstackBANK1  000104
___lmul@multiplier                          cstackBANK1  000100
___lmul@product                             cstackBANK1  000108
___lwdiv                                    text43       004EB4
___lwdiv@counter                            cstackBANK1  000104
___lwdiv@dividend                           cstackBANK1  000100
___lwdiv@divisor                            cstackBANK1  000102
___lwdiv@quotient                           cstackBANK1  000105
___lwmod                                    text17       004F48
___lwmod@counter                            cstackBANK1  000104
___lwmod@dividend                           cstackBANK1  000100
___lwmod@divisor                            cstackBANK1  000102
___param_bank                               (abs)        000010
___rparam_used                              (abs)        000001
___sp                                       stack        000000
__accesstop                                 (abs)        000080
__activetblptr                              (abs)        000002
__end_ofPL10                                text31       0037AE
__end_ofPL100                               text35       0035DE
__end_ofPL102                               text1        00256C
__end_ofPL104                               text24       001026
__end_ofPL106                               text48       0030EC
__end_ofPL108                               text42       001A7C
__end_ofPL110                               text24       00102E
__end_ofPL112                               text24       00103A
__end_ofPL114                               text65       0041E4
__end_ofPL116                               text91       0050AE
__end_ofPL118                               text33       002F98
__end_ofPL12                                text8        001654
__end_ofPL120                               text19       002922
__end_ofPL122                               text1        002584
__end_ofPL124                               text21       0046C0
__end_ofPL126                               text53       000A24
__end_ofPL128                               text42       001A88
__end_ofPL130                               text19       00292A
__end_ofPL132                               text24       001044
__end_ofPL134                               text53       000A2E
__end_ofPL136                               text48       0030F8
__end_ofPL138                               text19       002934
__end_ofPL14                                text8        001666
__end_ofPL140                               text42       001A9E
__end_ofPL142                               text12       002E3A
__end_ofPL144                               text33       002FA4
__end_ofPL146                               text24       001050
__end_ofPL148                               text46       004432
__end_ofPL150                               text9        003FF4
__end_ofPL152                               text0        002AE0
__end_ofPL154                               text29       0043BA
__end_ofPL156                               text24       001062
__end_ofPL158                               text88       00276C
__end_ofPL16                                text53       0009DC
__end_ofPL160                               text11       0040A0
__end_ofPL162                               text24       001074
__end_ofPL164                               text24       00107C
__end_ofPL166                               text24       001084
__end_ofPL168                               text24       001096
__end_ofPL170                               text78       002CA0
__end_ofPL172                               text8        00169A
__end_ofPL174                               text21       0046CC
__end_ofPL176                               text53       000A36
__end_ofPL178                               text24       0010A2
__end_ofPL18                                text33       002F76
__end_ofPL180                               text8        0016A6
__end_ofPL182                               text8        0016B2
__end_ofPL184                               text8        0016BE
__end_ofPL186                               text53       000A46
__end_ofPL188                               text0        002AEA
__end_ofPL190                               text42       001AAE
__end_ofPL192                               text24       0010AE
__end_ofPL194                               text24       0010BA
__end_ofPL196                               text57       00235E
__end_ofPL198                               text88       002774
__end_ofPL2                                 text59       004E4A
__end_ofPL20                                text66       00430A
__end_ofPL200                               text104      004A16
__end_ofPL202                               text24       0010CA
__end_ofPL204                               text85       00492C
__end_ofPL206                               text53       000A54
__end_ofPL208                               text85       004938
__end_ofPL210                               text24       0010D2
__end_ofPL212                               text42       001ABC
__end_ofPL214                               text46       004440
__end_ofPL216                               text7        0036F4
__end_ofPL218                               text49       003E92
__end_ofPL22                                text59       004E68
__end_ofPL220                               text21       0046DA
__end_ofPL222                               text24       0010E0
__end_ofPL224                               text39       003232
__end_ofPL226                               text39       003240
__end_ofPL228                               text95       0034C0
__end_ofPL230                               text24       0010E8
__end_ofPL232                               text24       0010F0
__end_ofPL234                               text53       000A62
__end_ofPL236                               text95       0034CE
__end_ofPL238                               text24       0010F8
__end_ofPL24                                text31       0037E0
__end_ofPL240                               text53       000A6C
__end_ofPL242                               text53       000A76
__end_ofPL244                               text53       000A80
__end_ofPL246                               text24       001102
__end_ofPL248                               text24       00110A
__end_ofPL250                               text24       001114
__end_ofPL252                               text57       002368
__end_ofPL254                               text42       001AC6
__end_ofPL256                               text57       002374
__end_ofPL258                               text42       001AD2
__end_ofPL26                                text65       0041D8
__end_ofPL260                               text33       002FB0
__end_ofPL262                               text24       001120
__end_ofPL264                               text8        0016C8
__end_ofPL266                               text57       002380
__end_ofPL268                               text24       00112C
__end_ofPL270                               text12       002E46
__end_ofPL272                               text32       005184
__end_ofPL274                               text57       00238C
__end_ofPL276                               text42       001ADE
__end_ofPL278                               text24       001134
__end_ofPL28                                text88       00275A
__end_ofPL280                               text57       002398
__end_ofPL282                               text8        0016D2
__end_ofPL284                               text20       0044D6
__end_ofPL286                               text57       0023A2
__end_ofPL288                               text53       000A8A
__end_ofPL290                               text48       003102
__end_ofPL292                               text35       0035E6
__end_ofPL294                               text67       0038EC
__end_ofPL296                               text8        0016DC
__end_ofPL298                               text63       00503C
__end_ofPL30                                text8        00167A
__end_ofPL300                               text8        0016E6
__end_ofPL302                               text6        0051EA
__end_ofPL304                               text67       0038F6
__end_ofPL306                               text46       00444A
__end_ofPL308                               text8        0016F0
__end_ofPL310                               text42       001AE6
__end_ofPL312                               text53       000A94
__end_ofPL314                               text53       000A9E
__end_ofPL316                               text53       000AA8
__end_ofPL318                               text39       00324A
__end_ofPL32                                text58       00454A
__end_ofPL320                               text48       00310C
__end_ofPL322                               text3        003C62
__end_ofPL324                               text12       002E4E
__end_ofPL326                               text8        0016F8
__end_ofPL328                               text39       003252
__end_ofPL330                               text35       0035EE
__end_ofPL332                               text8        001700
__end_ofPL334                               text1        00258C
__end_ofPL34                                text24       000F7E
__end_ofPL36                                text53       0009EA
__end_ofPL38                                text76       0052D2
__end_ofPL4                                 text53       0009D2
__end_ofPL40                                text67       0038C6
__end_ofPL42                                text24       000F96
__end_ofPL44                                text64       004C7A
__end_ofPL46                                text90       0039C6
__end_ofPL48                                text33       002F88
__end_ofPL50                                text24       000FA4
__end_ofPL52                                text24       000FB6
__end_ofPL54                                text24       000FC2
__end_ofPL56                                text99       004BB6
__end_ofPL58                                text24       000FD8
__end_ofPL6                                 text8        001642
__end_ofPL60                                text69       004B4E
__end_ofPL62                                text44       004AE6
__end_ofPL64                                text90       0039DC
__end_ofPL66                                text0        002AD8
__end_ofPL68                                text67       0038DC
__end_ofPL70                                text66       004318
__end_ofPL72                                text24       000FE6
__end_ofPL74                                text31       0037F2
__end_ofPL76                                text53       000A0C
__end_ofPL78                                text8        001684
__end_ofPL8                                 text31       00379C
__end_ofPL80                                text8        00168E
__end_ofPL82                                text31       0037FA
__end_ofPL84                                text64       004C82
__end_ofPL86                                text66       004320
__end_ofPL88                                text48       0030D0
__end_ofPL90                                text24       000FF8
__end_ofPL92                                text67       0038E4
__end_ofPL94                                text24       00100A
__end_ofPL96                                text58       00455A
__end_ofPL98                                text90       0039E4
__end_of_AddByteToUSARTbuff                 text105      003B98
__end_of_CheckoutRegisterOfSymbol           text61       002198
__end_of_CleanStringArray                   text41       005394
__end_of_ConvKeyNum                         text102      004CE6
__end_of_ConvertDayToBit                    text84       00527A
__end_of_DeleteDataOfCell                   text15       0052A8
__end_of_EERD                               text71       0053BA
__end_of_EEWR                               text68       0054FC
__end_of_EditSchedule                       text14       00562E
__end_of_F_h                                intcode_body 0049AA
__end_of_F_l                                intcodelo    00030A
__end_of_FillArrayFromEEPROM                text70       00511A
__end_of_FillArrayFromEEPROM_interr         text83       0051B8
__end_of_FillMinutes                        text72       00562C
__end_of_FillPhonebookCellFromEEPROM        text69       004B38
__end_of_FindCell                           text13       003ABE
__end_of_FindIncommingData                  text39       003224
__end_of_FindNextTimeStart                  text19       002912
__end_of_FindPhoneContactByNumber           text98       003F44
__end_of_Format_EEPROM_Memory               text62       00484C
__end_of_GetDayOfWeek                       text18       004756
__end_of_GetStringLength                    text40       00536E
__end_of_Init_GSM                           text35       0035CC
__end_of_Init_USART                         text38       004E0A
__end_of_InputText                          text53       0009C2
__end_of_InteractiveData_BlinkOFF           text60       00524A
__end_of_NumericToString                    text49       003E84
__end_of_OutputInteractiveData              text58       004542
__end_of_OutputString                       text65       0041BC
__end_of_OutputSystemMessage                text67       0038AE
__end_of_ParseDataRecord                    text21       0046A8
__end_of_ParseTime                          text16       004A7E
__end_of_PhonebookEdit                      text42       001A6E
__end_of_ProcessIncommingUartData           text88       00274C
__end_of_ProcessSystemMessageShowing        text87       00561E
__end_of_ReIndTimeEdit                      text33       002F54
__end_of_ReadDataOfCell                     text20       0044CC
__end_of_ReadDataOfCell_interr              text82       0045DC
__end_of_Read_USART_SpeedNumber             text37       0054DC
__end_of_RefreshSchedulerIndicator          text12       002E2C
__end_of_Save_USART_SpeedNumber             text34       0055C6
__end_of_Scheduler                          text9        003FE2
__end_of_SchedulerNew                       text11       00408E
__end_of_Select_OK_NO                       text63       005032
__end_of_SendCommandToUSART                 text47       0054BC
__end_of_SendSymbolToLCD                    text85       004920
__end_of_Settings                           text22       0047D2
__end_of_ShowMenu                           text48       0030B2
__end_of_ShowSchedulerMenu                  text10       004142
__end_of_SignalsOnOff                       text78       002C94
__end_of_StandardAnswer_BUSY                mediumconst  00FDA1
__end_of_StandardAnswer_CLOCK               mediumconst  00FD6D
__end_of_StandardAnswer_DTMF                mediumconst  00FD96
__end_of_StandardAnswer_ERROR               mediumconst  00FD9C
__end_of_StandardAnswer_INCCALL             mediumconst  00FD4F
__end_of_StandardAnswer_NO_ANSWER           mediumconst  00FD8E
__end_of_StandardAnswer_NO_CARRIER          mediumconst  00FD84
__end_of_StandardAnswer_NO_DIALTONE         mediumconst  00FD79
__end_of_StandardAnswer_OK                  mediumconst  00FDA4
__end_of_TelephoneCall                      text46       00441E
__end_of_TimeData_BlinkOFF                  text32       005178
__end_of_TimeData_INIT                      text31       003782
__end_of_TimeEdit                           text24       000F72
__end_of_TimeToInd                          text8        001620
__end_of_USART_Speed_Choise                 text23       005348
__end_of_UserDelay                          text36       005000
__end_of_WorkingWithGSM                     text7        0036E6
__end_of_WriteArrayToEEPROM                 text45       005076
__end_of_WritePhonebookCellToEEPROM         text44       004AD0
__end_of__CleanStringArray_interrupt        text106      005452
__end_of__FindIncommingData_interrupt       text95       0034B2
__end_of__GetStringLength_interr            text97       00542C
__end_of___aldiv                            text30       003D1E
__end_of___almod                            text29       0043A8
__end_of___lbdiv                            text28       0050E4
__end_of___lbmod                            text27       005322
__end_of___lldiv                            text52       0048C2
__end_of___llmod                            text51       004D48
__end_of___lmul                             text26       004EB4
__end_of___lwdiv                            text43       004EFE
__end_of___lwmod                            text17       004F86
__end_of__getContainer_Clock_from_GSM       text94       0055B2
__end_of__getContainer_Incomming_Call_Data  text93       005594
__end_of__getContainer_Incomming_DTMF_Data  text92       005576
__end_of__initialization                    cinit        003382
__end_of__load_TXREG                        text104      004A06
__end_of__setInputTextProps                 text57       002354
__end_of__setInputTextProps@F3403           mediumconst  00FD2B
__end_of__setInputTextProps@F3405           mediumconst  00FD21
__end_of_clrInd                             text64       004C62
__end_of_delay                              text86       005558
__end_of_entNum                             text25       00521A
__end_of_getLcdCodeOfChar                   text77       001EC4
__end_of_getNumChar                         text50       004C1C
__end_of_getSystemTimePoint                 text55       0055EA
__end_of_lcd_init                           text3        003C5A
__end_of_lcd_off                            text4        005608
__end_of_lcd_on                             text2        0055FA
__end_of_lcd_send_byte                      text5        0052FA
__end_of_lcd_send_initial_half_byte         text6        0051E2
__end_of_main                               text0        002ACC
__end_of_main2                              text1        00255A
__end_of_setBlink                           text59       004E34
__end_of_setDigit                           text66       0042F2
__end_of_system_BlinkReset                  text56       00553A
__end_of_testTimePoint                      text54       00465C
__end_ofi1_CleanStringArray                 text96       005406
__end_ofi1_EERD                             text101      00549A
__end_ofi1_EEWR                             text91       005094
__end_ofi1_FillArrayFromEEPROM              text100      005150
__end_ofi1_FillMinutes                      text76       0052AA
__end_ofi1_FillPhonebookCellFromEEPROM      text99       004BA0
__end_ofi1_OutputSystemMessage              text90       0039AE
__end_ofi1_SendCommandToUSART               text89       00551C
__end_ofi1___aldiv                          text81       003DDA
__end_ofi1___lwdiv                          text80       004F48
__end_ofi1___lwmod                          text79       004FC4
__end_ofi1_lcd_send_byte                    text74       005476
__end_ofi1_lcd_send_initial_half_byte       text75       0053E0
__getContainer_Clock_from_GSM               text94       005594
__getContainer_Incomming_Call_Data          text93       005576
__getContainer_Incomming_DTMF_Data          text92       005558
__initialization                            cinit        003252
__load_TXREG                                text104      0049AA
__mediumconst                               mediumconst  00FD0A
__pbssBANK0                                 bssBANK0     0000D2
__pbssBANK1                                 bssBANK1     0001FB
__pbssBANK2                                 bssBANK2     0002F6
__pbssBANK4                                 bssBANK4     000400
__pbssBANK5                                 bssBANK5     00055E
__pbssBANK6                                 bssBANK6     000600
__pbssBANK7                                 bssBANK7     000700
__pbssBANK8                                 bssBANK8     000800
__pbssBANK9                                 bssBANK9     000900
__pbssCOMRAM                                bssCOMRAM    000043
__pcinit                                    cinit        003252
__pcstackBANK0                              cstackBANK0  000080
__pcstackBANK1                              cstackBANK1  000100
__pcstackBANK2                              cstackBANK2  000200
__pcstackBANK3                              cstackBANK3  0003A0
__pcstackBANK5                              cstackBANK5  000500
__pcstackCOMRAM                             cstackCOMRAM 000001
__pdataBANK0                                dataBANK0    0000E6
__pdataBANK2                                dataBANK2    0002E4
__pdataBANK3                                dataBANK3    000300
__pdataBANK4                                dataBANK4    00049E
__pdataCOMRAM                               dataCOMRAM   000054
__pidataBANK0                               idataBANK0   005608
__pidataBANK2                               idataBANK2   0055C6
__pidataBANK3                               idataBANK3   0041E4
__pidataBANK4                               idataBANK4   004D48
__pidataCOMRAM                              idataCOMRAM  00561E
__pintcode                                  intcode      000008
__pintcode_body                             intcode_body 004938
__pintcodelo                                intcodelo    000018
__pmediumconst                              mediumconst  00FD0A
__ptext0                                    text0        002934
__ptext1                                    text1        0023A2
__ptext10                                   text10       0040A0
__ptext100                                  text100      00511A
__ptext101                                  text101      005476
__ptext102                                  text102      004C82
__ptext104                                  text104      0049AA
__ptext105                                  text105      003ABE
__ptext106                                  text106      00542C
__ptext11                                   text11       003FF4
__ptext12                                   text12       002CA0
__ptext13                                   text13       0039E4
__ptext14                                   text14       00562C
__ptext15                                   text15       00527A
__ptext16                                   text16       004A16
__ptext17                                   text17       004F48
__ptext18                                   text18       0046DA
__ptext19                                   text19       002774
__ptext2                                    text2        0055EA
__ptext20                                   text20       00444A
__ptext21                                   text21       00465C
__ptext22                                   text22       004756
__ptext23                                   text23       005322
__ptext24                                   text24       000AA8
__ptext25                                   text25       0051EA
__ptext26                                   text26       004E68
__ptext27                                   text27       0052FA
__ptext28                                   text28       0050AE
__ptext29                                   text29       004320
__ptext3                                    text3        003B98
__ptext30                                   text30       003C62
__ptext31                                   text31       0036F4
__ptext32                                   text32       005150
__ptext33                                   text33       002E4E
__ptext34                                   text34       0055B2
__ptext35                                   text35       0034CE
__ptext36                                   text36       004FC4
__ptext37                                   text37       0054BC
__ptext38                                   text38       004DAA
__ptext39                                   text39       00310C
__ptext4                                    text4        0055FA
__ptext40                                   text40       005348
__ptext41                                   text41       00536E
__ptext42                                   text42       001700
__ptext43                                   text43       004EB4
__ptext44                                   text44       004A7E
__ptext45                                   text45       00503C
__ptext46                                   text46       0043BA
__ptext47                                   text47       00549A
__ptext48                                   text48       002FB0
__ptext49                                   text49       003DDA
__ptext5                                    text5        0052D2
__ptext50                                   text50       004BB6
__ptext51                                   text51       004CE6
__ptext52                                   text52       00484C
__ptext53                                   text53       00030E
__ptext54                                   text54       0045DC
__ptext55                                   text55       0055D8
__ptext56                                   text56       00551C
__ptext57                                   text57       002198
__ptext58                                   text58       0044D6
__ptext59                                   text59       004E0A
__ptext6                                    text6        0051B8
__ptext60                                   text60       00521A
__ptext61                                   text61       001EC4
__ptext62                                   text62       0047D2
__ptext63                                   text63       005000
__ptext64                                   text64       004C1C
__ptext65                                   text65       004142
__ptext66                                   text66       004284
__ptext67                                   text67       0037FA
__ptext68                                   text68       0054DC
__ptext69                                   text69       004AE6
__ptext7                                    text7        0035EE
__ptext70                                   text70       0050E4
__ptext71                                   text71       005394
__ptext72                                   text72       005628
__ptext74                                   text74       005452
__ptext75                                   text75       0053BA
__ptext76                                   text76       0052A8
__ptext77                                   text77       001AE6
__ptext78                                   text78       002AEA
__ptext79                                   text79       004F86
__ptext8                                    text8        001134
__ptext80                                   text80       004EFE
__ptext81                                   text81       003D1E
__ptext82                                   text82       00455A
__ptext83                                   text83       005184
__ptext84                                   text84       00524A
__ptext85                                   text85       0048C2
__ptext86                                   text86       00553A
__ptext87                                   text87       005614
__ptext88                                   text88       00258C
__ptext89                                   text89       0054FC
__ptext9                                    text9        003F44
__ptext90                                   text90       0038F6
__ptext91                                   text91       005076
__ptext92                                   text92       005558
__ptext93                                   text93       005576
__ptext94                                   text94       005594
__ptext95                                   text95       003390
__ptext96                                   text96       0053E0
__ptext97                                   text97       005406
__ptext98                                   text98       003E92
__ptext99                                   text99       004B4E
__ramtop                                    ramtop       001000
__setInputTextProps                         text57       002198
__setInputTextProps@Aa                      cstackBANK1  000140
__setInputTextProps@F3403                   mediumconst  00FD21
__setInputTextProps@F3405                   mediumconst  00FD0B
__setInputTextProps@F3407                   dataBANK3    00038A
__setInputTextProps@F3409                   dataBANK3    00031C
__setInputTextProps@Lang                    cstackBANK1  000138
__setInputTextProps@_props                  cstackBANK1  000114
__setInputTextProps@i                       cstackBANK1  000144
__setInputTextProps@i_1863                  cstackBANK1  000145
__setInputTextProps@props                   cstackBANK1  000146
__setInputTextProps@source_A                cstackBANK1  00012E
__setInputTextProps@source_L                cstackBANK1  000118
__size_of_AddByteToUSARTbuff                (abs)        000000
__size_of_CheckoutRegisterOfSymbol          (abs)        000000
__size_of_CleanStringArray                  (abs)        000000
__size_of_ConvKeyNum                        (abs)        000000
__size_of_ConvertDayToBit                   (abs)        000000
__size_of_DeleteDataOfCell                  (abs)        000000
__size_of_EERD                              (abs)        000000
__size_of_EEWR                              (abs)        000000
__size_of_EditSchedule                      (abs)        000000
__size_of_F_h                               (abs)        000000
__size_of_F_l                               (abs)        000000
__size_of_FillArrayFromEEPROM               (abs)        000000
__size_of_FillArrayFromEEPROM_interr        (abs)        000000
__size_of_FillMinutes                       (abs)        000000
__size_of_FillPhonebookCellFromEEPROM       (abs)        000000
__size_of_FindCell                          (abs)        000000
__size_of_FindIncommingData                 (abs)        000000
__size_of_FindNextTimeStart                 (abs)        000000
__size_of_FindPhoneContactByNumber          (abs)        000000
__size_of_Format_EEPROM_Memory              (abs)        000000
__size_of_GetDayOfWeek                      (abs)        000000
__size_of_GetStringLength                   (abs)        000000
__size_of_Init_GSM                          (abs)        000000
__size_of_Init_USART                        (abs)        000000
__size_of_InputText                         (abs)        000000
__size_of_InteractiveData_BlinkOFF          (abs)        000000
__size_of_NumericToString                   (abs)        000000
__size_of_OutputInteractiveData             (abs)        000000
__size_of_OutputString                      (abs)        000000
__size_of_OutputSystemMessage               (abs)        000000
__size_of_ParseDataRecord                   (abs)        000000
__size_of_ParseTime                         (abs)        000000
__size_of_PhonebookEdit                     (abs)        000000
__size_of_ProcessIncommingUartData          (abs)        000000
__size_of_ProcessSystemMessageShowing       (abs)        000000
__size_of_ReIndTimeEdit                     (abs)        000000
__size_of_ReadDataOfCell                    (abs)        000000
__size_of_ReadDataOfCell_interr             (abs)        000000
__size_of_Read_USART_SpeedNumber            (abs)        000000
__size_of_RefreshSchedulerIndicator         (abs)        000000
__size_of_Save_USART_SpeedNumber            (abs)        000000
__size_of_Scheduler                         (abs)        000000
__size_of_SchedulerNew                      (abs)        000000
__size_of_Select_OK_NO                      (abs)        000000
__size_of_SendCommandToUSART                (abs)        000000
__size_of_SendSymbolToLCD                   (abs)        000000
__size_of_Settings                          (abs)        000000
__size_of_ShowMenu                          (abs)        000000
__size_of_ShowSchedulerMenu                 (abs)        000000
__size_of_SignalsOnOff                      (abs)        000000
__size_of_TelephoneCall                     (abs)        000000
__size_of_TimeData_BlinkOFF                 (abs)        000000
__size_of_TimeData_INIT                     (abs)        000000
__size_of_TimeEdit                          (abs)        000000
__size_of_TimeToInd                         (abs)        000000
__size_of_USART_Speed_Choise                (abs)        000000
__size_of_UserDelay                         (abs)        000000
__size_of_WorkingWithGSM                    (abs)        000000
__size_of_WriteArrayToEEPROM                (abs)        000000
__size_of_WritePhonebookCellToEEPROM        (abs)        000000
__size_of__CleanStringArray_interrupt       (abs)        000000
__size_of__FindIncommingData_interrupt      (abs)        000000
__size_of__GetStringLength_interr           (abs)        000000
__size_of___aldiv                           (abs)        000000
__size_of___almod                           (abs)        000000
__size_of___lbdiv                           (abs)        000000
__size_of___lbmod                           (abs)        000000
__size_of___lldiv                           (abs)        000000
__size_of___llmod                           (abs)        000000
__size_of___lmul                            (abs)        000000
__size_of___lwdiv                           (abs)        000000
__size_of___lwmod                           (abs)        000000
__size_of__getContainer_Clock_from_GSM      (abs)        000000
__size_of__getContainer_Incomming_Call_Data (abs)        000000
__size_of__getContainer_Incomming_DTMF_Data (abs)        000000
__size_of__load_TXREG                       (abs)        000000
__size_of__setInputTextProps                (abs)        000000
__size_of_clrInd                            (abs)        000000
__size_of_delay                             (abs)        000000
__size_of_entNum                            (abs)        000000
__size_of_getLcdCodeOfChar                  (abs)        000000
__size_of_getNumChar                        (abs)        000000
__size_of_getSystemTimePoint                (abs)        000000
__size_of_lcd_init                          (abs)        000000
__size_of_lcd_off                           (abs)        000000
__size_of_lcd_on                            (abs)        000000
__size_of_lcd_send_byte                     (abs)        000000
__size_of_lcd_send_initial_half_byte        (abs)        000000
__size_of_main                              (abs)        000000
__size_of_main2                             (abs)        000000
__size_of_setBlink                          (abs)        000000
__size_of_setDigit                          (abs)        000000
__size_of_system_BlinkReset                 (abs)        000000
__size_of_testTimePoint                     (abs)        000000
__size_ofi1_CleanStringArray                (abs)        000000
__size_ofi1_EERD                            (abs)        000000
__size_ofi1_EEWR                            (abs)        000000
__size_ofi1_FillArrayFromEEPROM             (abs)        000000
__size_ofi1_FillMinutes                     (abs)        000000
__size_ofi1_FillPhonebookCellFromEEPROM     (abs)        000000
__size_ofi1_OutputSystemMessage             (abs)        000000
__size_ofi1_SendCommandToUSART              (abs)        000000
__size_ofi1___aldiv                         (abs)        000000
__size_ofi1___lwdiv                         (abs)        000000
__size_ofi1___lwmod                         (abs)        000000
__size_ofi1_lcd_send_byte                   (abs)        000000
__size_ofi1_lcd_send_initial_half_byte      (abs)        000000
__smallconst                                smallconst   000000
__systemCounter                             bssBANK2     0002FA
_buff_string_10                             bssBANK8     000800
_buff_string_11                             bssBANK9     000900
_buff_string_8                              bssBANK6     000600
_buff_string_9                              bssBANK7     000700
_cDays                                      dataBANK0    0000EE
_cDaysAdress                                dataCOMRAM   000056
_cHours                                     bssCOMRAM    000052
_cHoursAdress                               dataCOMRAM   000057
_cMinutes                                   bssCOMRAM    000053
_cMinutesAdress                             dataCOMRAM   000058
_cMonths                                    dataBANK0    0000EF
_cMonthsAdress                              dataCOMRAM   000059
_cWeekDay                                   dataCOMRAM   00005A
_cWeekDayAdress                             dataCOMRAM   00005B
_cYears                                     dataBANK0    0000F0
_cYearsAdress                               dataCOMRAM   00005C
_clrInd                                     text64       004C1C
_delay                                      text86       00553A
_digits                                     bssBANK4     000400
_digitsAtrib                                bssBANK4     000420
_digitsAtrib_system_message                 bssBANK4     000440
_digits_system_message                      bssBANK4     000460
_entNum                                     text25       0051EA
_flags                                      bssBANK0     0000DC
_getLcdCodeOfChar                           text77       001AE6
_getNumChar                                 text50       004BB6
_getSystemTimePoint                         text55       0055D8
_lcd_init                                   text3        003B98
_lcd_off                                    text4        0055FA
_lcd_on                                     text2        0055EA
_lcd_send_byte                              text5        0052D2
_lcd_send_initial_half_byte                 text6        0051B8
_lcd_send_initial_half_byte$1433            cstackBANK1  000101
_main                                       text0        002934
_main$2854                                  cstackBANK1  0001F5
_main2                                      text1        0023A2
_setBlink                                   text59       004E0A
_setDigit                                   text66       004284
_setDigit$1152                              cstackBANK1  000104
_setDigit$1153                              cstackBANK1  000105
_system_BlinkReset                          text56       00551C
_testTimePoint                              text54       0045DC
btemp                                       temp         00005D
clrInd@line                                 cstackBANK1  000102
clrInd@symb                                 cstackBANK1  000103
delay@count                                 cstackCOMRAM 00001C
delay@del                                   cstackCOMRAM 00001E
end_of_initialization                       cinit        003382
entNum@KeyValue                             cstackBANK1  000102
entNum@borderDown                           cstackBANK1  000101
entNum@borderUp                             cstackBANK1  000100
getLcdCodeOfChar@dig                        cstackCOMRAM 00001C
getNumChar@num                              cstackBANK1  000100
i1CleanStringArray@i                        cstackCOMRAM 000021
i1CleanStringArray@myArray                  cstackCOMRAM 00001C
i1CleanStringArray@settingData              cstackCOMRAM 000020
i1CleanStringArray@size                     cstackCOMRAM 00001E
i1EERD@EEDATA_BUP                           cstackCOMRAM 00001F
i1EERD@INTCON_BUP                           cstackCOMRAM 00001E
i1EERD@adress                               cstackCOMRAM 00001C
i1EEWR@INTCON_BUP                           cstackCOMRAM 00001F
i1EEWR@adress                               cstackCOMRAM 00001C
i1EEWR@data                                 cstackCOMRAM 00001E
i1FillArrayFromEEPROM@adress_start          cstackCOMRAM 000022
i1FillArrayFromEEPROM@container             cstackCOMRAM 000020
i1FillArrayFromEEPROM@i                     cstackCOMRAM 000028
i1FillArrayFromEEPROM@quantity              cstackCOMRAM 000024
i1FillPhonebookCellFromEEPROM@adress_start  cstackCOMRAM 00002B
i1FillPhonebookCellFromEEPROM@container     cstackCOMRAM 000029
i1OutputSystemMessage@i                     cstackCOMRAM 000022
i1OutputSystemMessage@l                     cstackCOMRAM 000025
i1OutputSystemMessage@line                  cstackCOMRAM 000026
i1OutputSystemMessage@s                     cstackCOMRAM 000024
i1OutputSystemMessage@stringData            cstackCOMRAM 00001C
i1OutputSystemMessage@symb                  cstackCOMRAM 000027
i1SendCommandToUSART@command                cstackCOMRAM 00001C
i1SendCommandToUSART@wait                   cstackCOMRAM 00001E
i1_CleanStringArray                         text96       0053E0
i1_EERD                                     text101      005476
i1_EEWR                                     text91       005076
i1_FillArrayFromEEPROM                      text100      00511A
i1_FillMinutes                              text76       0052A8
i1_FillPhonebookCellFromEEPROM              text99       004B4E
i1_OutputSystemMessage                      text90       0038F6
i1_SendCommandToUSART                       text89       0054FC
i1___aldiv                                  text81       003D1E
i1___aldiv@counter                          cstackCOMRAM 000024
i1___aldiv@dividend                         cstackCOMRAM 00001C
i1___aldiv@divisor                          cstackCOMRAM 000020
i1___aldiv@quotient                         cstackCOMRAM 000026
i1___aldiv@sign                             cstackCOMRAM 000025
i1___lwdiv                                  text80       004EFE
i1___lwdiv@counter                          cstackCOMRAM 000020
i1___lwdiv@dividend                         cstackCOMRAM 00001C
i1___lwdiv@divisor                          cstackCOMRAM 00001E
i1___lwdiv@quotient                         cstackCOMRAM 000021
i1___lwmod                                  text79       004F86
i1___lwmod@counter                          cstackCOMRAM 000020
i1___lwmod@dividend                         cstackCOMRAM 00001C
i1___lwmod@divisor                          cstackCOMRAM 00001E
i1_lcd_send_byte                            text74       005452
i1_lcd_send_initial_half_byte               text75       0053BA
i1_lcd_send_initial_half_byte$1433          cstackCOMRAM 00001D
i1lcd_send_byte@data                        cstackCOMRAM 00001F
i1lcd_send_initial_half_byte@data           cstackCOMRAM 00001C
int$flags                                   temp         00005D
int_func                                    intcode_body 004938
intlevel0                                   text         000000
intlevel1                                   text         000000
intlevel2                                   text         000000
intlevel3                                   text         000000
lcd_init@INTCON_BUF                         cstackBANK1  000105
lcd_send_byte@data                          cstackBANK1  000103
lcd_send_initial_half_byte@data             cstackBANK1  000100
main2@F3549                                 dataBANK3    000324
main2@item                                  cstackBANK1  0001F4
main2@menu                                  cstackBANK1  0001EC
main@i                                      cstackBANK1  0001FA
main@i_1777                                 cstackBANK1  0001F9
setBlink@line                               cstackBANK1  000104
setBlink@symbol                             cstackBANK1  000100
setBlink@value                              cstackBANK1  000101
setDigit@data                               cstackBANK1  000101
setDigit@line                               cstackBANK1  000108
setDigit@symbol                             cstackBANK1  000100
setDigit@value                              cstackBANK1  000107
setDigit@value0                             cstackBANK1  000106
stackhi                                     (abs)        000F7F
stacklo                                     (abs)        000A00
start                                       init         00030A
start_initialization                        cinit        003252
system_BlinkReset@val                       cstackBANK1  000100
testTimePoint@_point                        cstackBANK1  000110
testTimePoint@point                         cstackBANK1  000104
testTimePoint@value                         cstackBANK1  000108


FUNCTION INFORMATION:

 *************** function _main *****************
 Defined at:
		line 2221 in file "prog.c"
 Parameters:    Size  Location     Type
		None
 Auto vars:     Size  Location     Type
  i               1  249[BANK1 ] unsigned char 
  i               1  250[BANK1 ] unsigned char 
 Return value:  Size  Location     Type
                  1    wreg      void 
 Registers used:
		wreg, fsr0l, fsr0h, fsr1l, fsr1h, fsr2l, fsr2h, status,2, status,0, tblptrl, tblptrh, tblptru, prodl, prodh, cstack
 Tracked objects:
		On entry : 
		On exit  : 
		Unchanged: 
 Data sizes:     COMRAM   BANK0   BANK1   BANK2   BANK3   BANK4   BANK5   BANK6   BANK7   BANK8   BANK9  BANK10  BANK11  BANK12  BANK13  BANK14  BANK15
      Params:         0       0       0       0       0       0       0       0       0       0       0       0       0       0       0       0       0
      Locals:         0       0       6       0       0       0       0       0       0       0       0       0       0       0       0       0       0
      Temps:          0       0       0       0      12       0       0       0       0       0       0       0       0       0       0       0       0
      Totals:         0       0       6       0      12       0       0       0       0       0       0       0       0       0       0       0       0
Total ram usage:       18 bytes
 Hardware stack levels required when called:   19
 This function calls:
		_CleanStringArray
		_EERD
		___lmul
		_clrInd
		_lcd_on
		_main2
 This function is called by:
		Startup code after reset
 This function uses a non-reentrant model


 *************** function _main2 *****************
 Defined at:
		line 3226 in file "prog.c"
 Parameters:    Size  Location     Type
		None
 Auto vars:     Size  Location     Type
  menu            8  236[BANK1 ] PTR unsigned char [4]
		 -> STR_56(10), STR_55(11), STR_54(12), STR_53(14), 
		 -> STR_52(9), STR_51(15), STR_50(15), STR_49(7), 
		 -> STR_48(6), STR_47(6), STR_46(6), STR_40(12), 
		 -> STR_39(8), STR_38(14), STR_37(9), STR_17(16), 
		 -> STR_16(18), STR_15(17), NULL(0), 
  item            1  244[BANK1 ] unsigned char 
 Return value:  Size  Location     Type
                  1    wreg      void 
 Registers used:
		wreg, fsr0l, fsr0h, fsr1l, fsr1h, fsr2l, fsr2h, status,2, status,0, tblptrl, tblptrh, tblptru, prodl, prodh, cstack
 Tracked objects:
		On entry : 
		On exit  : 
		Unchanged: 
 Data sizes:     COMRAM   BANK0   BANK1   BANK2   BANK3   BANK4   BANK5   BANK6   BANK7   BANK8   BANK9  BANK10  BANK11  BANK12  BANK13  BANK14  BANK15
      Params:         0       0       0       0       0       0       0       0       0       0       0       0       0       0       0       0       0
      Locals:         0       0       9       0       0       0       0       0       0       0       0       0       0       0       0       0       0
      Temps:          0       0       1       0       0       0       0       0       0       0       0       0       0       0       0       0       0
      Totals:         0       0      10       0       0       0       0       0       0       0       0       0       0       0       0       0       0
Total ram usage:       10 bytes
 Hardware stack levels used:    1
 Hardware stack levels required when called:   18
 This function calls:
		_EEWR
		_FillMinutes
		_FindNextTimeStart
		_Init_GSM
		_PhonebookEdit
		_Scheduler
		_Settings
		_ShowMenu
		_TimeToInd
		_WorkingWithGSM
		_clrInd
		_lcd_off
		_lcd_on
 This function is called by:
		_main
 This function uses a non-reentrant model


 *************** function _lcd_on *****************
 Defined at:
		line 1196 in file "prog.c"
 Parameters:    Size  Location     Type
		None
 Auto vars:     Size  Location     Type
		None
 Return value:  Size  Location     Type
                  1    wreg      void 
 Registers used:
		wreg, status,2, status,0, prodl, prodh, cstack
 Tracked objects:
		On entry : 
		On exit  : 
		Unchanged: 
 Data sizes:     COMRAM   BANK0   BANK1   BANK2   BANK3   BANK4   BANK5   BANK6   BANK7   BANK8   BANK9  BANK10  BANK11  BANK12  BANK13  BANK14  BANK15
      Params:         0       0       0       0       0       0       0       0       0       0       0       0       0       0       0       0       0
      Locals:         0       0       0       0       0       0       0       0       0       0       0       0       0       0       0       0       0
      Temps:          0       0       0       0       0       0       0       0       0       0       0       0       0       0       0       0       0
      Totals:         0       0       0       0       0       0       0       0       0       0       0       0       0       0       0       0       0
Total ram usage:        0 bytes
 Hardware stack levels used:    1
 Hardware stack levels required when called:   12
 This function calls:
		_lcd_init
		_lcd_send_byte
 This function is called by:
		_main
		_main2
 This function uses a non-reentrant model


 *************** function _lcd_init *****************
 Defined at:
		line 1203 in file "prog.c"
 Parameters:    Size  Location     Type
		None
 Auto vars:     Size  Location     Type
  INTCON_BUF      1    5[BANK1 ] unsigned char 
 Return value:  Size  Location     Type
                  1    wreg      void 
 Registers used:
		wreg, status,2, status,0, prodl, prodh, cstack
 Tracked objects:
		On entry : 
		On exit  : 
		Unchanged: 
 Data sizes:     COMRAM   BANK0   BANK1   BANK2   BANK3   BANK4   BANK5   BANK6   BANK7   BANK8   BANK9  BANK10  BANK11  BANK12  BANK13  BANK14  BANK15
      Params:         0       0       0       0       0       0       0       0       0       0       0       0       0       0       0       0       0
      Locals:         0       0       1       0       0       0       0       0       0       0       0       0       0       0       0       0       0
      Temps:          0       0       1       0       0       0       0       0       0       0       0       0       0       0       0       0       0
      Totals:         0       0       2       0       0       0       0       0       0       0       0       0       0       0       0       0       0
Total ram usage:        2 bytes
 Hardware stack levels used:    1
 Hardware stack levels required when called:   11
 This function calls:
		_lcd_send_byte
		_lcd_send_initial_half_byte
 This function is called by:
		_lcd_on
 This function uses a non-reentrant model


 *************** function _lcd_off *****************
 Defined at:
		line 1189 in file "prog.c"
 Parameters:    Size  Location     Type
		None
 Auto vars:     Size  Location     Type
		None
 Return value:  Size  Location     Type
                  1    wreg      void 
 Registers used:
		wreg, status,2, status,0, prodl, prodh, cstack
 Tracked objects:
		On entry : 
		On exit  : 
		Unchanged: 
 Data sizes:     COMRAM   BANK0   BANK1   BANK2   BANK3   BANK4   BANK5   BANK6   BANK7   BANK8   BANK9  BANK10  BANK11  BANK12  BANK13  BANK14  BANK15
      Params:         0       0       0       0       0       0       0       0       0       0       0       0       0       0       0       0       0
      Locals:         0       0       0       0       0       0       0       0       0       0       0       0       0       0       0       0       0
      Temps:          0       0       0       0       0       0       0       0       0       0       0       0       0       0       0       0       0
      Totals:         0       0       0       0       0       0       0       0       0       0       0       0       0       0       0       0       0
Total ram usage:        0 bytes
 Hardware stack levels used:    1
 Hardware stack levels required when called:   11
 This function calls:
		_lcd_send_byte
 This function is called by:
		_main2
 This function uses a non-reentrant model


 *************** function _lcd_send_byte *****************
 Defined at:
		line 1182 in file "prog.c"
 Parameters:    Size  Location     Type
  data            1    wreg     unsigned char 
 Auto vars:     Size  Location     Type
  data            1    3[BANK1 ] unsigned char 
 Return value:  Size  Location     Type
                  1    wreg      void 
 Registers used:
		wreg, status,2, status,0, prodl, prodh, cstack
 Tracked objects:
		On entry : 
		On exit  : 
		Unchanged: 
 Data sizes:     COMRAM   BANK0   BANK1   BANK2   BANK3   BANK4   BANK5   BANK6   BANK7   BANK8   BANK9  BANK10  BANK11  BANK12  BANK13  BANK14  BANK15
      Params:         0       0       0       0       0       0       0       0       0       0       0       0       0       0       0       0       0
      Locals:         0       0       1       0       0       0       0       0       0       0       0       0       0       0       0       0       0
      Temps:          0       0       0       0       0       0       0       0       0       0       0       0       0       0       0       0       0
      Totals:         0       0       1       0       0       0       0       0       0       0       0       0       0       0       0       0       0
Total ram usage:        1 bytes
 Hardware stack levels used:    1
 Hardware stack levels required when called:   10
 This function calls:
		_lcd_send_initial_half_byte
 This function is called by:
		_lcd_off
		_lcd_on
		_lcd_init
 This function uses a non-reentrant model


 *************** function _lcd_send_initial_half_byte *****************
 Defined at:
		line 1175 in file "prog.c"
 Parameters:    Size  Location     Type
  data            1    wreg     unsigned char 
 Auto vars:     Size  Location     Type
  data            1    0[BANK1 ] unsigned char 
 Return value:  Size  Location     Type
                  1    wreg      void 
 Registers used:
		wreg, status,2, status,0, prodl, prodh
 Tracked objects:
		On entry : 
		On exit  : 
		Unchanged: 
 Data sizes:     COMRAM   BANK0   BANK1   BANK2   BANK3   BANK4   BANK5   BANK6   BANK7   BANK8   BANK9  BANK10  BANK11  BANK12  BANK13  BANK14  BANK15
      Params:         0       0       0       0       0       0       0       0       0       0       0       0       0       0       0       0       0
      Locals:         0       0       3       0       0       0       0       0       0       0       0       0       0       0       0       0       0
      Temps:          0       0       0       0       0       0       0       0       0       0       0       0       0       0       0       0       0
      Totals:         0       0       3       0       0       0       0       0       0       0       0       0       0       0       0       0       0
Total ram usage:        3 bytes
 Hardware stack levels used:    1
 Hardware stack levels required when called:    9
 This function calls:
		Nothing
 This function is called by:
		_lcd_send_byte
		_lcd_init
 This function uses a non-reentrant model


 *************** function _WorkingWithGSM *****************
 Defined at:
		line 2777 in file "prog.c"
 Parameters:    Size  Location     Type
		None
 Auto vars:     Size  Location     Type
  command         2   33[BANK5 ] PTR unsigned char 
		 -> InputText@ret_string(33), NULL(0), 
  speed           1   37[BANK5 ] unsigned char 
  i               1   38[BANK5 ] unsigned char 
  p               2   35[BANK5 ] PTR unsigned char 
		 -> buff_string_11(256), buff_string_10(256), buff_string_9(256), buff_string_8(256), 
  myOutputStri   33    0[BANK5 ] unsigned char [33]
 Return value:  Size  Location     Type
                  1    wreg      void 
 Registers used:
		wreg, fsr0l, fsr0h, fsr1l, fsr1h, fsr2l, fsr2h, status,2, status,0, tblptrl, tblptrh, tblptru, prodl, prodh, cstack
 Tracked objects:
		On entry : 
		On exit  : 
		Unchanged: 
 Data sizes:     COMRAM   BANK0   BANK1   BANK2   BANK3   BANK4   BANK5   BANK6   BANK7   BANK8   BANK9  BANK10  BANK11  BANK12  BANK13  BANK14  BANK15
      Params:         0       0       0       0       0       0       0       0       0       0       0       0       0       0       0       0       0
      Locals:         0       0       0       0       0       0      39       0       0       0       0       0       0       0       0       0       0
      Temps:          0       0       2       0       0       0       0       0       0       0       0       0       0       0       0       0       0
      Totals:         0       0       2       0       0       0      39       0       0       0       0       0       0       0       0       0       0
Total ram usage:       41 bytes
 Hardware stack levels used:    1
 Hardware stack levels required when called:   13
 This function calls:
		_Init_USART
		_InputText
		_OutputString
		_Save_USART_SpeedNumber
		_SendCommandToUSART
		_USART_Speed_Choise
		_clrInd
 This function is called by:
		_main2
 This function uses a non-reentrant model


 *************** function _TimeToInd *****************
 Defined at:
		line 664 in file "prog.c"
 Parameters:    Size  Location     Type
		None
 Auto vars:     Size  Location     Type
  SignalOn        1  150[BANK1 ] unsigned char 
  d               1  153[BANK1 ] unsigned char 
  SignalOn        1  152[BANK1 ] unsigned char 
  i               1  174[BANK1 ] unsigned char 
  DataArrayOfL   13  111[BANK1 ] unsigned char [13]
  j2              2  177[BANK1 ] int 
  CellsNumber     1  176[BANK1 ] unsigned char 
  i               1  175[BANK1 ] unsigned char 
  D               4  162[BANK1 ] unsigned char [4]
  DataArray      17  133[BANK1 ] unsigned char [17]
  CellsData       8  103[BANK1 ] unsigned char [8]
  Data            4  169[BANK1 ] unsigned long 
  Time            2  182[BANK1 ] unsigned int 
  TimeStop        2  180[BANK1 ] unsigned int 
  DataArray2      2  166[BANK1 ] PTR unsigned char 
		 -> STR_8(3), STR_7(3), STR_6(3), STR_5(3), 
		 -> STR_4(3), STR_3(3), STR_2(3), STR_1(3), 
  TimeStart       2  158[BANK1 ] unsigned int 
  Signals         1  173[BANK1 ] unsigned char 
  Day             1  168[BANK1 ] unsigned char 
  Days            1  161[BANK1 ] unsigned char 
  line            1  160[BANK1 ] unsigned char 
  TimeData        9  124[BANK1 ] unsigned char [9]
  temp            4  184[BANK1 ] long 
  SignalsFinal    1  179[BANK1 ] unsigned char 
  day             1  151[BANK1 ] unsigned char 
 Return value:  Size  Location     Type
                  1    wreg      void 
 Registers used:
		wreg, fsr0l, fsr0h, fsr1l, fsr1h, fsr2l, fsr2h, status,2, status,0, tblptrl, tblptrh, tblptru, prodl, prodh, cstack
 Tracked objects:
		On entry : 
		On exit  : 
		Unchanged: 
 Data sizes:     COMRAM   BANK0   BANK1   BANK2   BANK3   BANK4   BANK5   BANK6   BANK7   BANK8   BANK9  BANK10  BANK11  BANK12  BANK13  BANK14  BANK15
      Params:         0       0       0       0       0       0       0       0       0       0       0       0       0       0       0       0       0
      Locals:         0       0      85       0       0       0       0       0       0       0       0       0       0       0       0       0       0
      Temps:          0       0       2       0       0       0       0       0       0       0       0       0       0       0       0       0       0
      Totals:         0       0      87       0       0       0       0       0       0       0       0       0       0       0       0       0       0
Total ram usage:       87 bytes
 Hardware stack levels used:    1
 Hardware stack levels required when called:   17
 This function calls:
		_FindNextTimeStart
		_GetDayOfWeek
		_OutputString
		_ParseDataRecord
		_ParseTime
		_ReadDataOfCell
		_Scheduler
		___aldiv
		___almod
		___lbdiv
		___lbmod
		___lwdiv
		___lwmod
		_clrInd
		_getNumChar
 This function is called by:
		_main2
 This function uses a non-reentrant model


 *************** function _Scheduler *****************
 Defined at:
		line 1669 in file "prog.c"
 Parameters:    Size  Location     Type
  StartFrom       2   99[BANK1 ] unsigned int 
 Auto vars:     Size  Location     Type
		None
 Return value:  Size  Location     Type
                  1    wreg      void 
 Registers used:
		wreg, fsr0l, fsr0h, fsr1l, fsr1h, fsr2l, fsr2h, status,2, status,0, tblptrl, tblptrh, tblptru, prodl, prodh, cstack
 Tracked objects:
		On entry : 
		On exit  : 
		Unchanged: 
 Data sizes:     COMRAM   BANK0   BANK1   BANK2   BANK3   BANK4   BANK5   BANK6   BANK7   BANK8   BANK9  BANK10  BANK11  BANK12  BANK13  BANK14  BANK15
      Params:         0       0       2       0       0       0       0       0       0       0       0       0       0       0       0       0       0
      Locals:         0       0       0       0       0       0       0       0       0       0       0       0       0       0       0       0       0
      Temps:          0       0       0       0       0       0       0       0       0       0       0       0       0       0       0       0       0
      Totals:         0       0       2       0       0       0       0       0       0       0       0       0       0       0       0       0       0
Total ram usage:        2 bytes
 Hardware stack levels used:    1
 Hardware stack levels required when called:   16
 This function calls:
		_FindCell
		_RefreshSchedulerIndicator
		_ShowSchedulerMenu
		_clrInd
 This function is called by:
		_TimeToInd
		_main2
 This function uses a non-reentrant model


 *************** function _ShowSchedulerMenu *****************
 Defined at:
		line 1642 in file "prog.c"
 Parameters:    Size  Location     Type
  NumberOfCell    2   88[BANK1 ] unsigned int 
 Auto vars:     Size  Location     Type
  menu            8   90[BANK1 ] PTR unsigned char [4]
		 -> STR_56(10), STR_55(11), STR_54(12), STR_53(14), 
		 -> STR_52(9), STR_51(15), STR_50(15), STR_49(7), 
		 -> STR_48(6), STR_47(6), STR_46(6), STR_40(12), 
		 -> STR_39(8), STR_38(14), STR_37(9), STR_17(16), 
		 -> STR_16(18), STR_15(17), NULL(0), 
  item            1   98[BANK1 ] unsigned char 
 Return value:  Size  Location     Type
                  1    wreg      void 
 Registers used:
		wreg, fsr0l, fsr0h, fsr1l, fsr1h, fsr2l, fsr2h, status,2, status,0, tblptrl, tblptrh, tblptru, prodl, prodh, cstack
 Tracked objects:
		On entry : 
		On exit  : 
		Unchanged: 
 Data sizes:     COMRAM   BANK0   BANK1   BANK2   BANK3   BANK4   BANK5   BANK6   BANK7   BANK8   BANK9  BANK10  BANK11  BANK12  BANK13  BANK14  BANK15
      Params:         0       0       2       0       0       0       0       0       0       0       0       0       0       0       0       0       0
      Locals:         0       0       9       0       0       0       0       0       0       0       0       0       0       0       0       0       0
      Temps:          0       0       0       0       0       0       0       0       0       0       0       0       0       0       0       0       0
      Totals:         0       0      11       0       0       0       0       0       0       0       0       0       0       0       0       0       0
Total ram usage:       11 bytes
 Hardware stack levels used:    1
 Hardware stack levels required when called:   15
 This function calls:
		_DeleteDataOfCell
		_EditSchedule
		_Format_EEPROM_Memory
		_SchedulerNew
		_Select_OK_NO
		_ShowMenu
		_clrInd
 This function is called by:
		_Scheduler
 This function uses a non-reentrant model


 *************** function _SchedulerNew *****************
 Defined at:
		line 1699 in file "prog.c"
 Parameters:    Size  Location     Type
  SourceOfReco    2   86[BANK1 ] unsigned int 
 Auto vars:     Size  Location     Type
		None
 Return value:  Size  Location     Type
                  1    wreg      void 
 Registers used:
		wreg, fsr0l, fsr0h, fsr2l, fsr2h, status,2, status,0, tblptrl, tblptrh, tblptru, prodl, prodh, cstack
 Tracked objects:
		On entry : 
		On exit  : 
		Unchanged: 
 Data sizes:     COMRAM   BANK0   BANK1   BANK2   BANK3   BANK4   BANK5   BANK6   BANK7   BANK8   BANK9  BANK10  BANK11  BANK12  BANK13  BANK14  BANK15
      Params:         0       0       2       0       0       0       0       0       0       0       0       0       0       0       0       0       0
      Locals:         0       0       0       0       0       0       0       0       0       0       0       0       0       0       0       0       0
      Temps:          0       0       0       0       0       0       0       0       0       0       0       0       0       0       0       0       0
      Totals:         0       0       2       0       0       0       0       0       0       0       0       0       0       0       0       0       0
Total ram usage:        2 bytes
 Hardware stack levels used:    1
 Hardware stack levels required when called:   14
 This function calls:
		_EditSchedule
		_FindCell
		_RefreshSchedulerIndicator
		_clrInd
 This function is called by:
		_ShowSchedulerMenu
 This function uses a non-reentrant model


 *************** function _RefreshSchedulerIndicator *****************
 Defined at:
		line 1308 in file "prog.c"
 Parameters:    Size  Location     Type
  adress          2   55[BANK1 ] unsigned int 
  New             1   57[BANK1 ] unsigned char 
  CopyFrom        2   58[BANK1 ] unsigned int 
 Auto vars:     Size  Location     Type
  num             3   73[BANK1 ] unsigned char [3]
  num             3   70[BANK1 ] unsigned char [3]
  i               1   85[BANK1 ] unsigned char 
  CellsData       8   62[BANK1 ] unsigned char [8]
  Data            4   78[BANK1 ] unsigned long 
  cell            2   83[BANK1 ] unsigned int 
  CellIsEmpty     1   82[BANK1 ] unsigned char 
 Return value:  Size  Location     Type
                  2   55[BANK1 ] unsigned int 
 Registers used:
		wreg, fsr0l, fsr0h, fsr2l, fsr2h, status,2, status,0, tblptrl, tblptrh, tblptru, prodl, prodh, cstack
 Tracked objects:
		On entry : 
		On exit  : 
		Unchanged: 
 Data sizes:     COMRAM   BANK0   BANK1   BANK2   BANK3   BANK4   BANK5   BANK6   BANK7   BANK8   BANK9  BANK10  BANK11  BANK12  BANK13  BANK14  BANK15
      Params:         0       0       5       0       0       0       0       0       0       0       0       0       0       0       0       0       0
      Locals:         0       0      24       0       0       0       0       0       0       0       0       0       0       0       0       0       0
      Temps:          0       0       2       0       0       0       0       0       0       0       0       0       0       0       0       0       0
      Totals:         0       0      31       0       0       0       0       0       0       0       0       0       0       0       0       0       0
Total ram usage:       31 bytes
 Hardware stack levels used:    1
 Hardware stack levels required when called:   13
 This function calls:
		_FindCell
		_NumericToString
		_OutputString
		_ReadDataOfCell
 This function is called by:
		_Scheduler
		_SchedulerNew
 This function uses a non-reentrant model


 *************** function _FindCell *****************
 Defined at:
		line 1275 in file "prog.c"
 Parameters:    Size  Location     Type
  adressStart     2   29[BANK1 ] unsigned int 
  New             1   31[BANK1 ] unsigned char 
  previous        2   32[BANK1 ] unsigned int 
 Auto vars:     Size  Location     Type
  i               1   52[BANK1 ] unsigned char 
  CellsData       8   35[BANK1 ] unsigned char [8]
  Data            4   47[BANK1 ] unsigned long 
  CellIsEmpty     1   51[BANK1 ] unsigned char 
  adress          2   53[BANK1 ] unsigned int 
  adressNew       2   43[BANK1 ] unsigned int 
 Return value:  Size  Location     Type
                  2   29[BANK1 ] unsigned int 
 Registers used:
		wreg, fsr2l, fsr2h, status,2, status,0, cstack
 Tracked objects:
		On entry : 
		On exit  : 
		Unchanged: 
 Data sizes:     COMRAM   BANK0   BANK1   BANK2   BANK3   BANK4   BANK5   BANK6   BANK7   BANK8   BANK9  BANK10  BANK11  BANK12  BANK13  BANK14  BANK15
      Params:         0       0       5       0       0       0       0       0       0       0       0       0       0       0       0       0       0
      Locals:         0       0      20       0       0       0       0       0       0       0       0       0       0       0       0       0       0
      Temps:          0       0       1       0       0       0       0       0       0       0       0       0       0       0       0       0       0
      Totals:         0       0      26       0       0       0       0       0       0       0       0       0       0       0       0       0       0
Total ram usage:       26 bytes
 Hardware stack levels used:    1
 Hardware stack levels required when called:   12
 This function calls:
		_ReadDataOfCell
 This function is called by:
		_RefreshSchedulerIndicator
		_Scheduler
		_SchedulerNew
 This function uses a non-reentrant model


 *************** function _EditSchedule *****************
 Defined at:
		line 1452 in file "prog.c"
 Parameters:    Size  Location     Type
  adress          2    0[BANK1 ] unsigned int 
  SourceOfReco    2    2[BANK1 ] unsigned int 
 Auto vars:     Size  Location     Type
		None
 Return value:  Size  Location     Type
                  1    wreg      unsigned char 
 Registers used:
		None
 Tracked objects:
		On entry : 
		On exit  : 
		Unchanged: 
 Data sizes:     COMRAM   BANK0   BANK1   BANK2   BANK3   BANK4   BANK5   BANK6   BANK7   BANK8   BANK9  BANK10  BANK11  BANK12  BANK13  BANK14  BANK15
      Params:         0       0       4       0       0       0       0       0       0       0       0       0       0       0       0       0       0
      Locals:         0       0       0       0       0       0       0       0       0       0       0       0       0       0       0       0       0
      Temps:          0       0       0       0       0       0       0       0       0       0       0       0       0       0       0       0       0
      Totals:         0       0       4       0       0       0       0       0       0       0       0       0       0       0       0       0       0
Total ram usage:        4 bytes
 Hardware stack levels used:    1
 Hardware stack levels required when called:    9
 This function calls:
		Nothing
 This function is called by:
		_ShowSchedulerMenu
		_SchedulerNew
 This function uses a non-reentrant model


 *************** function _DeleteDataOfCell *****************
 Defined at:
		line 1446 in file "prog.c"
 Parameters:    Size  Location     Type
  TargetAdress    2   13[BANK1 ] unsigned int 
 Auto vars:     Size  Location     Type
  CellsData       8   15[BANK1 ] unsigned char [8]
 Return value:  Size  Location     Type
                  1    wreg      void 
 Registers used:
		wreg, fsr2l, fsr2h, status,2, status,0, cstack
 Tracked objects:
		On entry : 
		On exit  : 
		Unchanged: 
 Data sizes:     COMRAM   BANK0   BANK1   BANK2   BANK3   BANK4   BANK5   BANK6   BANK7   BANK8   BANK9  BANK10  BANK11  BANK12  BANK13  BANK14  BANK15
      Params:         0       0       2       0       0       0       0       0       0       0       0       0       0       0       0       0       0
      Locals:         0       0       8       0       0       0       0       0       0       0       0       0       0       0       0       0       0
      Temps:          0       0       0       0       0       0       0       0       0       0       0       0       0       0       0       0       0
      Totals:         0       0      10       0       0       0       0       0       0       0       0       0       0       0       0       0       0
Total ram usage:       10 bytes
 Hardware stack levels used:    1
 Hardware stack levels required when called:   11
 This function calls:
		_CleanStringArray
		_WriteArrayToEEPROM
 This function is called by:
		_ShowSchedulerMenu
 This function uses a non-reentrant model


 *************** function _ParseTime *****************
 Defined at:
		line 1726 in file "prog.c"
 Parameters:    Size  Location     Type
  TimeValue       4   14[BANK1 ] long 
  Time            2   18[BANK1 ] PTR unsigned int 
		 -> TimeToInd@Time(2), 
  Day             2   20[BANK1 ] PTR unsigned char 
		 -> TimeToInd@Day(1), 
 Auto vars:     Size  Location     Type
  DayTime         2   22[BANK1 ] unsigned int 
 Return value:  Size  Location     Type
                  1    wreg      void 
 Registers used:
		wreg, fsr2l, fsr2h, status,2, status,0, cstack
 Tracked objects:
		On entry : 
		On exit  : 
		Unchanged: 
 Data sizes:     COMRAM   BANK0   BANK1   BANK2   BANK3   BANK4   BANK5   BANK6   BANK7   BANK8   BANK9  BANK10  BANK11  BANK12  BANK13  BANK14  BANK15
      Params:         0       0       8       0       0       0       0       0       0       0       0       0       0       0       0       0       0
      Locals:         0       0       2       0       0       0       0       0       0       0       0       0       0       0       0       0       0
      Temps:          0       0       0       0       0       0       0       0       0       0       0       0       0       0       0       0       0
      Totals:         0       0      10       0       0       0       0       0       0       0       0       0       0       0       0       0       0
Total ram usage:       10 bytes
 Hardware stack levels used:    1
 Hardware stack levels required when called:   10
 This function calls:
		___aldiv
		___lwdiv
		___lwmod
 This function is called by:
		_TimeToInd
 This function uses a non-reentrant model


 *************** function ___lwmod *****************
 Defined at:
		line 8 in file "/opt/microchip/xc8/v1.37/sources/common/lwmod.c"
 Parameters:    Size  Location     Type
  dividend        2    0[BANK1 ] unsigned int 
  divisor         2    2[BANK1 ] unsigned int 
 Auto vars:     Size  Location     Type
  counter         1    4[BANK1 ] unsigned char 
 Return value:  Size  Location     Type
                  2    0[BANK1 ] unsigned int 
 Registers used:
		wreg, status,2, status,0
 Tracked objects:
		On entry : 
		On exit  : 
		Unchanged: 
 Data sizes:     COMRAM   BANK0   BANK1   BANK2   BANK3   BANK4   BANK5   BANK6   BANK7   BANK8   BANK9  BANK10  BANK11  BANK12  BANK13  BANK14  BANK15
      Params:         0       0       4       0       0       0       0       0       0       0       0       0       0       0       0       0       0
      Locals:         0       0       1       0       0       0       0       0       0       0       0       0       0       0       0       0       0
      Temps:          0       0       0       0       0       0       0       0       0       0       0       0       0       0       0       0       0
      Totals:         0       0       5       0       0       0       0       0       0       0       0       0       0       0       0       0       0
Total ram usage:        5 bytes
 Hardware stack levels used:    1
 Hardware stack levels required when called:    9
 This function calls:
		Nothing
 This function is called by:
		_TimeToInd
		_ParseTime
 This function uses a non-reentrant model


 *************** function _GetDayOfWeek *****************
 Defined at:
		line 645 in file "prog.c"
 Parameters:    Size  Location     Type
  day             1    wreg     unsigned char 
 Auto vars:     Size  Location     Type
  day             1    2[BANK1 ] unsigned char 
 Return value:  Size  Location     Type
                  2    0[BANK1 ] PTR unsigned char 
 Registers used:
		wreg, status,2, status,0
 Tracked objects:
		On entry : 
		On exit  : 
		Unchanged: 
 Data sizes:     COMRAM   BANK0   BANK1   BANK2   BANK3   BANK4   BANK5   BANK6   BANK7   BANK8   BANK9  BANK10  BANK11  BANK12  BANK13  BANK14  BANK15
      Params:         0       0       2       0       0       0       0       0       0       0       0       0       0       0       0       0       0
      Locals:         0       0       1       0       0       0       0       0       0       0       0       0       0       0       0       0       0
      Temps:          0       0       0       0       0       0       0       0       0       0       0       0       0       0       0       0       0
      Totals:         0       0       3       0       0       0       0       0       0       0       0       0       0       0       0       0       0
Total ram usage:        3 bytes
 Hardware stack levels used:    1
 Hardware stack levels required when called:    9
 This function calls:
		Nothing
 This function is called by:
		_TimeToInd
 This function uses a non-reentrant model


 *************** function _FindNextTimeStart *****************
 Defined at:
		line 1744 in file "prog.c"
 Parameters:    Size  Location     Type
  TimeFrom        1    wreg     PTR unsigned long 
		 -> NearTimeStart(4), 
 Auto vars:     Size  Location     Type
  TimeFrom        1   72[BANK1 ] PTR unsigned long 
		 -> NearTimeStart(4), 
  TimeOfSignal    4   61[BANK1 ] unsigned long 
  DayOn           1   47[BANK1 ] unsigned char 
  DayIndex        1   67[BANK1 ] unsigned char 
  CellsData       8   35[BANK1 ] unsigned char [8]
  Data            4   68[BANK1 ] unsigned long 
  TimeStart       2   56[BANK1 ] unsigned int 
  TimeStop        2   50[BANK1 ] unsigned int 
  Days            1   60[BANK1 ] unsigned char 
  Signals         1   59[BANK1 ] unsigned char 
  LastFoundTim    4   52[BANK1 ] unsigned long 
  adress          2   65[BANK1 ] unsigned int 
  adressStart     2   48[BANK1 ] unsigned int 
  TimeIsFound     1   58[BANK1 ] unsigned char 
 Return value:  Size  Location     Type
                  2   29[BANK1 ] unsigned int 
 Registers used:
		wreg, fsr2l, fsr2h, status,2, status,0, cstack
 Tracked objects:
		On entry : 
		On exit  : 
		Unchanged: 
 Data sizes:     COMRAM   BANK0   BANK1   BANK2   BANK3   BANK4   BANK5   BANK6   BANK7   BANK8   BANK9  BANK10  BANK11  BANK12  BANK13  BANK14  BANK15
      Params:         0       0       2       0       0       0       0       0       0       0       0       0       0       0       0       0       0
      Locals:         0       0      38       0       0       0       0       0       0       0       0       0       0       0       0       0       0
      Temps:          0       0       4       0       0       0       0       0       0       0       0       0       0       0       0       0       0
      Totals:         0       0      44       0       0       0       0       0       0       0       0       0       0       0       0       0       0
Total ram usage:       44 bytes
 Hardware stack levels used:    1
 Hardware stack levels required when called:   12
 This function calls:
		_ParseDataRecord
		_ReadDataOfCell
		___lmul
 This function is called by:
		_TimeToInd
		_main2
 This function uses a non-reentrant model


 *************** function _ReadDataOfCell *****************
 Defined at:
		line 1412 in file "prog.c"
 Parameters:    Size  Location     Type
  CellsData       2   13[BANK1 ] PTR unsigned char 
		 -> FindNextTimeStart@CellsData(8), RefreshSchedulerIndicator@CellsData(8), FindCell@CellsData(8), TimeToInd@CellsData(8), 
  Data            2   15[BANK1 ] PTR unsigned long 
		 -> FindNextTimeStart@Data(4), RefreshSchedulerIndicator@Data(4), FindCell@Data(4), TimeToInd@Data(4), 
  TargetAdress    2   17[BANK1 ] unsigned int 
 Auto vars:     Size  Location     Type
  i               2   27[BANK1 ] int 
 Return value:  Size  Location     Type
                  1    wreg      void 
 Registers used:
		wreg, fsr2l, fsr2h, status,2, status,0, cstack
 Tracked objects:
		On entry : 
		On exit  : 
		Unchanged: 
 Data sizes:     COMRAM   BANK0   BANK1   BANK2   BANK3   BANK4   BANK5   BANK6   BANK7   BANK8   BANK9  BANK10  BANK11  BANK12  BANK13  BANK14  BANK15
      Params:         0       0       6       0       0       0       0       0       0       0       0       0       0       0       0       0       0
      Locals:         0       0       2       0       0       0       0       0       0       0       0       0       0       0       0       0       0
      Temps:          0       0       8       0       0       0       0       0       0       0       0       0       0       0       0       0       0
      Totals:         0       0      16       0       0       0       0       0       0       0       0       0       0       0       0       0       0
Total ram usage:       16 bytes
 Hardware stack levels used:    1
 Hardware stack levels required when called:   11
 This function calls:
		_FillArrayFromEEPROM
 This function is called by:
		_TimeToInd
		_FindCell
		_RefreshSchedulerIndicator
		_FindNextTimeStart
 This function uses a non-reentrant model


 *************** function _ParseDataRecord *****************
 Defined at:
		line 1732 in file "prog.c"
 Parameters:    Size  Location     Type
  Data            4    0[BANK1 ] unsigned long 
  TimeStart       2    4[BANK1 ] PTR unsigned int 
		 -> FindNextTimeStart@TimeStart(2), TimeToInd@TimeStart(2), 
  TimeStop        2    6[BANK1 ] PTR unsigned int 
		 -> FindNextTimeStart@TimeStop(2), TimeToInd@TimeStop(2), 
  Days            2    8[BANK1 ] PTR unsigned char 
		 -> FindNextTimeStart@Days(1), TimeToInd@Days(1), 
  Signals         2   10[BANK1 ] PTR unsigned char 
		 -> FindNextTimeStart@Signals(1), TimeToInd@Signals(1), 
 Auto vars:     Size  Location     Type
		None
 Return value:  Size  Location     Type
                  1    wreg      void 
 Registers used:
		wreg, fsr2l, fsr2h, status,2, status,0
 Tracked objects:
		On entry : 
		On exit  : 
		Unchanged: 
 Data sizes:     COMRAM   BANK0   BANK1   BANK2   BANK3   BANK4   BANK5   BANK6   BANK7   BANK8   BANK9  BANK10  BANK11  BANK12  BANK13  BANK14  BANK15
      Params:         0       0      12       0       0       0       0       0       0       0       0       0       0       0       0       0       0
      Locals:         0       0       0       0       0       0       0       0       0       0       0       0       0       0       0       0       0
      Temps:          0       0       4       0       0       0       0       0       0       0       0       0       0       0       0       0       0
      Totals:         0       0      16       0       0       0       0       0       0       0       0       0       0       0       0       0       0
Total ram usage:       16 bytes
 Hardware stack levels used:    1
 Hardware stack levels required when called:    9
 This function calls:
		Nothing
 This function is called by:
		_TimeToInd
		_FindNextTimeStart
 This function uses a non-reentrant model


 *************** function _Settings *****************
 Defined at:
		line 3197 in file "prog.c"
 Parameters:    Size  Location     Type
		None
 Auto vars:     Size  Location     Type
  speed           1  198[BANK1 ] unsigned char 
  menu           10  188[BANK1 ] PTR unsigned char [5]
		 -> STR_56(10), STR_55(11), STR_54(12), STR_53(14), 
		 -> STR_52(9), STR_51(15), STR_50(15), STR_49(7), 
		 -> STR_48(6), STR_47(6), STR_46(6), STR_40(12), 
		 -> STR_39(8), STR_38(14), STR_37(9), STR_17(16), 
		 -> STR_16(18), STR_15(17), NULL(0), 
  item            1  199[BANK1 ] unsigned char 
 Return value:  Size  Location     Type
                  1    wreg      void 
 Registers used:
		wreg, fsr0l, fsr0h, fsr1l, fsr1h, fsr2l, fsr2h, status,2, status,0, tblptrl, tblptrh, tblptru, prodl, prodh, cstack
 Tracked objects:
		On entry : 
		On exit  : 
		Unchanged: 
 Data sizes:     COMRAM   BANK0   BANK1   BANK2   BANK3   BANK4   BANK5   BANK6   BANK7   BANK8   BANK9  BANK10  BANK11  BANK12  BANK13  BANK14  BANK15
      Params:         0       0       0       0       0       0       0       0       0       0       0       0       0       0       0       0       0
      Locals:         0       0      12       0       0       0       0       0       0       0       0       0       0       0       0       0       0
      Temps:          0       0       0       0       0       0       0       0       0       0       0       0       0       0       0       0       0
      Totals:         0       0      12       0       0       0       0       0       0       0       0       0       0       0       0       0       0
Total ram usage:       12 bytes
 Hardware stack levels used:    1
 Hardware stack levels required when called:   13
 This function calls:
		_Format_EEPROM_Memory
		_Init_GSM
		_Save_USART_SpeedNumber
		_ShowMenu
		_TimeEdit
		_USART_Speed_Choise
 This function is called by:
		_main2
 This function uses a non-reentrant model


 *************** function _USART_Speed_Choise *****************
 Defined at:
		line 3185 in file "prog.c"
 Parameters:    Size  Location     Type
		None
 Auto vars:     Size  Location     Type
  menu           10   29[BANK1 ] PTR unsigned char [5]
		 -> STR_56(10), STR_55(11), STR_54(12), STR_53(14), 
		 -> STR_52(9), STR_51(15), STR_50(15), STR_49(7), 
		 -> STR_48(6), STR_47(6), STR_46(6), STR_40(12), 
		 -> STR_39(8), STR_38(14), STR_37(9), STR_17(16), 
		 -> STR_16(18), STR_15(17), NULL(0), 
 Return value:  Size  Location     Type
                  1    wreg      unsigned char 
 Registers used:
		wreg, fsr0l, fsr0h, fsr1l, fsr1h, fsr2l, fsr2h, status,2, status,0, tblptrl, tblptrh, tblptru, prodl, prodh, cstack
 Tracked objects:
		On entry : 
		On exit  : 
		Unchanged: 
 Data sizes:     COMRAM   BANK0   BANK1   BANK2   BANK3   BANK4   BANK5   BANK6   BANK7   BANK8   BANK9  BANK10  BANK11  BANK12  BANK13  BANK14  BANK15
      Params:         0       0       0       0       0       0       0       0       0       0       0       0       0       0       0       0       0
      Locals:         0       0      10       0       0       0       0       0       0       0       0       0       0       0       0       0       0
      Temps:          0       0       0       0       0       0       0       0       0       0       0       0       0       0       0       0       0
      Totals:         0       0      10       0       0       0       0       0       0       0       0       0       0       0       0       0       0
Total ram usage:       10 bytes
 Hardware stack levels used:    1
 Hardware stack levels required when called:   12
 This function calls:
		_Read_USART_SpeedNumber
		_ShowMenu
 This function is called by:
		_WorkingWithGSM
		_Settings
 This function uses a non-reentrant model


 *************** function _TimeEdit *****************
 Defined at:
		line 917 in file "prog.c"
 Parameters:    Size  Location     Type
		None
 Auto vars:     Size  Location     Type
  MonthDays      12   39[BANK1 ] unsigned char [12]
  month           1  120[BANK1 ] unsigned char 
  t               1  151[BANK1 ] unsigned char 
  i               1  145[BANK1 ] unsigned char 
  i               1  144[BANK1 ] unsigned char 
  i               1  143[BANK1 ] unsigned char 
  _date          40   59[BANK1 ] struct .[10]
  TimeData       32  156[BANK1 ] struct .
  symb_array     22  121[BANK1 ] PTR struct .[11]
		 -> TimeEdit@_date(40), TimeEdit@_weekday(4), TimeEdit@_time(20), 
  _time          20  100[BANK1 ] struct .[5]
  _weekday        4  152[BANK1 ] struct .[1]
  temp            4  147[BANK1 ] long 
  n               4   51[BANK1 ] long 
  blinking        1  146[BANK1 ] unsigned char 
  input           1   99[BANK1 ] unsigned char 
 Return value:  Size  Location     Type
                  1    wreg      void 
 Registers used:
		wreg, fsr0l, fsr0h, fsr1l, fsr1h, fsr2l, fsr2h, status,2, status,0, prodl, prodh, cstack
 Tracked objects:
		On entry : 
		On exit  : 
		Unchanged: 
 Data sizes:     COMRAM   BANK0   BANK1   BANK2   BANK3   BANK4   BANK5   BANK6   BANK7   BANK8   BANK9  BANK10  BANK11  BANK12  BANK13  BANK14  BANK15
      Params:         0       0       0       0       0       0       0       0       0       0       0       0       0       0       0       0       0
      Locals:         0       0     149       0       0       0       0       0       0       0       0       0       0       0       0       0       0
      Temps:          0       0      12       0       0       0       0       0       0       0       0       0       0       0       0       0       0
      Totals:         0       0     161       0       0       0       0       0       0       0       0       0       0       0       0       0       0
Total ram usage:      161 bytes
 Hardware stack levels used:    1
 Hardware stack levels required when called:   12
 This function calls:
		_ReIndTimeEdit
		_TimeData_BlinkOFF
		_TimeData_INIT
		___aldiv
		___almod
		___lbdiv
		___lbmod
		___lmul
		_clrInd
		_entNum
 This function is called by:
		_Settings
 This function uses a non-reentrant model


 *************** function _entNum *****************
 Defined at:
		line 623 in file "prog.c"
 Parameters:    Size  Location     Type
  borderDown      1    wreg     unsigned char 
  borderUp        1    0[BANK1 ] unsigned char 
 Auto vars:     Size  Location     Type
  borderDown      1    1[BANK1 ] unsigned char 
  KeyValue        1    2[BANK1 ] unsigned char 
 Return value:  Size  Location     Type
                  1    wreg      unsigned char 
 Registers used:
		wreg, status,2, status,0
 Tracked objects:
		On entry : 
		On exit  : 
		Unchanged: 
 Data sizes:     COMRAM   BANK0   BANK1   BANK2   BANK3   BANK4   BANK5   BANK6   BANK7   BANK8   BANK9  BANK10  BANK11  BANK12  BANK13  BANK14  BANK15
      Params:         0       0       1       0       0       0       0       0       0       0       0       0       0       0       0       0       0
      Locals:         0       0       2       0       0       0       0       0       0       0       0       0       0       0       0       0       0
      Temps:          0       0       0       0       0       0       0       0       0       0       0       0       0       0       0       0       0
      Totals:         0       0       3       0       0       0       0       0       0       0       0       0       0       0       0       0       0
Total ram usage:        3 bytes
 Hardware stack levels used:    1
 Hardware stack levels required when called:    9
 This function calls:
		Nothing
 This function is called by:
		_TimeEdit
 This function uses a non-reentrant model


 *************** function ___lmul *****************
 Defined at:
		line 15 in file "/opt/microchip/xc8/v1.37/sources/common/Umul32.c"
 Parameters:    Size  Location     Type
  multiplier      4    0[BANK1 ] unsigned long 
  multiplicand    4    4[BANK1 ] unsigned long 
 Auto vars:     Size  Location     Type
  product         4    8[BANK1 ] unsigned long 
 Return value:  Size  Location     Type
                  4    0[BANK1 ] unsigned long 
 Registers used:
		wreg, status,2, status,0
 Tracked objects:
		On entry : 
		On exit  : 
		Unchanged: 
 Data sizes:     COMRAM   BANK0   BANK1   BANK2   BANK3   BANK4   BANK5   BANK6   BANK7   BANK8   BANK9  BANK10  BANK11  BANK12  BANK13  BANK14  BANK15
      Params:         0       0       8       0       0       0       0       0       0       0       0       0       0       0       0       0       0
      Locals:         0       0       4       0       0       0       0       0       0       0       0       0       0       0       0       0       0
      Temps:          0       0       0       0       0       0       0       0       0       0       0       0       0       0       0       0       0
      Totals:         0       0      12       0       0       0       0       0       0       0       0       0       0       0       0       0       0
Total ram usage:       12 bytes
 Hardware stack levels used:    1
 Hardware stack levels required when called:    9
 This function calls:
		Nothing
 This function is called by:
		_TimeEdit
		_FindNextTimeStart
		_main
 This function uses a non-reentrant model


 *************** function ___lbmod *****************
 Defined at:
		line 4 in file "/opt/microchip/xc8/v1.37/sources/common/lbmod.c"
 Parameters:    Size  Location     Type
  dividend        1    wreg     unsigned char 
  divisor         1    0[BANK1 ] unsigned char 
 Auto vars:     Size  Location     Type
  dividend        1    1[BANK1 ] unsigned char 
  rem             1    3[BANK1 ] unsigned char 
  counter         1    2[BANK1 ] unsigned char 
 Return value:  Size  Location     Type
                  1    wreg      unsigned char 
 Registers used:
		wreg, status,2, status,0
 Tracked objects:
		On entry : 
		On exit  : 
		Unchanged: 
 Data sizes:     COMRAM   BANK0   BANK1   BANK2   BANK3   BANK4   BANK5   BANK6   BANK7   BANK8   BANK9  BANK10  BANK11  BANK12  BANK13  BANK14  BANK15
      Params:         0       0       1       0       0       0       0       0       0       0       0       0       0       0       0       0       0
      Locals:         0       0       3       0       0       0       0       0       0       0       0       0       0       0       0       0       0
      Temps:          0       0       0       0       0       0       0       0       0       0       0       0       0       0       0       0       0
      Totals:         0       0       4       0       0       0       0       0       0       0       0       0       0       0       0       0       0
Total ram usage:        4 bytes
 Hardware stack levels used:    1
 Hardware stack levels required when called:    9
 This function calls:
		Nothing
 This function is called by:
		_TimeToInd
		_TimeEdit
 This function uses a non-reentrant model


 *************** function ___lbdiv *****************
 Defined at:
		line 4 in file "/opt/microchip/xc8/v1.37/sources/common/lbdiv.c"
 Parameters:    Size  Location     Type
  dividend        1    wreg     unsigned char 
  divisor         1    0[BANK1 ] unsigned char 
 Auto vars:     Size  Location     Type
  dividend        1    1[BANK1 ] unsigned char 
  quotient        1    3[BANK1 ] unsigned char 
  counter         1    2[BANK1 ] unsigned char 
 Return value:  Size  Location     Type
                  1    wreg      unsigned char 
 Registers used:
		wreg, status,2, status,0
 Tracked objects:
		On entry : 
		On exit  : 
		Unchanged: 
 Data sizes:     COMRAM   BANK0   BANK1   BANK2   BANK3   BANK4   BANK5   BANK6   BANK7   BANK8   BANK9  BANK10  BANK11  BANK12  BANK13  BANK14  BANK15
      Params:         0       0       1       0       0       0       0       0       0       0       0       0       0       0       0       0       0
      Locals:         0       0       3       0       0       0       0       0       0       0       0       0       0       0       0       0       0
      Temps:          0       0       0       0       0       0       0       0       0       0       0       0       0       0       0       0       0
      Totals:         0       0       4       0       0       0       0       0       0       0       0       0       0       0       0       0       0
Total ram usage:        4 bytes
 Hardware stack levels used:    1
 Hardware stack levels required when called:    9
 This function calls:
		Nothing
 This function is called by:
		_TimeToInd
		_TimeEdit
 This function uses a non-reentrant model


 *************** function ___almod *****************
 Defined at:
		line 8 in file "/opt/microchip/xc8/v1.37/sources/common/almod.c"
 Parameters:    Size  Location     Type
  dividend        4    0[BANK1 ] long 
  divisor         4    4[BANK1 ] long 
 Auto vars:     Size  Location     Type
  sign            1    9[BANK1 ] unsigned char 
  counter         1    8[BANK1 ] unsigned char 
 Return value:  Size  Location     Type
                  4    0[BANK1 ] long 
 Registers used:
		wreg, status,2, status,0
 Tracked objects:
		On entry : 
		On exit  : 
		Unchanged: 
 Data sizes:     COMRAM   BANK0   BANK1   BANK2   BANK3   BANK4   BANK5   BANK6   BANK7   BANK8   BANK9  BANK10  BANK11  BANK12  BANK13  BANK14  BANK15
      Params:         0       0       8       0       0       0       0       0       0       0       0       0       0       0       0       0       0
      Locals:         0       0       2       0       0       0       0       0       0       0       0       0       0       0       0       0       0
      Temps:          0       0       0       0       0       0       0       0       0       0       0       0       0       0       0       0       0
      Totals:         0       0      10       0       0       0       0       0       0       0       0       0       0       0       0       0       0
Total ram usage:       10 bytes
 Hardware stack levels used:    1
 Hardware stack levels required when called:    9
 This function calls:
		Nothing
 This function is called by:
		_TimeToInd
		_TimeEdit
 This function uses a non-reentrant model


 *************** function ___aldiv *****************
 Defined at:
		line 8 in file "/opt/microchip/xc8/v1.37/sources/common/aldiv.c"
 Parameters:    Size  Location     Type
  dividend        4    0[BANK1 ] long 
  divisor         4    4[BANK1 ] long 
 Auto vars:     Size  Location     Type
  quotient        4   10[BANK1 ] long 
  sign            1    9[BANK1 ] unsigned char 
  counter         1    8[BANK1 ] unsigned char 
 Return value:  Size  Location     Type
                  4    0[BANK1 ] long 
 Registers used:
		wreg, status,2, status,0
 Tracked objects:
		On entry : 
		On exit  : 
		Unchanged: 
 Data sizes:     COMRAM   BANK0   BANK1   BANK2   BANK3   BANK4   BANK5   BANK6   BANK7   BANK8   BANK9  BANK10  BANK11  BANK12  BANK13  BANK14  BANK15
      Params:         0       0       8       0       0       0       0       0       0       0       0       0       0       0       0       0       0
      Locals:         0       0       6       0       0       0       0       0       0       0       0       0       0       0       0       0       0
      Temps:          0       0       0       0       0       0       0       0       0       0       0       0       0       0       0       0       0
      Totals:         0       0      14       0       0       0       0       0       0       0       0       0       0       0       0       0       0
Total ram usage:       14 bytes
 Hardware stack levels used:    1
 Hardware stack levels required when called:    9
 This function calls:
		Nothing
 This function is called by:
		_TimeToInd
		_TimeEdit
		_ParseTime
 This function uses a non-reentrant model


 *************** function _TimeData_INIT *****************
 Defined at:
		line 897 in file "prog.c"
 Parameters:    Size  Location     Type
  TimeData        2    0[BANK1 ] PTR struct .
		 -> TimeEdit@TimeData(32), 
 Auto vars:     Size  Location     Type
  i               1    7[BANK1 ] unsigned char 
  i               1    6[BANK1 ] unsigned char 
 Return value:  Size  Location     Type
                  1    wreg      void 
 Registers used:
		wreg, fsr1l, fsr1h, fsr2l, fsr2h, status,2, status,0, prodl, prodh
 Tracked objects:
		On entry : 
		On exit  : 
		Unchanged: 
 Data sizes:     COMRAM   BANK0   BANK1   BANK2   BANK3   BANK4   BANK5   BANK6   BANK7   BANK8   BANK9  BANK10  BANK11  BANK12  BANK13  BANK14  BANK15
      Params:         0       0       2       0       0       0       0       0       0       0       0       0       0       0       0       0       0
      Locals:         0       0       2       0       0       0       0       0       0       0       0       0       0       0       0       0       0
      Temps:          0       0       4       0       0       0       0       0       0       0       0       0       0       0       0       0       0
      Totals:         0       0       8       0       0       0       0       0       0       0       0       0       0       0       0       0       0
Total ram usage:        8 bytes
 Hardware stack levels used:    1
 Hardware stack levels required when called:    9
 This function calls:
		Nothing
 This function is called by:
		_TimeEdit
 This function uses a non-reentrant model


 *************** function _TimeData_BlinkOFF *****************
 Defined at:
		line 891 in file "prog.c"
 Parameters:    Size  Location     Type
  TimeData        2    6[BANK1 ] PTR struct .
		 -> TimeEdit@TimeData(32), 
 Auto vars:     Size  Location     Type
		None
 Return value:  Size  Location     Type
                  1    wreg      void 
 Registers used:
		wreg, fsr2l, fsr2h, status,2, status,0, prodl, prodh, cstack
 Tracked objects:
		On entry : 
		On exit  : 
		Unchanged: 
 Data sizes:     COMRAM   BANK0   BANK1   BANK2   BANK3   BANK4   BANK5   BANK6   BANK7   BANK8   BANK9  BANK10  BANK11  BANK12  BANK13  BANK14  BANK15
      Params:         0       0       2       0       0       0       0       0       0       0       0       0       0       0       0       0       0
      Locals:         0       0       0       0       0       0       0       0       0       0       0       0       0       0       0       0       0
      Temps:          0       0       0       0       0       0       0       0       0       0       0       0       0       0       0       0       0
      Totals:         0       0       2       0       0       0       0       0       0       0       0       0       0       0       0       0       0
Total ram usage:        2 bytes
 Hardware stack levels used:    1
 Hardware stack levels required when called:   10
 This function calls:
		_InteractiveData_BlinkOFF
 This function is called by:
		_TimeEdit
 This function uses a non-reentrant model


 *************** function _ReIndTimeEdit *****************
 Defined at:
		line 863 in file "prog.c"
 Parameters:    Size  Location     Type
  TimeData        2   18[BANK1 ] PTR struct .
		 -> TimeEdit@TimeData(32), 
 Auto vars:     Size  Location     Type
  i               1   26[BANK1 ] unsigned char 
  i               1   25[BANK1 ] unsigned char 
  n               1    0        unsigned char 
 Return value:  Size  Location     Type
                  1    wreg      void 
 Registers used:
		wreg, fsr0l, fsr0h, fsr1l, fsr1h, fsr2l, fsr2h, status,2, status,0, prodl, prodh, cstack
 Tracked objects:
		On entry : 
		On exit  : 
		Unchanged: 
 Data sizes:     COMRAM   BANK0   BANK1   BANK2   BANK3   BANK4   BANK5   BANK6   BANK7   BANK8   BANK9  BANK10  BANK11  BANK12  BANK13  BANK14  BANK15
      Params:         0       0       2       0       0       0       0       0       0       0       0       0       0       0       0       0       0
      Locals:         0       0       3       0       0       0       0       0       0       0       0       0       0       0       0       0       0
      Temps:          0       0       4       0       0       0       0       0       0       0       0       0       0       0       0       0       0
      Totals:         0       0       9       0       0       0       0       0       0       0       0       0       0       0       0       0       0
Total ram usage:        9 bytes
 Hardware stack levels used:    1
 Hardware stack levels required when called:   11
 This function calls:
		_OutputInteractiveData
		_getNumChar
 This function is called by:
		_TimeEdit
 This function uses a non-reentrant model


 *************** function _Save_USART_SpeedNumber *****************
 Defined at:
		line 3178 in file "prog.c"
 Parameters:    Size  Location     Type
  speed           1    wreg     unsigned char 
 Auto vars:     Size  Location     Type
  speed           1    4[BANK1 ] unsigned char 
 Return value:  Size  Location     Type
                  1    wreg      void 
 Registers used:
		wreg, status,2, cstack
 Tracked objects:
		On entry : 
		On exit  : 
		Unchanged: 
 Data sizes:     COMRAM   BANK0   BANK1   BANK2   BANK3   BANK4   BANK5   BANK6   BANK7   BANK8   BANK9  BANK10  BANK11  BANK12  BANK13  BANK14  BANK15
      Params:         0       0       0       0       0       0       0       0       0       0       0       0       0       0       0       0       0
      Locals:         0       0       1       0       0       0       0       0       0       0       0       0       0       0       0       0       0
      Temps:          0       0       0       0       0       0       0       0       0       0       0       0       0       0       0       0       0
      Totals:         0       0       1       0       0       0       0       0       0       0       0       0       0       0       0       0       0
Total ram usage:        1 bytes
 Hardware stack levels used:    1
 Hardware stack levels required when called:   10
 This function calls:
		_EEWR
 This function is called by:
		_WorkingWithGSM
		_Settings
 This function uses a non-reentrant model


 *************** function _Init_GSM *****************
 Defined at:
		line 2850 in file "prog.c"
 Parameters:    Size  Location     Type
  show            1    wreg     unsigned char 
 Auto vars:     Size  Location     Type
  show            1   37[BANK1 ] unsigned char 
 Return value:  Size  Location     Type
                  1    wreg      unsigned char 
 Registers used:
		wreg, fsr1l, fsr1h, fsr2l, fsr2h, status,2, status,0, tblptrl, tblptrh, tblptru, prodl, prodh, cstack
 Tracked objects:
		On entry : 
		On exit  : 
		Unchanged: 
 Data sizes:     COMRAM   BANK0   BANK1   BANK2   BANK3   BANK4   BANK5   BANK6   BANK7   BANK8   BANK9  BANK10  BANK11  BANK12  BANK13  BANK14  BANK15
      Params:         0       0       0       0       0       0       0       0       0       0       0       0       0       0       0       0       0
      Locals:         0       0       1       0       0       0       0       0       0       0       0       0       0       0       0       0       0
      Temps:          0       0       0       0       0       0       0       0       0       0       0       0       0       0       0       0       0
      Totals:         0       0       1       0       0       0       0       0       0       0       0       0       0       0       0       0       0
Total ram usage:        1 bytes
 Hardware stack levels used:    1
 Hardware stack levels required when called:   12
 This function calls:
		_FindIncommingData
		_Init_USART
		_OutputSystemMessage
		_Read_USART_SpeedNumber
		_SendCommandToUSART
		_UserDelay
		_clrInd
 This function is called by:
		_Settings
		_main2
 This function uses a non-reentrant model


 *************** function _UserDelay *****************
 Defined at:
		line 2845 in file "prog.c"
 Parameters:    Size  Location     Type
  value           2   20[BANK1 ] unsigned int 
 Auto vars:     Size  Location     Type
  timestamp       4   22[BANK1 ] unsigned long 
 Return value:  Size  Location     Type
                  1    wreg      void 
 Registers used:
		wreg, status,2, status,0, cstack
 Tracked objects:
		On entry : 
		On exit  : 
		Unchanged: 
 Data sizes:     COMRAM   BANK0   BANK1   BANK2   BANK3   BANK4   BANK5   BANK6   BANK7   BANK8   BANK9  BANK10  BANK11  BANK12  BANK13  BANK14  BANK15
      Params:         0       0       2       0       0       0       0       0       0       0       0       0       0       0       0       0       0
      Locals:         0       0       4       0       0       0       0       0       0       0       0       0       0       0       0       0       0
      Temps:          0       0       0       0       0       0       0       0       0       0       0       0       0       0       0       0       0
      Totals:         0       0       6       0       0       0       0       0       0       0       0       0       0       0       0       0       0
Total ram usage:        6 bytes
 Hardware stack levels used:    1
 Hardware stack levels required when called:   11
 This function calls:
		_getSystemTimePoint
		_testTimePoint
 This function is called by:
		_Init_GSM
 This function uses a non-reentrant model


 *************** function _Read_USART_SpeedNumber *****************
 Defined at:
		line 3170 in file "prog.c"
 Parameters:    Size  Location     Type
		None
 Auto vars:     Size  Location     Type
  value           1    4[BANK1 ] unsigned char 
 Return value:  Size  Location     Type
                  1    wreg      unsigned char 
 Registers used:
		wreg, status,2, status,0, cstack
 Tracked objects:
		On entry : 
		On exit  : 
		Unchanged: 
 Data sizes:     COMRAM   BANK0   BANK1   BANK2   BANK3   BANK4   BANK5   BANK6   BANK7   BANK8   BANK9  BANK10  BANK11  BANK12  BANK13  BANK14  BANK15
      Params:         0       0       0       0       0       0       0       0       0       0       0       0       0       0       0       0       0
      Locals:         0       0       1       0       0       0       0       0       0       0       0       0       0       0       0       0       0
      Temps:          0       0       0       0       0       0       0       0       0       0       0       0       0       0       0       0       0
      Totals:         0       0       1       0       0       0       0       0       0       0       0       0       0       0       0       0       0
Total ram usage:        1 bytes
 Hardware stack levels used:    1
 Hardware stack levels required when called:   10
 This function calls:
		_EERD
 This function is called by:
		_Init_GSM
		_USART_Speed_Choise
 This function uses a non-reentrant model


 *************** function _Init_USART *****************
 Defined at:
		line 2187 in file "prog.c"
 Parameters:    Size  Location     Type
  SpeedNumber     1    wreg     unsigned char 
 Auto vars:     Size  Location     Type
  SpeedNumber     1    2[BANK1 ] unsigned char 
  _value          2    0[BANK1 ] unsigned int 
 Return value:  Size  Location     Type
                  1    wreg      void 
 Registers used:
		wreg, status,2, status,0
 Tracked objects:
		On entry : 
		On exit  : 
		Unchanged: 
 Data sizes:     COMRAM   BANK0   BANK1   BANK2   BANK3   BANK4   BANK5   BANK6   BANK7   BANK8   BANK9  BANK10  BANK11  BANK12  BANK13  BANK14  BANK15
      Params:         0       0       0       0       0       0       0       0       0       0       0       0       0       0       0       0       0
      Locals:         0       0       3       0       0       0       0       0       0       0       0       0       0       0       0       0       0
      Temps:          0       0       0       0       0       0       0       0       0       0       0       0       0       0       0       0       0
      Totals:         0       0       3       0       0       0       0       0       0       0       0       0       0       0       0       0       0
Total ram usage:        3 bytes
 Hardware stack levels used:    1
 Hardware stack levels required when called:    9
 This function calls:
		Nothing
 This function is called by:
		_WorkingWithGSM
		_Init_GSM
 This function uses a non-reentrant model


 *************** function _FindIncommingData *****************
 Defined at:
		line 2386 in file "prog.c"
 Parameters:    Size  Location     Type
  regexp          2    7[BANK1 ] PTR unsigned char 
		 -> StandardAnswer_OK(3), 
  container       2    9[BANK1 ] PTR unsigned char 
		 -> NULL(0), 
  history_inde    2   11[BANK1 ] int 
 Auto vars:     Size  Location     Type
  a               2   23[BANK1 ] unsigned int 
  s0              2   27[BANK1 ] unsigned int 
  s1              2   15[BANK1 ] unsigned int 
  j               2   35[BANK1 ] unsigned int 
  last_s          2   33[BANK1 ] unsigned int 
  not_found       2   21[BANK1 ] unsigned int 
  i               2   29[BANK1 ] unsigned int 
  pointer         2   31[BANK1 ] PTR unsigned char 
		 -> buff_string_11(256), buff_string_10(256), buff_string_9(256), buff_string_8(256), 
  end_of_regex    2   25[BANK1 ] PTR unsigned char 
		 -> StandardAnswer_OK(3), 
  finish_index    2   19[BANK1 ] unsigned int 
  start_index     2   17[BANK1 ] unsigned int 
 Return value:  Size  Location     Type
                  1    wreg      unsigned char 
 Registers used:
		wreg, fsr1l, fsr1h, fsr2l, fsr2h, status,2, status,0, tblptrl, tblptrh, tblptru, prodl, prodh, cstack
 Tracked objects:
		On entry : 
		On exit  : 
		Unchanged: 
 Data sizes:     COMRAM   BANK0   BANK1   BANK2   BANK3   BANK4   BANK5   BANK6   BANK7   BANK8   BANK9  BANK10  BANK11  BANK12  BANK13  BANK14  BANK15
      Params:         0       0       6       0       0       0       0       0       0       0       0       0       0       0       0       0       0
      Locals:         0       0      22       0       0       0       0       0       0       0       0       0       0       0       0       0       0
      Temps:          0       0       2       0       0       0       0       0       0       0       0       0       0       0       0       0       0
      Totals:         0       0      30       0       0       0       0       0       0       0       0       0       0       0       0       0       0
Total ram usage:       30 bytes
 Hardware stack levels used:    1
 Hardware stack levels required when called:   10
 This function calls:
		_CleanStringArray
		_GetStringLength
 This function is called by:
		_Init_GSM
 This function uses a non-reentrant model


 *************** function _GetStringLength *****************
 Defined at:
		line 2433 in file "prog.c"
 Parameters:    Size  Location     Type
  container       2    0[BANK1 ] PTR unsigned char 
		 -> StandardAnswer_OK(3), 
 Auto vars:     Size  Location     Type
  i               2    2[BANK1 ] unsigned int 
 Return value:  Size  Location     Type
                  2    0[BANK1 ] unsigned int 
 Registers used:
		wreg, status,2, status,0, tblptrl, tblptrh, tblptru
 Tracked objects:
		On entry : 
		On exit  : 
		Unchanged: 
 Data sizes:     COMRAM   BANK0   BANK1   BANK2   BANK3   BANK4   BANK5   BANK6   BANK7   BANK8   BANK9  BANK10  BANK11  BANK12  BANK13  BANK14  BANK15
      Params:         0       0       2       0       0       0       0       0       0       0       0       0       0       0       0       0       0
      Locals:         0       0       2       0       0       0       0       0       0       0       0       0       0       0       0       0       0
      Temps:          0       0       0       0       0       0       0       0       0       0       0       0       0       0       0       0       0
      Totals:         0       0       4       0       0       0       0       0       0       0       0       0       0       0       0       0       0
Total ram usage:        4 bytes
 Hardware stack levels used:    1
 Hardware stack levels required when called:    9
 This function calls:
		Nothing
 This function is called by:
		_FindIncommingData
 This function uses a non-reentrant model


 *************** function _CleanStringArray *****************
 Defined at:
		line 1434 in file "prog.c"
 Parameters:    Size  Location     Type
  myArray         2    0[BANK1 ] PTR unsigned char 
		 -> buff_string_11(256), buff_string_10(256), buff_string_9(256), buff_string_8(256), 
		 -> ProcessIncommingUartData@number(11), Incomming_DTMF_Data(8), Incomming_Call_Data(36), Clock_from_GSM(30), 
		 -> DeleteDataOfCell@CellsData(8), 
  size            2    2[BANK1 ] unsigned int 
  settingData     1    4[BANK1 ] unsigned char 
 Auto vars:     Size  Location     Type
  i               2    5[BANK1 ] unsigned int 
 Return value:  Size  Location     Type
                  1    wreg      void 
 Registers used:
		wreg, fsr2l, fsr2h, status,2, status,0
 Tracked objects:
		On entry : 
		On exit  : 
		Unchanged: 
 Data sizes:     COMRAM   BANK0   BANK1   BANK2   BANK3   BANK4   BANK5   BANK6   BANK7   BANK8   BANK9  BANK10  BANK11  BANK12  BANK13  BANK14  BANK15
      Params:         0       0       5       0       0       0       0       0       0       0       0       0       0       0       0       0       0
      Locals:         0       0       2       0       0       0       0       0       0       0       0       0       0       0       0       0       0
      Temps:          0       0       0       0       0       0       0       0       0       0       0       0       0       0       0       0       0
      Totals:         0       0       7       0       0       0       0       0       0       0       0       0       0       0       0       0       0
Total ram usage:        7 bytes
 Hardware stack levels used:    1
 Hardware stack levels required when called:    9
 This function calls:
		Nothing
 This function is called by:
		_DeleteDataOfCell
		_main
		_FindIncommingData
 This function uses a non-reentrant model


 *************** function _PhonebookEdit *****************
 Defined at:
		line 3013 in file "prog.c"
 Parameters:    Size  Location     Type
		None
 Auto vars:     Size  Location     Type
  aaa            33   10[BANK5 ] struct .
  i               1   60[BANK5 ] unsigned char 
  number          2   51[BANK5 ] PTR unsigned char 
		 -> InputText@ret_string(33), NULL(0), 
  input_props     1   50[BANK5 ] struct .
  field           2   56[BANK5 ] PTR unsigned char 
		 -> InputText@ret_string(33), NULL(0), 
  input_props     1   54[BANK5 ] struct .
  menu           10    0[BANK5 ] PTR unsigned char [5]
		 -> STR_56(10), STR_55(11), STR_54(12), STR_53(14), 
		 -> STR_52(9), STR_51(15), STR_50(15), STR_49(7), 
		 -> STR_48(6), STR_47(6), STR_46(6), STR_40(12), 
		 -> STR_39(8), STR_38(14), STR_37(9), STR_17(16), 
		 -> STR_16(18), STR_15(17), NULL(0), 
  result          1   55[BANK5 ] unsigned char 
  num_cell        3   43[BANK5 ] unsigned char [3]
  Contact        33   61[BANK5 ] struct .
  cell            2   58[BANK5 ] unsigned int 
  read            1   53[BANK5 ] unsigned char 
 Return value:  Size  Location     Type
                  1    wreg      void 
 Registers used:
		wreg, fsr0l, fsr0h, fsr1l, fsr1h, fsr2l, fsr2h, status,2, status,0, tblptrl, tblptrh, tblptru, prodl, prodh, cstack
 Tracked objects:
		On entry : 
		On exit  : 
		Unchanged: 
 Data sizes:     COMRAM   BANK0   BANK1   BANK2   BANK3   BANK4   BANK5   BANK6   BANK7   BANK8   BANK9  BANK10  BANK11  BANK12  BANK13  BANK14  BANK15
      Params:         0       0       0       0       0       0       0       0       0       0       0       0       0       0       0       0       0
      Locals:         0       0       0       0       0       0      94       0       0       0       0       0       0       0       0       0       0
      Temps:          0       0       2       0       0       0       0       0       0       0       0       0       0       0       0       0       0
      Totals:         0       0       2       0       0       0      94       0       0       0       0       0       0       0       0       0       0
Total ram usage:       96 bytes
 Hardware stack levels used:    1
 Hardware stack levels required when called:   13
 This function calls:
		_FillPhonebookCellFromEEPROM
		_Format_EEPROM_Memory
		_InputText
		_NumericToString
		_OutputString
		_Select_OK_NO
		_SendCommandToUSART
		_ShowMenu
		_TelephoneCall
		_WritePhonebookCellToEEPROM
		___lwdiv
		_clrInd
 This function is called by:
		_main2
 This function uses a non-reentrant model


 *************** function ___lwdiv *****************
 Defined at:
		line 8 in file "/opt/microchip/xc8/v1.37/sources/common/lwdiv.c"
 Parameters:    Size  Location     Type
  dividend        2    0[BANK1 ] unsigned int 
  divisor         2    2[BANK1 ] unsigned int 
 Auto vars:     Size  Location     Type
  quotient        2    5[BANK1 ] unsigned int 
  counter         1    4[BANK1 ] unsigned char 
 Return value:  Size  Location     Type
                  2    0[BANK1 ] unsigned int 
 Registers used:
		wreg, status,2, status,0
 Tracked objects:
		On entry : 
		On exit  : 
		Unchanged: 
 Data sizes:     COMRAM   BANK0   BANK1   BANK2   BANK3   BANK4   BANK5   BANK6   BANK7   BANK8   BANK9  BANK10  BANK11  BANK12  BANK13  BANK14  BANK15
      Params:         0       0       4       0       0       0       0       0       0       0       0       0       0       0       0       0       0
      Locals:         0       0       3       0       0       0       0       0       0       0       0       0       0       0       0       0       0
      Temps:          0       0       0       0       0       0       0       0       0       0       0       0       0       0       0       0       0
      Totals:         0       0       7       0       0       0       0       0       0       0       0       0       0       0       0       0       0
Total ram usage:        7 bytes
 Hardware stack levels used:    1
 Hardware stack levels required when called:    9
 This function calls:
		Nothing
 This function is called by:
		_TimeToInd
		_ParseTime
		_PhonebookEdit
 This function uses a non-reentrant model


 *************** function _WritePhonebookCellToEEPROM *****************
 Defined at:
		line 1127 in file "prog.c"
 Parameters:    Size  Location     Type
  container       2   13[BANK1 ] PTR struct .
		 -> PhonebookEdit@aaa(33), PhonebookEdit@Contact(33), 
  adress_start    2   15[BANK1 ] unsigned int 
 Auto vars:     Size  Location     Type
		None
 Return value:  Size  Location     Type
                  1    wreg      void 
 Registers used:
		wreg, fsr2l, fsr2h, status,2, status,0, cstack
 Tracked objects:
		On entry : 
		On exit  : 
		Unchanged: 
 Data sizes:     COMRAM   BANK0   BANK1   BANK2   BANK3   BANK4   BANK5   BANK6   BANK7   BANK8   BANK9  BANK10  BANK11  BANK12  BANK13  BANK14  BANK15
      Params:         0       0       4       0       0       0       0       0       0       0       0       0       0       0       0       0       0
      Locals:         0       0       0       0       0       0       0       0       0       0       0       0       0       0       0       0       0
      Temps:          0       0       0       0       0       0       0       0       0       0       0       0       0       0       0       0       0
      Totals:         0       0       4       0       0       0       0       0       0       0       0       0       0       0       0       0       0
Total ram usage:        4 bytes
 Hardware stack levels used:    1
 Hardware stack levels required when called:   11
 This function calls:
		_WriteArrayToEEPROM
 This function is called by:
		_PhonebookEdit
 This function uses a non-reentrant model


 *************** function _WriteArrayToEEPROM *****************
 Defined at:
		line 1121 in file "prog.c"
 Parameters:    Size  Location     Type
  container       2    4[BANK1 ] PTR unsigned char 
		 -> PhonebookEdit@aaa(33), PhonebookEdit@Contact(33), DeleteDataOfCell@CellsData(8), 
  adress_start    2    6[BANK1 ] unsigned int 
  quantity        2    8[BANK1 ] unsigned int 
 Auto vars:     Size  Location     Type
  i               1   12[BANK1 ] unsigned char 
 Return value:  Size  Location     Type
                  1    wreg      void 
 Registers used:
		wreg, fsr2l, fsr2h, status,2, status,0, cstack
 Tracked objects:
		On entry : 
		On exit  : 
		Unchanged: 
 Data sizes:     COMRAM   BANK0   BANK1   BANK2   BANK3   BANK4   BANK5   BANK6   BANK7   BANK8   BANK9  BANK10  BANK11  BANK12  BANK13  BANK14  BANK15
      Params:         0       0       6       0       0       0       0       0       0       0       0       0       0       0       0       0       0
      Locals:         0       0       1       0       0       0       0       0       0       0       0       0       0       0       0       0       0
      Temps:          0       0       2       0       0       0       0       0       0       0       0       0       0       0       0       0       0
      Totals:         0       0       9       0       0       0       0       0       0       0       0       0       0       0       0       0       0
Total ram usage:        9 bytes
 Hardware stack levels used:    1
 Hardware stack levels required when called:   10
 This function calls:
		_EEWR
 This function is called by:
		_WritePhonebookCellToEEPROM
		_DeleteDataOfCell
 This function uses a non-reentrant model


 *************** function _TelephoneCall *****************
 Defined at:
		line 2903 in file "prog.c"
 Parameters:    Size  Location     Type
  phone_number    2    3[BANK1 ] PTR unsigned char 
		 -> PhonebookEdit@Contact(33), InputText@ret_string(33), NULL(0), 
 Auto vars:     Size  Location     Type
  command        18    7[BANK1 ] volatile unsigned char [
  i               1   25[BANK1 ] unsigned char 
 Return value:  Size  Location     Type
                  1    wreg      void 
 Registers used:
		wreg, fsr1l, fsr1h, fsr2l, fsr2h, status,2, status,0, cstack
 Tracked objects:
		On entry : 
		On exit  : 
		Unchanged: 
 Data sizes:     COMRAM   BANK0   BANK1   BANK2   BANK3   BANK4   BANK5   BANK6   BANK7   BANK8   BANK9  BANK10  BANK11  BANK12  BANK13  BANK14  BANK15
      Params:         0       0       2       0       0       0       0       0       0       0       0       0       0       0       0       0       0
      Locals:         0       0      19       0       0       0       0       0       0       0       0       0       0       0       0       0       0
      Temps:          0       0       2       0       0       0       0       0       0       0       0       0       0       0       0       0       0
      Totals:         0       0      23       0       0       0       0       0       0       0       0       0       0       0       0       0       0
Total ram usage:       23 bytes
 Hardware stack levels used:    1
 Hardware stack levels required when called:   10
 This function calls:
		_SendCommandToUSART
 This function is called by:
		_PhonebookEdit
 This function uses a non-reentrant model


 *************** function _SendCommandToUSART *****************
 Defined at:
		line 2765 in file "prog.c"
 Parameters:    Size  Location     Type
  command         2    0[BANK1 ] PTR unsigned char 
		 -> STR_45(4), STR_43(4), TelephoneCall@command(18), STR_32(10), 
		 -> STR_30(5), STR_27(3), InputText@ret_string(33), STR_24(4), 
		 -> STR_23(4), NULL(0), 
  wait            1    2[BANK1 ] unsigned char 
 Auto vars:     Size  Location     Type
		None
 Return value:  Size  Location     Type
                  1    wreg      void 
 Registers used:
		wreg, status,2, status,0
 Tracked objects:
		On entry : 
		On exit  : 
		Unchanged: 
 Data sizes:     COMRAM   BANK0   BANK1   BANK2   BANK3   BANK4   BANK5   BANK6   BANK7   BANK8   BANK9  BANK10  BANK11  BANK12  BANK13  BANK14  BANK15
      Params:         0       0       3       0       0       0       0       0       0       0       0       0       0       0       0       0       0
      Locals:         0       0       0       0       0       0       0       0       0       0       0       0       0       0       0       0       0
      Temps:          0       0       0       0       0       0       0       0       0       0       0       0       0       0       0       0       0
      Totals:         0       0       3       0       0       0       0       0       0       0       0       0       0       0       0       0       0
Total ram usage:        3 bytes
 Hardware stack levels used:    1
 Hardware stack levels required when called:    9
 This function calls:
		Nothing
 This function is called by:
		_WorkingWithGSM
		_Init_GSM
		_TelephoneCall
		_PhonebookEdit
 This function uses a non-reentrant model


 *************** function _ShowMenu *****************
 Defined at:
		line 2939 in file "prog.c"
 Parameters:    Size  Location     Type
  menu            2   20[BANK1 ] PTR PTR unsigned char 
		 -> main2@menu(8), Settings@menu(10), USART_Speed_Choise@menu(10), PhonebookEdit@menu(10), 
		 -> ShowSchedulerMenu@menu(8), 
  item            1   22[BANK1 ] unsigned char 
 Auto vars:     Size  Location     Type
  item_max        1   28[BANK1 ] unsigned char 
  result          1   27[BANK1 ] unsigned char 
 Return value:  Size  Location     Type
                  1    wreg      unsigned char 
 Registers used:
		wreg, fsr0l, fsr0h, fsr2l, fsr2h, status,2, status,0, tblptrl, tblptrh, tblptru, prodl, prodh, cstack
 Tracked objects:
		On entry : 
		On exit  : 
		Unchanged: 
 Data sizes:     COMRAM   BANK0   BANK1   BANK2   BANK3   BANK4   BANK5   BANK6   BANK7   BANK8   BANK9  BANK10  BANK11  BANK12  BANK13  BANK14  BANK15
      Params:         0       0       3       0       0       0       0       0       0       0       0       0       0       0       0       0       0
      Locals:         0       0       2       0       0       0       0       0       0       0       0       0       0       0       0       0       0
      Temps:          0       0       4       0       0       0       0       0       0       0       0       0       0       0       0       0       0
      Totals:         0       0       9       0       0       0       0       0       0       0       0       0       0       0       0       0       0
Total ram usage:        9 bytes
 Hardware stack levels used:    1
 Hardware stack levels required when called:   11
 This function calls:
		_OutputString
		_clrInd
 This function is called by:
		_ShowSchedulerMenu
		_PhonebookEdit
		_USART_Speed_Choise
		_Settings
		_main2
 This function uses a non-reentrant model


 *************** function _NumericToString *****************
 Defined at:
		line 633 in file "prog.c"
 Parameters:    Size  Location     Type
  n               4   13[BANK1 ] unsigned long 
  mySring         2   17[BANK1 ] PTR unsigned char 
		 -> PhonebookEdit@num_cell(3), testSystemTimer@string(17), RefreshSchedulerIndicator@num_1481(3), RefreshSchedulerIndicator@num(3), 
  size            1   19[BANK1 ] unsigned char 
 Auto vars:     Size  Location     Type
  displacement    1   22[BANK1 ] unsigned char 
 Return value:  Size  Location     Type
                  1    wreg      void 
 Registers used:
		wreg, fsr2l, fsr2h, status,2, status,0, cstack
 Tracked objects:
		On entry : 
		On exit  : 
		Unchanged: 
 Data sizes:     COMRAM   BANK0   BANK1   BANK2   BANK3   BANK4   BANK5   BANK6   BANK7   BANK8   BANK9  BANK10  BANK11  BANK12  BANK13  BANK14  BANK15
      Params:         0       0       7       0       0       0       0       0       0       0       0       0       0       0       0       0       0
      Locals:         0       0       1       0       0       0       0       0       0       0       0       0       0       0       0       0       0
      Temps:          0       0       2       0       0       0       0       0       0       0       0       0       0       0       0       0       0
      Totals:         0       0      10       0       0       0       0       0       0       0       0       0       0       0       0       0       0
Total ram usage:       10 bytes
 Hardware stack levels used:    1
 Hardware stack levels required when called:   10
 This function calls:
		___lldiv
		___llmod
		_getNumChar
 This function is called by:
		_RefreshSchedulerIndicator
		_PhonebookEdit
 This function uses a non-reentrant model


 *************** function _getNumChar *****************
 Defined at:
		line 2294 in file "prog.c"
 Parameters:    Size  Location     Type
  num             1    wreg     unsigned char 
 Auto vars:     Size  Location     Type
  num             1    0[BANK1 ] unsigned char 
 Return value:  Size  Location     Type
                  1    wreg      unsigned char 
 Registers used:
		wreg, status,2, status,0
 Tracked objects:
		On entry : 
		On exit  : 
		Unchanged: 
 Data sizes:     COMRAM   BANK0   BANK1   BANK2   BANK3   BANK4   BANK5   BANK6   BANK7   BANK8   BANK9  BANK10  BANK11  BANK12  BANK13  BANK14  BANK15
      Params:         0       0       0       0       0       0       0       0       0       0       0       0       0       0       0       0       0
      Locals:         0       0       1       0       0       0       0       0       0       0       0       0       0       0       0       0       0
      Temps:          0       0       0       0       0       0       0       0       0       0       0       0       0       0       0       0       0
      Totals:         0       0       1       0       0       0       0       0       0       0       0       0       0       0       0       0       0
Total ram usage:        1 bytes
 Hardware stack levels used:    1
 Hardware stack levels required when called:    9
 This function calls:
		Nothing
 This function is called by:
		_NumericToString
		_TimeToInd
		_ReIndTimeEdit
 This function uses a non-reentrant model


 *************** function ___llmod *****************
 Defined at:
		line 8 in file "/opt/microchip/xc8/v1.37/sources/common/llmod.c"
 Parameters:    Size  Location     Type
  dividend        4    0[BANK1 ] unsigned long 
  divisor         4    4[BANK1 ] unsigned long 
 Auto vars:     Size  Location     Type
  counter         1    8[BANK1 ] unsigned char 
 Return value:  Size  Location     Type
                  4    0[BANK1 ] unsigned long 
 Registers used:
		wreg, status,2, status,0
 Tracked objects:
		On entry : 
		On exit  : 
		Unchanged: 
 Data sizes:     COMRAM   BANK0   BANK1   BANK2   BANK3   BANK4   BANK5   BANK6   BANK7   BANK8   BANK9  BANK10  BANK11  BANK12  BANK13  BANK14  BANK15
      Params:         0       0       8       0       0       0       0       0       0       0       0       0       0       0       0       0       0
      Locals:         0       0       1       0       0       0       0       0       0       0       0       0       0       0       0       0       0
      Temps:          0       0       0       0       0       0       0       0       0       0       0       0       0       0       0       0       0
      Totals:         0       0       9       0       0       0       0       0       0       0       0       0       0       0       0       0       0
Total ram usage:        9 bytes
 Hardware stack levels used:    1
 Hardware stack levels required when called:    9
 This function calls:
		Nothing
 This function is called by:
		_NumericToString
 This function uses a non-reentrant model


 *************** function ___lldiv *****************
 Defined at:
		line 8 in file "/opt/microchip/xc8/v1.37/sources/common/lldiv.c"
 Parameters:    Size  Location     Type
  dividend        4    0[BANK1 ] unsigned long 
  divisor         4    4[BANK1 ] unsigned long 
 Auto vars:     Size  Location     Type
  quotient        4    8[BANK1 ] unsigned long 
  counter         1   12[BANK1 ] unsigned char 
 Return value:  Size  Location     Type
                  4    0[BANK1 ] unsigned long 
 Registers used:
		wreg, status,2, status,0
 Tracked objects:
		On entry : 
		On exit  : 
		Unchanged: 
 Data sizes:     COMRAM   BANK0   BANK1   BANK2   BANK3   BANK4   BANK5   BANK6   BANK7   BANK8   BANK9  BANK10  BANK11  BANK12  BANK13  BANK14  BANK15
      Params:         0       0       8       0       0       0       0       0       0       0       0       0       0       0       0       0       0
      Locals:         0       0       5       0       0       0       0       0       0       0       0       0       0       0       0       0       0
      Temps:          0       0       0       0       0       0       0       0       0       0       0       0       0       0       0       0       0
      Totals:         0       0      13       0       0       0       0       0       0       0       0       0       0       0       0       0       0
Total ram usage:       13 bytes
 Hardware stack levels used:    1
 Hardware stack levels required when called:    9
 This function calls:
		Nothing
 This function is called by:
		_NumericToString
 This function uses a non-reentrant model


 *************** function _InputText *****************
 Defined at:
		line 2543 in file "prog.c"
 Parameters:    Size  Location     Type
  text            2   71[BANK1 ] PTR unsigned char 
		 -> Contact.phone(14), Contact.name(17), PhonebookEdit@Contact(33), NULL(0), 
  _props          2   73[BANK1 ] PTR struct .
		 -> PhonebookEdit@input_props_2048(1), PhonebookEdit@input_props(1), NULL(0), 
  capacity        1   75[BANK1 ] unsigned char 
 Auto vars:     Size  Location     Type
  i               1  220[BANK2 ] unsigned char 
  i               1  218[BANK2 ] unsigned char 
  temp            2  216[BANK2 ] PTR struct .
		 -> InputText@_input_data(132), 
  ret_string     33   98[BANK1 ] unsigned char [33]
  i               1  223[BANK2 ] unsigned char 
  temp            2  221[BANK2 ] PTR struct .
		 -> InputText@_input_data(132), 
  i               1  219[BANK2 ] unsigned char 
  i               1  226[BANK2 ] unsigned char 
  _input_data   132    0[BANK2 ] struct .[33]
  InputData      66  132[BANK2 ] PTR struct .[33]
		 -> InputText@_input_data(132), 
  symbols        60    0[BANK3 ] PTR unsigned char [30]
		 -> InputText@s_29(2), InputText@s_28(2), InputText@s_27(2), InputText@s_26(2), 
		 -> InputText@s_25(2), InputText@s_24(2), InputText@s_23(2), InputText@s_22(2), 
		 -> InputText@s_21(2), InputText@s_20(3), InputText@s_19(6), InputText@s_18(6), 
		 -> InputText@s_17(6), InputText@s_16(6), InputText@s_15(6), InputText@s_14(6), 
		 -> InputText@s_13(6), InputText@s_12(6), InputText@s_9(6), InputText@s_8(5), 
		 -> InputText@s_7(6), InputText@s_6(5), InputText@s_5(5), InputText@s_4(5), 
		 -> InputText@s_3(5), InputText@s_2(5), InputText@s_1(18), InputText@s_0(3), 
  s_1            18   80[BANK1 ] unsigned char [18]
  s_19            6  185[BANK1 ] unsigned char [6]
  s_18            6  179[BANK1 ] unsigned char [6]
  s_17            6  173[BANK1 ] unsigned char [6]
  s_16            6  167[BANK1 ] unsigned char [6]
  s_15            6  161[BANK1 ] unsigned char [6]
  s_14            6  155[BANK1 ] unsigned char [6]
  s_13            6  149[BANK1 ] unsigned char [6]
  s_12            6  143[BANK1 ] unsigned char [6]
  s_9             6  137[BANK1 ] unsigned char [6]
  s_7             6  131[BANK1 ] unsigned char [6]
  s_8             5  216[BANK1 ] unsigned char [5]
  s_6             5  211[BANK1 ] unsigned char [5]
  s_5             5  206[BANK1 ] unsigned char [5]
  s_4             5  201[BANK1 ] unsigned char [5]
  s_3             5  196[BANK1 ] unsigned char [5]
  s_2             5  191[BANK1 ] unsigned char [5]
  time_point      4  210[BANK2 ] unsigned long 
  s_0             3  224[BANK1 ] unsigned char [3]
  s_20            3  221[BANK1 ] unsigned char [3]
  cur_char        2  214[BANK2 ] PTR unsigned char 
		 -> InputText@s_29(2), InputText@s_28(2), InputText@s_27(2), InputText@s_26(2), 
		 -> InputText@s_25(2), InputText@s_24(2), InputText@s_23(2), InputText@s_22(2), 
		 -> InputText@s_21(2), InputText@s_20(3), InputText@s_19(6), InputText@s_18(6), 
		 -> InputText@s_17(6), InputText@s_16(6), InputText@s_15(6), InputText@s_14(6), 
		 -> InputText@s_13(6), InputText@s_12(6), InputText@s_9(6), InputText@s_8(5), 
		 -> InputText@s_7(6), InputText@s_6(5), InputText@s_5(5), InputText@s_4(5), 
		 -> InputText@s_3(5), InputText@s_2(5), InputText@s_1(18), InputText@s_0(3), 
  s_29            2  208[BANK2 ] unsigned char [2]
  s_28            2  206[BANK2 ] unsigned char [2]
  s_27            2  204[BANK2 ] unsigned char [2]
  s_26            2  202[BANK2 ] unsigned char [2]
  s_25            2  200[BANK2 ] unsigned char [2]
  s_24            2  198[BANK2 ] unsigned char [2]
  s_23            2  231[BANK1 ] unsigned char [2]
  s_22            2  229[BANK1 ] unsigned char [2]
  s_21            2  227[BANK1 ] unsigned char [2]
  active_cell     1  227[BANK2 ] unsigned char 
  props           1  225[BANK2 ] struct .
  lastKeyCode     1  224[BANK2 ] unsigned char 
 Return value:  Size  Location     Type
                  2   71[BANK1 ] PTR unsigned char 
 Registers used:
		wreg, fsr0l, fsr0h, fsr1l, fsr1h, fsr2l, fsr2h, status,2, status,0, tblptrl, tblptrh, tblptru, prodl, prodh, cstack
 Tracked objects:
		On entry : 
		On exit  : 
		Unchanged: 
 Data sizes:     COMRAM   BANK0   BANK1   BANK2   BANK3   BANK4   BANK5   BANK6   BANK7   BANK8   BANK9  BANK10  BANK11  BANK12  BANK13  BANK14  BANK15
      Params:         0       0       5       0       0       0       0       0       0       0       0       0       0       0       0       0       0
      Locals:         0       0     153     228      60       0       0       0       0       0       0       0       0       0       0       0       0
      Temps:          0       0       4       0       0       0       0       0       0       0       0       0       0       0       0       0       0
      Totals:         0       0     162     228      60       0       0       0       0       0       0       0       0       0       0       0       0
Total ram usage:      450 bytes
 Hardware stack levels used:    1
 Hardware stack levels required when called:   12
 This function calls:
		_CheckoutRegisterOfSymbol
		_InteractiveData_BlinkOFF
		_OutputInteractiveData
		__setInputTextProps
		_clrInd
		_getSystemTimePoint
		_system_BlinkReset
		_testTimePoint
 This function is called by:
		_WorkingWithGSM
		_PhonebookEdit
 This function uses a non-reentrant model


 *************** function _testTimePoint *****************
 Defined at:
		line 2068 in file "prog.c"
 Parameters:    Size  Location     Type
  point           4    4[BANK1 ] unsigned long 
  value           4    8[BANK1 ] unsigned long 
 Auto vars:     Size  Location     Type
  _point          4   16[BANK1 ] unsigned long 
 Return value:  Size  Location     Type
                  1    wreg      unsigned char 
 Registers used:
		wreg, status,2, status,0, cstack
 Tracked objects:
		On entry : 
		On exit  : 
		Unchanged: 
 Data sizes:     COMRAM   BANK0   BANK1   BANK2   BANK3   BANK4   BANK5   BANK6   BANK7   BANK8   BANK9  BANK10  BANK11  BANK12  BANK13  BANK14  BANK15
      Params:         0       0       8       0       0       0       0       0       0       0       0       0       0       0       0       0       0
      Locals:         0       0       4       0       0       0       0       0       0       0       0       0       0       0       0       0       0
      Temps:          0       0       4       0       0       0       0       0       0       0       0       0       0       0       0       0       0
      Totals:         0       0      16       0       0       0       0       0       0       0       0       0       0       0       0       0       0
Total ram usage:       16 bytes
 Hardware stack levels used:    1
 Hardware stack levels required when called:   10
 This function calls:
		_getSystemTimePoint
 This function is called by:
		_InputText
		_UserDelay
 This function uses a non-reentrant model


 *************** function _getSystemTimePoint *****************
 Defined at:
		line 2064 in file "prog.c"
 Parameters:    Size  Location     Type
		None
 Auto vars:     Size  Location     Type
		None
 Return value:  Size  Location     Type
                  4    0[BANK1 ] unsigned long 
 Registers used:
		None
 Tracked objects:
		On entry : 
		On exit  : 
		Unchanged: 
 Data sizes:     COMRAM   BANK0   BANK1   BANK2   BANK3   BANK4   BANK5   BANK6   BANK7   BANK8   BANK9  BANK10  BANK11  BANK12  BANK13  BANK14  BANK15
      Params:         0       0       4       0       0       0       0       0       0       0       0       0       0       0       0       0       0
      Locals:         0       0       0       0       0       0       0       0       0       0       0       0       0       0       0       0       0
      Temps:          0       0       0       0       0       0       0       0       0       0       0       0       0       0       0       0       0
      Totals:         0       0       4       0       0       0       0       0       0       0       0       0       0       0       0       0       0
Total ram usage:        4 bytes
 Hardware stack levels used:    1
 Hardware stack levels required when called:    9
 This function calls:
		Nothing
 This function is called by:
		_testTimePoint
		_InputText
		_UserDelay
 This function uses a non-reentrant model


 *************** function _system_BlinkReset *****************
 Defined at:
		line 2078 in file "prog.c"
 Parameters:    Size  Location     Type
  val             1    wreg     unsigned char 
 Auto vars:     Size  Location     Type
  val             1    0[BANK1 ] unsigned char 
 Return value:  Size  Location     Type
                  1    wreg      void 
 Registers used:
		wreg, status,2
 Tracked objects:
		On entry : 
		On exit  : 
		Unchanged: 
 Data sizes:     COMRAM   BANK0   BANK1   BANK2   BANK3   BANK4   BANK5   BANK6   BANK7   BANK8   BANK9  BANK10  BANK11  BANK12  BANK13  BANK14  BANK15
      Params:         0       0       0       0       0       0       0       0       0       0       0       0       0       0       0       0       0
      Locals:         0       0       1       0       0       0       0       0       0       0       0       0       0       0       0       0       0
      Temps:          0       0       0       0       0       0       0       0       0       0       0       0       0       0       0       0       0
      Totals:         0       0       1       0       0       0       0       0       0       0       0       0       0       0       0       0       0
Total ram usage:        1 bytes
 Hardware stack levels used:    1
 Hardware stack levels required when called:    9
 This function calls:
		Nothing
 This function is called by:
		_InputText
 This function uses a non-reentrant model


 *************** function __setInputTextProps *****************
 Defined at:
		line 2493 in file "prog.c"
 Parameters:    Size  Location     Type
  _props          2   20[BANK1 ] PTR struct .
		 -> InputText@props(1), 
 Auto vars:     Size  Location     Type
  i               1   69[BANK1 ] unsigned char 
  i               1   68[BANK1 ] unsigned char 
  source_L       22   24[BANK1 ] const unsigned char [22]
  source_A       10   46[BANK1 ] const unsigned char [10]
  Lang            8   56[BANK1 ] unsigned char [8]
  Aa              4   64[BANK1 ] unsigned char [4]
  props           1   70[BANK1 ] struct .
 Return value:  Size  Location     Type
                  1    wreg      void 
 Registers used:
		wreg, fsr0l, fsr0h, fsr1l, fsr1h, fsr2l, fsr2h, status,2, status,0, tblptrl, tblptrh, tblptru, prodl, prodh, cstack
 Tracked objects:
		On entry : 
		On exit  : 
		Unchanged: 
 Data sizes:     COMRAM   BANK0   BANK1   BANK2   BANK3   BANK4   BANK5   BANK6   BANK7   BANK8   BANK9  BANK10  BANK11  BANK12  BANK13  BANK14  BANK15
      Params:         0       0       2       0       0       0       0       0       0       0       0       0       0       0       0       0       0
      Locals:         0       0      47       0       0       0       0       0       0       0       0       0       0       0       0       0       0
      Temps:          0       0       2       0       0       0       0       0       0       0       0       0       0       0       0       0       0
      Totals:         0       0      51       0       0       0       0       0       0       0       0       0       0       0       0       0       0
Total ram usage:       51 bytes
 Hardware stack levels used:    1
 Hardware stack levels required when called:   11
 This function calls:
		_OutputString
		_clrInd
 This function is called by:
		_InputText
 This function uses a non-reentrant model


 *************** function _OutputInteractiveData *****************
 Defined at:
		line 851 in file "prog.c"
 Parameters:    Size  Location     Type
  data            2    9[BANK1 ] PTR PTR struct .
		 -> InputText@InputData(66), TimeEdit@TimeData(32), 
  length          1   11[BANK1 ] unsigned char 
  start_symbol    1   12[BANK1 ] unsigned char 
 Auto vars:     Size  Location     Type
  s               1   16[BANK1 ] unsigned char 
  line            1   15[BANK1 ] unsigned char 
  i               1   17[BANK1 ] unsigned char 
 Return value:  Size  Location     Type
                  1    wreg      void 
 Registers used:
		wreg, fsr1l, fsr1h, fsr2l, fsr2h, status,2, status,0, prodl, prodh, cstack
 Tracked objects:
		On entry : 
		On exit  : 
		Unchanged: 
 Data sizes:     COMRAM   BANK0   BANK1   BANK2   BANK3   BANK4   BANK5   BANK6   BANK7   BANK8   BANK9  BANK10  BANK11  BANK12  BANK13  BANK14  BANK15
      Params:         0       0       4       0       0       0       0       0       0       0       0       0       0       0       0       0       0
      Locals:         0       0       3       0       0       0       0       0       0       0       0       0       0       0       0       0       0
      Temps:          0       0       2       0       0       0       0       0       0       0       0       0       0       0       0       0       0
      Totals:         0       0       9       0       0       0       0       0       0       0       0       0       0       0       0       0       0
Total ram usage:        9 bytes
 Hardware stack levels used:    1
 Hardware stack levels required when called:   10
 This function calls:
		_setBlink
		_setDigit
 This function is called by:
		_ReIndTimeEdit
		_InputText
 This function uses a non-reentrant model


 *************** function _setBlink *****************
 Defined at:
		line 307 in file "prog.c"
 Parameters:    Size  Location     Type
  line            1    wreg     unsigned char 
  symbol          1    0[BANK1 ] unsigned char 
  value           1    1[BANK1 ] unsigned char 
 Auto vars:     Size  Location     Type
  line            1    4[BANK1 ] unsigned char 
 Return value:  Size  Location     Type
                  1    wreg      void 
 Registers used:
		wreg, fsr2l, fsr2h, status,2, status,0, prodl, prodh
 Tracked objects:
		On entry : 
		On exit  : 
		Unchanged: 
 Data sizes:     COMRAM   BANK0   BANK1   BANK2   BANK3   BANK4   BANK5   BANK6   BANK7   BANK8   BANK9  BANK10  BANK11  BANK12  BANK13  BANK14  BANK15
      Params:         0       0       2       0       0       0       0       0       0       0       0       0       0       0       0       0       0
      Locals:         0       0       1       0       0       0       0       0       0       0       0       0       0       0       0       0       0
      Temps:          0       0       2       0       0       0       0       0       0       0       0       0       0       0       0       0       0
      Totals:         0       0       5       0       0       0       0       0       0       0       0       0       0       0       0       0       0
Total ram usage:        5 bytes
 Hardware stack levels used:    1
 Hardware stack levels required when called:    9
 This function calls:
		Nothing
 This function is called by:
		_OutputInteractiveData
 This function uses a non-reentrant model


 *************** function _InteractiveData_BlinkOFF *****************
 Defined at:
		line 885 in file "prog.c"
 Parameters:    Size  Location     Type
  InteractiveD    2    0[BANK1 ] PTR PTR struct .
		 -> InputText@InputData(66), TimeEdit@TimeData(32), 
  leght           1    2[BANK1 ] unsigned char 
 Auto vars:     Size  Location     Type
  i               1    5[BANK1 ] unsigned char 
 Return value:  Size  Location     Type
                  1    wreg      void 
 Registers used:
		wreg, fsr2l, fsr2h, status,2, status,0, prodl, prodh
 Tracked objects:
		On entry : 
		On exit  : 
		Unchanged: 
 Data sizes:     COMRAM   BANK0   BANK1   BANK2   BANK3   BANK4   BANK5   BANK6   BANK7   BANK8   BANK9  BANK10  BANK11  BANK12  BANK13  BANK14  BANK15
      Params:         0       0       3       0       0       0       0       0       0       0       0       0       0       0       0       0       0
      Locals:         0       0       1       0       0       0       0       0       0       0       0       0       0       0       0       0       0
      Temps:          0       0       2       0       0       0       0       0       0       0       0       0       0       0       0       0       0
      Totals:         0       0       6       0       0       0       0       0       0       0       0       0       0       0       0       0       0
Total ram usage:        6 bytes
 Hardware stack levels used:    1
 Hardware stack levels required when called:    9
 This function calls:
		Nothing
 This function is called by:
		_TimeData_BlinkOFF
		_InputText
 This function uses a non-reentrant model


 *************** function _CheckoutRegisterOfSymbol *****************
 Defined at:
		line 499 in file "prog.c"
 Parameters:    Size  Location     Type
  dig             1    wreg     unsigned char 
 Auto vars:     Size  Location     Type
  dig             1    0[BANK1 ] unsigned char 
 Return value:  Size  Location     Type
                  1    wreg      unsigned char 
 Registers used:
		wreg, status,2, status,0
 Tracked objects:
		On entry : 
		On exit  : 
		Unchanged: 
 Data sizes:     COMRAM   BANK0   BANK1   BANK2   BANK3   BANK4   BANK5   BANK6   BANK7   BANK8   BANK9  BANK10  BANK11  BANK12  BANK13  BANK14  BANK15
      Params:         0       0       0       0       0       0       0       0       0       0       0       0       0       0       0       0       0
      Locals:         0       0       1       0       0       0       0       0       0       0       0       0       0       0       0       0       0
      Temps:          0       0       0       0       0       0       0       0       0       0       0       0       0       0       0       0       0
      Totals:         0       0       1       0       0       0       0       0       0       0       0       0       0       0       0       0       0
Total ram usage:        1 bytes
 Hardware stack levels used:    1
 Hardware stack levels required when called:    9
 This function calls:
		Nothing
 This function is called by:
		_InputText
 This function uses a non-reentrant model


 *************** function _Format_EEPROM_Memory *****************
 Defined at:
		line 1793 in file "prog.c"
 Parameters:    Size  Location     Type
  first_cell      2   22[BANK1 ] unsigned int 
  last_cell       2   24[BANK1 ] unsigned int 
  interactive     1   26[BANK1 ] unsigned char 
 Auto vars:     Size  Location     Type
  i               2   31[BANK1 ] unsigned int 
 Return value:  Size  Location     Type
                  1    wreg      void 
 Registers used:
		wreg, fsr0l, fsr0h, fsr2l, fsr2h, status,2, status,0, tblptrl, tblptrh, tblptru, prodl, prodh, cstack
 Tracked objects:
		On entry : 
		On exit  : 
		Unchanged: 
 Data sizes:     COMRAM   BANK0   BANK1   BANK2   BANK3   BANK4   BANK5   BANK6   BANK7   BANK8   BANK9  BANK10  BANK11  BANK12  BANK13  BANK14  BANK15
      Params:         0       0       5       0       0       0       0       0       0       0       0       0       0       0       0       0       0
      Locals:         0       0       2       0       0       0       0       0       0       0       0       0       0       0       0       0       0
      Temps:          0       0       4       0       0       0       0       0       0       0       0       0       0       0       0       0       0
      Totals:         0       0      11       0       0       0       0       0       0       0       0       0       0       0       0       0       0
Total ram usage:       11 bytes
 Hardware stack levels used:    1
 Hardware stack levels required when called:   12
 This function calls:
		_EEWR
		_OutputSystemMessage
		_Select_OK_NO
 This function is called by:
		_ShowSchedulerMenu
		_PhonebookEdit
		_Settings
 This function uses a non-reentrant model


 *************** function _Select_OK_NO *****************
 Defined at:
		line 2919 in file "prog.c"
 Parameters:    Size  Location     Type
  text            2   20[BANK1 ] PTR unsigned char 
		 -> STR_44(17), STR_42(27), STR_41(15), STR_20(33), 
		 -> STR_19(17), STR_18(30), 
 Auto vars:     Size  Location     Type
		None
 Return value:  Size  Location     Type
                  1    wreg      unsigned char 
 Registers used:
		wreg, fsr0l, fsr0h, fsr2l, fsr2h, status,2, status,0, tblptrl, tblptrh, tblptru, prodl, prodh, cstack
 Tracked objects:
		On entry : 
		On exit  : 
		Unchanged: 
 Data sizes:     COMRAM   BANK0   BANK1   BANK2   BANK3   BANK4   BANK5   BANK6   BANK7   BANK8   BANK9  BANK10  BANK11  BANK12  BANK13  BANK14  BANK15
      Params:         0       0       2       0       0       0       0       0       0       0       0       0       0       0       0       0       0
      Locals:         0       0       0       0       0       0       0       0       0       0       0       0       0       0       0       0       0
      Temps:          0       0       0       0       0       0       0       0       0       0       0       0       0       0       0       0       0
      Totals:         0       0       2       0       0       0       0       0       0       0       0       0       0       0       0       0       0
Total ram usage:        2 bytes
 Hardware stack levels used:    1
 Hardware stack levels required when called:   11
 This function calls:
		_OutputString
		_clrInd
 This function is called by:
		_ShowSchedulerMenu
		_Format_EEPROM_Memory
		_PhonebookEdit
 This function uses a non-reentrant model


 *************** function _clrInd *****************
 Defined at:
		line 317 in file "prog.c"
 Parameters:    Size  Location     Type
		None
 Auto vars:     Size  Location     Type
  symb            1    3[BANK1 ] unsigned char 
  line            1    2[BANK1 ] unsigned char 
 Return value:  Size  Location     Type
                  1    wreg      void 
 Registers used:
		wreg, fsr2l, fsr2h, status,2, status,0, prodl, prodh
 Tracked objects:
		On entry : 
		On exit  : 
		Unchanged: 
 Data sizes:     COMRAM   BANK0   BANK1   BANK2   BANK3   BANK4   BANK5   BANK6   BANK7   BANK8   BANK9  BANK10  BANK11  BANK12  BANK13  BANK14  BANK15
      Params:         0       0       0       0       0       0       0       0       0       0       0       0       0       0       0       0       0
      Locals:         0       0       2       0       0       0       0       0       0       0       0       0       0       0       0       0       0
      Temps:          0       0       2       0       0       0       0       0       0       0       0       0       0       0       0       0       0
      Totals:         0       0       4       0       0       0       0       0       0       0       0       0       0       0       0       0       0
Total ram usage:        4 bytes
 Hardware stack levels used:    1
 Hardware stack levels required when called:    9
 This function calls:
		Nothing
 This function is called by:
		_TimeToInd
		_TimeEdit
		_ShowSchedulerMenu
		_Scheduler
		_SchedulerNew
		_main
		__setInputTextProps
		_InputText
		_WorkingWithGSM
		_Init_GSM
		_Select_OK_NO
		_ShowMenu
		_PhonebookEdit
		_main2
 This function uses a non-reentrant model


 *************** function _OutputString *****************
 Defined at:
		line 2316 in file "prog.c"
 Parameters:    Size  Location     Type
  stringData      2    9[BANK1 ] PTR unsigned char 
		 -> STR_56(10), STR_55(11), STR_54(12), STR_53(14), 
		 -> STR_52(9), STR_51(15), STR_50(15), STR_49(7), 
		 -> STR_48(6), STR_47(6), STR_46(6), STR_44(17), 
		 -> STR_42(27), STR_41(15), STR_40(12), STR_39(8), 
		 -> STR_38(14), STR_37(9), STR_36(14), STR_35(17), 
		 -> PhonebookEdit@num_cell(3), PhonebookEdit@Contact(33), STR_34(2), testSystemTimer@string(17), 
		 -> WorkingWithGSM@myOutputString(33), _setInputTextProps@Lang(8), _setInputTextProps@Aa(4), drowText@cutedString(17), 
		 -> STR_20(33), STR_19(17), STR_18(30), STR_17(16), 
		 -> STR_16(18), STR_15(17), STR_14(8), STR_13(7), 
		 -> RefreshSchedulerIndicator@num_1481(3), STR_12(13), STR_11(3), RefreshSchedulerIndicator@num(3), 
		 -> STR_10(17), TimeToInd@DataArrayOfLine2(13), TimeToInd@DataArray(17), STR_9(17), 
		 -> TimeToInd@TimeData(9), TimeToInd@D(4), STR_8(3), STR_7(3), 
		 -> STR_6(3), STR_5(3), STR_4(3), STR_3(3), 
		 -> STR_2(3), STR_1(3), NULL(0), 
  line            1   11[BANK1 ] unsigned char 
  position        1   12[BANK1 ] unsigned char 
  transfer_lin    1   13[BANK1 ] unsigned char 
 Auto vars:     Size  Location     Type
  s               1   16[BANK1 ] unsigned char 
  l               1   19[BANK1 ] unsigned char 
  i               2   17[BANK1 ] unsigned int 
 Return value:  Size  Location     Type
                  1    wreg      void 
 Registers used:
		wreg, fsr0l, fsr0h, fsr2l, fsr2h, status,2, status,0, tblptrl, tblptrh, tblptru, prodl, prodh, cstack
 Tracked objects:
		On entry : 
		On exit  : 
		Unchanged: 
 Data sizes:     COMRAM   BANK0   BANK1   BANK2   BANK3   BANK4   BANK5   BANK6   BANK7   BANK8   BANK9  BANK10  BANK11  BANK12  BANK13  BANK14  BANK15
      Params:         0       0       5       0       0       0       0       0       0       0       0       0       0       0       0       0       0
      Locals:         0       0       4       0       0       0       0       0       0       0       0       0       0       0       0       0       0
      Temps:          0       0       2       0       0       0       0       0       0       0       0       0       0       0       0       0       0
      Totals:         0       0      11       0       0       0       0       0       0       0       0       0       0       0       0       0       0
Total ram usage:       11 bytes
 Hardware stack levels used:    1
 Hardware stack levels required when called:   10
 This function calls:
		_setDigit
 This function is called by:
		_TimeToInd
		_RefreshSchedulerIndicator
		__setInputTextProps
		_WorkingWithGSM
		_Select_OK_NO
		_ShowMenu
		_PhonebookEdit
 This function uses a non-reentrant model


 *************** function _setDigit *****************
 Defined at:
		line 299 in file "prog.c"
 Parameters:    Size  Location     Type
  line            1    wreg     unsigned char 
  symbol          1    0[BANK1 ] unsigned char 
  data            1    1[BANK1 ] unsigned char 
 Auto vars:     Size  Location     Type
  line            1    8[BANK1 ] unsigned char 
  value           1    7[BANK1 ] unsigned char 
  value0          1    6[BANK1 ] unsigned char 
 Return value:  Size  Location     Type
                  1    wreg      void 
 Registers used:
		wreg, fsr2l, fsr2h, status,2, status,0, prodl, prodh
 Tracked objects:
		On entry : 
		On exit  : 
		Unchanged: 
 Data sizes:     COMRAM   BANK0   BANK1   BANK2   BANK3   BANK4   BANK5   BANK6   BANK7   BANK8   BANK9  BANK10  BANK11  BANK12  BANK13  BANK14  BANK15
      Params:         0       0       2       0       0       0       0       0       0       0       0       0       0       0       0       0       0
      Locals:         0       0       5       0       0       0       0       0       0       0       0       0       0       0       0       0       0
      Temps:          0       0       2       0       0       0       0       0       0       0       0       0       0       0       0       0       0
      Totals:         0       0       9       0       0       0       0       0       0       0       0       0       0       0       0       0       0
Total ram usage:        9 bytes
 Hardware stack levels used:    1
 Hardware stack levels required when called:    9
 This function calls:
		Nothing
 This function is called by:
		_OutputInteractiveData
		_OutputString
 This function uses a non-reentrant model


 *************** function _OutputSystemMessage *****************
 Defined at:
		line 2333 in file "prog.c"
 Parameters:    Size  Location     Type
  stringData      2    0[BANK1 ] PTR unsigned char 
		 -> STR_33(27), STR_31(23), STR_29(20), STR_28(23), 
		 -> STR_26(26), STR_25(11), STR_21(7), 
 Auto vars:     Size  Location     Type
  position        1    0        unsigned char 
  s               1    8[BANK1 ] unsigned char 
  symb            1   11[BANK1 ] unsigned char 
  l               1    9[BANK1 ] unsigned char 
  line            1   10[BANK1 ] unsigned char 
  i               2    6[BANK1 ] unsigned int 
 Return value:  Size  Location     Type
                  1    wreg      void 
 Registers used:
		wreg, fsr2l, fsr2h, status,2, status,0, tblptrl, tblptrh, tblptru, prodl, prodh
 Tracked objects:
		On entry : 
		On exit  : 
		Unchanged: 
 Data sizes:     COMRAM   BANK0   BANK1   BANK2   BANK3   BANK4   BANK5   BANK6   BANK7   BANK8   BANK9  BANK10  BANK11  BANK12  BANK13  BANK14  BANK15
      Params:         0       0       2       0       0       0       0       0       0       0       0       0       0       0       0       0       0
      Locals:         0       0       6       0       0       0       0       0       0       0       0       0       0       0       0       0       0
      Temps:          0       0       4       0       0       0       0       0       0       0       0       0       0       0       0       0       0
      Totals:         0       0      12       0       0       0       0       0       0       0       0       0       0       0       0       0       0
Total ram usage:       12 bytes
 Hardware stack levels used:    1
 Hardware stack levels required when called:    9
 This function calls:
		Nothing
 This function is called by:
		_Format_EEPROM_Memory
		_Init_GSM
 This function uses a non-reentrant model


 *************** function _EEWR *****************
 Defined at:
		line 814 in file "prog.c"
 Parameters:    Size  Location     Type
  adress          2    0[BANK1 ] unsigned int 
  data            1    2[BANK1 ] unsigned char 
 Auto vars:     Size  Location     Type
  INTCON_BUP      1    3[BANK1 ] volatile unsigned char 
 Return value:  Size  Location     Type
                  1    wreg      void 
 Registers used:
		wreg, status,2
 Tracked objects:
		On entry : 
		On exit  : 
		Unchanged: 
 Data sizes:     COMRAM   BANK0   BANK1   BANK2   BANK3   BANK4   BANK5   BANK6   BANK7   BANK8   BANK9  BANK10  BANK11  BANK12  BANK13  BANK14  BANK15
      Params:         0       0       3       0       0       0       0       0       0       0       0       0       0       0       0       0       0
      Locals:         0       0       1       0       0       0       0       0       0       0       0       0       0       0       0       0       0
      Temps:          0       0       0       0       0       0       0       0       0       0       0       0       0       0       0       0       0
      Totals:         0       0       4       0       0       0       0       0       0       0       0       0       0       0       0       0       0
Total ram usage:        4 bytes
 Hardware stack levels used:    1
 Hardware stack levels required when called:    9
 This function calls:
		Nothing
 This function is called by:
		_WriteArrayToEEPROM
		_Format_EEPROM_Memory
		_Save_USART_SpeedNumber
		_main2
 This function uses a non-reentrant model


 *************** function _FillPhonebookCellFromEEPROM *****************
 Defined at:
		line 1098 in file "prog.c"
 Parameters:    Size  Location     Type
  container       2   13[BANK1 ] PTR struct .
		 -> PhonebookEdit@Contact(33), FindPhoneContactByNumber@container(33), 
  adress_start    2   15[BANK1 ] unsigned int 
 Auto vars:     Size  Location     Type
		None
 Return value:  Size  Location     Type
                  1    wreg      void 
 Registers used:
		wreg, fsr2l, fsr2h, status,2, status,0, cstack
 Tracked objects:
		On entry : 
		On exit  : 
		Unchanged: 
 Data sizes:     COMRAM   BANK0   BANK1   BANK2   BANK3   BANK4   BANK5   BANK6   BANK7   BANK8   BANK9  BANK10  BANK11  BANK12  BANK13  BANK14  BANK15
      Params:         0       0       4       0       0       0       0       0       0       0       0       0       0       0       0       0       0
      Locals:         0       0       0       0       0       0       0       0       0       0       0       0       0       0       0       0       0
      Temps:          0       0       0       0       0       0       0       0       0       0       0       0       0       0       0       0       0
      Totals:         0       0       4       0       0       0       0       0       0       0       0       0       0       0       0       0       0
Total ram usage:        4 bytes
 Hardware stack levels used:    1
 Hardware stack levels required when called:   11
 This function calls:
		_FillArrayFromEEPROM
 This function is called by:
		_PhonebookEdit
 This function uses a non-reentrant model


 *************** function _FillArrayFromEEPROM *****************
 Defined at:
		line 1092 in file "prog.c"
 Parameters:    Size  Location     Type
  container       2    4[BANK1 ] PTR unsigned char 
		 -> PhonebookEdit@Contact(33), FindPhoneContactByNumber@container(33), FindNextTimeStart@CellsData(8), RefreshSchedulerIndicator@CellsData(8), 
		 -> FindCell@CellsData(8), TimeToInd@CellsData(8), 
  adress_start    2    6[BANK1 ] unsigned int 
  quantity        2    8[BANK1 ] unsigned int 
 Auto vars:     Size  Location     Type
  i               1   12[BANK1 ] unsigned char 
 Return value:  Size  Location     Type
                  1    wreg      void 
 Registers used:
		wreg, fsr2l, fsr2h, status,2, status,0, cstack
 Tracked objects:
		On entry : 
		On exit  : 
		Unchanged: 
 Data sizes:     COMRAM   BANK0   BANK1   BANK2   BANK3   BANK4   BANK5   BANK6   BANK7   BANK8   BANK9  BANK10  BANK11  BANK12  BANK13  BANK14  BANK15
      Params:         0       0       6       0       0       0       0       0       0       0       0       0       0       0       0       0       0
      Locals:         0       0       1       0       0       0       0       0       0       0       0       0       0       0       0       0       0
      Temps:          0       0       2       0       0       0       0       0       0       0       0       0       0       0       0       0       0
      Totals:         0       0       9       0       0       0       0       0       0       0       0       0       0       0       0       0       0
Total ram usage:        9 bytes
 Hardware stack levels used:    1
 Hardware stack levels required when called:   10
 This function calls:
		_EERD
 This function is called by:
		_FillPhonebookCellFromEEPROM
		_ReadDataOfCell
 This function uses a non-reentrant model


 *************** function _EERD *****************
 Defined at:
		line 835 in file "prog.c"
 Parameters:    Size  Location     Type
  adress          2    0[BANK1 ] unsigned int 
 Auto vars:     Size  Location     Type
  EEDATA_BUP      1    3[BANK1 ] volatile unsigned char 
  INTCON_BUP      1    2[BANK1 ] volatile unsigned char 
 Return value:  Size  Location     Type
                  1    wreg      unsigned char 
 Registers used:
		wreg, status,2
 Tracked objects:
		On entry : 
		On exit  : 
		Unchanged: 
 Data sizes:     COMRAM   BANK0   BANK1   BANK2   BANK3   BANK4   BANK5   BANK6   BANK7   BANK8   BANK9  BANK10  BANK11  BANK12  BANK13  BANK14  BANK15
      Params:         0       0       2       0       0       0       0       0       0       0       0       0       0       0       0       0       0
      Locals:         0       0       2       0       0       0       0       0       0       0       0       0       0       0       0       0       0
      Temps:          0       0       0       0       0       0       0       0       0       0       0       0       0       0       0       0       0
      Totals:         0       0       4       0       0       0       0       0       0       0       0       0       0       0       0       0       0
Total ram usage:        4 bytes
 Hardware stack levels used:    1
 Hardware stack levels required when called:    9
 This function calls:
		Nothing
 This function is called by:
		_FillArrayFromEEPROM
		_main
		_Read_USART_SpeedNumber
 This function uses a non-reentrant model


 *************** function _FillMinutes *****************
 Defined at:
		line 1855 in file "prog.c"
 Parameters:    Size  Location     Type
		None
 Auto vars:     Size  Location     Type
		None
 Return value:  Size  Location     Type
                  1    wreg      void 
 Registers used:
		wreg, status,2, status,0
 Tracked objects:
		On entry : 
		On exit  : 
		Unchanged: 
 Data sizes:     COMRAM   BANK0   BANK1   BANK2   BANK3   BANK4   BANK5   BANK6   BANK7   BANK8   BANK9  BANK10  BANK11  BANK12  BANK13  BANK14  BANK15
      Params:         0       0       0       0       0       0       0       0       0       0       0       0       0       0       0       0       0
      Locals:         0       0       0       0       0       0       0       0       0       0       0       0       0       0       0       0       0
      Temps:          0       0       0       0       0       0       0       0       0       0       0       0       0       0       0       0       0
      Totals:         0       0       0       0       0       0       0       0       0       0       0       0       0       0       0       0       0
Total ram usage:        0 bytes
 Hardware stack levels used:    1
 Hardware stack levels required when called:    9
 This function calls:
		Nothing
 This function is called by:
		_main2
 This function uses a non-reentrant model


 *************** function _F_l *****************
 Defined at:
		line 2091 in file "prog.c"
 Parameters:    Size  Location     Type
		None
 Auto vars:     Size  Location     Type
  digit           1   72[BANK0 ] unsigned char 
  symbol          2   79[BANK0 ] int 
  a               2   75[BANK0 ] int 
  _KeyIndex       1   74[BANK0 ] unsigned char 
  data_temp       1   73[BANK0 ] unsigned char 
  line            1   81[BANK0 ] unsigned char 
  digsAtrib       2   77[BANK0 ] PTR struct .
		 -> digitsAtrib_system_message(32), digitsAtrib(32), 
  digs            2   70[BANK0 ] PTR unsigned char 
		 -> digits_system_message(32), digits(32), 
  MinuteAgo       1   69[BANK0 ] unsigned char 
 Return value:  Size  Location     Type
                  1    wreg      void 
 Registers used:
		wreg, fsr1l, fsr1h, fsr2l, fsr2h, status,2, status,0, tblptrl, tblptrh, tblptru, prodl, prodh, cstack
 Tracked objects:
		On entry : 
		On exit  : 
		Unchanged: 
 Data sizes:     COMRAM   BANK0   BANK1   BANK2   BANK3   BANK4   BANK5   BANK6   BANK7   BANK8   BANK9  BANK10  BANK11  BANK12  BANK13  BANK14  BANK15
      Params:         0       0       0       0       0       0       0       0       0       0       0       0       0       0       0       0       0
      Locals:         0      13       0       0       0       0       0       0       0       0       0       0       0       0       0       0       0
      Temps:          0      17       0       0       0       0       0       0       0       0       0       0       0       0       0       0       0
      Totals:         0      30       0       0       0       0       0       0       0       0       0       0       0       0       0       0       0
Total ram usage:       30 bytes
 Hardware stack levels used:    1
 Hardware stack levels required when called:    8
 This function calls:
		_ConvKeyNum
		_ProcessIncommingUartData
		_ProcessSystemMessageShowing
		_SendSymbolToLCD
		_SignalsOnOff
		_getLcdCodeOfChar
		i1_FillMinutes
		i1_lcd_send_byte
 This function is called by:
		Interrupt level 1
 This function uses a non-reentrant model


 *************** function i1_lcd_send_byte *****************
 Defined at:
		line 1182 in file "prog.c"
 Parameters:    Size  Location     Type
  data            1    wreg     unsigned char 
 Auto vars:     Size  Location     Type
  data            1   30[COMRAM] unsigned char 
 Return value:  Size  Location     Type
                  1    wreg      void 
 Registers used:
		wreg, status,2, status,0, prodl, prodh, cstack
 Tracked objects:
		On entry : 
		On exit  : 
		Unchanged: 
 Data sizes:     COMRAM   BANK0   BANK1   BANK2   BANK3   BANK4   BANK5   BANK6   BANK7   BANK8   BANK9  BANK10  BANK11  BANK12  BANK13  BANK14  BANK15
      Params:         0       0       0       0       0       0       0       0       0       0       0       0       0       0       0       0       0
      Locals:         1       0       0       0       0       0       0       0       0       0       0       0       0       0       0       0       0
      Temps:          0       0       0       0       0       0       0       0       0       0       0       0       0       0       0       0       0
      Totals:         1       0       0       0       0       0       0       0       0       0       0       0       0       0       0       0       0
Total ram usage:        1 bytes
 Hardware stack levels used:    1
 Hardware stack levels required when called:    4
 This function calls:
		i1_lcd_send_initial_half_byte
 This function is called by:
		_F_l
 This function uses a non-reentrant model


 *************** function i1_lcd_send_initial_half_byte *****************
 Defined at:
		line 1175 in file "prog.c"
 Parameters:    Size  Location     Type
  data            1    wreg     unsigned char 
 Auto vars:     Size  Location     Type
  data            1   27[COMRAM] unsigned char 
 Return value:  Size  Location     Type
                  1    wreg      void 
 Registers used:
		wreg, status,2, status,0, prodl, prodh
 Tracked objects:
		On entry : 
		On exit  : 
		Unchanged: 
 Data sizes:     COMRAM   BANK0   BANK1   BANK2   BANK3   BANK4   BANK5   BANK6   BANK7   BANK8   BANK9  BANK10  BANK11  BANK12  BANK13  BANK14  BANK15
      Params:         0       0       0       0       0       0       0       0       0       0       0       0       0       0       0       0       0
      Locals:         3       0       0       0       0       0       0       0       0       0       0       0       0       0       0       0       0
      Temps:          0       0       0       0       0       0       0       0       0       0       0       0       0       0       0       0       0
      Totals:         3       0       0       0       0       0       0       0       0       0       0       0       0       0       0       0       0
Total ram usage:        3 bytes
 Hardware stack levels used:    1
 Hardware stack levels required when called:    3
 This function calls:
		Nothing
 This function is called by:
		i1_lcd_send_byte
 This function uses a non-reentrant model


 *************** function i1_FillMinutes *****************
 Defined at:
		line 1855 in file "prog.c"
 Parameters:    Size  Location     Type
		None
 Auto vars:     Size  Location     Type
		None
 Return value:  Size  Location     Type
                  1    wreg      void 
 Registers used:
		wreg, status,2, status,0
 Tracked objects:
		On entry : 
		On exit  : 
		Unchanged: 
 Data sizes:     COMRAM   BANK0   BANK1   BANK2   BANK3   BANK4   BANK5   BANK6   BANK7   BANK8   BANK9  BANK10  BANK11  BANK12  BANK13  BANK14  BANK15
      Params:         0       0       0       0       0       0       0       0       0       0       0       0       0       0       0       0       0
      Locals:         0       0       0       0       0       0       0       0       0       0       0       0       0       0       0       0       0
      Temps:          0       0       0       0       0       0       0       0       0       0       0       0       0       0       0       0       0
      Totals:         0       0       0       0       0       0       0       0       0       0       0       0       0       0       0       0       0
Total ram usage:        0 bytes
 Hardware stack levels used:    1
 Hardware stack levels required when called:    3
 This function calls:
		Nothing
 This function is called by:
		_F_l
 This function uses a non-reentrant model


 *************** function _getLcdCodeOfChar *****************
 Defined at:
		line 328 in file "prog.c"
 Parameters:    Size  Location     Type
  dig             1    wreg     unsigned char 
 Auto vars:     Size  Location     Type
  dig             1   27[COMRAM] unsigned char 
 Return value:  Size  Location     Type
                  1    wreg      unsigned char 
 Registers used:
		wreg, status,2, status,0
 Tracked objects:
		On entry : 
		On exit  : 
		Unchanged: 
 Data sizes:     COMRAM   BANK0   BANK1   BANK2   BANK3   BANK4   BANK5   BANK6   BANK7   BANK8   BANK9  BANK10  BANK11  BANK12  BANK13  BANK14  BANK15
      Params:         0       0       0       0       0       0       0       0       0       0       0       0       0       0       0       0       0
      Locals:         1       0       0       0       0       0       0       0       0       0       0       0       0       0       0       0       0
      Temps:          0       0       0       0       0       0       0       0       0       0       0       0       0       0       0       0       0
      Totals:         1       0       0       0       0       0       0       0       0       0       0       0       0       0       0       0       0
Total ram usage:        1 bytes
 Hardware stack levels used:    1
 Hardware stack levels required when called:    3
 This function calls:
		Nothing
 This function is called by:
		_F_l
 This function uses a non-reentrant model


 *************** function _SignalsOnOff *****************
 Defined at:
		line 1804 in file "prog.c"
 Parameters:    Size  Location     Type
		None
 Auto vars:     Size  Location     Type
  DayTime         2   16[BANK0 ] unsigned int 
  ThisTime        2   14[BANK0 ] unsigned int 
  ThisDay         1   20[BANK0 ] unsigned char 
  TimeStop        2   10[BANK0 ] unsigned int 
  TimeStart       2    8[BANK0 ] unsigned int 
  Signals         1   19[BANK0 ] unsigned char 
  Days            1   18[BANK0 ] unsigned char 
  Data            1   21[BANK0 ] unsigned char 
  CellsData       8    0[BANK0 ] unsigned char [8]
  Data            4   22[BANK0 ] unsigned long 
 Return value:  Size  Location     Type
                  1    wreg      void 
 Registers used:
		wreg, fsr2l, fsr2h, status,2, status,0, prodl, prodh, cstack
 Tracked objects:
		On entry : 
		On exit  : 
		Unchanged: 
 Data sizes:     COMRAM   BANK0   BANK1   BANK2   BANK3   BANK4   BANK5   BANK6   BANK7   BANK8   BANK9  BANK10  BANK11  BANK12  BANK13  BANK14  BANK15
      Params:         0       0       0       0       0       0       0       0       0       0       0       0       0       0       0       0       0
      Locals:         0      26       0       0       0       0       0       0       0       0       0       0       0       0       0       0       0
      Temps:          1       0       0       0       0       0       0       0       0       0       0       0       0       0       0       0       0
      Totals:         1      26       0       0       0       0       0       0       0       0       0       0       0       0       0       0       0
Total ram usage:       27 bytes
 Hardware stack levels used:    1
 Hardware stack levels required when called:    6
 This function calls:
		_ConvertDayToBit
		_ReadDataOfCell_interr
		i1_EEWR
		i1___aldiv
		i1___lwdiv
		i1___lwmod
 This function is called by:
		_F_l
 This function uses a non-reentrant model


 *************** function i1___lwmod *****************
 Defined at:
		line 8 in file "/opt/microchip/xc8/v1.37/sources/common/lwmod.c"
 Parameters:    Size  Location     Type
  dividend        2   27[COMRAM] unsigned int 
  divisor         2   29[COMRAM] unsigned int 
 Auto vars:     Size  Location     Type
  __lwmod         1   31[COMRAM] unsigned char 
 Return value:  Size  Location     Type
                  2   27[COMRAM] unsigned int 
 Registers used:
		wreg, status,2, status,0
 Tracked objects:
		On entry : 
		On exit  : 
		Unchanged: 
 Data sizes:     COMRAM   BANK0   BANK1   BANK2   BANK3   BANK4   BANK5   BANK6   BANK7   BANK8   BANK9  BANK10  BANK11  BANK12  BANK13  BANK14  BANK15
      Params:         4       0       0       0       0       0       0       0       0       0       0       0       0       0       0       0       0
      Locals:         1       0       0       0       0       0       0       0       0       0       0       0       0       0       0       0       0
      Temps:          0       0       0       0       0       0       0       0       0       0       0       0       0       0       0       0       0
      Totals:         5       0       0       0       0       0       0       0       0       0       0       0       0       0       0       0       0
Total ram usage:        5 bytes
 Hardware stack levels used:    1
 Hardware stack levels required when called:    3
 This function calls:
		Nothing
 This function is called by:
		_SignalsOnOff
 This function uses a non-reentrant model


 *************** function i1___lwdiv *****************
 Defined at:
		line 8 in file "/opt/microchip/xc8/v1.37/sources/common/lwdiv.c"
 Parameters:    Size  Location     Type
  dividend        2   27[COMRAM] unsigned int 
  divisor         2   29[COMRAM] unsigned int 
 Auto vars:     Size  Location     Type
  __lwdiv         2   32[COMRAM] unsigned int 
  __lwdiv         1   31[COMRAM] unsigned char 
 Return value:  Size  Location     Type
                  2   27[COMRAM] unsigned int 
 Registers used:
		wreg, status,2, status,0
 Tracked objects:
		On entry : 
		On exit  : 
		Unchanged: 
 Data sizes:     COMRAM   BANK0   BANK1   BANK2   BANK3   BANK4   BANK5   BANK6   BANK7   BANK8   BANK9  BANK10  BANK11  BANK12  BANK13  BANK14  BANK15
      Params:         4       0       0       0       0       0       0       0       0       0       0       0       0       0       0       0       0
      Locals:         3       0       0       0       0       0       0       0       0       0       0       0       0       0       0       0       0
      Temps:          0       0       0       0       0       0       0       0       0       0       0       0       0       0       0       0       0
      Totals:         7       0       0       0       0       0       0       0       0       0       0       0       0       0       0       0       0
Total ram usage:        7 bytes
 Hardware stack levels used:    1
 Hardware stack levels required when called:    3
 This function calls:
		Nothing
 This function is called by:
		_SignalsOnOff
 This function uses a non-reentrant model


 *************** function i1___aldiv *****************
 Defined at:
		line 8 in file "/opt/microchip/xc8/v1.37/sources/common/aldiv.c"
 Parameters:    Size  Location     Type
  dividend        4   27[COMRAM] long 
  divisor         4   31[COMRAM] long 
 Auto vars:     Size  Location     Type
  __aldiv         4   37[COMRAM] long 
  __aldiv         1   36[COMRAM] unsigned char 
  __aldiv         1   35[COMRAM] unsigned char 
 Return value:  Size  Location     Type
                  4   27[COMRAM] long 
 Registers used:
		wreg, status,2, status,0
 Tracked objects:
		On entry : 
		On exit  : 
		Unchanged: 
 Data sizes:     COMRAM   BANK0   BANK1   BANK2   BANK3   BANK4   BANK5   BANK6   BANK7   BANK8   BANK9  BANK10  BANK11  BANK12  BANK13  BANK14  BANK15
      Params:         8       0       0       0       0       0       0       0       0       0       0       0       0       0       0       0       0
      Locals:         6       0       0       0       0       0       0       0       0       0       0       0       0       0       0       0       0
      Temps:          0       0       0       0       0       0       0       0       0       0       0       0       0       0       0       0       0
      Totals:        14       0       0       0       0       0       0       0       0       0       0       0       0       0       0       0       0
Total ram usage:       14 bytes
 Hardware stack levels used:    1
 Hardware stack levels required when called:    3
 This function calls:
		Nothing
 This function is called by:
		_SignalsOnOff
 This function uses a non-reentrant model


 *************** function _ReadDataOfCell_interr *****************
 Defined at:
		line 1419 in file "prog.c"
 Parameters:    Size  Location     Type
  CellsData       1    wreg     PTR unsigned char 
		 -> SignalsOnOff@CellsData(8), 
  Data            1   39[COMRAM] PTR unsigned long 
		 -> SignalsOnOff@Data(4), 
  TargetAdress    2   40[COMRAM] unsigned int 
 Auto vars:     Size  Location     Type
  CellsData       1   50[COMRAM] PTR unsigned char 
		 -> SignalsOnOff@CellsData(8), 
  i               2   51[COMRAM] int 
 Return value:  Size  Location     Type
                  1    wreg      void 
 Registers used:
		wreg, fsr2l, fsr2h, status,2, status,0, cstack
 Tracked objects:
		On entry : 
		On exit  : 
		Unchanged: 
 Data sizes:     COMRAM   BANK0   BANK1   BANK2   BANK3   BANK4   BANK5   BANK6   BANK7   BANK8   BANK9  BANK10  BANK11  BANK12  BANK13  BANK14  BANK15
      Params:         3       0       0       0       0       0       0       0       0       0       0       0       0       0       0       0       0
      Locals:         3       0       0       0       0       0       0       0       0       0       0       0       0       0       0       0       0
      Temps:          8       0       0       0       0       0       0       0       0       0       0       0       0       0       0       0       0
      Totals:        14       0       0       0       0       0       0       0       0       0       0       0       0       0       0       0       0
Total ram usage:       14 bytes
 Hardware stack levels used:    1
 Hardware stack levels required when called:    5
 This function calls:
		_FillArrayFromEEPROM_interr
 This function is called by:
		_SignalsOnOff
 This function uses a non-reentrant model


 *************** function _FillArrayFromEEPROM_interr *****************
 Defined at:
		line 1108 in file "prog.c"
 Parameters:    Size  Location     Type
  container       1    wreg     PTR unsigned char 
		 -> SignalsOnOff@CellsData(8), 
  adress_start    2   31[COMRAM] unsigned int 
  quantity        2   33[COMRAM] unsigned int 
 Auto vars:     Size  Location     Type
  container       1   37[COMRAM] PTR unsigned char 
		 -> SignalsOnOff@CellsData(8), 
  i               1   38[COMRAM] unsigned char 
 Return value:  Size  Location     Type
                  1    wreg      void 
 Registers used:
		wreg, fsr2l, fsr2h, status,2, status,0, cstack
 Tracked objects:
		On entry : 
		On exit  : 
		Unchanged: 
 Data sizes:     COMRAM   BANK0   BANK1   BANK2   BANK3   BANK4   BANK5   BANK6   BANK7   BANK8   BANK9  BANK10  BANK11  BANK12  BANK13  BANK14  BANK15
      Params:         4       0       0       0       0       0       0       0       0       0       0       0       0       0       0       0       0
      Locals:         2       0       0       0       0       0       0       0       0       0       0       0       0       0       0       0       0
      Temps:          2       0       0       0       0       0       0       0       0       0       0       0       0       0       0       0       0
      Totals:         8       0       0       0       0       0       0       0       0       0       0       0       0       0       0       0       0
Total ram usage:        8 bytes
 Hardware stack levels used:    1
 Hardware stack levels required when called:    4
 This function calls:
		i1_EERD
 This function is called by:
		_ReadDataOfCell_interr
 This function uses a non-reentrant model


 *************** function _ConvertDayToBit *****************
 Defined at:
		line 1399 in file "prog.c"
 Parameters:    Size  Location     Type
  DayNumber       1    wreg     unsigned char 
 Auto vars:     Size  Location     Type
  DayNumber       1   27[COMRAM] unsigned char 
 Return value:  Size  Location     Type
                  1    wreg      unsigned char 
 Registers used:
		wreg, status,2, status,0
 Tracked objects:
		On entry : 
		On exit  : 
		Unchanged: 
 Data sizes:     COMRAM   BANK0   BANK1   BANK2   BANK3   BANK4   BANK5   BANK6   BANK7   BANK8   BANK9  BANK10  BANK11  BANK12  BANK13  BANK14  BANK15
      Params:         0       0       0       0       0       0       0       0       0       0       0       0       0       0       0       0       0
      Locals:         1       0       0       0       0       0       0       0       0       0       0       0       0       0       0       0       0
      Temps:          0       0       0       0       0       0       0       0       0       0       0       0       0       0       0       0       0
      Totals:         1       0       0       0       0       0       0       0       0       0       0       0       0       0       0       0       0
Total ram usage:        1 bytes
 Hardware stack levels used:    1
 Hardware stack levels required when called:    3
 This function calls:
		Nothing
 This function is called by:
		_SignalsOnOff
 This function uses a non-reentrant model


 *************** function _SendSymbolToLCD *****************
 Defined at:
		line 1148 in file "prog.c"
 Parameters:    Size  Location     Type
  Symb            1    wreg     unsigned char 
 Auto vars:     Size  Location     Type
  Symb            1   34[COMRAM] unsigned char 
 Return value:  Size  Location     Type
                  1    wreg      void 
 Registers used:
		wreg, status,2, status,0, prodl, prodh, cstack
 Tracked objects:
		On entry : 
		On exit  : 
		Unchanged: 
 Data sizes:     COMRAM   BANK0   BANK1   BANK2   BANK3   BANK4   BANK5   BANK6   BANK7   BANK8   BANK9  BANK10  BANK11  BANK12  BANK13  BANK14  BANK15
      Params:         0       0       0       0       0       0       0       0       0       0       0       0       0       0       0       0       0
      Locals:         5       0       0       0       0       0       0       0       0       0       0       0       0       0       0       0       0
      Temps:          0       0       0       0       0       0       0       0       0       0       0       0       0       0       0       0       0
      Totals:         5       0       0       0       0       0       0       0       0       0       0       0       0       0       0       0       0
Total ram usage:        5 bytes
 Hardware stack levels used:    1
 Hardware stack levels required when called:    4
 This function calls:
		_delay
 This function is called by:
		_F_l
 This function uses a non-reentrant model


 *************** function _delay *****************
 Defined at:
		line 1137 in file "prog.c"
 Parameters:    Size  Location     Type
  del             1    wreg     unsigned char 
  count           2   27[COMRAM] unsigned int 
 Auto vars:     Size  Location     Type
  del             1   29[COMRAM] unsigned char 
 Return value:  Size  Location     Type
                  1    wreg      void 
 Registers used:
		wreg, status,2, status,0
 Tracked objects:
		On entry : 
		On exit  : 
		Unchanged: 
 Data sizes:     COMRAM   BANK0   BANK1   BANK2   BANK3   BANK4   BANK5   BANK6   BANK7   BANK8   BANK9  BANK10  BANK11  BANK12  BANK13  BANK14  BANK15
      Params:         2       0       0       0       0       0       0       0       0       0       0       0       0       0       0       0       0
      Locals:         1       0       0       0       0       0       0       0       0       0       0       0       0       0       0       0       0
      Temps:          0       0       0       0       0       0       0       0       0       0       0       0       0       0       0       0       0
      Totals:         3       0       0       0       0       0       0       0       0       0       0       0       0       0       0       0       0
Total ram usage:        3 bytes
 Hardware stack levels used:    1
 Hardware stack levels required when called:    3
 This function calls:
		Nothing
 This function is called by:
		_SendSymbolToLCD
 This function uses a non-reentrant model


 *************** function _ProcessSystemMessageShowing *****************
 Defined at:
		line 2084 in file "prog.c"
 Parameters:    Size  Location     Type
		None
 Auto vars:     Size  Location     Type
		None
 Return value:  Size  Location     Type
                  1    wreg      void 
 Registers used:
		None
 Tracked objects:
		On entry : 
		On exit  : 
		Unchanged: 
 Data sizes:     COMRAM   BANK0   BANK1   BANK2   BANK3   BANK4   BANK5   BANK6   BANK7   BANK8   BANK9  BANK10  BANK11  BANK12  BANK13  BANK14  BANK15
      Params:         0       0       0       0       0       0       0       0       0       0       0       0       0       0       0       0       0
      Locals:         0       0       0       0       0       0       0       0       0       0       0       0       0       0       0       0       0
      Temps:          0       0       0       0       0       0       0       0       0       0       0       0       0       0       0       0       0
      Totals:         0       0       0       0       0       0       0       0       0       0       0       0       0       0       0       0       0
Total ram usage:        0 bytes
 Hardware stack levels used:    1
 Hardware stack levels required when called:    3
 This function calls:
		Nothing
 This function is called by:
		_F_l
 This function uses a non-reentrant model


 *************** function _ProcessIncommingUartData *****************
 Defined at:
		line 1911 in file "prog.c"
 Parameters:    Size  Location     Type
		None
 Auto vars:     Size  Location     Type
  i               1   51[BANK0 ] unsigned char 
  number         11   38[BANK0 ] unsigned char [11]
  contact         2   49[BANK0 ] PTR struct .
		 -> FindPhoneContactByNumber@container(33), NULL(0), 
 Return value:  Size  Location     Type
                  1    wreg      void 
 Registers used:
		wreg, fsr1l, fsr1h, fsr2l, fsr2h, status,2, status,0, tblptrl, tblptrh, tblptru, prodl, prodh, cstack
 Tracked objects:
		On entry : 
		On exit  : 
		Unchanged: 
 Data sizes:     COMRAM   BANK0   BANK1   BANK2   BANK3   BANK4   BANK5   BANK6   BANK7   BANK8   BANK9  BANK10  BANK11  BANK12  BANK13  BANK14  BANK15
      Params:         0       0       0       0       0       0       0       0       0       0       0       0       0       0       0       0       0
      Locals:         0      14       0       0       0       0       0       0       0       0       0       0       0       0       0       0       0
      Temps:          0       0       0       0       0       0       0       0       0       0       0       0       0       0       0       0       0
      Totals:         0      14       0       0       0       0       0       0       0       0       0       0       0       0       0       0       0
Total ram usage:       14 bytes
 Hardware stack levels used:    1
 Hardware stack levels required when called:    7
 This function calls:
		_FindPhoneContactByNumber
		__FindIncommingData_interrupt
		__getContainer_Clock_from_GSM
		__getContainer_Incomming_Call_Data
		__getContainer_Incomming_DTMF_Data
		i1_CleanStringArray
		i1_EEWR
		i1_OutputSystemMessage
		i1_SendCommandToUSART
 This function is called by:
		_F_l
 This function uses a non-reentrant model


 *************** function i1_SendCommandToUSART *****************
 Defined at:
		line 2765 in file "prog.c"
 Parameters:    Size  Location     Type
  command         2   27[COMRAM] PTR unsigned char 
		 -> STR_45(4), STR_43(4), TelephoneCall@command(18), STR_32(10), 
		 -> STR_30(5), STR_27(3), InputText@ret_string(33), STR_24(4), 
		 -> STR_23(4), NULL(0), 
  wait            1   29[COMRAM] unsigned char 
 Auto vars:     Size  Location     Type
		None
 Return value:  Size  Location     Type
                  1    wreg      void 
 Registers used:
		wreg, status,2, status,0
 Tracked objects:
		On entry : 
		On exit  : 
		Unchanged: 
 Data sizes:     COMRAM   BANK0   BANK1   BANK2   BANK3   BANK4   BANK5   BANK6   BANK7   BANK8   BANK9  BANK10  BANK11  BANK12  BANK13  BANK14  BANK15
      Params:         3       0       0       0       0       0       0       0       0       0       0       0       0       0       0       0       0
      Locals:         0       0       0       0       0       0       0       0       0       0       0       0       0       0       0       0       0
      Temps:          0       0       0       0       0       0       0       0       0       0       0       0       0       0       0       0       0
      Totals:         3       0       0       0       0       0       0       0       0       0       0       0       0       0       0       0       0
Total ram usage:        3 bytes
 Hardware stack levels used:    1
 Hardware stack levels required when called:    3
 This function calls:
		Nothing
 This function is called by:
		_ProcessIncommingUartData
 This function uses a non-reentrant model


 *************** function i1_OutputSystemMessage *****************
 Defined at:
		line 2333 in file "prog.c"
 Parameters:    Size  Location     Type
  stringData      2   27[COMRAM] PTR unsigned char 
		 -> STR_33(27), STR_31(23), STR_29(20), STR_28(23), 
		 -> STR_26(26), STR_25(11), STR_21(7), 
 Auto vars:     Size  Location     Type
  OutputSystem    2   33[COMRAM] unsigned int 
  OutputSystem    1   38[COMRAM] unsigned char 
  OutputSystem    1   37[COMRAM] unsigned char 
  OutputSystem    1   36[COMRAM] unsigned char 
  OutputSystem    1   35[COMRAM] unsigned char 
  OutputSystem    1    0        unsigned char 
 Return value:  Size  Location     Type
                  1    wreg      void 
 Registers used:
		wreg, fsr2l, fsr2h, status,2, status,0, tblptrl, tblptrh, tblptru, prodl, prodh
 Tracked objects:
		On entry : 
		On exit  : 
		Unchanged: 
 Data sizes:     COMRAM   BANK0   BANK1   BANK2   BANK3   BANK4   BANK5   BANK6   BANK7   BANK8   BANK9  BANK10  BANK11  BANK12  BANK13  BANK14  BANK15
      Params:         2       0       0       0       0       0       0       0       0       0       0       0       0       0       0       0       0
      Locals:         6       0       0       0       0       0       0       0       0       0       0       0       0       0       0       0       0
      Temps:          4       0       0       0       0       0       0       0       0       0       0       0       0       0       0       0       0
      Totals:        12       0       0       0       0       0       0       0       0       0       0       0       0       0       0       0       0
Total ram usage:       12 bytes
 Hardware stack levels used:    1
 Hardware stack levels required when called:    3
 This function calls:
		Nothing
 This function is called by:
		_ProcessIncommingUartData
 This function uses a non-reentrant model


 *************** function i1_EEWR *****************
 Defined at:
		line 814 in file "prog.c"
 Parameters:    Size  Location     Type
  adress          2   27[COMRAM] unsigned int 
  data            1   29[COMRAM] unsigned char 
 Auto vars:     Size  Location     Type
  EEWR            1   30[COMRAM] volatile unsigned char 
 Return value:  Size  Location     Type
                  1    wreg      void 
 Registers used:
		wreg, status,2
 Tracked objects:
		On entry : 
		On exit  : 
		Unchanged: 
 Data sizes:     COMRAM   BANK0   BANK1   BANK2   BANK3   BANK4   BANK5   BANK6   BANK7   BANK8   BANK9  BANK10  BANK11  BANK12  BANK13  BANK14  BANK15
      Params:         3       0       0       0       0       0       0       0       0       0       0       0       0       0       0       0       0
      Locals:         1       0       0       0       0       0       0       0       0       0       0       0       0       0       0       0       0
      Temps:          0       0       0       0       0       0       0       0       0       0       0       0       0       0       0       0       0
      Totals:         4       0       0       0       0       0       0       0       0       0       0       0       0       0       0       0       0
Total ram usage:        4 bytes
 Hardware stack levels used:    1
 Hardware stack levels required when called:    3
 This function calls:
		Nothing
 This function is called by:
		_SignalsOnOff
		_ProcessIncommingUartData
 This function uses a non-reentrant model


 *************** function __getContainer_Incomming_DTMF_Data *****************
 Defined at:
		line 1906 in file "prog.c"
 Parameters:    Size  Location     Type
		None
 Auto vars:     Size  Location     Type
		None
 Return value:  Size  Location     Type
                  2   34[COMRAM] PTR unsigned char 
 Registers used:
		wreg, fsr2l, fsr2h, status,2, status,0, cstack
 Tracked objects:
		On entry : 
		On exit  : 
		Unchanged: 
 Data sizes:     COMRAM   BANK0   BANK1   BANK2   BANK3   BANK4   BANK5   BANK6   BANK7   BANK8   BANK9  BANK10  BANK11  BANK12  BANK13  BANK14  BANK15
      Params:         2       0       0       0       0       0       0       0       0       0       0       0       0       0       0       0       0
      Locals:         0       0       0       0       0       0       0       0       0       0       0       0       0       0       0       0       0
      Temps:          0       0       0       0       0       0       0       0       0       0       0       0       0       0       0       0       0
      Totals:         2       0       0       0       0       0       0       0       0       0       0       0       0       0       0       0       0
Total ram usage:        2 bytes
 Hardware stack levels used:    1
 Hardware stack levels required when called:    4
 This function calls:
		i1_CleanStringArray
 This function is called by:
		_ProcessIncommingUartData
 This function uses a non-reentrant model


 *************** function __getContainer_Incomming_Call_Data *****************
 Defined at:
		line 1901 in file "prog.c"
 Parameters:    Size  Location     Type
		None
 Auto vars:     Size  Location     Type
		None
 Return value:  Size  Location     Type
                  2   34[COMRAM] PTR unsigned char 
 Registers used:
		wreg, fsr2l, fsr2h, status,2, status,0, cstack
 Tracked objects:
		On entry : 
		On exit  : 
		Unchanged: 
 Data sizes:     COMRAM   BANK0   BANK1   BANK2   BANK3   BANK4   BANK5   BANK6   BANK7   BANK8   BANK9  BANK10  BANK11  BANK12  BANK13  BANK14  BANK15
      Params:         2       0       0       0       0       0       0       0       0       0       0       0       0       0       0       0       0
      Locals:         0       0       0       0       0       0       0       0       0       0       0       0       0       0       0       0       0
      Temps:          0       0       0       0       0       0       0       0       0       0       0       0       0       0       0       0       0
      Totals:         2       0       0       0       0       0       0       0       0       0       0       0       0       0       0       0       0
Total ram usage:        2 bytes
 Hardware stack levels used:    1
 Hardware stack levels required when called:    4
 This function calls:
		i1_CleanStringArray
 This function is called by:
		_ProcessIncommingUartData
 This function uses a non-reentrant model


 *************** function __getContainer_Clock_from_GSM *****************
 Defined at:
		line 1896 in file "prog.c"
 Parameters:    Size  Location     Type
		None
 Auto vars:     Size  Location     Type
		None
 Return value:  Size  Location     Type
                  2   34[COMRAM] PTR unsigned char 
 Registers used:
		wreg, fsr2l, fsr2h, status,2, status,0, cstack
 Tracked objects:
		On entry : 
		On exit  : 
		Unchanged: 
 Data sizes:     COMRAM   BANK0   BANK1   BANK2   BANK3   BANK4   BANK5   BANK6   BANK7   BANK8   BANK9  BANK10  BANK11  BANK12  BANK13  BANK14  BANK15
      Params:         2       0       0       0       0       0       0       0       0       0       0       0       0       0       0       0       0
      Locals:         0       0       0       0       0       0       0       0       0       0       0       0       0       0       0       0       0
      Temps:          0       0       0       0       0       0       0       0       0       0       0       0       0       0       0       0       0
      Totals:         2       0       0       0       0       0       0       0       0       0       0       0       0       0       0       0       0
Total ram usage:        2 bytes
 Hardware stack levels used:    1
 Hardware stack levels required when called:    4
 This function calls:
		i1_CleanStringArray
 This function is called by:
		_ProcessIncommingUartData
 This function uses a non-reentrant model


 *************** function __FindIncommingData_interrupt *****************
 Defined at:
		line 2451 in file "prog.c"
 Parameters:    Size  Location     Type
  regexp          2   36[COMRAM] PTR unsigned char 
		 -> StandardAnswer_ERROR(6), StandardAnswer_NO_DIALTONE(12), StandardAnswer_NO_ANSWER(10), StandardAnswer_BUSY(5), 
		 -> StandardAnswer_NO_CARRIER(11), StandardAnswer_DTMF(8), StandardAnswer_INCCALL(36), StandardAnswer_CLOCK(30), 
		 -> STR_22(5), StandardAnswer_OK(3), 
  container       2   38[COMRAM] PTR unsigned char 
		 -> Incomming_DTMF_Data(8), Incomming_Call_Data(36), Clock_from_GSM(30), NULL(0), 
  history_inde    2   40[COMRAM] int 
 Auto vars:     Size  Location     Type
  a               2   52[COMRAM] unsigned int 
  s0              2   56[COMRAM] unsigned int 
  s1              2   44[COMRAM] unsigned int 
  j               2   64[COMRAM] unsigned int 
  last_s          2   62[COMRAM] unsigned int 
  not_found       2   50[COMRAM] unsigned int 
  i               2   58[COMRAM] unsigned int 
  pointer         2   60[COMRAM] PTR unsigned char 
		 -> buff_string_11(256), buff_string_10(256), buff_string_9(256), buff_string_8(256), 
  end_of_regex    2   54[COMRAM] PTR unsigned char 
		 -> StandardAnswer_ERROR(6), StandardAnswer_NO_DIALTONE(12), StandardAnswer_NO_ANSWER(10), StandardAnswer_BUSY(5), 
		 -> StandardAnswer_NO_CARRIER(11), StandardAnswer_DTMF(8), StandardAnswer_INCCALL(36), StandardAnswer_CLOCK(30), 
		 -> STR_22(5), StandardAnswer_OK(3), 
  finish_index    2   48[COMRAM] unsigned int 
  start_index     2   46[COMRAM] unsigned int 
 Return value:  Size  Location     Type
                  1    wreg      unsigned char 
 Registers used:
		wreg, fsr1l, fsr1h, fsr2l, fsr2h, status,2, status,0, tblptrl, tblptrh, tblptru, prodl, prodh, cstack
 Tracked objects:
		On entry : 
		On exit  : 
		Unchanged: 
 Data sizes:     COMRAM   BANK0   BANK1   BANK2   BANK3   BANK4   BANK5   BANK6   BANK7   BANK8   BANK9  BANK10  BANK11  BANK12  BANK13  BANK14  BANK15
      Params:         6       0       0       0       0       0       0       0       0       0       0       0       0       0       0       0       0
      Locals:        22       0       0       0       0       0       0       0       0       0       0       0       0       0       0       0       0
      Temps:          2       0       0       0       0       0       0       0       0       0       0       0       0       0       0       0       0
      Totals:        30       0       0       0       0       0       0       0       0       0       0       0       0       0       0       0       0
Total ram usage:       30 bytes
 Hardware stack levels used:    1
 Hardware stack levels required when called:    4
 This function calls:
		__GetStringLength_interr
		i1_CleanStringArray
 This function is called by:
		_ProcessIncommingUartData
 This function uses a non-reentrant model


 *************** function i1_CleanStringArray *****************
 Defined at:
		line 1434 in file "prog.c"
 Parameters:    Size  Location     Type
  myArray         2   27[COMRAM] PTR unsigned char 
		 -> buff_string_11(256), buff_string_10(256), buff_string_9(256), buff_string_8(256), 
		 -> ProcessIncommingUartData@number(11), Incomming_DTMF_Data(8), Incomming_Call_Data(36), Clock_from_GSM(30), 
		 -> DeleteDataOfCell@CellsData(8), 
  size            2   29[COMRAM] unsigned int 
  settingData     1   31[COMRAM] unsigned char 
 Auto vars:     Size  Location     Type
  CleanStringA    2   32[COMRAM] unsigned int 
 Return value:  Size  Location     Type
                  1    wreg      void 
 Registers used:
		wreg, fsr2l, fsr2h, status,2, status,0
 Tracked objects:
		On entry : 
		On exit  : 
		Unchanged: 
 Data sizes:     COMRAM   BANK0   BANK1   BANK2   BANK3   BANK4   BANK5   BANK6   BANK7   BANK8   BANK9  BANK10  BANK11  BANK12  BANK13  BANK14  BANK15
      Params:         5       0       0       0       0       0       0       0       0       0       0       0       0       0       0       0       0
      Locals:         2       0       0       0       0       0       0       0       0       0       0       0       0       0       0       0       0
      Temps:          0       0       0       0       0       0       0       0       0       0       0       0       0       0       0       0       0
      Totals:         7       0       0       0       0       0       0       0       0       0       0       0       0       0       0       0       0
Total ram usage:        7 bytes
 Hardware stack levels used:    1
 Hardware stack levels required when called:    3
 This function calls:
		Nothing
 This function is called by:
		__getContainer_Clock_from_GSM
		__getContainer_Incomming_Call_Data
		__getContainer_Incomming_DTMF_Data
		_ProcessIncommingUartData
		__FindIncommingData_interrupt
 This function uses a non-reentrant model


 *************** function __GetStringLength_interr *****************
 Defined at:
		line 2442 in file "prog.c"
 Parameters:    Size  Location     Type
  container       2   27[COMRAM] PTR unsigned char 
		 -> StandardAnswer_ERROR(6), StandardAnswer_NO_DIALTONE(12), StandardAnswer_NO_ANSWER(10), StandardAnswer_BUSY(5), 
		 -> StandardAnswer_NO_CARRIER(11), StandardAnswer_DTMF(8), StandardAnswer_INCCALL(36), StandardAnswer_CLOCK(30), 
		 -> STR_22(5), StandardAnswer_OK(3), 
 Auto vars:     Size  Location     Type
  i               2   29[COMRAM] unsigned int 
 Return value:  Size  Location     Type
                  2   27[COMRAM] unsigned int 
 Registers used:
		wreg, status,2, status,0, tblptrl, tblptrh, tblptru
 Tracked objects:
		On entry : 
		On exit  : 
		Unchanged: 
 Data sizes:     COMRAM   BANK0   BANK1   BANK2   BANK3   BANK4   BANK5   BANK6   BANK7   BANK8   BANK9  BANK10  BANK11  BANK12  BANK13  BANK14  BANK15
      Params:         2       0       0       0       0       0       0       0       0       0       0       0       0       0       0       0       0
      Locals:         2       0       0       0       0       0       0       0       0       0       0       0       0       0       0       0       0
      Temps:          0       0       0       0       0       0       0       0       0       0       0       0       0       0       0       0       0
      Totals:         4       0       0       0       0       0       0       0       0       0       0       0       0       0       0       0       0
Total ram usage:        4 bytes
 Hardware stack levels used:    1
 Hardware stack levels required when called:    3
 This function calls:
		Nothing
 This function is called by:
		__FindIncommingData_interrupt
 This function uses a non-reentrant model


 *************** function _FindPhoneContactByNumber *****************
 Defined at:
		line 1859 in file "prog.c"
 Parameters:    Size  Location     Type
  number          1    wreg     PTR unsigned char 
		 -> ProcessIncommingUartData@number(11), 
 Auto vars:     Size  Location     Type
  number          1    0[BANK0 ] PTR unsigned char 
		 -> ProcessIncommingUartData@number(11), 
  j               1    4[BANK0 ] unsigned char 
  end_of_phone    1    3[BANK0 ] unsigned char 
  i               1    2[BANK0 ] unsigned char 
  container      33    5[BANK0 ] struct .
  found           1    1[BANK0 ] unsigned char 
 Return value:  Size  Location     Type
                  2   44[COMRAM] PTR struct .
 Registers used:
		wreg, fsr1l, fsr1h, fsr2l, fsr2h, status,2, status,0, prodl, prodh, cstack
 Tracked objects:
		On entry : 
		On exit  : 
		Unchanged: 
 Data sizes:     COMRAM   BANK0   BANK1   BANK2   BANK3   BANK4   BANK5   BANK6   BANK7   BANK8   BANK9  BANK10  BANK11  BANK12  BANK13  BANK14  BANK15
      Params:         2       0       0       0       0       0       0       0       0       0       0       0       0       0       0       0       0
      Locals:         0      38       0       0       0       0       0       0       0       0       0       0       0       0       0       0       0
      Temps:          2       0       0       0       0       0       0       0       0       0       0       0       0       0       0       0       0
      Totals:         4      38       0       0       0       0       0       0       0       0       0       0       0       0       0       0       0
Total ram usage:       42 bytes
 Hardware stack levels used:    1
 Hardware stack levels required when called:    6
 This function calls:
		i1_FillPhonebookCellFromEEPROM
 This function is called by:
		_ProcessIncommingUartData
 This function uses a non-reentrant model


 *************** function i1_FillPhonebookCellFromEEPROM *****************
 Defined at:
		line 1098 in file "prog.c"
 Parameters:    Size  Location     Type
  container       2   40[COMRAM] PTR struct .
		 -> PhonebookEdit@Contact(33), FindPhoneContactByNumber@container(33), 
  adress_start    2   42[COMRAM] unsigned int 
 Auto vars:     Size  Location     Type
		None
 Return value:  Size  Location     Type
                  1    wreg      void 
 Registers used:
		wreg, fsr2l, fsr2h, status,2, status,0, cstack
 Tracked objects:
		On entry : 
		On exit  : 
		Unchanged: 
 Data sizes:     COMRAM   BANK0   BANK1   BANK2   BANK3   BANK4   BANK5   BANK6   BANK7   BANK8   BANK9  BANK10  BANK11  BANK12  BANK13  BANK14  BANK15
      Params:         4       0       0       0       0       0       0       0       0       0       0       0       0       0       0       0       0
      Locals:         0       0       0       0       0       0       0       0       0       0       0       0       0       0       0       0       0
      Temps:          0       0       0       0       0       0       0       0       0       0       0       0       0       0       0       0       0
      Totals:         4       0       0       0       0       0       0       0       0       0       0       0       0       0       0       0       0
Total ram usage:        4 bytes
 Hardware stack levels used:    1
 Hardware stack levels required when called:    5
 This function calls:
		i1_FillArrayFromEEPROM
 This function is called by:
		_FindPhoneContactByNumber
 This function uses a non-reentrant model


 *************** function i1_FillArrayFromEEPROM *****************
 Defined at:
		line 1092 in file "prog.c"
 Parameters:    Size  Location     Type
  container       2   31[COMRAM] PTR unsigned char 
		 -> PhonebookEdit@Contact(33), FindPhoneContactByNumber@container(33), FindNextTimeStart@CellsData(8), RefreshSchedulerIndicator@CellsData(8), 
		 -> FindCell@CellsData(8), TimeToInd@CellsData(8), 
  adress_start    2   33[COMRAM] unsigned int 
  quantity        2   35[COMRAM] unsigned int 
 Auto vars:     Size  Location     Type
  FillArrayFro    1   39[COMRAM] unsigned char 
 Return value:  Size  Location     Type
                  1    wreg      void 
 Registers used:
		wreg, fsr2l, fsr2h, status,2, status,0, cstack
 Tracked objects:
		On entry : 
		On exit  : 
		Unchanged: 
 Data sizes:     COMRAM   BANK0   BANK1   BANK2   BANK3   BANK4   BANK5   BANK6   BANK7   BANK8   BANK9  BANK10  BANK11  BANK12  BANK13  BANK14  BANK15
      Params:         6       0       0       0       0       0       0       0       0       0       0       0       0       0       0       0       0
      Locals:         1       0       0       0       0       0       0       0       0       0       0       0       0       0       0       0       0
      Temps:          2       0       0       0       0       0       0       0       0       0       0       0       0       0       0       0       0
      Totals:         9       0       0       0       0       0       0       0       0       0       0       0       0       0       0       0       0
Total ram usage:        9 bytes
 Hardware stack levels used:    1
 Hardware stack levels required when called:    4
 This function calls:
		i1_EERD
 This function is called by:
		i1_FillPhonebookCellFromEEPROM
 This function uses a non-reentrant model


 *************** function i1_EERD *****************
 Defined at:
		line 835 in file "prog.c"
 Parameters:    Size  Location     Type
  adress          2   27[COMRAM] unsigned int 
 Auto vars:     Size  Location     Type
  EERD            1   30[COMRAM] volatile unsigned char 
  EERD            1   29[COMRAM] volatile unsigned char 
 Return value:  Size  Location     Type
                  1    wreg      unsigned char 
 Registers used:
		wreg, status,2
 Tracked objects:
		On entry : 
		On exit  : 
		Unchanged: 
 Data sizes:     COMRAM   BANK0   BANK1   BANK2   BANK3   BANK4   BANK5   BANK6   BANK7   BANK8   BANK9  BANK10  BANK11  BANK12  BANK13  BANK14  BANK15
      Params:         2       0       0       0       0       0       0       0       0       0       0       0       0       0       0       0       0
      Locals:         2       0       0       0       0       0       0       0       0       0       0       0       0       0       0       0       0
      Temps:          0       0       0       0       0       0       0       0       0       0       0       0       0       0       0       0       0
      Totals:         4       0       0       0       0       0       0       0       0       0       0       0       0       0       0       0       0
Total ram usage:        4 bytes
 Hardware stack levels used:    1
 Hardware stack levels required when called:    3
 This function calls:
		Nothing
 This function is called by:
		_FillArrayFromEEPROM_interr
		i1_FillArrayFromEEPROM
 This function uses a non-reentrant model


 *************** function _ConvKeyNum *****************
 Defined at:
		line 1253 in file "prog.c"
 Parameters:    Size  Location     Type
  Num             1    wreg     unsigned char 
 Auto vars:     Size  Location     Type
  Num             1   27[COMRAM] unsigned char 
 Return value:  Size  Location     Type
                  1    wreg      unsigned char 
 Registers used:
		wreg, status,2, status,0
 Tracked objects:
		On entry : 
		On exit  : 
		Unchanged: 
 Data sizes:     COMRAM   BANK0   BANK1   BANK2   BANK3   BANK4   BANK5   BANK6   BANK7   BANK8   BANK9  BANK10  BANK11  BANK12  BANK13  BANK14  BANK15
      Params:         0       0       0       0       0       0       0       0       0       0       0       0       0       0       0       0       0
      Locals:         1       0       0       0       0       0       0       0       0       0       0       0       0       0       0       0       0
      Temps:          0       0       0       0       0       0       0       0       0       0       0       0       0       0       0       0       0
      Totals:         1       0       0       0       0       0       0       0       0       0       0       0       0       0       0       0       0
Total ram usage:        1 bytes
 Hardware stack levels used:    1
 Hardware stack levels required when called:    3
 This function calls:
		Nothing
 This function is called by:
		_F_l
 This function uses a non-reentrant model


 *************** function _F_h *****************
 Defined at:
		line 2055 in file "prog.c"
 Parameters:    Size  Location     Type
		None
 Auto vars:     Size  Location     Type
		None
 Return value:  Size  Location     Type
                  1    wreg      void 
 Registers used:
		wreg, fsr0l, fsr0h, fsr1l, fsr1h, fsr2l, fsr2h, status,2, status,0, tblptrl, tblptrh, tblptru, prodl, prodh, cstack
 Tracked objects:
		On entry : 
		On exit  : 
		Unchanged: 
 Data sizes:     COMRAM   BANK0   BANK1   BANK2   BANK3   BANK4   BANK5   BANK6   BANK7   BANK8   BANK9  BANK10  BANK11  BANK12  BANK13  BANK14  BANK15
      Params:         0       0       0       0       0       0       0       0       0       0       0       0       0       0       0       0       0
      Locals:         0       0       0       0       0       0       0       0       0       0       0       0       0       0       0       0       0
      Temps:         12       0       0       0       0       0       0       0       0       0       0       0       0       0       0       0       0
      Totals:        12       0       0       0       0       0       0       0       0       0       0       0       0       0       0       0       0
Total ram usage:       12 bytes
 Hardware stack levels used:    1
 Hardware stack levels required when called:    2
 This function calls:
		_AddByteToUSARTbuff
		__load_TXREG
 This function is called by:
		Interrupt level 2
 This function uses a non-reentrant model


 *************** function __load_TXREG *****************
 Defined at:
		line 2040 in file "prog.c"
 Parameters:    Size  Location     Type
		None
 Auto vars:     Size  Location     Type
		None
 Return value:  Size  Location     Type
                  1    wreg      void 
 Registers used:
		wreg, fsr0l, fsr0h, status,2, status,0, tblptrl, tblptrh, tblptru
 Tracked objects:
		On entry : 
		On exit  : 
		Unchanged: 
 Data sizes:     COMRAM   BANK0   BANK1   BANK2   BANK3   BANK4   BANK5   BANK6   BANK7   BANK8   BANK9  BANK10  BANK11  BANK12  BANK13  BANK14  BANK15
      Params:         0       0       0       0       0       0       0       0       0       0       0       0       0       0       0       0       0
      Locals:         0       0       0       0       0       0       0       0       0       0       0       0       0       0       0       0       0
      Temps:          0       0       0       0       0       0       0       0       0       0       0       0       0       0       0       0       0
      Totals:         0       0       0       0       0       0       0       0       0       0       0       0       0       0       0       0       0
Total ram usage:        0 bytes
 Hardware stack levels used:    1
 This function calls:
		Nothing
 This function is called by:
		_F_h
 This function uses a non-reentrant model


 *************** function _AddByteToUSARTbuff *****************
 Defined at:
		line 1993 in file "prog.c"
 Parameters:    Size  Location     Type
  byte            1    wreg     unsigned char 
 Auto vars:     Size  Location     Type
  byte            1   11[COMRAM] unsigned char 
  i               2   12[COMRAM] unsigned int 
  i               1   14[COMRAM] unsigned char 
  buff            2    9[COMRAM] PTR unsigned char 
		 -> buff_string_11(256), buff_string_10(256), buff_string_9(256), buff_string_8(256), 
 Return value:  Size  Location     Type
                  1    wreg      void 
 Registers used:
		wreg, fsr1l, fsr1h, fsr2l, fsr2h, status,2, status,0, prodl, prodh, cstack
 Tracked objects:
		On entry : 
		On exit  : 
		Unchanged: 
 Data sizes:     COMRAM   BANK0   BANK1   BANK2   BANK3   BANK4   BANK5   BANK6   BANK7   BANK8   BANK9  BANK10  BANK11  BANK12  BANK13  BANK14  BANK15
      Params:         0       0       0       0       0       0       0       0       0       0       0       0       0       0       0       0       0
      Locals:         6       0       0       0       0       0       0       0       0       0       0       0       0       0       0       0       0
      Temps:          2       0       0       0       0       0       0       0       0       0       0       0       0       0       0       0       0
      Totals:         8       0       0       0       0       0       0       0       0       0       0       0       0       0       0       0       0
Total ram usage:        8 bytes
 Hardware stack levels used:    1
 Hardware stack levels required when called:    1
 This function calls:
		__CleanStringArray_interrupt
 This function is called by:
		_F_h
 This function uses a non-reentrant model


 *************** function __CleanStringArray_interrupt *****************
 Defined at:
		line 1440 in file "prog.c"
 Parameters:    Size  Location     Type
  myArray         2    0[COMRAM] PTR unsigned char 
		 -> buff_string_11(256), buff_string_10(256), buff_string_9(256), buff_string_8(256), 
  size            2    2[COMRAM] unsigned int 
  settingData     1    4[COMRAM] unsigned char 
 Auto vars:     Size  Location     Type
  i               2    5[COMRAM] unsigned int 
 Return value:  Size  Location     Type
                  1    wreg      void 
 Registers used:
		wreg, fsr2l, fsr2h, status,2, status,0
 Tracked objects:
		On entry : 
		On exit  : 
		Unchanged: 
 Data sizes:     COMRAM   BANK0   BANK1   BANK2   BANK3   BANK4   BANK5   BANK6   BANK7   BANK8   BANK9  BANK10  BANK11  BANK12  BANK13  BANK14  BANK15
      Params:         5       0       0       0       0       0       0       0       0       0       0       0       0       0       0       0       0
      Locals:         2       0       0       0       0       0       0       0       0       0       0       0       0       0       0       0       0
      Temps:          0       0       0       0       0       0       0       0       0       0       0       0       0       0       0       0       0
      Totals:         7       0       0       0       0       0       0       0       0       0       0       0       0       0       0       0       0
Total ram usage:        7 bytes
 Hardware stack levels used:    1
 This function calls:
		Nothing
 This function is called by:
		_AddByteToUSARTbuff
 This function uses a non-reentrant model



MODULE INFORMATION

Module		Function		Class		Link	Load	Size
/opt/microchip/xc8/v1.37/sources/common/llmod.c
		___llmod       		CODE           	4CE6	0000	99

/opt/microchip/xc8/v1.37/sources/common/llmod.c estimated size: 99

/opt/microchip/xc8/v1.37/sources/common/almod.c
		___almod       		CODE           	4320	0000	137

/opt/microchip/xc8/v1.37/sources/common/almod.c estimated size: 137

/opt/microchip/xc8/v1.37/sources/common/Umul32.c
		___lmul        		CODE           	4E68	0000	77

/opt/microchip/xc8/v1.37/sources/common/Umul32.c estimated size: 77

/opt/microchip/xc8/v1.37/sources/common/lwdiv.c
		___lwdiv       		CODE           	4EB4	0000	75

/opt/microchip/xc8/v1.37/sources/common/lwdiv.c estimated size: 75

/opt/microchip/xc8/v1.37/sources/common/lbmod.c
		___lbmod       		CODE           	52FA	0000	41

/opt/microchip/xc8/v1.37/sources/common/lbmod.c estimated size: 41

/opt/microchip/xc8/v1.37/sources/common/lldiv.c
		___lldiv       		CODE           	484C	0000	119

/opt/microchip/xc8/v1.37/sources/common/lldiv.c estimated size: 119

/opt/microchip/xc8/v1.37/sources/common/aldiv.c
		___aldiv       		CODE           	3C62	0000	189

/opt/microchip/xc8/v1.37/sources/common/aldiv.c estimated size: 189

shared
		PL12           		CODE           	1642	0000	19
		PL50           		CODE           	0F96	0000	15
		PL8            		CODE           	3782	0000	27
		PL268          		CODE           	1120	0000	13
		PL22           		CODE           	4E4A	0000	31
		PL60           		CODE           	4B38	0000	23
		PL178          		CODE           	1096	0000	13
		PL100          		CODE           	35CC	0000	19
		PL32           		CODE           	4542	0000	9
		PL70           		CODE           	430A	0000	15
		PL278          		CODE           	112C	0000	9
		i1_CleanStringArray		CODE           	53E0	0000	39
		PL200          		CODE           	4A06	0000	17
		PL42           		CODE           	0F7E	0000	25
		PL80           		CODE           	1684	0000	11
		PL188          		CODE           	2AE0	0000	11
		i1_EERD        		CODE           	5476	0000	37
		PL110          		CODE           	1026	0000	9
		PL300          		CODE           	16DC	0000	11
		PL14           		CODE           	1654	0000	19
		PL52           		CODE           	0FA4	0000	19
		PL90           		CODE           	0FE6	0000	19
		_StandardAnswer_ERROR		MEDIUMCONST    	FD96	0000	7
		PL288          		CODE           	0A80	0000	11
		PL210          		CODE           	10CA	0000	9
		PL24           		CODE           	37AE	0000	51
		PL62           		CODE           	4AD0	0000	23
		_StandardAnswer_NO_ANSWER		MEDIUMCONST    	FD84	0000	11
		PL198          		CODE           	276C	0000	9
		PL120          		CODE           	2912	0000	17
		PL310          		CODE           	1ADE	0000	9
		PL34           		CODE           	0F72	0000	13
		PL72           		CODE           	0FD8	0000	15
		PL298          		CODE           	5032	0000	11
		i1_FillArrayFromEEPROM		CODE           	511A	0000	55
		PL220          		CODE           	46CC	0000	15
		PL44           		CODE           	4C62	0000	25
		PL82           		CODE           	37F2	0000	9
		PL130          		CODE           	2922	0000	9
		PL320          		CODE           	3102	0000	11
		PL16           		CODE           	09D2	0000	11
		PL54           		CODE           	0FB6	0000	13
		PL92           		CODE           	38DC	0000	9
		PL230          		CODE           	10E0	0000	9
		PL26           		CODE           	41BC	0000	29
		PL64           		CODE           	39C6	0000	23
		PL102          		CODE           	255A	0000	19
		PL140          		CODE           	1A88	0000	23
		PL330          		CODE           	35E6	0000	9
		PL36           		CODE           	09DC	0000	15
		PL74           		CODE           	37E0	0000	19
		PL202          		CODE           	10BA	0000	17
		PL240          		CODE           	0A62	0000	11
		PL46           		CODE           	39AE	0000	25
		PL84           		CODE           	4C7A	0000	9
		i1___lwdiv     		CODE           	4EFE	0000	75
		PL112          		CODE           	102E	0000	13
		PL302          		CODE           	51E2	0000	9
		PL150          		CODE           	3FE2	0000	19
		PL18           		CODE           	2F54	0000	35
		PL56           		CODE           	4BA0	0000	23
		PL94           		CODE           	0FF8	0000	19
		_StandardAnswer_NO_DIALTONE		MEDIUMCONST    	FD6D	0000	13
		i1_OutputSystemMessage		CODE           	38F6	0000	185
		PL212          		CODE           	1AAE	0000	15
		PL250          		CODE           	110A	0000	11
		PL28           		CODE           	274C	0000	15
		PL66           		CODE           	2ACC	0000	13
		PL122          		CODE           	256C	0000	25
		PL312          		CODE           	0A8A	0000	11
		PL160          		CODE           	408E	0000	19
		PL38           		CODE           	52AA	0000	41
		PL76           		CODE           	09EA	0000	35
		PL222          		CODE           	10D2	0000	15
		PL260          		CODE           	2FA4	0000	13
		PL48           		CODE           	2F76	0000	19
		PL86           		CODE           	4318	0000	9
		PL132          		CODE           	103A	0000	11
		PL322          		CODE           	3C5A	0000	9
		PL170          		CODE           	2C94	0000	13
		PL58           		CODE           	0FC2	0000	23
		PL96           		CODE           	454A	0000	17
		PL232          		CODE           	10E8	0000	9
		PL270          		CODE           	2E3A	0000	13
		PL68           		CODE           	38C6	0000	23
		i1_FillPhonebookCellFromEEPROM		CODE           	4B4E	0000	83
		PL104          		CODE           	100A	0000	29
		PL142          		CODE           	2E2C	0000	15
		PL332          		CODE           	16F8	0000	9
		PL180          		CODE           	169A	0000	13
		PL78           		CODE           	167A	0000	11
		i1_SendCommandToUSART		CODE           	54FC	0000	33
		PL204          		CODE           	4920	0000	13
		PL242          		CODE           	0A6C	0000	11
		PL280          		CODE           	238C	0000	13
		PL88           		CODE           	30B2	0000	31
		i1_lcd_send_byte		CODE           	5452	0000	37
		PL114          		CODE           	41D8	0000	13
		PL304          		CODE           	38EC	0000	11
		PL152          		CODE           	2AD8	0000	9
		PL190          		CODE           	1A9E	0000	17
		PL98           		CODE           	39DC	0000	9
		i1___lwmod     		CODE           	4F86	0000	63
		PL214          		CODE           	4432	0000	15
		PL252          		CODE           	235E	0000	11
		PL290          		CODE           	30F8	0000	11
		i1_lcd_send_initial_half_byte		CODE           	53BA	0000	39
		PL124          		CODE           	46A8	0000	25
		PL314          		CODE           	0A94	0000	11
		PL162          		CODE           	1062	0000	19
		__initialization		CODE           	3252	0000	305
		PL224          		CODE           	3224	0000	15
		PL262          		CODE           	1114	0000	13
		_StandardAnswer_BUSY		MEDIUMCONST    	FD9C	0000	6
		PL134          		CODE           	0A24	0000	11
		PL324          		CODE           	2E46	0000	9
		PL172          		CODE           	168E	0000	13
		PL234          		CODE           	0A54	0000	15
		PL272          		CODE           	5178	0000	13
		_StandardAnswer_DTMF		MEDIUMCONST    	FD8E	0000	9
		PL106          		CODE           	30D0	0000	29
		PL144          		CODE           	2F98	0000	13
		PL334          		CODE           	2584	0000	9
		PL182          		CODE           	16A6	0000	13
		i1_FillMinutes 		CODE           	52A8	0000	3
		i1___aldiv     		CODE           	3D1E	0000	189
		PL206          		CODE           	0A46	0000	15
		PL244          		CODE           	0A76	0000	11
		PL282          		CODE           	16C8	0000	11
		PL116          		CODE           	5094	0000	27
		PL306          		CODE           	4440	0000	11
		PL154          		CODE           	43A8	0000	19
		PL192          		CODE           	10A2	0000	13
		__setInputTextProps@F3403		MEDIUMCONST    	FD21	0000	11
		__setInputTextProps@F3405		MEDIUMCONST    	FD0B	0000	23
		PL216          		CODE           	36E6	0000	15
		PL254          		CODE           	1ABC	0000	11
		PL292          		CODE           	35DE	0000	9
		PL126          		CODE           	0A0C	0000	25
		PL316          		CODE           	0A9E	0000	11
		PL164          		CODE           	1074	0000	9
		PL226          		CODE           	3232	0000	15
		PL264          		CODE           	16BE	0000	11
		PL136          		CODE           	30EC	0000	13
		PL326          		CODE           	16F0	0000	9
		PL174          		CODE           	46C0	0000	13
		PL236          		CODE           	34C0	0000	15
		PL274          		CODE           	2380	0000	13
		PL108          		CODE           	1A6E	0000	15
		PL146          		CODE           	1044	0000	13
		PL184          		CODE           	16B2	0000	13
		PL208          		CODE           	492C	0000	13
		PL246          		CODE           	10F8	0000	11
		PL284          		CODE           	44CC	0000	11
		i1_EEWR        		CODE           	5076	0000	31
		PL118          		CODE           	2F88	0000	17
		PL308          		CODE           	16E6	0000	11
		PL156          		CODE           	1050	0000	19
		PL194          		CODE           	10AE	0000	13
		PL218          		CODE           	3E84	0000	15
		PL256          		CODE           	2368	0000	13
		PL294          		CODE           	38E4	0000	9
		PL128          		CODE           	1A7C	0000	13
		PL318          		CODE           	3240	0000	11
		PL166          		CODE           	107C	0000	9
		_StandardAnswer_CLOCK		MEDIUMCONST    	FD4F	0000	31
		PL228          		CODE           	34B2	0000	15
		PL266          		CODE           	2374	0000	13
		_StandardAnswer_OK		MEDIUMCONST    	FDA1	0000	4
		PL138          		CODE           	292A	0000	11
		PL328          		CODE           	324A	0000	9
		PL176          		CODE           	0A2E	0000	9
		PL2            		CODE           	4E34	0000	23
		PL238          		CODE           	10F0	0000	9
		PL276          		CODE           	1AD2	0000	13
		PL148          		CODE           	441E	0000	21
		PL186          		CODE           	0A36	0000	17
		PL10           		CODE           	379C	0000	19
		PL4            		CODE           	09C2	0000	17
		PL248          		CODE           	1102	0000	9
		PL286          		CODE           	2398	0000	11
		PL20           		CODE           	42F2	0000	25
		_StandardAnswer_NO_CARRIER		MEDIUMCONST    	FD79	0000	12
		PL158          		CODE           	275A	0000	19
		PL196          		CODE           	2354	0000	11
		PL30           		CODE           	1666	0000	21
		PL6            		CODE           	1620	0000	35
		PL258          		CODE           	1AC6	0000	13
		PL296          		CODE           	16D2	0000	11
		PL40           		CODE           	38AE	0000	25
		_StandardAnswer_INCCALL		MEDIUMCONST    	FD2B	0000	37
		PL168          		CODE           	1084	0000	19

shared estimated size: 3933

/opt/microchip/xc8/v1.37/sources/common/lbdiv.c
		___lbdiv       		CODE           	50AE	0000	55

/opt/microchip/xc8/v1.37/sources/common/lbdiv.c estimated size: 55

prog.c
		_ConvertDayToBit		CODE           	524A	0000	49
		_TelephoneCall 		CODE           	43BA	0000	101
		_ReadDataOfCell		CODE           	444A	0000	131
		_setDigit      		CODE           	4284	0000	111
		__CleanStringArray_interrupt		CODE           	542C	0000	39
		_SchedulerNew  		CODE           	3FF4	0000	155
		_FindIncommingData		CODE           	310C	0000	281
		_FillMinutes   		CODE           	5628	0000	5
		_EEWR          		CODE           	54DC	0000	33
		_FillPhonebookCellFromEEPROM		CODE           	4AE6	0000	83
		_TimeData_BlinkOFF		CODE           	5150	0000	41
		_GetStringLength		CODE           	5348	0000	39
		_TimeEdit      		CODE           	0AA8	0000	1227
		_testTimePoint 		CODE           	45DC	0000	129
		_delay         		CODE           	553A	0000	31
		_SignalsOnOff  		CODE           	2AEA	0000	427
		_FindPhoneContactByNumber		CODE           	3E92	0000	179
		__setInputTextProps		CODE           	2198	0000	445
		_lcd_send_byte 		CODE           	52D2	0000	41
		_lcd_off       		CODE           	55FA	0000	15
		_ReIndTimeEdit 		CODE           	2E4E	0000	263
		_NumericToString		CODE           	3DDA	0000	171
		__load_TXREG   		CODE           	49AA	0000	93
		_OutputString  		CODE           	4142	0000	123
		_CleanStringArray		CODE           	536E	0000	39
		_Format_EEPROM_Memory		CODE           	47D2	0000	123
		_ReadDataOfCell_interr		CODE           	455A	0000	131
		_main          		CODE           	2934	0000	409
		__getContainer_Clock_from_GSM		CODE           	5594	0000	31
		_ParseTime     		CODE           	4A16	0000	105
		_F_h           		CODE           	0008	0000	129
		_UserDelay     		CODE           	4FC4	0000	61
		_USART_Speed_Choise		CODE           	5322	0000	39
		__FindIncommingData_interrupt		CODE           	3390	0000	291
		_EditSchedule  		CODE           	562C	0000	3
		_Init_USART    		CODE           	4DAA	0000	97
		_system_BlinkReset		CODE           	551C	0000	31
		_getSystemTimePoint		CODE           	55D8	0000	19
		_InputText     		CODE           	030E	0000	1717
		_ShowSchedulerMenu		CODE           	40A0	0000	163
		_TimeToInd     		CODE           	1134	0000	1261
		_FillArrayFromEEPROM_interr		CODE           	5184	0000	53
		__getContainer_Incomming_DTMF_Data		CODE           	5558	0000	31
		_WorkingWithGSM		CODE           	35EE	0000	249
		_WriteArrayToEEPROM		CODE           	503C	0000	59
		__getContainer_Incomming_Call_Data		CODE           	5576	0000	31
		_AddByteToUSARTbuff		CODE           	3ABE	0000	219
		_F_l           		CODE           	0018	0000	755
		_getLcdCodeOfChar		CODE           	1AE6	0000	991
		_setBlink      		CODE           	4E0A	0000	43
		_FindNextTimeStart		CODE           	2774	0000	415
		_lcd_send_initial_half_byte		CODE           	51B8	0000	43
		_GetDayOfWeek  		CODE           	46DA	0000	125
		_Init_GSM      		CODE           	34CE	0000	255
		_FillArrayFromEEPROM		CODE           	50E4	0000	55
		_TimeData_INIT 		CODE           	36F4	0000	143
		_ProcessIncommingUartData		CODE           	258C	0000	449
		_Save_USART_SpeedNumber		CODE           	55B2	0000	21
		_RefreshSchedulerIndicator		CODE           	2CA0	0000	397
		_EERD          		CODE           	5394	0000	39
		_SendCommandToUSART		CODE           	549A	0000	35
		__GetStringLength_interr		CODE           	5406	0000	39
		_WritePhonebookCellToEEPROM		CODE           	4A7E	0000	83
		_Read_USART_SpeedNumber		CODE           	54BC	0000	33
		_ProcessSystemMessageShowing		CODE           	5614	0000	11
		_SendSymbolToLCD		CODE           	48C2	0000	95
		_lcd_on        		CODE           	55EA	0000	17
		_InteractiveData_BlinkOFF		CODE           	521A	0000	49
		_getNumChar    		CODE           	4BB6	0000	103
		_Select_OK_NO  		CODE           	5000	0000	51
		_entNum        		CODE           	51EA	0000	49
		_Settings      		CODE           	4756	0000	125
		_ParseDataRecord		CODE           	465C	0000	77
		_ShowMenu      		CODE           	2FB0	0000	259
		_OutputInteractiveData		CODE           	44D6	0000	109
		_DeleteDataOfCell		CODE           	527A	0000	47
		_main2         		CODE           	23A2	0000	441
		_clrInd        		CODE           	4C1C	0000	71
		_ConvKeyNum    		CODE           	4C82	0000	101
		_lcd_init      		CODE           	3B98	0000	195
		_OutputSystemMessage		CODE           	37FA	0000	181
		_FindCell      		CODE           	39E4	0000	219
		_PhonebookEdit 		CODE           	1700	0000	879
		_CheckoutRegisterOfSymbol		CODE           	1EC4	0000	725
		_Scheduler     		CODE           	3F44	0000	159

prog.c estimated size: 17387

/opt/microchip/xc8/v1.37/sources/common/lwmod.c
		___lwmod       		CODE           	4F48	0000	63

/opt/microchip/xc8/v1.37/sources/common/lwmod.c estimated size: 63

