

Microchip Technology PIC18 PRO Macro Assembler V1.33 build 59893 
                                                                                               Tue Feb 23 00:43:13 2016

Microchip Technology Omniscient Code Generator (PRO mode) build 59893
     1                           	processor	18F2620
     2                           	fnconf	param0,??,?,0
     3                           	opt	pw 120
     4                           	opt	pm
     5                           	psect	idataCOMRAM,global,class=CODE,delta=1
     6                           	psect	idataBANK2,global,class=CODE,delta=1
     7                           	psect	cinit,global,reloc=2,class=CODE,delta=1
     8                           	psect	bssCOMRAM,global,class=COMRAM,space=1,delta=1
     9                           	psect	dataCOMRAM,global,class=COMRAM,space=1,delta=1
    10                           	psect	bssBANK0,global,class=BANK0,space=1,delta=1
    11                           	psect	bssBANK1,global,class=BANK1,space=1,delta=1
    12                           	psect	dataBANK2,global,class=BANK2,space=1,delta=1
    13                           	psect	cstackBANK1,global,class=BANK1,space=1,delta=1
    14                           	psect	cstackBANK0,global,class=BANK0,space=1,delta=1
    15                           	psect	cstackCOMRAM,global,class=COMRAM,space=1,delta=1
    16                           	psect	text0,global,reloc=2,class=CODE,delta=1
    17                           	psect	text1,global,reloc=2,class=CODE,delta=1
    18                           	psect	text2,global,reloc=2,class=CODE,delta=1
    19                           	psect	text3,global,reloc=2,class=CODE,delta=1
    20                           	psect	text4,global,reloc=2,class=CODE,delta=1
    21                           	psect	text5,global,reloc=2,class=CODE,delta=1
    22                           	psect	text6,global,reloc=2,class=CODE,delta=1
    23                           	psect	text7,global,reloc=2,class=CODE,delta=1
    24                           	psect	text8,global,reloc=2,class=CODE,delta=1
    25                           	psect	text9,global,reloc=2,class=CODE,delta=1
    26                           	psect	text10,global,reloc=2,class=CODE,delta=1
    27                           	psect	text11,global,reloc=2,class=CODE,delta=1
    28                           	psect	intcodelo,global,reloc=2,class=CODE,delta=1
    29                           	psect	text13,global,reloc=2,class=CODE,delta=1
    30                           	psect	text14,global,reloc=2,class=CODE,delta=1
    31                           	psect	text15,global,reloc=2,class=CODE,delta=1
    32                           	psect	text16,global,reloc=2,class=CODE,delta=1
    33                           	psect	text17,global,reloc=2,class=CODE,delta=1
    34                           	psect	text18,global,reloc=2,class=CODE,delta=1
    35                           	psect	text19,global,reloc=2,class=CODE,delta=1
    36                           	psect	text20,global,reloc=2,class=CODE,delta=1
    37                           	psect	text21,global,reloc=2,class=CODE,delta=1
    38                           	psect	text22,global,reloc=2,class=CODE,delta=1
    39                           	psect	text23,global,reloc=2,class=CODE,delta=1
    40                           	psect	text24,global,reloc=2,class=CODE,delta=1
    41                           	psect	text25,global,reloc=2,class=CODE,delta=1
    42                           	psect	text26,global,reloc=2,class=CODE,delta=1
    43                           	psect	text27,global,reloc=2,class=CODE,delta=1
    44                           	psect	intcode,global,reloc=2,class=CODE,delta=1
    45                           	psect	intcode_body,global,reloc=2,class=CODE,delta=1
    46                           	psect	intsave_regs,global,class=BIGRAM,space=1,delta=1
    47                           	psect	param0,global,class=BANK0,space=1,delta=1
    48                           	psect	pa_nodes,global,class=CODE,delta=1
    49  0000                     prodl	equ	0xFF3
    50                           intcon	equ	0xFF2
    51                           intcon2	equ	0xFF1
    52                           intcon3	equ	0xFF0
    53                           wreg	equ	0xFE8
    54                           indf1	equ	0xFE7
    55                           postinc1	equ	0xFE6
    56                           fsr1h	equ	0xFE2
    57                           fsr1l	equ	0xFE1
    58                           indf2	equ	0xFDF
    59                           postinc2	equ	0xFDE
    60                           fsr2h	equ	0xFDA
    61                           fsr2l	equ	0xFD9
    62                           status	equ	0xFD8
    63                           
    64                           	psect	idataCOMRAM
    65  0013CC                     __pidataCOMRAM:
    66                           	opt stack 0
    67                           
    68                           ;initializer for drowText@F3375
    69  0013CC  20                 	db	32
    70  0013CD  20                 	db	32
    71  0013CE  20                 	db	32
    72  0013CF  20                 	db	32
    73  0013D0  20                 	db	32
    74  0013D1  20                 	db	32
    75  0013D2  20                 	db	32
    76  0013D3  20                 	db	32
    77  0013D4  20                 	db	32
    78  0013D5  20                 	db	32
    79  0013D6  20                 	db	32
    80  0013D7  20                 	db	32
    81  0013D8  20                 	db	32
    82  0013D9  20                 	db	32
    83  0013DA  20                 	db	32
    84  0013DB  20                 	db	32
    85  0013DC  00                 	db	0
    86                           
    87                           ;initializer for F_l@PressedKeyIndex
    88  0013DD  FF                 	db	255
    89                           
    90                           ;initializer for _GlobalBlinkCycleTime
    91  0013DE  46                 	db	70
    92                           
    93                           ;initializer for _cDays
    94  0013DF  01                 	db	1
    95                           
    96                           ;initializer for _cMonths
    97  0013E0  01                 	db	1
    98                           
    99                           ;initializer for _cWeekDay
   100  0013E1  01                 	db	1
   101                           
   102                           ;initializer for _cYears
   103  0013E2  01                 	db	1
   104                           
   105                           ;initializer for GetDayOfWeek@array
   106  0013E3  00                 	db	0
   107  0013E4  00                 	db	0
   108  0013E5  FF                 	db	255
   109                           prodl	equ	0xFF3
   110                           intcon	equ	0xFF2
   111                           intcon2	equ	0xFF1
   112                           intcon3	equ	0xFF0
   113                           wreg	equ	0xFE8
   114                           indf1	equ	0xFE7
   115                           postinc1	equ	0xFE6
   116                           fsr1h	equ	0xFE2
   117                           fsr1l	equ	0xFE1
   118                           indf2	equ	0xFDF
   119                           postinc2	equ	0xFDE
   120                           fsr2h	equ	0xFDA
   121                           fsr2l	equ	0xFD9
   122                           status	equ	0xFD8
   123                           
   124                           	psect	idataBANK2
   125  000B8C                     __pidataBANK2:
   126                           	opt stack 0
   127                           
   128                           ;initializer for main2@F3379
   129  000B8C  D2                 	db	210
   130  000B8D  E5                 	db	229
   131  000B8E  EA                 	db	234
   132  000B8F  F1                 	db	241
   133  000B90  F2                 	db	242
   134  000B91  20                 	db	32
   135  000B92  28                 	db	40
   136  000B93  EE                 	db	238
   137  000B94  F2                 	db	242
   138  000B95  20                 	db	32
   139  000B96  EB                 	db	235
   140  000B97  E0                 	db	224
   141  000B98  F2                 	db	242
   142  000B99  2E                 	db	46
   143  000B9A  20                 	db	32
   144  000B9B  74                 	db	116
   145  000B9C  65                 	db	101
   146  000B9D  78                 	db	120
   147  000B9E  74                 	db	116
   148  000B9F  75                 	db	117
   149  000BA0  73                 	db	115
   150  000BA1  20                 	db	32
   151  000BA2  97                 	db	151
   152  000BA3  20                 	db	32
   153  000BA4  AB                 	db	171
   154  000BA5  F2                 	db	242
   155  000BA6  EA                 	db	234
   156  000BA7  E0                 	db	224
   157  000BA8  ED                 	db	237
   158  000BA9  FC                 	db	252
   159  000BAA  3B                 	db	59
   160  000BAB  20                 	db	32
   161  000BAC  F1                 	db	241
   162  000BAD  EF                 	db	239
   163  000BAE  EB                 	db	235
   164  000BAF  E5                 	db	229
   165  000BB0  F2                 	db	242
   166  000BB1  E5                 	db	229
   167  000BB2  ED                 	db	237
   168  000BB3  E8                 	db	232
   169  000BB4  E5                 	db	229
   170  000BB5  2C                 	db	44
   171  000BB6  20                 	db	32
   172  000BB7  F1                 	db	241
   173  000BB8  E2                 	db	226
   174  000BB9  FF                 	db	255
   175  000BBA  E7                 	db	231
   176  000BBB  FC                 	db	252
   177  000BBC  2C                 	db	44
   178  000BBD  20                 	db	32
   179  000BBE  EF                 	db	239
   180  000BBF  E0                 	db	224
   181  000BC0  F3                 	db	243
   182  000BC1  F2                 	db	242
   183  000BC2  E8                 	db	232
   184  000BC3  ED                 	db	237
   185  000BC4  E0                 	db	224
   186  000BC5  2C                 	db	44
   187  000BC6  20                 	db	32
   188  000BC7  F1                 	db	241
   189  000BC8  EE                 	db	238
   190  000BC9  F7                 	db	247
   191  000BCA  E5                 	db	229
   192  000BCB  F2                 	db	242
   193  000BCC  E0                 	db	224
   194  000BCD  ED                 	db	237
   195  000BCE  E8                 	db	232
   196  000BCF  E5                 	db	229
   197  000BD0  BB                 	db	187
   198  000BD1  29                 	db	41
   199  000BD2  20                 	db	32
   200  000BD3  2D                 	db	45
   201  000BD4  20                 	db	32
   202  000BD5  E7                 	db	231
   203  000BD6  E0                 	db	224
   204  000BD7  F4                 	db	244
   205  000BD8  E8                 	db	232
   206  000BD9  EA                 	db	234
   207  000BDA  F1                 	db	241
   208  000BDB  E8                 	db	232
   209  000BDC  F0                 	db	240
   210  000BDD  EE                 	db	238
   211  000BDE  E2                 	db	226
   212  000BDF  E0                 	db	224
   213  000BE0  ED                 	db	237
   214  000BE1  ED                 	db	237
   215  000BE2  E0                 	db	224
   216  000BE3  FF                 	db	255
   217  000BE4  20                 	db	32
   218  000BE5  ED                 	db	237
   219  000BE6  E0                 	db	224
   220  000BE7  20                 	db	32
   221  000BE8  EA                 	db	234
   222  000BE9  E0                 	db	224
   223  000BEA  EA                 	db	234
   224  000BEB  EE                 	db	238
   225  000BEC  EC                 	db	236
   226  000BED  2D                 	db	45
   227  000BEE  EB                 	db	235
   228  000BEF  E8                 	db	232
   229  000BF0  E1                 	db	225
   230  000BF1  EE                 	db	238
   231  000BF2  20                 	db	32
   232  000BF3  EC                 	db	236
   233  000BF4  E0                 	db	224
   234  000BF5  F2                 	db	242
   235  000BF6  E5                 	db	229
   236  000BF7  F0                 	db	240
   237  000BF8  E8                 	db	232
   238  000BF9  E0                 	db	224
   239  000BFA  EB                 	db	235
   240  000BFB  FC                 	db	252
   241  000BFC  ED                 	db	237
   242  000BFD  EE                 	db	238
   243  000BFE  EC                 	db	236
   244  000BFF  20                 	db	32
   245  000C00  ED                 	db	237
   246  000C01  EE                 	db	238
   247  000C02  F1                 	db	241
   248  000C03  E8                 	db	232
   249  000C04  F2                 	db	242
   250  000C05  E5                 	db	229
   251  000C06  EB                 	db	235
   252  000C07  E5                 	db	229
   253  000C08  20                 	db	32
   254  000C09  F7                 	db	247
   255  000C0A  E5                 	db	229
   256  000C0B  EB                 	db	235
   257  000C0C  EE                 	db	238
   258  000C0D  E2                 	db	226
   259  000C0E  E5                 	db	229
   260  000C0F  F7                 	db	247
   261  000C10  E5                 	db	229
   262  000C11  F1                 	db	241
   263  000C12  EA                 	db	234
   264  000C13  E0                 	db	224
   265  000C14  FF                 	db	255
   266  000C15  20                 	db	32
   267  000C16  EC                 	db	236
   268  000C17  FB                 	db	251
   269  000C18  F1                 	db	241
   270  000C19  EB                 	db	235
   271  000C1A  FC                 	db	252
   272  000C1B  3B                 	db	59
   273  000C1C  20                 	db	32
   274  000C1D  E2                 	db	226
   275  000C1E  20                 	db	32
   276  000C1F  EE                 	db	238
   277  000C20  E1                 	db	225
   278  000C21  F9                 	db	249
   279  000C22  E5                 	db	229
   280  000C23  EC                 	db	236
   281  000C24  20                 	db	32
   282  000C25  EF                 	db	239
   283  000C26  EB                 	db	235
   284  000C27  E0                 	db	224
   285  000C28  ED                 	db	237
   286  000C29  E5                 	db	229
   287  000C2A  20                 	db	32
   288  000C2B  F1                 	db	241
   289  000C2C  E2                 	db	226
   290  000C2D  FF                 	db	255
   291  000C2E  E7                 	db	231
   292  000C2F  ED                 	db	237
   293  000C30  E0                 	db	224
   294  000C31  FF                 	db	255
   295  000C32  20                 	db	32
   296  000C33  E8                 	db	232
   297  000C34  20                 	db	32
   298  000C35  EF                 	db	239
   299  000C36  EE                 	db	238
   300  000C37  EB                 	db	235
   301  000C38  ED                 	db	237
   302  000C39  E0                 	db	224
   303  000C3A  FF                 	db	255
   304  000C3B  20                 	db	32
   305  000C3C  EF                 	db	239
   306  000C3D  EE                 	db	238
   307  000C3E  F1                 	db	241
   308  000C3F  EB                 	db	235
   309  000C40  E5                 	db	229
   310  000C41  E4                 	db	228
   311  000C42  EE                 	db	238
   312  000C43  E2                 	db	226
   313  000C44  E0                 	db	224
   314  000C45  F2                 	db	242
   315  000C46  E5                 	db	229
   316  000C47  EB                 	db	235
   317  000C48  FC                 	db	252
   318  000C49  ED                 	db	237
   319  000C4A  EE                 	db	238
   320  000C4B  F1                 	db	241
   321  000C4C  F2                 	db	242
   322  000C4D  FC                 	db	252
   323  000C4E  20                 	db	32
   324  000C4F  F1                 	db	241
   325  000C50  E8                 	db	232
   326  000C51  EC                 	db	236
   327  000C52  E2                 	db	226
   328  000C53  EE                 	db	238
   329  000C54  EB                 	db	235
   330  000C55  EE                 	db	238
   331  000C56  E2                 	db	226
   332  000C57  2E                 	db	46
   333  000C58  00                 	db	0
   334  0000                     _TMR1	set	4046
   335  0000                     _ADCON1	set	4033
   336  0000                     _EEADR	set	4009
   337  0000                     _EEADRH	set	4010
   338  0000                     _EECON1bits	set	4006
   339  0000                     _EECON2	set	4007
   340  0000                     _EEDATA	set	4008
   341  0000                     _INTCON	set	4082
   342  0000                     _INTCON2	set	4081
   343  0000                     _INTCON3	set	4080
   344  0000                     _INTCONbits	set	4082
   345  0000                     _IPR1	set	3999
   346  0000                     _IPR2	set	4002
   347  0000                     _LATA	set	3977
   348  0000                     _LATB	set	3978
   349  0000                     _LATC	set	3979
   350  0000                     _PIE1	set	3997
   351  0000                     _PIE1bits	set	3997
   352  0000                     _PIE2	set	4000
   353  0000                     _PIR1	set	3998
   354  0000                     _PIR2	set	4001
   355  0000                     _PIR2bits	set	4001
   356  0000                     _PORTA	set	3968
   357  0000                     _PORTB	set	3969
   358  0000                     _PORTBbits	set	3969
   359  0000                     _PR2	set	4043
   360  0000                     _RCON	set	4048
   361  0000                     _RCONbits	set	4048
   362  0000                     _SSPADD	set	4040
   363  0000                     _SSPBUF	set	4041
   364  0000                     _SSPCON1	set	4038
   365  0000                     _SSPCON2	set	4037
   366  0000                     _SSPCON2bits	set	4037
   367  0000                     _SSPSTAT	set	4039
   368  0000                     _SSPSTATbits	set	4039
   369  0000                     _T1CONbits	set	4045
   370  0000                     _T2CON	set	4042
   371  0000                     _T2CONbits	set	4042
   372  0000                     _TMR2	set	4044
   373  0000                     _TRISA	set	3986
   374  0000                     _TRISB	set	3987
   375  0000                     _TRISC	set	3988
   376  0000                     _TRISCbits	set	3988
   377  0000                     _RB7	set	31759
   378  0000                     _RC0	set	31760
   379  0000                     _RC2	set	31762
   380  0000                     _T0IF	set	32658
   381  0000                     _TMR1IF	set	31984
   382  0000                     _TMR2IF	set	31985
   383                           
   384                           ; #config settings
   385  0000                     prodl	equ	0xFF3
   386                           intcon	equ	0xFF2
   387                           intcon2	equ	0xFF1
   388                           intcon3	equ	0xFF0
   389                           wreg	equ	0xFE8
   390                           indf1	equ	0xFE7
   391                           postinc1	equ	0xFE6
   392                           fsr1h	equ	0xFE2
   393                           fsr1l	equ	0xFE1
   394                           indf2	equ	0xFDF
   395                           postinc2	equ	0xFDE
   396                           fsr2h	equ	0xFDA
   397                           fsr2l	equ	0xFD9
   398                           status	equ	0xFD8
   399                           
   400                           	psect	cinit
   401  000FC6                     __pcinit:
   402                           	opt stack 0
   403  000FC6                     start_initialization:
   404                           	opt stack 0
   405  000FC6                     __initialization:
   406                           	opt stack 0
   407                           
   408                           ; Clear objects allocated to BANK1 (1 bytes)
   409  000FC6  0101               	movlb	1
   410  000FC8  6BD1               	clrf	__pbssBANK1& (0+255),b
   411                           
   412                           ; Clear objects allocated to BANK0 (66 bytes)
   413  000FCA  EE00  F080         	lfsr	0,__pbssBANK0
   414  000FCE  0E42               	movlw	66
   415  000FD0                     clear_0:
   416  000FD0  6AEE               	clrf	postinc0,c
   417  000FD2  06E8               	decf	wreg,f,c
   418  000FD4  E1FD               	bnz	clear_0
   419                           
   420                           ; Clear objects allocated to COMRAM (25 bytes)
   421  000FD6  EE00  F05F         	lfsr	0,__pbssCOMRAM
   422  000FDA  0E19               	movlw	25
   423  000FDC                     clear_1:
   424  000FDC  6AEE               	clrf	postinc0,c
   425  000FDE  06E8               	decf	wreg,f,c
   426  000FE0  E1FD               	bnz	clear_1
   427                           
   428                           ; Initialize objects allocated to BANK2 (205 bytes)
   429                           ; load TBLPTR registers with __pidataBANK2
   430  000FE2  0E8C               	movlw	low __pidataBANK2
   431  000FE4  6EF6               	movwf	tblptrl,c
   432  000FE6  0E0B               	movlw	high __pidataBANK2
   433  000FE8  6EF7               	movwf	tblptrh,c
   434  000FEA  0E00               	movlw	low (__pidataBANK2 shr (0+16))
   435  000FEC  6EF8               	movwf	tblptru,c
   436  000FEE  EE02  F000         	lfsr	0,__pdataBANK2
   437  000FF2  EE10 F0CD          	lfsr	1,205
   438  000FF6                     copy_data0:
   439  000FF6  0009               	tblrd		*+
   440  000FF8  CFF5 FFEE          	movff	tablat,postinc0
   441  000FFC  50E5               	movf	postdec1,w,c
   442  000FFE  50E1               	movf	fsr1l,w,c
   443  001000  E1FA               	bnz	copy_data0
   444                           
   445                           ; Initialize objects allocated to COMRAM (26 bytes)
   446                           ; load TBLPTR registers with __pidataCOMRAM
   447  001002  0ECC               	movlw	low __pidataCOMRAM
   448  001004  6EF6               	movwf	tblptrl,c
   449  001006  0E13               	movlw	high __pidataCOMRAM
   450  001008  6EF7               	movwf	tblptrh,c
   451  00100A  0E00               	movlw	low (__pidataCOMRAM shr (0+16))
   452  00100C  6EF8               	movwf	tblptru,c
   453  00100E  EE00  F045         	lfsr	0,__pdataCOMRAM
   454  001012  EE10 F01A          	lfsr	1,26
   455  001016                     copy_data1:
   456  001016  0009               	tblrd		*+
   457  001018  CFF5 FFEE          	movff	tablat,postinc0
   458  00101C  50E5               	movf	postdec1,w,c
   459  00101E  50E1               	movf	fsr1l,w,c
   460  001020  E1FA               	bnz	copy_data1
   461  001022                     end_of_initialization:
   462                           	opt stack 0
   463  001022                     __end_of__initialization:
   464                           	opt stack 0
   465  001022  0E00               	movlw	low (__Lmediumconst shr (0+16))
   466  001024  6EF8               	movwf	tblptru,c
   467  001026  0100               	movlb	0
   468  001028  EF39  F007         	goto	_main	;jump to C main() function
   469                           tblptru	equ	0xFF8
   470                           tblptrh	equ	0xFF7
   471                           tblptrl	equ	0xFF6
   472                           tablat	equ	0xFF5
   473                           prodl	equ	0xFF3
   474                           intcon	equ	0xFF2
   475                           intcon2	equ	0xFF1
   476                           intcon3	equ	0xFF0
   477                           postinc0	equ	0xFEE
   478                           wreg	equ	0xFE8
   479                           indf1	equ	0xFE7
   480                           postinc1	equ	0xFE6
   481                           postdec1	equ	0xFE5
   482                           fsr1h	equ	0xFE2
   483                           fsr1l	equ	0xFE1
   484                           indf2	equ	0xFDF
   485                           postinc2	equ	0xFDE
   486                           fsr2h	equ	0xFDA
   487                           fsr2l	equ	0xFD9
   488                           status	equ	0xFD8
   489                           
   490                           	psect	bssCOMRAM
   491  00005F                     __pbssCOMRAM:
   492                           	opt stack 0
   493  00005F                     _Clock:
   494                           	opt stack 0
   495  00005F                     	ds	4
   496  000063                     _Minutes:
   497                           	opt stack 0
   498  000063                     	ds	4
   499  000067                     Scheduler@NumberOfCells:
   500                           	opt stack 0
   501  000067                     	ds	2
   502  000069                     _CurrentReadingCell:
   503                           	opt stack 0
   504  000069                     	ds	2
   505  00006B                     F_l@ButtonPressTimeOut:
   506                           	opt stack 0
   507  00006B                     	ds	1
   508  00006C                     F_l@KeyIndex:
   509                           	opt stack 0
   510  00006C                     	ds	1
   511  00006D                     SchedulerNew@NumberOfCells:
   512                           	opt stack 0
   513  00006D                     	ds	1
   514  00006E                     _CurrentSignals:
   515                           	opt stack 0
   516  00006E                     	ds	1
   517  00006F                     _CurrentSignalsData:
   518                           	opt stack 0
   519  00006F                     	ds	1
   520  000070                     _SignalsForInd:
   521                           	opt stack 0
   522  000070                     	ds	1
   523  000071                     _SignalsOut:
   524                           	opt stack 0
   525  000071                     	ds	1
   526  000072                     _cHours:
   527                           	opt stack 0
   528  000072                     	ds	1
   529  000073                     _cMinutes:
   530                           	opt stack 0
   531  000073                     	ds	1
   532  000074                     _NearTimeStart:
   533                           	opt stack 0
   534  000074                     	ds	4
   535                           tblptru	equ	0xFF8
   536                           tblptrh	equ	0xFF7
   537                           tblptrl	equ	0xFF6
   538                           tablat	equ	0xFF5
   539                           prodl	equ	0xFF3
   540                           intcon	equ	0xFF2
   541                           intcon2	equ	0xFF1
   542                           intcon3	equ	0xFF0
   543                           postinc0	equ	0xFEE
   544                           wreg	equ	0xFE8
   545                           indf1	equ	0xFE7
   546                           postinc1	equ	0xFE6
   547                           postdec1	equ	0xFE5
   548                           fsr1h	equ	0xFE2
   549                           fsr1l	equ	0xFE1
   550                           indf2	equ	0xFDF
   551                           postinc2	equ	0xFDE
   552                           fsr2h	equ	0xFDA
   553                           fsr2l	equ	0xFD9
   554                           status	equ	0xFD8
   555                           
   556                           	psect	dataCOMRAM
   557  000045                     __pdataCOMRAM:
   558                           	opt stack 0
   559  000045                     drowText@F3375:
   560                           	opt stack 0
   561  000045                     	ds	17
   562  000056                     F_l@PressedKeyIndex:
   563                           	opt stack 0
   564  000056                     	ds	1
   565  000057                     _GlobalBlinkCycleTime:
   566                           	opt stack 0
   567  000057                     	ds	1
   568  000058                     _cDays:
   569                           	opt stack 0
   570  000058                     	ds	1
   571  000059                     _cMonths:
   572                           	opt stack 0
   573  000059                     	ds	1
   574  00005A                     _cWeekDay:
   575                           	opt stack 0
   576  00005A                     	ds	1
   577  00005B                     _cYears:
   578                           	opt stack 0
   579  00005B                     	ds	1
   580  00005C                     	ds	3
   581                           tblptru	equ	0xFF8
   582                           tblptrh	equ	0xFF7
   583                           tblptrl	equ	0xFF6
   584                           tablat	equ	0xFF5
   585                           prodl	equ	0xFF3
   586                           intcon	equ	0xFF2
   587                           intcon2	equ	0xFF1
   588                           intcon3	equ	0xFF0
   589                           postinc0	equ	0xFEE
   590                           wreg	equ	0xFE8
   591                           indf1	equ	0xFE7
   592                           postinc1	equ	0xFE6
   593                           postdec1	equ	0xFE5
   594                           fsr1h	equ	0xFE2
   595                           fsr1l	equ	0xFE1
   596                           indf2	equ	0xFDF
   597                           postinc2	equ	0xFDE
   598                           fsr2h	equ	0xFDA
   599                           fsr2l	equ	0xFD9
   600                           status	equ	0xFD8
   601                           
   602                           	psect	bssBANK0
   603  000080                     __pbssBANK0:
   604                           	opt stack 0
   605  000080                     _digits:
   606                           	opt stack 0
   607  000080                     	ds	32
   608  0000A0                     _digitsAtrib:
   609                           	opt stack 0
   610  0000A0                     	ds	32
   611  0000C0                     _flags:
   612                           	opt stack 0
   613  0000C0                     	ds	2
   614                           tblptru	equ	0xFF8
   615                           tblptrh	equ	0xFF7
   616                           tblptrl	equ	0xFF6
   617                           tablat	equ	0xFF5
   618                           prodl	equ	0xFF3
   619                           intcon	equ	0xFF2
   620                           intcon2	equ	0xFF1
   621                           intcon3	equ	0xFF0
   622                           postinc0	equ	0xFEE
   623                           wreg	equ	0xFE8
   624                           indf1	equ	0xFE7
   625                           postinc1	equ	0xFE6
   626                           postdec1	equ	0xFE5
   627                           fsr1h	equ	0xFE2
   628                           fsr1l	equ	0xFE1
   629                           indf2	equ	0xFDF
   630                           postinc2	equ	0xFDE
   631                           fsr2h	equ	0xFDA
   632                           fsr2l	equ	0xFD9
   633                           status	equ	0xFD8
   634                           
   635                           	psect	bssBANK1
   636  0001D1                     __pbssBANK1:
   637                           	opt stack 0
   638  0001D1                     _KeyCode:
   639                           	opt stack 0
   640  0001D1                     	ds	1
   641                           tblptru	equ	0xFF8
   642                           tblptrh	equ	0xFF7
   643                           tblptrl	equ	0xFF6
   644                           tablat	equ	0xFF5
   645                           prodl	equ	0xFF3
   646                           intcon	equ	0xFF2
   647                           intcon2	equ	0xFF1
   648                           intcon3	equ	0xFF0
   649                           postinc0	equ	0xFEE
   650                           wreg	equ	0xFE8
   651                           indf1	equ	0xFE7
   652                           postinc1	equ	0xFE6
   653                           postdec1	equ	0xFE5
   654                           fsr1h	equ	0xFE2
   655                           fsr1l	equ	0xFE1
   656                           indf2	equ	0xFDF
   657                           postinc2	equ	0xFDE
   658                           fsr2h	equ	0xFDA
   659                           fsr2l	equ	0xFD9
   660                           status	equ	0xFD8
   661                           
   662                           	psect	dataBANK2
   663  000200                     __pdataBANK2:
   664                           	opt stack 0
   665  000200                     main2@F3379:
   666                           	opt stack 0
   667  000200                     	ds	205
   668                           tblptru	equ	0xFF8
   669                           tblptrh	equ	0xFF7
   670                           tblptrl	equ	0xFF6
   671                           tablat	equ	0xFF5
   672                           prodl	equ	0xFF3
   673                           intcon	equ	0xFF2
   674                           intcon2	equ	0xFF1
   675                           intcon3	equ	0xFF0
   676                           postinc0	equ	0xFEE
   677                           wreg	equ	0xFE8
   678                           indf1	equ	0xFE7
   679                           postinc1	equ	0xFE6
   680                           postdec1	equ	0xFE5
   681                           fsr1h	equ	0xFE2
   682                           fsr1l	equ	0xFE1
   683                           indf2	equ	0xFDF
   684                           postinc2	equ	0xFDE
   685                           fsr2h	equ	0xFDA
   686                           fsr2l	equ	0xFD9
   687                           status	equ	0xFD8
   688                           
   689                           	psect	cstackBANK1
   690  000100                     __pcstackBANK1:
   691                           	opt stack 0
   692  000100                     main2@data:
   693                           	opt stack 0
   694                           
   695                           ; 205 bytes @ 0x0
   696  000100                     	ds	205
   697  0001CD                     main2@maxPosition:
   698                           	opt stack 0
   699                           
   700                           ; 2 bytes @ 0xCD
   701  0001CD                     	ds	2
   702  0001CF                     main2@position:
   703                           	opt stack 0
   704                           
   705                           ; 2 bytes @ 0xCF
   706  0001CF                     	ds	2
   707                           tblptru	equ	0xFF8
   708                           tblptrh	equ	0xFF7
   709                           tblptrl	equ	0xFF6
   710                           tablat	equ	0xFF5
   711                           prodl	equ	0xFF3
   712                           intcon	equ	0xFF2
   713                           intcon2	equ	0xFF1
   714                           intcon3	equ	0xFF0
   715                           postinc0	equ	0xFEE
   716                           wreg	equ	0xFE8
   717                           indf1	equ	0xFE7
   718                           postinc1	equ	0xFE6
   719                           postdec1	equ	0xFE5
   720                           fsr1h	equ	0xFE2
   721                           fsr1l	equ	0xFE1
   722                           indf2	equ	0xFDF
   723                           postinc2	equ	0xFDE
   724                           fsr2h	equ	0xFDA
   725                           fsr2l	equ	0xFD9
   726                           status	equ	0xFD8
   727                           
   728                           	psect	cstackBANK0
   729  0000C2                     __pcstackBANK0:
   730                           	opt stack 0
   731  0000C2                     ?___lwmod:
   732                           	opt stack 0
   733  0000C2                     setDigit@symbol:
   734                           	opt stack 0
   735  0000C2                     clrInd@line:
   736                           	opt stack 0
   737  0000C2                     lcd_send_initial_half_byte@data:
   738                           	opt stack 0
   739  0000C2                     ___lwmod@dividend:
   740                           	opt stack 0
   741                           
   742                           ; 2 bytes @ 0x0
   743  0000C2                     	ds	1
   744  0000C3                     setDigit@data:
   745                           	opt stack 0
   746  0000C3                     clrInd@symb:
   747                           	opt stack 0
   748  0000C3                     _lcd_send_initial_half_byte$955:
   749                           	opt stack 0
   750                           
   751                           ; 2 bytes @ 0x1
   752  0000C3                     	ds	1
   753  0000C4                     _setDigit$833:
   754                           	opt stack 0
   755  0000C4                     ___lwmod@divisor:
   756                           	opt stack 0
   757                           
   758                           ; 2 bytes @ 0x2
   759  0000C4                     	ds	1
   760  0000C5                     _setDigit$834:
   761                           	opt stack 0
   762  0000C5                     lcd_send_byte@data:
   763                           	opt stack 0
   764                           
   765                           ; 1 bytes @ 0x3
   766  0000C5                     	ds	1
   767  0000C6                     ??_lcd_init:
   768  0000C6                     setDigit@value0:
   769                           	opt stack 0
   770  0000C6                     ___lwmod@counter:
   771                           	opt stack 0
   772                           
   773                           ; 1 bytes @ 0x4
   774  0000C6                     	ds	1
   775  0000C7                     setDigit@value:
   776                           	opt stack 0
   777  0000C7                     lcd_init@INTCON_BUF:
   778                           	opt stack 0
   779  0000C7                     EERD@adress:
   780                           	opt stack 0
   781                           
   782                           ; 2 bytes @ 0x5
   783  0000C7                     	ds	1
   784  0000C8                     setDigit@line:
   785                           	opt stack 0
   786                           
   787                           ; 1 bytes @ 0x6
   788  0000C8                     	ds	1
   789  0000C9                     ??_EERD:
   790  0000C9                     outputString@line:
   791                           	opt stack 0
   792                           
   793                           ; 1 bytes @ 0x7
   794  0000C9                     	ds	1
   795  0000CA                     outputString@position:
   796                           	opt stack 0
   797                           
   798                           ; 1 bytes @ 0x8
   799  0000CA                     	ds	1
   800  0000CB                     outputString@s:
   801                           	opt stack 0
   802                           
   803                           ; 1 bytes @ 0x9
   804  0000CB                     	ds	1
   805  0000CC                     EERD@INTCON_BUP:
   806                           	opt stack 0
   807  0000CC                     outputString@i:
   808                           	opt stack 0
   809                           
   810                           ; 2 bytes @ 0xA
   811  0000CC                     	ds	1
   812  0000CD                     EERD@EEDATA_BUP:
   813                           	opt stack 0
   814                           
   815                           ; 1 bytes @ 0xB
   816  0000CD                     	ds	1
   817  0000CE                     outputString@stringData:
   818                           	opt stack 0
   819                           
   820                           ; 1 bytes @ 0xC
   821  0000CE                     	ds	1
   822  0000CF                     outputString@l:
   823                           	opt stack 0
   824                           
   825                           ; 1 bytes @ 0xD
   826  0000CF                     	ds	1
   827  0000D0                     drowText@stringData:
   828                           	opt stack 0
   829                           
   830                           ; 2 bytes @ 0xE
   831  0000D0                     	ds	2
   832  0000D2                     drowText@startNum:
   833                           	opt stack 0
   834                           
   835                           ; 2 bytes @ 0x10
   836  0000D2                     	ds	2
   837  0000D4                     drowText@direction:
   838                           	opt stack 0
   839                           
   840                           ; 2 bytes @ 0x12
   841  0000D4                     	ds	2
   842  0000D6                     ??_drowText:
   843                           
   844                           ; 0 bytes @ 0x14
   845  0000D6                     	ds	2
   846  0000D8                     drowText@cutedString:
   847                           	opt stack 0
   848                           
   849                           ; 17 bytes @ 0x16
   850  0000D8                     	ds	17
   851  0000E9                     drowText@a:
   852                           	opt stack 0
   853                           
   854                           ; 1 bytes @ 0x27
   855  0000E9                     	ds	1
   856  0000EA                     drowText@srcLine:
   857                           	opt stack 0
   858                           
   859                           ; 1 bytes @ 0x28
   860  0000EA                     	ds	1
   861  0000EB                     drowText@destLine:
   862                           	opt stack 0
   863                           
   864                           ; 1 bytes @ 0x29
   865  0000EB                     	ds	1
   866  0000EC                     drowText@symbol_1136:
   867                           	opt stack 0
   868                           
   869                           ; 1 bytes @ 0x2A
   870  0000EC                     	ds	1
   871  0000ED                     drowText@symbol:
   872                           	opt stack 0
   873                           
   874                           ; 1 bytes @ 0x2B
   875  0000ED                     	ds	1
   876  0000EE                     ??_main2:
   877                           
   878                           ; 0 bytes @ 0x2C
   879  0000EE                     	ds	1
   880  0000EF                     ??_main:
   881                           
   882                           ; 0 bytes @ 0x2D
   883  0000EF                     	ds	1
   884                           tblptru	equ	0xFF8
   885                           tblptrh	equ	0xFF7
   886                           tblptrl	equ	0xFF6
   887                           tablat	equ	0xFF5
   888                           prodl	equ	0xFF3
   889                           intcon	equ	0xFF2
   890                           intcon2	equ	0xFF1
   891                           intcon3	equ	0xFF0
   892                           postinc0	equ	0xFEE
   893                           wreg	equ	0xFE8
   894                           indf1	equ	0xFE7
   895                           postinc1	equ	0xFE6
   896                           postdec1	equ	0xFE5
   897                           fsr1h	equ	0xFE2
   898                           fsr1l	equ	0xFE1
   899                           indf2	equ	0xFDF
   900                           postinc2	equ	0xFDE
   901                           fsr2h	equ	0xFDA
   902                           fsr2l	equ	0xFD9
   903                           status	equ	0xFD8
   904                           
   905                           	psect	cstackCOMRAM
   906  000001                     __pcstackCOMRAM:
   907                           	opt stack 0
   908  000001                     ?___lwdiv:
   909                           	opt stack 0
   910  000001                     ?i1___lwmod:
   911                           	opt stack 0
   912  000001                     ?___aldiv:
   913                           	opt stack 0
   914  000001                     getLcdCodeOfChar@dig:
   915                           	opt stack 0
   916  000001                     ConvKeyNum@Num:
   917                           	opt stack 0
   918  000001                     ConvertDayToBit@DayNumber:
   919                           	opt stack 0
   920  000001                     i1lcd_send_initial_half_byte@data:
   921                           	opt stack 0
   922  000001                     delay@count:
   923                           	opt stack 0
   924  000001                     ___lwdiv@dividend:
   925                           	opt stack 0
   926  000001                     i1___lwmod@dividend:
   927                           	opt stack 0
   928  000001                     ___aldiv@dividend:
   929                           	opt stack 0
   930                           
   931                           ; 4 bytes @ 0x0
   932  000001                     	ds	1
   933  000002                     i1_lcd_send_initial_half_byte$955:
   934                           	opt stack 0
   935                           
   936                           ; 2 bytes @ 0x1
   937  000002                     	ds	1
   938  000003                     delay@del:
   939                           	opt stack 0
   940  000003                     ___lwdiv@divisor:
   941                           	opt stack 0
   942  000003                     i1___lwmod@divisor:
   943                           	opt stack 0
   944                           
   945                           ; 2 bytes @ 0x2
   946  000003                     	ds	1
   947  000004                     i1lcd_send_byte@data:
   948                           	opt stack 0
   949  000004                     _SendSymbolToLCD$945:
   950                           	opt stack 0
   951                           
   952                           ; 2 bytes @ 0x3
   953  000004                     	ds	1
   954  000005                     i1___lwmod@counter:
   955                           	opt stack 0
   956  000005                     ___lwdiv@quotient:
   957                           	opt stack 0
   958  000005                     ___aldiv@divisor:
   959                           	opt stack 0
   960                           
   961                           ; 4 bytes @ 0x4
   962  000005                     	ds	1
   963  000006                     EEWR@adress:
   964                           	opt stack 0
   965  000006                     _SendSymbolToLCD$947:
   966                           	opt stack 0
   967  000006                     i1EERD@adress:
   968                           	opt stack 0
   969                           
   970                           ; 2 bytes @ 0x5
   971  000006                     	ds	1
   972  000007                     ___lwdiv@counter:
   973                           	opt stack 0
   974                           
   975                           ; 1 bytes @ 0x6
   976  000007                     	ds	1
   977  000008                     ??i1_EERD:
   978  000008                     EEWR@data:
   979                           	opt stack 0
   980  000008                     SendSymbolToLCD@Symb:
   981                           	opt stack 0
   982                           
   983                           ; 1 bytes @ 0x7
   984  000008                     	ds	1
   985  000009                     ??_EEWR:
   986  000009                     ___aldiv@counter:
   987                           	opt stack 0
   988                           
   989                           ; 1 bytes @ 0x8
   990  000009                     	ds	1
   991  00000A                     ___aldiv@sign:
   992                           	opt stack 0
   993                           
   994                           ; 1 bytes @ 0x9
   995  00000A                     	ds	1
   996  00000B                     i1EERD@INTCON_BUP:
   997                           	opt stack 0
   998  00000B                     ___aldiv@quotient:
   999                           	opt stack 0
  1000                           
  1001                           ; 4 bytes @ 0xA
  1002  00000B                     	ds	1
  1003  00000C                     EEWR@INTCON_BUP:
  1004                           	opt stack 0
  1005  00000C                     i1EERD@EEDATA_BUP:
  1006                           	opt stack 0
  1007                           
  1008                           ; 1 bytes @ 0xB
  1009  00000C                     	ds	1
  1010  00000D                     ?_ReadFourBytesEE:
  1011                           	opt stack 0
  1012  00000D                     ReadFourBytesEE@adress:
  1013                           	opt stack 0
  1014                           
  1015                           ; 2 bytes @ 0xC
  1016  00000D                     	ds	4
  1017  000011                     ??_ReadFourBytesEE:
  1018                           
  1019                           ; 0 bytes @ 0x10
  1020  000011                     	ds	4
  1021  000015                     ReadFourBytesEE@x:
  1022                           	opt stack 0
  1023                           
  1024                           ; 4 bytes @ 0x14
  1025  000015                     	ds	4
  1026  000019                     ReadFourBytesEE@i:
  1027                           	opt stack 0
  1028                           
  1029                           ; 2 bytes @ 0x18
  1030  000019                     	ds	2
  1031  00001B                     ??_SignalsOnOff:
  1032                           
  1033                           ; 0 bytes @ 0x1A
  1034  00001B                     	ds	4
  1035  00001F                     SignalsOnOff@TimeStart:
  1036                           	opt stack 0
  1037                           
  1038                           ; 2 bytes @ 0x1E
  1039  00001F                     	ds	2
  1040  000021                     SignalsOnOff@TimeStop:
  1041                           	opt stack 0
  1042                           
  1043                           ; 2 bytes @ 0x20
  1044  000021                     	ds	2
  1045  000023                     _SignalsOnOff$1069:
  1046                           	opt stack 0
  1047                           
  1048                           ; 2 bytes @ 0x22
  1049  000023                     	ds	2
  1050  000025                     SignalsOnOff@ThisTime:
  1051                           	opt stack 0
  1052                           
  1053                           ; 2 bytes @ 0x24
  1054  000025                     	ds	2
  1055  000027                     SignalsOnOff@DayTime:
  1056                           	opt stack 0
  1057                           
  1058                           ; 2 bytes @ 0x26
  1059  000027                     	ds	2
  1060  000029                     SignalsOnOff@Days:
  1061                           	opt stack 0
  1062                           
  1063                           ; 1 bytes @ 0x28
  1064  000029                     	ds	1
  1065  00002A                     SignalsOnOff@Signals:
  1066                           	opt stack 0
  1067                           
  1068                           ; 1 bytes @ 0x29
  1069  00002A                     	ds	1
  1070  00002B                     SignalsOnOff@ThisDay:
  1071                           	opt stack 0
  1072                           
  1073                           ; 1 bytes @ 0x2A
  1074  00002B                     	ds	1
  1075  00002C                     SignalsOnOff@Data_1070:
  1076                           	opt stack 0
  1077                           
  1078                           ; 1 bytes @ 0x2B
  1079  00002C                     	ds	1
  1080  00002D                     SignalsOnOff@Data:
  1081                           	opt stack 0
  1082                           
  1083                           ; 4 bytes @ 0x2C
  1084  00002D                     	ds	4
  1085  000031                     ??_F_l:
  1086                           
  1087                           ; 0 bytes @ 0x30
  1088  000031                     	ds	11
  1089  00003C                     F_l@MinuteAgo:
  1090                           	opt stack 0
  1091                           
  1092                           ; 1 bytes @ 0x3B
  1093  00003C                     	ds	1
  1094  00003D                     F_l@digit:
  1095                           	opt stack 0
  1096                           
  1097                           ; 1 bytes @ 0x3C
  1098  00003D                     	ds	1
  1099  00003E                     F_l@data_temp:
  1100                           	opt stack 0
  1101                           
  1102                           ; 1 bytes @ 0x3D
  1103  00003E                     	ds	1
  1104  00003F                     F_l@_KeyIndex:
  1105                           	opt stack 0
  1106                           
  1107                           ; 1 bytes @ 0x3E
  1108  00003F                     	ds	1
  1109  000040                     F_l@a:
  1110                           	opt stack 0
  1111                           
  1112                           ; 2 bytes @ 0x3F
  1113  000040                     	ds	2
  1114  000042                     F_l@symbol:
  1115                           	opt stack 0
  1116                           
  1117                           ; 2 bytes @ 0x41
  1118  000042                     	ds	2
  1119  000044                     F_l@line:
  1120                           	opt stack 0
  1121                           
  1122                           ; 1 bytes @ 0x43
  1123  000044                     	ds	1
  1124                           tblptru	equ	0xFF8
  1125                           tblptrh	equ	0xFF7
  1126                           tblptrl	equ	0xFF6
  1127                           tablat	equ	0xFF5
  1128                           prodl	equ	0xFF3
  1129                           intcon	equ	0xFF2
  1130                           intcon2	equ	0xFF1
  1131                           intcon3	equ	0xFF0
  1132                           postinc0	equ	0xFEE
  1133                           wreg	equ	0xFE8
  1134                           indf1	equ	0xFE7
  1135                           postinc1	equ	0xFE6
  1136                           postdec1	equ	0xFE5
  1137                           fsr1h	equ	0xFE2
  1138                           fsr1l	equ	0xFE1
  1139                           indf2	equ	0xFDF
  1140                           postinc2	equ	0xFDE
  1141                           fsr2h	equ	0xFDA
  1142                           fsr2l	equ	0xFD9
  1143                           status	equ	0xFD8
  1144                           
  1145 ;;
  1146 ;;Main: autosize = 0, tempsize = 1, incstack = 0, save=0
  1147 ;;
  1148 ;; *************** function _main *****************
  1149 ;; Defined at:
  1150 ;;		line 1509 in file "prog.c"
  1151 ;; Parameters:    Size  Location     Type
  1152 ;;		None
  1153 ;; Auto vars:     Size  Location     Type
  1154 ;;		None
  1155 ;; Return value:  Size  Location     Type
  1156 ;;		None               void
  1157 ;; Registers used:
  1158 ;;		wreg, fsr1l, fsr1h, fsr2l, fsr2h, status,2, status,0, prodl, prodh, cstack
  1159 ;; Tracked objects:
  1160 ;;		On entry : 0/0
  1161 ;;		On exit  : F/0
  1162 ;;		Unchanged: 0/0
  1163 ;; Data sizes:     COMRAM   BANK0   BANK1   BANK2   BANK3   BANK4   BANK5   BANK6   BANK7   BANK8   BANK9  BANK10  BANK1
      +1  BANK12  BANK13  BANK14  BANK15
  1164 ;;      Params:         0       0       0       0       0       0       0       0       0       0       0       0       
      +0       0       0       0       0
  1165 ;;      Locals:         0       0       0       0       0       0       0       0       0       0       0       0       
      +0       0       0       0       0
  1166 ;;      Temps:          0       1       0       0       0       0       0       0       0       0       0       0       
      +0       0       0       0       0
  1167 ;;      Totals:         0       1       0       0       0       0       0       0       0       0       0       0       
      +0       0       0       0       0
  1168 ;;Total ram usage:        1 bytes
  1169 ;; Hardware stack levels required when called:   10
  1170 ;; This function calls:
  1171 ;;		_EERD
  1172 ;;		_clrInd
  1173 ;;		_lcd_on
  1174 ;;		_main2
  1175 ;; This function is called by:
  1176 ;;		Startup code after reset
  1177 ;; This function uses a non-reentrant model
  1178 ;;
  1179                           
  1180                           	psect	text0
  1181  000E72                     __ptext0:
  1182                           	opt stack 0
  1183  000E72                     _main:
  1184                           	opt stack 21
  1185                           
  1186                           ;prog.c: 1511: flags.TimeIsRead = 0;
  1187                           
  1188                           ; BSR set to: 1
  1189                           ;incstack = 0
  1190  000E72  0100               	movlb	0	; () banked
  1191  000E74  97C0               	bcf	_flags& (0+255),3,b
  1192                           
  1193                           ;prog.c: 1513: INTCON = 0;
  1194  000E76  6AF2               	clrf	intcon,c	;volatile
  1195                           
  1196                           ;prog.c: 1514: INTCON2 = 0;
  1197  000E78  6AF1               	clrf	intcon2,c	;volatile
  1198                           
  1199                           ;prog.c: 1515: INTCON3 = 0;
  1200  000E7A  6AF0               	clrf	intcon3,c	;volatile
  1201                           
  1202                           ;prog.c: 1516: PIR1 = 0;
  1203  000E7C  6A9E               	clrf	3998,c	;volatile
  1204                           
  1205                           ;prog.c: 1517: PIR2 = 0;
  1206  000E7E  6AA1               	clrf	4001,c	;volatile
  1207                           
  1208                           ;prog.c: 1518: PIE1 = 0;
  1209  000E80  6A9D               	clrf	3997,c	;volatile
  1210                           
  1211                           ;prog.c: 1519: PIE2 = 0;
  1212  000E82  6AA0               	clrf	4000,c	;volatile
  1213                           
  1214                           ;prog.c: 1520: IPR1 = 0;
  1215  000E84  6A9F               	clrf	3999,c	;volatile
  1216                           
  1217                           ;prog.c: 1521: IPR2 = 0;
  1218  000E86  6AA2               	clrf	4002,c	;volatile
  1219                           
  1220                           ;prog.c: 1522: RCON = 0;
  1221  000E88  6AD0               	clrf	4048,c	;volatile
  1222                           
  1223                           ; BSR set to: 0
  1224                           ;prog.c: 1524: clrInd();
  1225  000E8A  ECE8  F008         	call	_clrInd	;wreg free
  1226                           
  1227                           ; BSR set to: 0
  1228                           ;prog.c: 1526: RCONbits.IPEN = 1;
  1229  000E8E  8ED0               	bsf	4048,7,c	;volatile
  1230                           
  1231                           ; BSR set to: 0
  1232                           ;prog.c: 1528: INTCONbits.GIEH = 1;
  1233  000E90  8EF2               	bsf	intcon,7,c	;volatile
  1234                           
  1235                           ; BSR set to: 0
  1236                           ;prog.c: 1529: INTCONbits.GIEL = 1;
  1237  000E92  8CF2               	bsf	intcon,6,c	;volatile
  1238                           
  1239                           ; BSR set to: 0
  1240                           ;prog.c: 1531: T2CONbits.TMR2ON = 1;
  1241  000E94  84CA               	bsf	4042,2,c	;volatile
  1242                           
  1243                           ; BSR set to: 0
  1244                           ;prog.c: 1533: T1CONbits.RD16 = 1;
  1245  000E96  8ECD               	bsf	4045,7,c	;volatile
  1246                           
  1247                           ; BSR set to: 0
  1248                           ;prog.c: 1534: TMR1 = 51200;
  1249  000E98  0EC8               	movlw	200
  1250  000E9A  6ECF               	movwf	4047,c	;volatile
  1251  000E9C  6ACE               	clrf	4046,c	;volatile
  1252                           
  1253                           ; BSR set to: 0
  1254                           ;prog.c: 1535: T1CONbits.TMR1ON = 1;
  1255  000E9E  80CD               	bsf	4045,0,c	;volatile
  1256                           
  1257                           ; BSR set to: 0
  1258                           ;prog.c: 1536: PIE1bits.TMR1IE = 1;
  1259  000EA0  809D               	bsf	3997,0,c	;volatile
  1260                           
  1261                           ; BSR set to: 0
  1262                           ;prog.c: 1538: ADCON1 = 0b00001111;
  1263  000EA2  0E0F               	movlw	15
  1264  000EA4  6EC1               	movwf	4033,c	;volatile
  1265                           
  1266                           ; BSR set to: 0
  1267                           ;prog.c: 1539: TRISA = 0b00000000;
  1268  000EA6  6A92               	clrf	3986,c	;volatile
  1269                           
  1270                           ; BSR set to: 0
  1271                           ;prog.c: 1540: TRISB = 0b10000000;
  1272  000EA8  0E80               	movlw	128
  1273  000EAA  6E93               	movwf	3987,c	;volatile
  1274                           
  1275                           ; BSR set to: 0
  1276                           ;prog.c: 1541: TRISC = 0b00000000;
  1277  000EAC  6A94               	clrf	3988,c	;volatile
  1278                           
  1279                           ; BSR set to: 0
  1280                           ;prog.c: 1543: Clock = 0;
  1281  000EAE  6A5F               	clrf	_Clock,c
  1282  000EB0  6A60               	clrf	_Clock+1,c
  1283  000EB2  6A61               	clrf	_Clock+2,c
  1284  000EB4  6A62               	clrf	_Clock+3,c
  1285                           
  1286                           ; BSR set to: 0
  1287                           ;prog.c: 1544: LATA = 0b00000000;
  1288  000EB6  6A89               	clrf	3977,c	;volatile
  1289                           
  1290                           ; BSR set to: 0
  1291                           ;prog.c: 1545: LATB = 0b00000000;
  1292  000EB8  6A8A               	clrf	3978,c	;volatile
  1293                           
  1294                           ; BSR set to: 0
  1295                           ;prog.c: 1546: LATC = 0b00000000;
  1296  000EBA  6A8B               	clrf	3979,c	;volatile
  1297                           
  1298                           ; BSR set to: 0
  1299                           ;prog.c: 1547: T2CON = 0b00100100;
  1300  000EBC  0E24               	movlw	36
  1301  000EBE  6ECA               	movwf	4042,c	;volatile
  1302                           
  1303                           ; BSR set to: 0
  1304                           ;prog.c: 1549: flags.LockSignals = EERD(251);
  1305  000EC0  6BC8               	clrf	(EERD@adress+1)& (0+255),b
  1306  000EC2  0EFB               	movlw	251
  1307  000EC4  6FC7               	movwf	EERD@adress& (0+255),b
  1308  000EC6  EC09  F009         	call	_EERD	;wreg free
  1309  000ECA  6FEF               	movwf	??_main& (0+255),b
  1310  000ECC  33EF               	rrcf	??_main& (0+255),f,b
  1311  000ECE  33EF               	rrcf	??_main& (0+255),f,b
  1312  000ED0  51C0               	movf	_flags& (0+255),w,b
  1313  000ED2  19EF               	xorwf	??_main& (0+255),w,b
  1314  000ED4  0B7F               	andlw	-129
  1315  000ED6  19EF               	xorwf	??_main& (0+255),w,b
  1316  000ED8  6FC0               	movwf	_flags& (0+255),b
  1317                           
  1318                           ; BSR set to: 0
  1319                           ;prog.c: 1551: lcd_on();
  1320  000EDA  EC00  F00A         	call	_lcd_on	;wreg free
  1321                           
  1322                           ; BSR set to: 0
  1323                           ;prog.c: 1552: main2();
  1324  000EDE  EC57  F005         	call	_main2	;wreg free
  1325                           
  1326                           ; BSR set to: 0
  1327  000EE2  EFF7  F000         	goto	start
  1328  000EE6                     __end_of_main:
  1329                           	opt stack 0
  1330                           tblptru	equ	0xFF8
  1331                           tblptrh	equ	0xFF7
  1332                           tblptrl	equ	0xFF6
  1333                           tablat	equ	0xFF5
  1334                           prodl	equ	0xFF3
  1335                           intcon	equ	0xFF2
  1336                           intcon2	equ	0xFF1
  1337                           intcon3	equ	0xFF0
  1338                           postinc0	equ	0xFEE
  1339                           wreg	equ	0xFE8
  1340                           indf1	equ	0xFE7
  1341                           postinc1	equ	0xFE6
  1342                           postdec1	equ	0xFE5
  1343                           fsr1h	equ	0xFE2
  1344                           fsr1l	equ	0xFE1
  1345                           indf2	equ	0xFDF
  1346                           postinc2	equ	0xFDE
  1347                           fsr2h	equ	0xFDA
  1348                           fsr2l	equ	0xFD9
  1349                           status	equ	0xFD8
  1350                           
  1351 ;; *************** function _main2 *****************
  1352 ;; Defined at:
  1353 ;;		line 1615 in file "prog.c"
  1354 ;; Parameters:    Size  Location     Type
  1355 ;;		None
  1356 ;; Auto vars:     Size  Location     Type
  1357 ;;  data          205    0[BANK1 ] unsigned char [205]
  1358 ;;  position        2  207[BANK1 ] int 
  1359 ;;  maxPosition     2  205[BANK1 ] int 
  1360 ;; Return value:  Size  Location     Type
  1361 ;;		None               void
  1362 ;; Registers used:
  1363 ;;		wreg, fsr1l, fsr1h, fsr2l, fsr2h, status,2, status,0, prodl, prodh, cstack
  1364 ;; Tracked objects:
  1365 ;;		On entry : F/0
  1366 ;;		On exit  : F/0
  1367 ;;		Unchanged: 0/0
  1368 ;; Data sizes:     COMRAM   BANK0   BANK1   BANK2   BANK3   BANK4   BANK5   BANK6   BANK7   BANK8   BANK9  BANK10  BANK1
      +1  BANK12  BANK13  BANK14  BANK15
  1369 ;;      Params:         0       0       0       0       0       0       0       0       0       0       0       0       
      +0       0       0       0       0
  1370 ;;      Locals:         0       0     209       0       0       0       0       0       0       0       0       0       
      +0       0       0       0       0
  1371 ;;      Temps:          0       1       0       0       0       0       0       0       0       0       0       0       
      +0       0       0       0       0
  1372 ;;      Totals:         0       1     209       0       0       0       0       0       0       0       0       0       
      +0       0       0       0       0
  1373 ;;Total ram usage:      210 bytes
  1374 ;; Hardware stack levels used:    1
  1375 ;; Hardware stack levels required when called:    9
  1376 ;; This function calls:
  1377 ;;		_drowText
  1378 ;; This function is called by:
  1379 ;;		_main
  1380 ;; This function uses a non-reentrant model
  1381 ;;
  1382                           
  1383                           	psect	text1
  1384  000AAE                     __ptext1:
  1385                           	opt stack 0
  1386  000AAE                     _main2:
  1387                           	opt stack 21
  1388                           
  1389                           ; BSR set to: 0
  1390                           ;prog.c: 1617: flags.isTimeSetting = 0;
  1391                           
  1392                           ; BSR set to: 0
  1393                           ;incstack = 0
  1394  000AAE  99C0               	bcf	_flags& (0+255),4,b
  1395                           
  1396                           ; BSR set to: 0
  1397                           ;prog.c: 1624: unsigned char data[] = " ( . textus  ; , ,
      +                           , ) -   -   
      +                           ;        .";
  1398  000AB0  EE22  F000         	lfsr	2,main2@F3379
  1399  000AB4  EE11  F000         	lfsr	1,main2@data
  1400  000AB8  0ECD               	movlw	205
  1401  000ABA                     u1451:
  1402  000ABA  CFDE FFE6          	movff	postinc2,postinc1
  1403  000ABE  2EE8               	decfsz	wreg,f,c
  1404  000AC0  D7FC               	goto	u1451
  1405                           
  1406                           ; BSR set to: 0
  1407                           ;prog.c: 1629: int position = 0;
  1408  000AC2  0101               	movlb	1	; () banked
  1409  000AC4  6BCF               	clrf	main2@position& (0+255),b
  1410  000AC6  6BD0               	clrf	(main2@position+1)& (0+255),b
  1411                           
  1412                           ; BSR set to: 1
  1413                           ;prog.c: 1630: int maxPosition = sizeof(data) - 2;
  1414  000AC8  6BCE               	clrf	(main2@maxPosition+1)& (0+255),b
  1415  000ACA  0ECB               	movlw	203
  1416  000ACC  6FCD               	movwf	main2@maxPosition& (0+255),b
  1417  000ACE                     l4232:
  1418                           
  1419                           ;prog.c: 1634: if (KeyCode == 40) {
  1420  000ACE  0101               	movlb	1	; () banked
  1421  000AD0  51D1               	movf	_KeyCode& (0+255),w,b	;volatile
  1422  000AD2  0A28               	xorlw	40
  1423  000AD4  E120               	bnz	l4242
  1424                           
  1425                           ; BSR set to: 1
  1426                           ;prog.c: 1635: KeyCode = 0;
  1427  000AD6  6BD1               	clrf	_KeyCode& (0+255),b	;volatile
  1428                           
  1429                           ; BSR set to: 1
  1430                           ;prog.c: 1636: if(position < maxPosition){
  1431  000AD8  51D0               	movf	(main2@position+1)& (0+255),w,b
  1432  000ADA  0A80               	xorlw	128
  1433  000ADC  0100               	movlb	0	; () banked
  1434  000ADE  6FEE               	movwf	??_main2& (0+255),b
  1435  000AE0  0101               	movlb	1	; () banked
  1436  000AE2  51CD               	movf	main2@maxPosition& (0+255),w,b
  1437  000AE4  5DCF               	subwf	main2@position& (0+255),w,b
  1438  000AE6  51CE               	movf	(main2@maxPosition+1)& (0+255),w,b
  1439  000AE8  0A80               	xorlw	128
  1440  000AEA  0100               	movlb	0	; () banked
  1441  000AEC  59EE               	subwfb	??_main2& (0+255),w,b
  1442  000AEE  E23A               	bc	l4256
  1443                           
  1444                           ; BSR set to: 0
  1445                           ;prog.c: 1637: drowText(data, position, 0);
  1446  000AF0  0E01               	movlw	high main2@data
  1447  000AF2  6FD1               	movwf	(drowText@stringData+1)& (0+255),b
  1448  000AF4  0E00               	movlw	low main2@data
  1449  000AF6  6FD0               	movwf	drowText@stringData& (0+255),b
  1450  000AF8  C1CF  F0D2         	movff	main2@position,drowText@startNum
  1451  000AFC  C1D0  F0D3         	movff	main2@position+1,drowText@startNum+1
  1452  000B00  0E00               	movlw	0
  1453  000B02  6BD5               	clrf	(drowText@direction+1)& (0+255),b
  1454  000B04  6BD4               	clrf	drowText@direction& (0+255),b
  1455  000B06  EC2D  F006         	call	_drowText	;wreg free
  1456                           
  1457                           ; BSR set to: 0
  1458                           ;prog.c: 1638: position += 16;
  1459  000B0A  0E10               	movlw	16
  1460  000B0C  0101               	movlb	1	; () banked
  1461  000B0E  27CF               	addwf	main2@position& (0+255),f,b
  1462  000B10  0E00               	movlw	0
  1463  000B12  23D0               	addwfc	(main2@position+1)& (0+255),f,b
  1464  000B14  D027               	goto	l4256
  1465  000B16                     l4242:
  1466                           
  1467                           ; BSR set to: 1
  1468  000B16  51D1               	movf	_KeyCode& (0+255),w,b	;volatile
  1469  000B18  0A29               	xorlw	41
  1470  000B1A  E124               	bnz	l4256
  1471                           
  1472                           ; BSR set to: 1
  1473                           ;prog.c: 1641: KeyCode = 0;
  1474  000B1C  6BD1               	clrf	_KeyCode& (0+255),b	;volatile
  1475                           
  1476                           ; BSR set to: 1
  1477                           ;prog.c: 1642: if (position - 16 >= 0) {
  1478  000B1E  0EF0               	movlw	240
  1479  000B20  25CF               	addwf	main2@position& (0+255),w,b
  1480  000B22  0EFF               	movlw	255
  1481  000B24  21D0               	addwfc	(main2@position+1)& (0+255),w,b
  1482  000B26  0B80               	andlw	128
  1483  000B28  E11D               	bnz	l4256
  1484                           
  1485                           ; BSR set to: 1
  1486                           ;prog.c: 1643: position -= 16;
  1487  000B2A  0EF0               	movlw	240
  1488  000B2C  27CF               	addwf	main2@position& (0+255),f,b
  1489  000B2E  0EFF               	movlw	255
  1490  000B30  23D0               	addwfc	(main2@position+1)& (0+255),f,b
  1491                           
  1492                           ; BSR set to: 1
  1493                           ;prog.c: 1644: if (position < 0){
  1494  000B32  51D0               	movf	(main2@position+1)& (0+255),w,b
  1495  000B34  0A80               	xorlw	128
  1496  000B36  6EF3               	movwf	prodl,c
  1497  000B38  0E80               	movlw	128
  1498  000B3A  5CF3               	subwf	prodl,w,c
  1499  000B3C  0E00               	movlw	0
  1500  000B3E  B4D8               	btfsc	status,2,c
  1501  000B40  5DCF               	subwf	main2@position& (0+255),w,b
  1502  000B42  E202               	bc	l4254
  1503                           
  1504                           ; BSR set to: 1
  1505                           ;prog.c: 1645: position = 0;
  1506  000B44  6BCF               	clrf	main2@position& (0+255),b
  1507  000B46  6BD0               	clrf	(main2@position+1)& (0+255),b
  1508  000B48                     l4254:
  1509                           
  1510                           ; BSR set to: 1
  1511                           ;prog.c: 1646: }
  1512                           ;prog.c: 1647: drowText(data, position, -1);
  1513  000B48  0E01               	movlw	high main2@data
  1514  000B4A  0100               	movlb	0	; () banked
  1515  000B4C  6FD1               	movwf	(drowText@stringData+1)& (0+255),b
  1516  000B4E  0E00               	movlw	low main2@data
  1517  000B50  6FD0               	movwf	drowText@stringData& (0+255),b
  1518  000B52  C1CF  F0D2         	movff	main2@position,drowText@startNum
  1519  000B56  C1D0  F0D3         	movff	main2@position+1,drowText@startNum+1
  1520  000B5A  0EFF               	movlw	255
  1521  000B5C  69D5               	setf	(drowText@direction+1)& (0+255),b
  1522  000B5E  69D4               	setf	drowText@direction& (0+255),b
  1523  000B60  EC2D  F006         	call	_drowText	;wreg free
  1524  000B64                     l4256:
  1525                           
  1526                           ;prog.c: 1648: }
  1527                           ;prog.c: 1650: }
  1528                           ;prog.c: 1672: if (KeyCode == 44) {
  1529  000B64  0101               	movlb	1	; () banked
  1530  000B66  51D1               	movf	_KeyCode& (0+255),w,b	;volatile
  1531  000B68  0A2C               	xorlw	44
  1532  000B6A  E1B1               	bnz	l4232
  1533                           
  1534                           ; BSR set to: 1
  1535                           ;prog.c: 1673: KeyCode = 0;
  1536  000B6C  6BD1               	clrf	_KeyCode& (0+255),b	;volatile
  1537                           
  1538                           ;prog.c: 1674: if (flags.LCD_Power_On) {
  1539  000B6E  0100               	movlb	0	; () banked
  1540  000B70  ADC0               	btfss	_flags& (0+255),6,b
  1541  000B72  D7AD               	goto	l4232
  1542  000B74  0E01               	movlw	1
  1543                           
  1544                           ; BSR set to: 0
  1545                           ;prog.c: 1675: flags.LCD_Light_On = !flags.LCD_Light_On;
  1546  000B76  BBC0               	btfsc	_flags& (0+255),5,b
  1547  000B78  0E00               	movlw	0
  1548  000B7A  6FEE               	movwf	??_main2& (0+255),b
  1549  000B7C  3BEE               	swapf	??_main2& (0+255),f,b
  1550  000B7E  47EE               	rlncf	??_main2& (0+255),f,b
  1551  000B80  51C0               	movf	_flags& (0+255),w,b
  1552  000B82  19EE               	xorwf	??_main2& (0+255),w,b
  1553  000B84  0BDF               	andlw	-33
  1554  000B86  19EE               	xorwf	??_main2& (0+255),w,b
  1555  000B88  6FC0               	movwf	_flags& (0+255),b
  1556  000B8A  D7A1               	goto	l4232
  1557  000B8C                     __end_of_main2:
  1558                           	opt stack 0
  1559                           tblptru	equ	0xFF8
  1560                           tblptrh	equ	0xFF7
  1561                           tblptrl	equ	0xFF6
  1562                           tablat	equ	0xFF5
  1563                           prodl	equ	0xFF3
  1564                           intcon	equ	0xFF2
  1565                           intcon2	equ	0xFF1
  1566                           intcon3	equ	0xFF0
  1567                           postinc0	equ	0xFEE
  1568                           wreg	equ	0xFE8
  1569                           indf1	equ	0xFE7
  1570                           postinc1	equ	0xFE6
  1571                           postdec1	equ	0xFE5
  1572                           fsr1h	equ	0xFE2
  1573                           fsr1l	equ	0xFE1
  1574                           indf2	equ	0xFDF
  1575                           postinc2	equ	0xFDE
  1576                           fsr2h	equ	0xFDA
  1577                           fsr2l	equ	0xFD9
  1578                           status	equ	0xFD8
  1579                           
  1580 ;; *************** function _drowText *****************
  1581 ;; Defined at:
  1582 ;;		line 1585 in file "prog.c"
  1583 ;; Parameters:    Size  Location     Type
  1584 ;;  stringData      2   14[BANK0 ] PTR unsigned char 
  1585 ;;		 -> main2@data(205), 
  1586 ;;  startNum        2   16[BANK0 ] int 
  1587 ;;  direction       2   18[BANK0 ] int 
  1588 ;; Auto vars:     Size  Location     Type
  1589 ;;  a               1   39[BANK0 ] unsigned char 
  1590 ;;  symbol          1   42[BANK0 ] unsigned char 
  1591 ;;  symbol          1   43[BANK0 ] unsigned char 
  1592 ;;  cutedString    17   22[BANK0 ] unsigned char [17]
  1593 ;;  destLine        1   41[BANK0 ] unsigned char 
  1594 ;;  srcLine         1   40[BANK0 ] unsigned char 
  1595 ;; Return value:  Size  Location     Type
  1596 ;;		None               void
  1597 ;; Registers used:
  1598 ;;		wreg, fsr1l, fsr1h, fsr2l, fsr2h, status,2, status,0, prodl, prodh, cstack
  1599 ;; Tracked objects:
  1600 ;;		On entry : F/0
  1601 ;;		On exit  : F/0
  1602 ;;		Unchanged: 0/0
  1603 ;; Data sizes:     COMRAM   BANK0   BANK1   BANK2   BANK3   BANK4   BANK5   BANK6   BANK7   BANK8   BANK9  BANK10  BANK1
      +1  BANK12  BANK13  BANK14  BANK15
  1604 ;;      Params:         0       6       0       0       0       0       0       0       0       0       0       0       
      +0       0       0       0       0
  1605 ;;      Locals:         0      22       0       0       0       0       0       0       0       0       0       0       
      +0       0       0       0       0
  1606 ;;      Temps:          0       2       0       0       0       0       0       0       0       0       0       0       
      +0       0       0       0       0
  1607 ;;      Totals:         0      30       0       0       0       0       0       0       0       0       0       0       
      +0       0       0       0       0
  1608 ;;Total ram usage:       30 bytes
  1609 ;; Hardware stack levels used:    1
  1610 ;; Hardware stack levels required when called:    8
  1611 ;; This function calls:
  1612 ;;		_outputString
  1613 ;; This function is called by:
  1614 ;;		_main2
  1615 ;; This function uses a non-reentrant model
  1616 ;;
  1617                           
  1618                           	psect	text2
  1619  000C5A                     __ptext2:
  1620                           	opt stack 0
  1621  000C5A                     _drowText:
  1622                           	opt stack 21
  1623                           
  1624                           ; BSR set to: 0
  1625                           ;prog.c: 1586: unsigned char srcLine, destLine;
  1626                           ;prog.c: 1587: if(direction >= 0){
  1627                           
  1628                           ; BSR set to: 0
  1629                           ;incstack = 0
  1630  000C5A  BFD5               	btfsc	(drowText@direction+1)& (0+255),7,b
  1631  000C5C  D004               	goto	l918
  1632                           
  1633                           ; BSR set to: 0
  1634                           ;prog.c: 1588: srcLine = 1;
  1635  000C5E  0E01               	movlw	1
  1636  000C60  6FEA               	movwf	drowText@srcLine& (0+255),b
  1637                           
  1638                           ; BSR set to: 0
  1639                           ;prog.c: 1589: destLine = 0;
  1640  000C62  6BEB               	clrf	drowText@destLine& (0+255),b
  1641                           
  1642                           ;prog.c: 1590: }else{
  1643  000C64  D003               	goto	l3234
  1644  000C66                     l918:
  1645                           
  1646                           ; BSR set to: 0
  1647                           ;prog.c: 1591: srcLine = 0;
  1648  000C66  6BEA               	clrf	drowText@srcLine& (0+255),b
  1649                           
  1650                           ; BSR set to: 0
  1651                           ;prog.c: 1592: destLine = 1;
  1652  000C68  0E01               	movlw	1
  1653  000C6A  6FEB               	movwf	drowText@destLine& (0+255),b
  1654  000C6C                     l3234:
  1655                           
  1656                           ; BSR set to: 0
  1657                           ;prog.c: 1593: }
  1658                           ;prog.c: 1595: for(unsigned char symbol = 0; symbol < 16; symbol++){
  1659  000C6C  6BED               	clrf	drowText@symbol& (0+255),b
  1660  000C6E                     l3240:
  1661                           
  1662                           ; BSR set to: 0
  1663                           ;prog.c: 1596: digits[destLine][symbol] = digits[srcLine][symbol];
  1664  000C6E  51EA               	movf	drowText@srcLine& (0+255),w,b
  1665  000C70  0D10               	mullw	16
  1666  000C72  50F3               	movf	prodl,w,c
  1667  000C74  0F80               	addlw	low _digits	;volatile
  1668  000C76  25ED               	addwf	drowText@symbol& (0+255),w,b
  1669  000C78  6ED9               	movwf	fsr2l,c
  1670  000C7A  6ADA               	clrf	fsr2h,c
  1671  000C7C  51EB               	movf	drowText@destLine& (0+255),w,b
  1672  000C7E  0D10               	mullw	16
  1673  000C80  50F3               	movf	prodl,w,c
  1674  000C82  0F80               	addlw	low _digits	;volatile
  1675  000C84  25ED               	addwf	drowText@symbol& (0+255),w,b
  1676  000C86  6EE1               	movwf	fsr1l,c
  1677  000C88  6AE2               	clrf	fsr1h,c
  1678  000C8A  CFDF FFE7          	movff	indf2,indf1
  1679                           
  1680                           ; BSR set to: 0
  1681                           ;prog.c: 1597: digitsAtrib[destLine][symbol].blink = digitsAtrib[srcLine][symbol].blink;
  1682  000C8E  51EA               	movf	drowText@srcLine& (0+255),w,b
  1683  000C90  D843               	call	PL12	;call to abstracted procedure
  1684  000C92  A0DF               	btfss	indf2,0,c
  1685  000C94  D002               	goto	u1070
  1686  000C96  80DF               	bsf	indf2,0,c
  1687  000C98  D002               	goto	u1085
  1688  000C9A                     u1070:
  1689  000C9A  0100               	movlb	0	; () banked
  1690  000C9C  90DF               	bcf	indf2,0,c
  1691  000C9E                     u1085:
  1692                           
  1693                           ; BSR set to: 0
  1694                           ;prog.c: 1598: digitsAtrib[destLine][symbol].modifided = 1;
  1695  000C9E  51EB               	movf	drowText@destLine& (0+255),w,b
  1696  000CA0  D83B               	call	PL12	;call to abstracted procedure
  1697  000CA2  82DF               	bsf	indf2,1,c
  1698                           
  1699                           ; BSR set to: 0
  1700  000CA4  2BED               	incf	drowText@symbol& (0+255),f,b
  1701                           
  1702                           ; BSR set to: 0
  1703  000CA6  0E0F               	movlw	15
  1704  000CA8  65ED               	cpfsgt	drowText@symbol& (0+255),b
  1705  000CAA  D7E1               	goto	l3240
  1706                           
  1707                           ; BSR set to: 0
  1708                           ;prog.c: 1599: }
  1709                           ;prog.c: 1601: flags.IsLCDModified = 1;
  1710  000CAC  81C1               	bsf	(_flags+1)& (0+255),0,b
  1711                           
  1712                           ; BSR set to: 0
  1713                           ;prog.c: 1603: unsigned char cutedString[17] = "                ";
  1714  000CAE  EE20  F045         	lfsr	2,drowText@F3375
  1715  000CB2  EE10  F0D8         	lfsr	1,drowText@cutedString
  1716  000CB6  0E11               	movlw	17
  1717  000CB8                     u1101:
  1718  000CB8  CFDE FFE6          	movff	postinc2,postinc1
  1719  000CBC  2EE8               	decfsz	wreg,f,c
  1720  000CBE  D7FC               	goto	u1101
  1721                           
  1722                           ; BSR set to: 0
  1723                           ;prog.c: 1604: for(unsigned char symbol = 0; symbol < 16; symbol++) {
  1724  000CC0  6BEC               	clrf	drowText@symbol_1136& (0+255),b
  1725  000CC2                     l3258:
  1726                           
  1727                           ; BSR set to: 0
  1728                           ;prog.c: 1605: unsigned char a = stringData[symbol + startNum];
  1729  000CC2  51EC               	movf	drowText@symbol_1136& (0+255),w,b
  1730  000CC4  25D0               	addwf	drowText@stringData& (0+255),w,b
  1731  000CC6  6FD6               	movwf	??_drowText& (0+255),b
  1732  000CC8  0E00               	movlw	0
  1733  000CCA  21D1               	addwfc	(drowText@stringData+1)& (0+255),w,b
  1734  000CCC  6FD7               	movwf	(??_drowText+1)& (0+255),b
  1735  000CCE  51D2               	movf	drowText@startNum& (0+255),w,b
  1736  000CD0  25D6               	addwf	??_drowText& (0+255),w,b
  1737  000CD2  6ED9               	movwf	fsr2l,c
  1738  000CD4  51D3               	movf	(drowText@startNum+1)& (0+255),w,b
  1739  000CD6  21D7               	addwfc	(??_drowText+1)& (0+255),w,b
  1740  000CD8  6EDA               	movwf	fsr2h,c
  1741  000CDA  50DF               	movf	indf2,w,c
  1742  000CDC  6FE9               	movwf	drowText@a& (0+255),b
  1743                           
  1744                           ; BSR set to: 0
  1745                           ;prog.c: 1606: if(a == '\0'){
  1746  000CDE  67E9               	tstfsz	drowText@a& (0+255),b
  1747  000CE0  D001               	goto	l3264
  1748  000CE2  D00A               	goto	l3270
  1749  000CE4                     l3264:
  1750                           
  1751                           ; BSR set to: 0
  1752                           ;prog.c: 1608: }
  1753                           ;prog.c: 1609: cutedString[symbol] = a;
  1754  000CE4  51EC               	movf	drowText@symbol_1136& (0+255),w,b
  1755  000CE6  0FD8               	addlw	low drowText@cutedString
  1756  000CE8  6ED9               	movwf	fsr2l,c
  1757  000CEA  6ADA               	clrf	fsr2h,c
  1758  000CEC  C0E9  FFDF         	movff	drowText@a,indf2
  1759                           
  1760                           ; BSR set to: 0
  1761  000CF0  2BEC               	incf	drowText@symbol_1136& (0+255),f,b
  1762                           
  1763                           ; BSR set to: 0
  1764  000CF2  0E0F               	movlw	15
  1765  000CF4  65EC               	cpfsgt	drowText@symbol_1136& (0+255),b
  1766  000CF6  D7E5               	goto	l3258
  1767  000CF8                     l3270:
  1768                           
  1769                           ; BSR set to: 0
  1770                           ;prog.c: 1610: }
  1771                           ;prog.c: 1612: outputString(cutedString, (direction >= 0 ? 1 : 0), 0);
  1772  000CF8  51D5               	movf	(drowText@direction+1)& (0+255),w,b
  1773  000CFA  0A80               	xorlw	128
  1774  000CFC  6EF3               	movwf	prodl,c
  1775  000CFE  0E80               	movlw	128
  1776  000D00  5CF3               	subwf	prodl,w,c
  1777  000D02  0E00               	movlw	0
  1778  000D04  B4D8               	btfsc	status,2,c
  1779  000D06  5DD4               	subwf	drowText@direction& (0+255),w,b
  1780  000D08  0E01               	movlw	1
  1781  000D0A  A0D8               	btfss	status,0,c
  1782  000D0C  0E00               	movlw	0
  1783  000D0E  6FC9               	movwf	outputString@line& (0+255),b
  1784  000D10  6BCA               	clrf	outputString@position& (0+255),b
  1785  000D12  0ED8               	movlw	drowText@cutedString& (0+255)
  1786  000D14  EF48  F008         	goto	_outputString
  1787  000D18                     __end_of_drowText:
  1788                           	opt stack 0
  1789  000D18                     PL12:
  1790                           	opt stack 21
  1791  000D18  0D10               	mullw	16
  1792  000D1A  50F3               	movf	prodl,w,c
  1793  000D1C  0FA0               	addlw	low _digitsAtrib	;volatile
  1794  000D1E  25ED               	addwf	drowText@symbol& (0+255),w,b
  1795  000D20  6ED9               	movwf	fsr2l,c
  1796  000D22  6ADA               	clrf	fsr2h,c
  1797  000D24  0012               	return	
  1798  000D26                     __end_ofPL12:
  1799                           	opt stack 0
  1800                           tblptru	equ	0xFF8
  1801                           tblptrh	equ	0xFF7
  1802                           tblptrl	equ	0xFF6
  1803                           tablat	equ	0xFF5
  1804                           prodl	equ	0xFF3
  1805                           intcon	equ	0xFF2
  1806                           intcon2	equ	0xFF1
  1807                           intcon3	equ	0xFF0
  1808                           postinc0	equ	0xFEE
  1809                           wreg	equ	0xFE8
  1810                           indf1	equ	0xFE7
  1811                           postinc1	equ	0xFE6
  1812                           postdec1	equ	0xFE5
  1813                           fsr1h	equ	0xFE2
  1814                           fsr1l	equ	0xFE1
  1815                           indf2	equ	0xFDF
  1816                           postinc2	equ	0xFDE
  1817                           fsr2h	equ	0xFDA
  1818                           fsr2l	equ	0xFD9
  1819                           status	equ	0xFD8
  1820                           
  1821 ;; *************** function _outputString *****************
  1822 ;; Defined at:
  1823 ;;		line 1571 in file "prog.c"
  1824 ;; Parameters:    Size  Location     Type
  1825 ;;  stringData      1    wreg     PTR unsigned char 
  1826 ;;		 -> drowText@cutedString(17), 
  1827 ;;  line            1    7[BANK0 ] unsigned char 
  1828 ;;  position        1    8[BANK0 ] unsigned char 
  1829 ;; Auto vars:     Size  Location     Type
  1830 ;;  stringData      1   12[BANK0 ] PTR unsigned char 
  1831 ;;		 -> drowText@cutedString(17), 
  1832 ;;  s               1    9[BANK0 ] unsigned char 
  1833 ;;  l               1   13[BANK0 ] unsigned char 
  1834 ;;  i               2   10[BANK0 ] unsigned int 
  1835 ;; Return value:  Size  Location     Type
  1836 ;;		None               void
  1837 ;; Registers used:
  1838 ;;		wreg, fsr2l, fsr2h, status,2, status,0, prodl, prodh, cstack
  1839 ;; Tracked objects:
  1840 ;;		On entry : F/0
  1841 ;;		On exit  : F/0
  1842 ;;		Unchanged: 0/0
  1843 ;; Data sizes:     COMRAM   BANK0   BANK1   BANK2   BANK3   BANK4   BANK5   BANK6   BANK7   BANK8   BANK9  BANK10  BANK1
      +1  BANK12  BANK13  BANK14  BANK15
  1844 ;;      Params:         0       2       0       0       0       0       0       0       0       0       0       0       
      +0       0       0       0       0
  1845 ;;      Locals:         0       5       0       0       0       0       0       0       0       0       0       0       
      +0       0       0       0       0
  1846 ;;      Temps:          0       0       0       0       0       0       0       0       0       0       0       0       
      +0       0       0       0       0
  1847 ;;      Totals:         0       7       0       0       0       0       0       0       0       0       0       0       
      +0       0       0       0       0
  1848 ;;Total ram usage:        7 bytes
  1849 ;; Hardware stack levels used:    1
  1850 ;; Hardware stack levels required when called:    7
  1851 ;; This function calls:
  1852 ;;		_setDigit
  1853 ;; This function is called by:
  1854 ;;		_drowText
  1855 ;; This function uses a non-reentrant model
  1856 ;;
  1857                           
  1858                           	psect	text3
  1859  001090                     __ptext3:
  1860                           	opt stack 0
  1861  001090                     _outputString:
  1862                           	opt stack 21
  1863                           
  1864                           ; BSR set to: 0
  1865                           ;incstack = 0
  1866                           ;outputString@stringData stored from wreg
  1867  001090  6FCE               	movwf	outputString@stringData& (0+255),b
  1868                           
  1869                           ; BSR set to: 0
  1870                           ;prog.c: 1572: unsigned int i = 0;
  1871  001092  6BCC               	clrf	outputString@i& (0+255),b
  1872  001094  6BCD               	clrf	(outputString@i+1)& (0+255),b
  1873                           
  1874                           ;prog.c: 1573: while(stringData[i] != '\0'){
  1875  001096  D024               	goto	l3088
  1876  001098                     l906:
  1877                           
  1878                           ; BSR set to: 0
  1879                           ;prog.c: 1574: unsigned char l = line;
  1880  001098  C0C9  F0CF         	movff	outputString@line,outputString@l
  1881                           
  1882                           ;prog.c: 1575: for(line = 0; l < 2; l++) {
  1883  00109C  6BC9               	clrf	outputString@line& (0+255),b
  1884  00109E                     l3070:
  1885                           
  1886                           ; BSR set to: 0
  1887  00109E  0E01               	movlw	1
  1888  0010A0  65CF               	cpfsgt	outputString@l& (0+255),b
  1889  0010A2  D001               	goto	l907
  1890  0010A4  D01D               	goto	l3088
  1891  0010A6                     l907:
  1892                           
  1893                           ; BSR set to: 0
  1894                           ;prog.c: 1576: unsigned char s = position;
  1895  0010A6  C0CA  F0CB         	movff	outputString@position,outputString@s
  1896                           
  1897                           ;prog.c: 1577: for (position = 0; (s < 16) && (stringData[i] != '\0'); s++) {
  1898  0010AA  6BCA               	clrf	outputString@position& (0+255),b
  1899  0010AC  D00E               	goto	l3080
  1900  0010AE                     l3074:
  1901                           
  1902                           ; BSR set to: 0
  1903                           ;prog.c: 1578: setDigit(l, s, stringData[i]);
  1904  0010AE  C0CB  F0C2         	movff	outputString@s,setDigit@symbol
  1905  0010B2  51CE               	movf	outputString@stringData& (0+255),w,b
  1906  0010B4  25CC               	addwf	outputString@i& (0+255),w,b
  1907  0010B6  6ED9               	movwf	fsr2l,c
  1908  0010B8  6ADA               	clrf	fsr2h,c
  1909  0010BA  50DF               	movf	indf2,w,c
  1910  0010BC  6FC3               	movwf	setDigit@data& (0+255),b
  1911  0010BE  51CF               	movf	outputString@l& (0+255),w,b
  1912  0010C0  EC73  F007         	call	_setDigit
  1913                           
  1914                           ; BSR set to: 0
  1915                           ;prog.c: 1579: i++;
  1916  0010C4  4BCC               	infsnz	outputString@i& (0+255),f,b
  1917  0010C6  2BCD               	incf	(outputString@i+1)& (0+255),f,b
  1918                           
  1919                           ; BSR set to: 0
  1920  0010C8  2BCB               	incf	outputString@s& (0+255),f,b
  1921  0010CA                     l3080:
  1922                           
  1923                           ; BSR set to: 0
  1924  0010CA  0E10               	movlw	16
  1925  0010CC  5DCB               	subwf	outputString@s& (0+255),w,b
  1926  0010CE  E206               	bc	l3084
  1927                           
  1928                           ; BSR set to: 0
  1929  0010D0  51CE               	movf	outputString@stringData& (0+255),w,b
  1930  0010D2  25CC               	addwf	outputString@i& (0+255),w,b
  1931  0010D4  6ED9               	movwf	fsr2l,c
  1932  0010D6  6ADA               	clrf	fsr2h,c
  1933  0010D8  50DF               	movf	indf2,w,c
  1934  0010DA  E1E9               	bnz	l3074
  1935  0010DC                     l3084:
  1936                           
  1937                           ; BSR set to: 0
  1938  0010DC  2BCF               	incf	outputString@l& (0+255),f,b
  1939  0010DE  D7DF               	goto	l3070
  1940  0010E0                     l3088:
  1941                           
  1942                           ; BSR set to: 0
  1943  0010E0  51CE               	movf	outputString@stringData& (0+255),w,b
  1944  0010E2  25CC               	addwf	outputString@i& (0+255),w,b
  1945  0010E4  6ED9               	movwf	fsr2l,c
  1946  0010E6  6ADA               	clrf	fsr2h,c
  1947  0010E8  50DF               	movf	indf2,w,c
  1948  0010EA  B4D8               	btfsc	status,2,c
  1949                           
  1950                           ; BSR set to: 0
  1951  0010EC  0012               	return	
  1952  0010EE  D7D4               	goto	l906
  1953  0010F0                     __end_of_outputString:
  1954                           	opt stack 0
  1955                           tblptru	equ	0xFF8
  1956                           tblptrh	equ	0xFF7
  1957                           tblptrl	equ	0xFF6
  1958                           tablat	equ	0xFF5
  1959                           prodl	equ	0xFF3
  1960                           intcon	equ	0xFF2
  1961                           intcon2	equ	0xFF1
  1962                           intcon3	equ	0xFF0
  1963                           postinc0	equ	0xFEE
  1964                           wreg	equ	0xFE8
  1965                           indf1	equ	0xFE7
  1966                           postinc1	equ	0xFE6
  1967                           postdec1	equ	0xFE5
  1968                           fsr1h	equ	0xFE2
  1969                           fsr1l	equ	0xFE1
  1970                           indf2	equ	0xFDF
  1971                           postinc2	equ	0xFDE
  1972                           fsr2h	equ	0xFDA
  1973                           fsr2l	equ	0xFD9
  1974                           status	equ	0xFD8
  1975                           
  1976 ;; *************** function _setDigit *****************
  1977 ;; Defined at:
  1978 ;;		line 172 in file "prog.c"
  1979 ;; Parameters:    Size  Location     Type
  1980 ;;  line            1    wreg     unsigned char 
  1981 ;;  symbol          1    0[BANK0 ] unsigned char 
  1982 ;;  data            1    1[BANK0 ] unsigned char 
  1983 ;; Auto vars:     Size  Location     Type
  1984 ;;  line            1    6[BANK0 ] unsigned char 
  1985 ;;  value           1    5[BANK0 ] unsigned char 
  1986 ;;  value0          1    4[BANK0 ] unsigned char 
  1987 ;; Return value:  Size  Location     Type
  1988 ;;		None               void
  1989 ;; Registers used:
  1990 ;;		wreg, fsr2l, fsr2h, status,2, status,0, prodl, prodh
  1991 ;; Tracked objects:
  1992 ;;		On entry : F/0
  1993 ;;		On exit  : F/0
  1994 ;;		Unchanged: 0/0
  1995 ;; Data sizes:     COMRAM   BANK0   BANK1   BANK2   BANK3   BANK4   BANK5   BANK6   BANK7   BANK8   BANK9  BANK10  BANK1
      +1  BANK12  BANK13  BANK14  BANK15
  1996 ;;      Params:         0       2       0       0       0       0       0       0       0       0       0       0       
      +0       0       0       0       0
  1997 ;;      Locals:         0       5       0       0       0       0       0       0       0       0       0       0       
      +0       0       0       0       0
  1998 ;;      Temps:          0       0       0       0       0       0       0       0       0       0       0       0       
      +0       0       0       0       0
  1999 ;;      Totals:         0       7       0       0       0       0       0       0       0       0       0       0       
      +0       0       0       0       0
  2000 ;;Total ram usage:        7 bytes
  2001 ;; Hardware stack levels used:    1
  2002 ;; Hardware stack levels required when called:    6
  2003 ;; This function calls:
  2004 ;;		Nothing
  2005 ;; This function is called by:
  2006 ;;		_outputString
  2007 ;; This function uses a non-reentrant model
  2008 ;;
  2009                           
  2010                           	psect	text4
  2011  000EE6                     __ptext4:
  2012                           	opt stack 0
  2013  000EE6                     _setDigit:
  2014                           	opt stack 21
  2015                           
  2016                           ; BSR set to: 0
  2017                           ;incstack = 0
  2018                           ;setDigit@line stored from wreg
  2019  000EE6  6FC8               	movwf	setDigit@line& (0+255),b
  2020                           
  2021                           ; BSR set to: 0
  2022                           ;prog.c: 173: unsigned char value = data;
  2023  000EE8  C0C3  F0C7         	movff	setDigit@data,setDigit@value
  2024                           
  2025                           ; BSR set to: 0
  2026                           ;prog.c: 174: unsigned char value0 = digits[line][symbol];
  2027  000EEC  D82C               	call	PL8	;call to abstracted procedure
  2028  000EEE  50DF               	movf	indf2,w,c
  2029  000EF0  6FC6               	movwf	setDigit@value0& (0+255),b
  2030                           
  2031                           ; BSR set to: 0
  2032                           ;prog.c: 175: digitsAtrib[line][symbol].modifided = digitsAtrib[line][symbol].modifided 
      +                          > 0 || (value != value0);
  2033  000EF2  0E01               	movlw	1
  2034  000EF4  6FC4               	movwf	_setDigit$833& (0+255),b
  2035                           
  2036                           ; BSR set to: 0
  2037  000EF6  D81F               	call	PL6	;call to abstracted procedure
  2038  000EF8  B2DF               	btfsc	indf2,1,c
  2039  000EFA  D004               	goto	l3022
  2040                           
  2041                           ; BSR set to: 0
  2042  000EFC  51C6               	movf	setDigit@value0& (0+255),w,b
  2043  000EFE  63C7               	cpfseq	setDigit@value& (0+255),b
  2044  000F00  D001               	goto	l3022
  2045                           
  2046                           ; BSR set to: 0
  2047  000F02  6BC4               	clrf	_setDigit$833& (0+255),b
  2048  000F04                     l3022:
  2049                           
  2050                           ; BSR set to: 0
  2051  000F04  D818               	call	PL6	;call to abstracted procedure
  2052  000F06  B1C4               	btfsc	_setDigit$833& (0+255),0,b
  2053  000F08  D002               	bra	u905
  2054  000F0A  92DF               	bcf	indf2,1,c
  2055  000F0C  D002               	bra	u906
  2056  000F0E                     u905:
  2057  000F0E  0100               	movlb	0	; () banked
  2058  000F10  82DF               	bsf	indf2,1,c
  2059  000F12                     u906:
  2060                           
  2061                           ; BSR set to: 0
  2062                           ;prog.c: 176: flags.IsLCDModified = flags.IsLCDModified || (value != value0);
  2063  000F12  0E01               	movlw	1
  2064  000F14  6FC5               	movwf	_setDigit$834& (0+255),b
  2065                           
  2066                           ; BSR set to: 0
  2067  000F16  B1C1               	btfsc	(_flags+1)& (0+255),0,b
  2068  000F18  D004               	goto	l203
  2069                           
  2070                           ; BSR set to: 0
  2071  000F1A  51C6               	movf	setDigit@value0& (0+255),w,b
  2072  000F1C  63C7               	cpfseq	setDigit@value& (0+255),b
  2073  000F1E  D001               	goto	l203
  2074                           
  2075                           ; BSR set to: 0
  2076  000F20  6BC5               	clrf	_setDigit$834& (0+255),b
  2077  000F22                     l203:
  2078                           
  2079                           ; BSR set to: 0
  2080  000F22  B1C5               	btfsc	_setDigit$834& (0+255),0,b
  2081  000F24  D002               	bra	u935
  2082  000F26  91C1               	bcf	(_flags+1)& (0+255),0,b
  2083  000F28  D002               	bra	u936
  2084  000F2A                     u935:
  2085  000F2A  0100               	movlb	0	; () banked
  2086  000F2C  81C1               	bsf	(_flags+1)& (0+255),0,b
  2087  000F2E                     u936:
  2088                           
  2089                           ; BSR set to: 0
  2090                           ;prog.c: 177: digits[line][symbol] = value;
  2091  000F2E  D80B               	call	PL8	;call to abstracted procedure
  2092  000F30  C0C7  FFDF         	movff	setDigit@value,indf2
  2093                           
  2094                           ; BSR set to: 0
  2095  000F34  0012               	return	
  2096  000F36                     __end_of_setDigit:
  2097                           	opt stack 0
  2098  000F36                     PL6:
  2099                           	opt stack 21
  2100  000F36  51C8               	movf	setDigit@line& (0+255),w,b
  2101  000F38  0D10               	mullw	16
  2102  000F3A  50F3               	movf	prodl,w,c
  2103  000F3C  0FA0               	addlw	low _digitsAtrib	;volatile
  2104  000F3E  25C2               	addwf	setDigit@symbol& (0+255),w,b
  2105  000F40  6ED9               	movwf	fsr2l,c
  2106  000F42  6ADA               	clrf	fsr2h,c
  2107  000F44  0012               	return	
  2108  000F46                     __end_ofPL6:
  2109                           	opt stack 0
  2110  000F46                     PL8:
  2111                           	opt stack 21
  2112  000F46  51C8               	movf	setDigit@line& (0+255),w,b
  2113  000F48  0D10               	mullw	16
  2114  000F4A  50F3               	movf	prodl,w,c
  2115  000F4C  0F80               	addlw	low _digits	;volatile
  2116  000F4E  25C2               	addwf	setDigit@symbol& (0+255),w,b
  2117  000F50  6ED9               	movwf	fsr2l,c
  2118  000F52  6ADA               	clrf	fsr2h,c
  2119  000F54  0012               	return	
  2120  000F56                     __end_ofPL8:
  2121                           	opt stack 0
  2122                           tblptru	equ	0xFF8
  2123                           tblptrh	equ	0xFF7
  2124                           tblptrl	equ	0xFF6
  2125                           tablat	equ	0xFF5
  2126                           prodl	equ	0xFF3
  2127                           intcon	equ	0xFF2
  2128                           intcon2	equ	0xFF1
  2129                           intcon3	equ	0xFF0
  2130                           postinc0	equ	0xFEE
  2131                           wreg	equ	0xFE8
  2132                           indf1	equ	0xFE7
  2133                           postinc1	equ	0xFE6
  2134                           postdec1	equ	0xFE5
  2135                           fsr1h	equ	0xFE2
  2136                           fsr1l	equ	0xFE1
  2137                           indf2	equ	0xFDF
  2138                           postinc2	equ	0xFDE
  2139                           fsr2h	equ	0xFDA
  2140                           fsr2l	equ	0xFD9
  2141                           status	equ	0xFD8
  2142                           
  2143 ;; *************** function _lcd_on *****************
  2144 ;; Defined at:
  2145 ;;		line 877 in file "prog.c"
  2146 ;; Parameters:    Size  Location     Type
  2147 ;;		None
  2148 ;; Auto vars:     Size  Location     Type
  2149 ;;		None
  2150 ;; Return value:  Size  Location     Type
  2151 ;;		None               void
  2152 ;; Registers used:
  2153 ;;		wreg, status,2, status,0, prodl, prodh, cstack
  2154 ;; Tracked objects:
  2155 ;;		On entry : F/0
  2156 ;;		On exit  : F/0
  2157 ;;		Unchanged: 0/0
  2158 ;; Data sizes:     COMRAM   BANK0   BANK1   BANK2   BANK3   BANK4   BANK5   BANK6   BANK7   BANK8   BANK9  BANK10  BANK1
      +1  BANK12  BANK13  BANK14  BANK15
  2159 ;;      Params:         0       0       0       0       0       0       0       0       0       0       0       0       
      +0       0       0       0       0
  2160 ;;      Locals:         0       0       0       0       0       0       0       0       0       0       0       0       
      +0       0       0       0       0
  2161 ;;      Temps:          0       0       0       0       0       0       0       0       0       0       0       0       
      +0       0       0       0       0
  2162 ;;      Totals:         0       0       0       0       0       0       0       0       0       0       0       0       
      +0       0       0       0       0
  2163 ;;Total ram usage:        0 bytes
  2164 ;; Hardware stack levels used:    1
  2165 ;; Hardware stack levels required when called:    9
  2166 ;; This function calls:
  2167 ;;		_lcd_init
  2168 ;;		_lcd_send_byte
  2169 ;; This function is called by:
  2170 ;;		_main
  2171 ;; This function uses a non-reentrant model
  2172 ;;
  2173                           
  2174                           	psect	text5
  2175  001400                     __ptext5:
  2176                           	opt stack 0
  2177  001400                     _lcd_on:
  2178                           	opt stack 21
  2179                           
  2180                           ; BSR set to: 0
  2181                           ;prog.c: 878: lcd_init();
  2182                           
  2183                           ; BSR set to: 0
  2184                           ;incstack = 0
  2185  001400  EC93  F006         	call	_lcd_init	;wreg free
  2186                           
  2187                           ;prog.c: 879: lcd_send_byte(0b00001100);
  2188  001404  0E0C               	movlw	12
  2189  001406  EC88  F009         	call	_lcd_send_byte
  2190                           
  2191                           ;prog.c: 880: flags.LCD_Power_On = 1;
  2192  00140A  0100               	movlb	0	; () banked
  2193  00140C  8DC0               	bsf	_flags& (0+255),6,b
  2194                           
  2195                           ; BSR set to: 0
  2196  00140E  0012               	return	
  2197  001410                     __end_of_lcd_on:
  2198                           	opt stack 0
  2199                           tblptru	equ	0xFF8
  2200                           tblptrh	equ	0xFF7
  2201                           tblptrl	equ	0xFF6
  2202                           tablat	equ	0xFF5
  2203                           prodl	equ	0xFF3
  2204                           intcon	equ	0xFF2
  2205                           intcon2	equ	0xFF1
  2206                           intcon3	equ	0xFF0
  2207                           postinc0	equ	0xFEE
  2208                           wreg	equ	0xFE8
  2209                           indf1	equ	0xFE7
  2210                           postinc1	equ	0xFE6
  2211                           postdec1	equ	0xFE5
  2212                           fsr1h	equ	0xFE2
  2213                           fsr1l	equ	0xFE1
  2214                           indf2	equ	0xFDF
  2215                           postinc2	equ	0xFDE
  2216                           fsr2h	equ	0xFDA
  2217                           fsr2l	equ	0xFD9
  2218                           status	equ	0xFD8
  2219                           
  2220 ;; *************** function _lcd_init *****************
  2221 ;; Defined at:
  2222 ;;		line 884 in file "prog.c"
  2223 ;; Parameters:    Size  Location     Type
  2224 ;;		None
  2225 ;; Auto vars:     Size  Location     Type
  2226 ;;  INTCON_BUF      1    5[BANK0 ] unsigned char 
  2227 ;; Return value:  Size  Location     Type
  2228 ;;		None               void
  2229 ;; Registers used:
  2230 ;;		wreg, status,2, status,0, prodl, prodh, cstack
  2231 ;; Tracked objects:
  2232 ;;		On entry : F/0
  2233 ;;		On exit  : F/0
  2234 ;;		Unchanged: 0/0
  2235 ;; Data sizes:     COMRAM   BANK0   BANK1   BANK2   BANK3   BANK4   BANK5   BANK6   BANK7   BANK8   BANK9  BANK10  BANK1
      +1  BANK12  BANK13  BANK14  BANK15
  2236 ;;      Params:         0       0       0       0       0       0       0       0       0       0       0       0       
      +0       0       0       0       0
  2237 ;;      Locals:         0       1       0       0       0       0       0       0       0       0       0       0       
      +0       0       0       0       0
  2238 ;;      Temps:          0       1       0       0       0       0       0       0       0       0       0       0       
      +0       0       0       0       0
  2239 ;;      Totals:         0       2       0       0       0       0       0       0       0       0       0       0       
      +0       0       0       0       0
  2240 ;;Total ram usage:        2 bytes
  2241 ;; Hardware stack levels used:    1
  2242 ;; Hardware stack levels required when called:    8
  2243 ;; This function calls:
  2244 ;;		_lcd_send_byte
  2245 ;;		_lcd_send_initial_half_byte
  2246 ;; This function is called by:
  2247 ;;		_lcd_on
  2248 ;; This function uses a non-reentrant model
  2249 ;;
  2250                           
  2251                           	psect	text6
  2252  000D26                     __ptext6:
  2253                           	opt stack 0
  2254  000D26                     _lcd_init:
  2255                           	opt stack 21
  2256                           
  2257                           ; BSR set to: 0
  2258                           ;prog.c: 885: unsigned char INTCON_BUF = INTCON;
  2259                           
  2260                           ; BSR set to: 0
  2261                           ;incstack = 0
  2262  000D26  CFF2 F0C7          	movff	intcon,lcd_init@INTCON_BUF	;volatile
  2263                           
  2264                           ;prog.c: 886: INTCONbits.GIEH = 0;
  2265  000D2A  9EF2               	bcf	intcon,7,c	;volatile
  2266                           
  2267                           ;prog.c: 887: INTCONbits.GIEL = 0;
  2268  000D2C  9CF2               	bcf	intcon,6,c	;volatile
  2269                           
  2270                           ;prog.c: 888: RC0 = 0;
  2271  000D2E  9082               	bcf	3970,0,c	;volatile
  2272                           
  2273                           ;prog.c: 889: RC2 = 0;
  2274  000D30  9482               	bcf	3970,2,c	;volatile
  2275                           
  2276                           ; BSR set to: 0
  2277                           ;prog.c: 891: _delay((unsigned long)((20)*(39400000/4000.0)));
  2278  000D32  6BC6               	clrf	??_lcd_init& (0+255),b
  2279  000D34  0ED7               	movlw	215
  2280  000D36                     u1757:
  2281  000D36  2EE8               	decfsz	wreg,f,c
  2282  000D38  D7FE               	goto	u1757
  2283  000D3A  2FC6               	decfsz	??_lcd_init& (0+255),f,b
  2284  000D3C  D7FC               	goto	u1757
  2285  000D3E  F000               	nop	
  2286                           
  2287                           ;prog.c: 892: lcd_send_initial_half_byte(0b00000011);
  2288  000D40  0E03               	movlw	3
  2289  000D42  EC9C  F009         	call	_lcd_send_initial_half_byte
  2290                           
  2291                           ; BSR set to: 0
  2292                           ;prog.c: 893: _delay((unsigned long)((5)*(39400000/4000.0)));
  2293  000D46  0E40               	movlw	64
  2294  000D48  6FC6               	movwf	??_lcd_init& (0+255),b
  2295  000D4A  0EF5               	movlw	245
  2296  000D4C                     u1767:
  2297  000D4C  2EE8               	decfsz	wreg,f,c
  2298  000D4E  D7FE               	goto	u1767
  2299  000D50  2FC6               	decfsz	??_lcd_init& (0+255),f,b
  2300  000D52  D7FC               	goto	u1767
  2301  000D54  F000               	nop	
  2302                           
  2303                           ;prog.c: 894: lcd_send_initial_half_byte(0b00000011);
  2304  000D56  0E03               	movlw	3
  2305  000D58  EC9C  F009         	call	_lcd_send_initial_half_byte
  2306                           
  2307                           ; BSR set to: 0
  2308                           ;prog.c: 895: _delay((unsigned long)((110)*(39400000/4000000.0)));
  2309  000D5C  0ED8               	movlw	216
  2310  000D5E                     u1777:
  2311  000D5E  D000               	nop2	
  2312  000D60  2EE8               	decfsz	wreg,f,c
  2313  000D62  D7FD               	goto	u1777
  2314  000D64  D000               	nop2		;nop
  2315  000D66  F000               	nop	
  2316                           
  2317                           ;prog.c: 896: lcd_send_initial_half_byte(0b00000011);
  2318  000D68  0E03               	movlw	3
  2319  000D6A  EC9C  F009         	call	_lcd_send_initial_half_byte
  2320                           
  2321                           ;prog.c: 897: _delay((unsigned long)((40)*(39400000/4000000.0)));
  2322  000D6E  0E83               	movlw	131
  2323  000D70                     u1787:
  2324  000D70  2EE8               	decfsz	wreg,f,c
  2325  000D72  D7FE               	goto	u1787
  2326  000D74  F000               	nop	
  2327                           
  2328                           ;prog.c: 898: lcd_send_initial_half_byte(0b00000010);
  2329  000D76  0E02               	movlw	2
  2330  000D78  EC9C  F009         	call	_lcd_send_initial_half_byte
  2331                           
  2332                           ; BSR set to: 0
  2333                           ;prog.c: 899: _delay((unsigned long)((40)*(39400000/4000000.0)));
  2334  000D7C  0E83               	movlw	131
  2335  000D7E                     u1797:
  2336  000D7E  2EE8               	decfsz	wreg,f,c
  2337  000D80  D7FE               	goto	u1797
  2338  000D82  F000               	nop	
  2339                           
  2340                           ;prog.c: 900: lcd_send_byte(0b00101100);
  2341  000D84  0E2C               	movlw	44
  2342  000D86  EC88  F009         	call	_lcd_send_byte
  2343                           
  2344                           ;prog.c: 901: _delay((unsigned long)((40)*(39400000/4000000.0)));
  2345  000D8A  0E83               	movlw	131
  2346  000D8C                     u1807:
  2347  000D8C  2EE8               	decfsz	wreg,f,c
  2348  000D8E  D7FE               	goto	u1807
  2349  000D90  F000               	nop	
  2350                           
  2351                           ;prog.c: 902: lcd_send_byte(0b00001000);
  2352  000D92  0E08               	movlw	8
  2353  000D94  EC88  F009         	call	_lcd_send_byte
  2354                           
  2355                           ;prog.c: 903: _delay((unsigned long)((40)*(39400000/4000000.0)));
  2356  000D98  0E83               	movlw	131
  2357  000D9A                     u1817:
  2358  000D9A  2EE8               	decfsz	wreg,f,c
  2359  000D9C  D7FE               	goto	u1817
  2360  000D9E  F000               	nop	
  2361                           
  2362                           ;prog.c: 904: lcd_send_byte(0b00000001);
  2363  000DA0  0E01               	movlw	1
  2364  000DA2  EC88  F009         	call	_lcd_send_byte
  2365                           
  2366                           ;prog.c: 905: _delay((unsigned long)((40)*(39400000/4000000.0)));
  2367  000DA6  0E83               	movlw	131
  2368  000DA8                     u1827:
  2369  000DA8  2EE8               	decfsz	wreg,f,c
  2370  000DAA  D7FE               	goto	u1827
  2371  000DAC  F000               	nop	
  2372                           
  2373                           ;prog.c: 906: lcd_send_byte(0b00010010);
  2374  000DAE  0E12               	movlw	18
  2375  000DB0  EC88  F009         	call	_lcd_send_byte
  2376                           
  2377                           ;prog.c: 907: _delay((unsigned long)((40)*(39400000/4000000.0)));
  2378  000DB4  0E83               	movlw	131
  2379  000DB6                     u1837:
  2380  000DB6  2EE8               	decfsz	wreg,f,c
  2381  000DB8  D7FE               	goto	u1837
  2382  000DBA  F000               	nop	
  2383                           
  2384                           ;prog.c: 910: RC0 = 0;
  2385  000DBC  9082               	bcf	3970,0,c	;volatile
  2386                           
  2387                           ;prog.c: 911: RC2 = 0;
  2388  000DBE  9482               	bcf	3970,2,c	;volatile
  2389                           
  2390                           ;prog.c: 913: lcd_send_byte(0b00000001);
  2391  000DC0  0E01               	movlw	1
  2392  000DC2  EC88  F009         	call	_lcd_send_byte
  2393                           
  2394                           ;prog.c: 914: _delay((unsigned long)((2)*(39400000/4000.0)));
  2395  000DC6  0E1A               	movlw	26
  2396  000DC8  0100               	movlb	0	; () banked
  2397  000DCA  6FC6               	movwf	??_lcd_init& (0+255),b
  2398  000DCC  0E94               	movlw	148
  2399  000DCE                     u1847:
  2400  000DCE  2EE8               	decfsz	wreg,f,c
  2401  000DD0  D7FE               	goto	u1847
  2402  000DD2  2FC6               	decfsz	??_lcd_init& (0+255),f,b
  2403  000DD4  D7FC               	goto	u1847
  2404  000DD6  D000               	nop2	
  2405                           
  2406                           ;prog.c: 916: INTCON = (INTCON_BUF | 0b10000000) | (INTCON & 0b01111111);
  2407  000DD8  50F2               	movf	intcon,w,c	;volatile
  2408  000DDA  0B7F               	andlw	127
  2409  000DDC  0100               	movlb	0	; () banked
  2410  000DDE  11C7               	iorwf	lcd_init@INTCON_BUF& (0+255),w,b
  2411  000DE0  0980               	iorlw	128
  2412  000DE2  6EF2               	movwf	intcon,c	;volatile
  2413                           
  2414                           ; BSR set to: 0
  2415  000DE4  0012               	return	
  2416  000DE6                     __end_of_lcd_init:
  2417                           	opt stack 0
  2418                           tblptru	equ	0xFF8
  2419                           tblptrh	equ	0xFF7
  2420                           tblptrl	equ	0xFF6
  2421                           tablat	equ	0xFF5
  2422                           prodl	equ	0xFF3
  2423                           intcon	equ	0xFF2
  2424                           intcon2	equ	0xFF1
  2425                           intcon3	equ	0xFF0
  2426                           postinc0	equ	0xFEE
  2427                           wreg	equ	0xFE8
  2428                           indf1	equ	0xFE7
  2429                           postinc1	equ	0xFE6
  2430                           postdec1	equ	0xFE5
  2431                           fsr1h	equ	0xFE2
  2432                           fsr1l	equ	0xFE1
  2433                           indf2	equ	0xFDF
  2434                           postinc2	equ	0xFDE
  2435                           fsr2h	equ	0xFDA
  2436                           fsr2l	equ	0xFD9
  2437                           status	equ	0xFD8
  2438                           
  2439 ;; *************** function _lcd_send_byte *****************
  2440 ;; Defined at:
  2441 ;;		line 863 in file "prog.c"
  2442 ;; Parameters:    Size  Location     Type
  2443 ;;  data            1    wreg     unsigned char 
  2444 ;; Auto vars:     Size  Location     Type
  2445 ;;  data            1    3[BANK0 ] unsigned char 
  2446 ;; Return value:  Size  Location     Type
  2447 ;;		None               void
  2448 ;; Registers used:
  2449 ;;		wreg, status,2, status,0, prodl, prodh, cstack
  2450 ;; Tracked objects:
  2451 ;;		On entry : 0/0
  2452 ;;		On exit  : 0/0
  2453 ;;		Unchanged: 0/0
  2454 ;; Data sizes:     COMRAM   BANK0   BANK1   BANK2   BANK3   BANK4   BANK5   BANK6   BANK7   BANK8   BANK9  BANK10  BANK1
      +1  BANK12  BANK13  BANK14  BANK15
  2455 ;;      Params:         0       0       0       0       0       0       0       0       0       0       0       0       
      +0       0       0       0       0
  2456 ;;      Locals:         0       1       0       0       0       0       0       0       0       0       0       0       
      +0       0       0       0       0
  2457 ;;      Temps:          0       0       0       0       0       0       0       0       0       0       0       0       
      +0       0       0       0       0
  2458 ;;      Totals:         0       1       0       0       0       0       0       0       0       0       0       0       
      +0       0       0       0       0
  2459 ;;Total ram usage:        1 bytes
  2460 ;; Hardware stack levels used:    1
  2461 ;; Hardware stack levels required when called:    7
  2462 ;; This function calls:
  2463 ;;		_lcd_send_initial_half_byte
  2464 ;; This function is called by:
  2465 ;;		_lcd_on
  2466 ;;		_lcd_init
  2467 ;; This function uses a non-reentrant model
  2468 ;;
  2469                           
  2470                           	psect	text7
  2471  001310                     __ptext7:
  2472                           	opt stack 0
  2473  001310                     _lcd_send_byte:
  2474                           	opt stack 22
  2475                           
  2476                           ; BSR set to: 0
  2477                           ;incstack = 0
  2478                           ;lcd_send_byte@data stored from wreg
  2479  001310  0100               	movlb	0	; () banked
  2480  001312  6FC5               	movwf	lcd_send_byte@data& (0+255),b
  2481                           
  2482                           ; BSR set to: 0
  2483                           ;prog.c: 864: lcd_send_initial_half_byte((data & 0b11110000) / 16);
  2484  001314  39C5               	swapf	lcd_send_byte@data& (0+255),w,b
  2485  001316  0B0F               	andlw	15
  2486  001318  EC9C  F009         	call	_lcd_send_initial_half_byte
  2487                           
  2488                           ; BSR set to: 0
  2489                           ;prog.c: 865: _delay((unsigned long)((40)*(39400000/4000000.0)));
  2490  00131C  0E83               	movlw	131
  2491  00131E                     u1857:
  2492  00131E  2EE8               	decfsz	wreg,f,c
  2493  001320  D7FE               	goto	u1857
  2494  001322  F000               	nop	
  2495                           
  2496                           ;prog.c: 866: lcd_send_initial_half_byte(data & 0b00001111);
  2497  001324  0100               	movlb	0	; () banked
  2498  001326  51C5               	movf	lcd_send_byte@data& (0+255),w,b
  2499  001328  0B0F               	andlw	15
  2500  00132A  EC9C  F009         	call	_lcd_send_initial_half_byte
  2501                           
  2502                           ;prog.c: 867: _delay((unsigned long)((40)*(39400000/4000000.0)));
  2503  00132E  0E83               	movlw	131
  2504  001330                     u1867:
  2505  001330  2EE8               	decfsz	wreg,f,c
  2506  001332  D7FE               	goto	u1867
  2507  001334  F000               	nop	
  2508  001336  0012               	return	
  2509  001338                     __end_of_lcd_send_byte:
  2510                           	opt stack 0
  2511                           tblptru	equ	0xFF8
  2512                           tblptrh	equ	0xFF7
  2513                           tblptrl	equ	0xFF6
  2514                           tablat	equ	0xFF5
  2515                           prodl	equ	0xFF3
  2516                           intcon	equ	0xFF2
  2517                           intcon2	equ	0xFF1
  2518                           intcon3	equ	0xFF0
  2519                           postinc0	equ	0xFEE
  2520                           wreg	equ	0xFE8
  2521                           indf1	equ	0xFE7
  2522                           postinc1	equ	0xFE6
  2523                           postdec1	equ	0xFE5
  2524                           fsr1h	equ	0xFE2
  2525                           fsr1l	equ	0xFE1
  2526                           indf2	equ	0xFDF
  2527                           postinc2	equ	0xFDE
  2528                           fsr2h	equ	0xFDA
  2529                           fsr2l	equ	0xFD9
  2530                           status	equ	0xFD8
  2531                           
  2532 ;; *************** function _lcd_send_initial_half_byte *****************
  2533 ;; Defined at:
  2534 ;;		line 856 in file "prog.c"
  2535 ;; Parameters:    Size  Location     Type
  2536 ;;  data            1    wreg     unsigned char 
  2537 ;; Auto vars:     Size  Location     Type
  2538 ;;  data            1    0[BANK0 ] unsigned char 
  2539 ;; Return value:  Size  Location     Type
  2540 ;;		None               void
  2541 ;; Registers used:
  2542 ;;		wreg, status,2, status,0, prodl, prodh
  2543 ;; Tracked objects:
  2544 ;;		On entry : 0/0
  2545 ;;		On exit  : F/0
  2546 ;;		Unchanged: 0/0
  2547 ;; Data sizes:     COMRAM   BANK0   BANK1   BANK2   BANK3   BANK4   BANK5   BANK6   BANK7   BANK8   BANK9  BANK10  BANK1
      +1  BANK12  BANK13  BANK14  BANK15
  2548 ;;      Params:         0       0       0       0       0       0       0       0       0       0       0       0       
      +0       0       0       0       0
  2549 ;;      Locals:         0       3       0       0       0       0       0       0       0       0       0       0       
      +0       0       0       0       0
  2550 ;;      Temps:          0       0       0       0       0       0       0       0       0       0       0       0       
      +0       0       0       0       0
  2551 ;;      Totals:         0       3       0       0       0       0       0       0       0       0       0       0       
      +0       0       0       0       0
  2552 ;;Total ram usage:        3 bytes
  2553 ;; Hardware stack levels used:    1
  2554 ;; Hardware stack levels required when called:    6
  2555 ;; This function calls:
  2556 ;;		Nothing
  2557 ;; This function is called by:
  2558 ;;		_lcd_send_byte
  2559 ;;		_lcd_init
  2560 ;; This function uses a non-reentrant model
  2561 ;;
  2562                           
  2563                           	psect	text8
  2564  001338                     __ptext8:
  2565                           	opt stack 0
  2566  001338                     _lcd_send_initial_half_byte:
  2567                           	opt stack 22
  2568                           
  2569                           ;incstack = 0
  2570                           ;lcd_send_initial_half_byte@data stored from wreg
  2571  001338  0100               	movlb	0	; () banked
  2572  00133A  6FC2               	movwf	lcd_send_initial_half_byte@data& (0+255),b
  2573                           
  2574                           ; BSR set to: 0
  2575                           ;prog.c: 857: RC2 = 0;
  2576  00133C  9482               	bcf	3970,2,c	;volatile
  2577                           
  2578                           ;prog.c: 858: PORTA = (0b00011110 & (data * 2)) | (flags.LCD_Light_On == 1 ? 0b00100000 
      +                          : 0b00000000);
  2579  00133E  BBC0               	btfsc	_flags& (0+255),5,b
  2580  001340  D003               	goto	l3038
  2581                           
  2582                           ; BSR set to: 0
  2583  001342  6BC3               	clrf	_lcd_send_initial_half_byte$955& (0+255),b
  2584  001344  6BC4               	clrf	(_lcd_send_initial_half_byte$955+1)& (0+255),b
  2585  001346  D003               	goto	l3040
  2586  001348                     l3038:
  2587                           
  2588                           ; BSR set to: 0
  2589  001348  6BC4               	clrf	(_lcd_send_initial_half_byte$955+1)& (0+255),b
  2590  00134A  0E20               	movlw	32
  2591  00134C  6FC3               	movwf	_lcd_send_initial_half_byte$955& (0+255),b
  2592  00134E                     l3040:
  2593                           
  2594                           ; BSR set to: 0
  2595  00134E  51C2               	movf	lcd_send_initial_half_byte@data& (0+255),w,b
  2596  001350  0D02               	mullw	2
  2597  001352  50F3               	movf	prodl,w,c
  2598  001354  0B1E               	andlw	30
  2599  001356  11C3               	iorwf	_lcd_send_initial_half_byte$955& (0+255),w,b
  2600  001358  6E80               	movwf	3968,c	;volatile
  2601                           
  2602                           ; BSR set to: 0
  2603                           ;prog.c: 859: RC0 = 1;
  2604  00135A  8082               	bsf	3970,0,c	;volatile
  2605                           
  2606                           ; BSR set to: 0
  2607                           ;prog.c: 860: RC0 = 0;
  2608  00135C  9082               	bcf	3970,0,c	;volatile
  2609                           
  2610                           ; BSR set to: 0
  2611  00135E  0012               	return	
  2612  001360                     __end_of_lcd_send_initial_half_byte:
  2613                           	opt stack 0
  2614                           tblptru	equ	0xFF8
  2615                           tblptrh	equ	0xFF7
  2616                           tblptrl	equ	0xFF6
  2617                           tablat	equ	0xFF5
  2618                           prodl	equ	0xFF3
  2619                           intcon	equ	0xFF2
  2620                           intcon2	equ	0xFF1
  2621                           intcon3	equ	0xFF0
  2622                           postinc0	equ	0xFEE
  2623                           wreg	equ	0xFE8
  2624                           indf1	equ	0xFE7
  2625                           postinc1	equ	0xFE6
  2626                           postdec1	equ	0xFE5
  2627                           fsr1h	equ	0xFE2
  2628                           fsr1l	equ	0xFE1
  2629                           indf2	equ	0xFDF
  2630                           postinc2	equ	0xFDE
  2631                           fsr2h	equ	0xFDA
  2632                           fsr2l	equ	0xFD9
  2633                           status	equ	0xFD8
  2634                           
  2635 ;; *************** function _clrInd *****************
  2636 ;; Defined at:
  2637 ;;		line 190 in file "prog.c"
  2638 ;; Parameters:    Size  Location     Type
  2639 ;;		None
  2640 ;; Auto vars:     Size  Location     Type
  2641 ;;  symb            1    1[BANK0 ] unsigned char 
  2642 ;;  line            1    0[BANK0 ] unsigned char 
  2643 ;; Return value:  Size  Location     Type
  2644 ;;		None               void
  2645 ;; Registers used:
  2646 ;;		wreg, fsr2l, fsr2h, status,2, status,0, prodl, prodh
  2647 ;; Tracked objects:
  2648 ;;		On entry : F/0
  2649 ;;		On exit  : F/0
  2650 ;;		Unchanged: 0/0
  2651 ;; Data sizes:     COMRAM   BANK0   BANK1   BANK2   BANK3   BANK4   BANK5   BANK6   BANK7   BANK8   BANK9  BANK10  BANK1
      +1  BANK12  BANK13  BANK14  BANK15
  2652 ;;      Params:         0       0       0       0       0       0       0       0       0       0       0       0       
      +0       0       0       0       0
  2653 ;;      Locals:         0       2       0       0       0       0       0       0       0       0       0       0       
      +0       0       0       0       0
  2654 ;;      Temps:          0       0       0       0       0       0       0       0       0       0       0       0       
      +0       0       0       0       0
  2655 ;;      Totals:         0       2       0       0       0       0       0       0       0       0       0       0       
      +0       0       0       0       0
  2656 ;;Total ram usage:        2 bytes
  2657 ;; Hardware stack levels used:    1
  2658 ;; Hardware stack levels required when called:    6
  2659 ;; This function calls:
  2660 ;;		Nothing
  2661 ;; This function is called by:
  2662 ;;		_main
  2663 ;; This function uses a non-reentrant model
  2664 ;;
  2665                           
  2666                           	psect	text9
  2667  0011D0                     __ptext9:
  2668                           	opt stack 0
  2669  0011D0                     _clrInd:
  2670                           	opt stack 24
  2671                           
  2672                           ; BSR set to: 0
  2673                           ;prog.c: 191: for (char line = 0; line < 2; line++) {
  2674                           
  2675                           ; BSR set to: 0
  2676                           ;incstack = 0
  2677  0011D0  6BC2               	clrf	clrInd@line& (0+255),b
  2678  0011D2                     l212:
  2679                           
  2680                           ; BSR set to: 0
  2681                           ;prog.c: 192: for (char symb = 0; symb < 16; symb++) {
  2682  0011D2  6BC3               	clrf	clrInd@symb& (0+255),b
  2683  0011D4                     l3376:
  2684                           
  2685                           ; BSR set to: 0
  2686                           ;prog.c: 193: digits[line][symb] = ' ';
  2687  0011D4  51C2               	movf	clrInd@line& (0+255),w,b
  2688  0011D6  0D10               	mullw	16
  2689  0011D8  50F3               	movf	prodl,w,c
  2690  0011DA  0F80               	addlw	low _digits	;volatile
  2691  0011DC  25C3               	addwf	clrInd@symb& (0+255),w,b
  2692  0011DE  6ED9               	movwf	fsr2l,c
  2693  0011E0  6ADA               	clrf	fsr2h,c
  2694  0011E2  0E20               	movlw	32
  2695  0011E4  6EDF               	movwf	indf2,c
  2696                           
  2697                           ;prog.c: 194: digitsAtrib[line][symb].blink = 0;
  2698  0011E6  D80D               	call	PL4	;call to abstracted procedure
  2699  0011E8  90DF               	bcf	indf2,0,c
  2700                           
  2701                           ;prog.c: 195: digitsAtrib[line][symb].modifided = 1;
  2702  0011EA  D80B               	call	PL4	;call to abstracted procedure
  2703  0011EC  82DF               	bsf	indf2,1,c
  2704                           
  2705                           ; BSR set to: 0
  2706  0011EE  2BC3               	incf	clrInd@symb& (0+255),f,b
  2707                           
  2708                           ; BSR set to: 0
  2709  0011F0  0E0F               	movlw	15
  2710  0011F2  65C3               	cpfsgt	clrInd@symb& (0+255),b
  2711  0011F4  D7EF               	goto	l3376
  2712                           
  2713                           ; BSR set to: 0
  2714  0011F6  2BC2               	incf	clrInd@line& (0+255),f,b
  2715                           
  2716                           ; BSR set to: 0
  2717  0011F8  0E01               	movlw	1
  2718  0011FA  65C2               	cpfsgt	clrInd@line& (0+255),b
  2719  0011FC  D7EA               	goto	l212
  2720                           
  2721                           ; BSR set to: 0
  2722                           ;prog.c: 196: }
  2723                           ;prog.c: 197: }
  2724                           ;prog.c: 198: flags.IsLCDModified = 1;
  2725  0011FE  81C1               	bsf	(_flags+1)& (0+255),0,b
  2726                           
  2727                           ; BSR set to: 0
  2728  001200  0C01               	retlw	1
  2729  001202                     __end_of_clrInd:
  2730                           	opt stack 0
  2731  001202                     PL4:
  2732                           	opt stack 24
  2733  001202  51C2               	movf	clrInd@line& (0+255),w,b
  2734  001204  0D10               	mullw	16
  2735  001206  50F3               	movf	prodl,w,c
  2736  001208  0FA0               	addlw	low _digitsAtrib	;volatile
  2737  00120A  25C3               	addwf	clrInd@symb& (0+255),w,b
  2738  00120C  6ED9               	movwf	fsr2l,c
  2739  00120E  6ADA               	clrf	fsr2h,c
  2740  001210  0012               	return	
  2741  001212                     __end_ofPL4:
  2742                           	opt stack 0
  2743                           tblptru	equ	0xFF8
  2744                           tblptrh	equ	0xFF7
  2745                           tblptrl	equ	0xFF6
  2746                           tablat	equ	0xFF5
  2747                           prodl	equ	0xFF3
  2748                           intcon	equ	0xFF2
  2749                           intcon2	equ	0xFF1
  2750                           intcon3	equ	0xFF0
  2751                           postinc0	equ	0xFEE
  2752                           wreg	equ	0xFE8
  2753                           indf1	equ	0xFE7
  2754                           postinc1	equ	0xFE6
  2755                           postdec1	equ	0xFE5
  2756                           fsr1h	equ	0xFE2
  2757                           fsr1l	equ	0xFE1
  2758                           indf2	equ	0xFDF
  2759                           postinc2	equ	0xFDE
  2760                           fsr2h	equ	0xFDA
  2761                           fsr2l	equ	0xFD9
  2762                           status	equ	0xFD8
  2763                           
  2764 ;; *************** function _EERD *****************
  2765 ;; Defined at:
  2766 ;;		line 613 in file "prog.c"
  2767 ;; Parameters:    Size  Location     Type
  2768 ;;  adress          2    5[BANK0 ] unsigned int 
  2769 ;; Auto vars:     Size  Location     Type
  2770 ;;  EEDATA_BUP      1   11[BANK0 ] volatile unsigned char 
  2771 ;;  INTCON_BUP      1   10[BANK0 ] volatile unsigned char 
  2772 ;; Return value:  Size  Location     Type
  2773 ;;                  1    wreg      unsigned char 
  2774 ;; Registers used:
  2775 ;;		wreg, status,2, status,0, cstack
  2776 ;; Tracked objects:
  2777 ;;		On entry : F/0
  2778 ;;		On exit  : F/0
  2779 ;;		Unchanged: 0/0
  2780 ;; Data sizes:     COMRAM   BANK0   BANK1   BANK2   BANK3   BANK4   BANK5   BANK6   BANK7   BANK8   BANK9  BANK10  BANK1
      +1  BANK12  BANK13  BANK14  BANK15
  2781 ;;      Params:         0       2       0       0       0       0       0       0       0       0       0       0       
      +0       0       0       0       0
  2782 ;;      Locals:         0       2       0       0       0       0       0       0       0       0       0       0       
      +0       0       0       0       0
  2783 ;;      Temps:          0       3       0       0       0       0       0       0       0       0       0       0       
      +0       0       0       0       0
  2784 ;;      Totals:         0       7       0       0       0       0       0       0       0       0       0       0       
      +0       0       0       0       0
  2785 ;;Total ram usage:        7 bytes
  2786 ;; Hardware stack levels used:    1
  2787 ;; Hardware stack levels required when called:    7
  2788 ;; This function calls:
  2789 ;;		___lwmod
  2790 ;; This function is called by:
  2791 ;;		_main
  2792 ;; This function uses a non-reentrant model
  2793 ;;
  2794                           
  2795                           	psect	text10
  2796  001212                     __ptext10:
  2797                           	opt stack 0
  2798  001212                     _EERD:
  2799                           	opt stack 23
  2800                           
  2801                           ; BSR set to: 0
  2802                           ;prog.c: 614: volatile unsigned char INTCON_BUP = INTCON;
  2803                           
  2804                           ; BSR set to: 0
  2805                           ;incstack = 0
  2806  001212  CFF2 F0CC          	movff	intcon,EERD@INTCON_BUP	;volatile
  2807                           
  2808                           ;prog.c: 615: volatile unsigned char EEDATA_BUP;
  2809                           ;prog.c: 616: INTCONbits.GIEH = 0;
  2810  001216  9EF2               	bcf	intcon,7,c	;volatile
  2811                           
  2812                           ;prog.c: 617: INTCONbits.GIEL = 0;
  2813  001218  9CF2               	bcf	intcon,6,c	;volatile
  2814  00121A  0004               	clrwdt		;# 
  2815                           
  2816                           ;prog.c: 619: EEADRH = adress >> 8;
  2817  00121C  0100               	movlb	0	; () banked
  2818  00121E  C0C8  F0C9         	movff	EERD@adress+1,??_EERD
  2819  001222  C0C9  F0CA         	movff	??_EERD,??_EERD+1
  2820  001226  6BCB               	clrf	(??_EERD+2)& (0+255),b
  2821  001228  51CA               	movf	(??_EERD+1)& (0+255),w,b
  2822  00122A  6EAA               	movwf	4010,c	;volatile
  2823                           
  2824                           ; BSR set to: 0
  2825                           ;prog.c: 620: EEADR = adress % 255;
  2826  00122C  C0C7  F0C2         	movff	EERD@adress,___lwmod@dividend
  2827  001230  C0C8  F0C3         	movff	EERD@adress+1,___lwmod@dividend+1
  2828  001234  0E00               	movlw	0
  2829  001236  6BC5               	clrf	(___lwmod@divisor+1)& (0+255),b
  2830  001238  69C4               	setf	___lwmod@divisor& (0+255),b
  2831  00123A  EC4A  F009         	call	___lwmod	;wreg free
  2832  00123E  51C2               	movf	?___lwmod& (0+255),w,b
  2833  001240  6EA9               	movwf	4009,c	;volatile
  2834                           
  2835                           ; BSR set to: 0
  2836                           ;prog.c: 621: EECON1bits.EEPGD = 0;
  2837  001242  9EA6               	bcf	4006,7,c	;volatile
  2838                           
  2839                           ; BSR set to: 0
  2840                           ;prog.c: 622: EECON1bits.CFGS = 0;
  2841  001244  9CA6               	bcf	4006,6,c	;volatile
  2842                           
  2843                           ; BSR set to: 0
  2844                           ;prog.c: 623: EECON1bits.RD = 1;
  2845  001246  80A6               	bsf	4006,0,c	;volatile
  2846                           
  2847                           ; BSR set to: 0
  2848                           ;prog.c: 624: EEDATA_BUP = EEDATA;
  2849  001248  CFA8 F0CD          	movff	4008,EERD@EEDATA_BUP	;volatile
  2850                           
  2851                           ; BSR set to: 0
  2852                           ;prog.c: 625: INTCON = INTCON_BUP;
  2853  00124C  C0CC  FFF2         	movff	EERD@INTCON_BUP,intcon	;volatile
  2854                           
  2855                           ; BSR set to: 0
  2856                           ;prog.c: 626: return EEDATA_BUP;
  2857  001250  51CD               	movf	EERD@EEDATA_BUP& (0+255),w,b	;volatile
  2858                           
  2859                           ; BSR set to: 0
  2860  001252  0012               	return	
  2861  001254                     __end_of_EERD:
  2862                           	opt stack 0
  2863                           tblptru	equ	0xFF8
  2864                           tblptrh	equ	0xFF7
  2865                           tblptrl	equ	0xFF6
  2866                           tablat	equ	0xFF5
  2867                           prodl	equ	0xFF3
  2868                           intcon	equ	0xFF2
  2869                           intcon2	equ	0xFF1
  2870                           intcon3	equ	0xFF0
  2871                           postinc0	equ	0xFEE
  2872                           wreg	equ	0xFE8
  2873                           indf1	equ	0xFE7
  2874                           postinc1	equ	0xFE6
  2875                           postdec1	equ	0xFE5
  2876                           fsr1h	equ	0xFE2
  2877                           fsr1l	equ	0xFE1
  2878                           indf2	equ	0xFDF
  2879                           postinc2	equ	0xFDE
  2880                           fsr2h	equ	0xFDA
  2881                           fsr2l	equ	0xFD9
  2882                           status	equ	0xFD8
  2883                           
  2884 ;; *************** function ___lwmod *****************
  2885 ;; Defined at:
  2886 ;;		line 8 in file "C:\Program Files (x86)\Microchip\xc8\v1.33\sources\common\lwmod.c"
  2887 ;; Parameters:    Size  Location     Type
  2888 ;;  dividend        2    0[BANK0 ] unsigned int 
  2889 ;;  divisor         2    2[BANK0 ] unsigned int 
  2890 ;; Auto vars:     Size  Location     Type
  2891 ;;  counter         1    4[BANK0 ] unsigned char 
  2892 ;; Return value:  Size  Location     Type
  2893 ;;                  2    0[BANK0 ] unsigned int 
  2894 ;; Registers used:
  2895 ;;		wreg, status,2, status,0
  2896 ;; Tracked objects:
  2897 ;;		On entry : F/0
  2898 ;;		On exit  : F/0
  2899 ;;		Unchanged: 0/0
  2900 ;; Data sizes:     COMRAM   BANK0   BANK1   BANK2   BANK3   BANK4   BANK5   BANK6   BANK7   BANK8   BANK9  BANK10  BANK1
      +1  BANK12  BANK13  BANK14  BANK15
  2901 ;;      Params:         0       4       0       0       0       0       0       0       0       0       0       0       
      +0       0       0       0       0
  2902 ;;      Locals:         0       1       0       0       0       0       0       0       0       0       0       0       
      +0       0       0       0       0
  2903 ;;      Temps:          0       0       0       0       0       0       0       0       0       0       0       0       
      +0       0       0       0       0
  2904 ;;      Totals:         0       5       0       0       0       0       0       0       0       0       0       0       
      +0       0       0       0       0
  2905 ;;Total ram usage:        5 bytes
  2906 ;; Hardware stack levels used:    1
  2907 ;; Hardware stack levels required when called:    6
  2908 ;; This function calls:
  2909 ;;		Nothing
  2910 ;; This function is called by:
  2911 ;;		_EERD
  2912 ;; This function uses a non-reentrant model
  2913 ;;
  2914                           
  2915                           	psect	text11
  2916  001294                     __ptext11:
  2917                           	opt stack 0
  2918  001294                     ___lwmod:
  2919                           	opt stack 23
  2920                           
  2921                           ; BSR set to: 0
  2922                           
  2923                           ; BSR set to: 0
  2924                           ;incstack = 0
  2925  001294  51C5               	movf	(___lwmod@divisor+1)& (0+255),w,b
  2926  001296  11C4               	iorwf	___lwmod@divisor& (0+255),w,b
  2927  001298  E017               	bz	l1535
  2928                           
  2929                           ; BSR set to: 0
  2930  00129A  0E01               	movlw	1
  2931  00129C  6FC6               	movwf	___lwmod@counter& (0+255),b
  2932  00129E  D004               	goto	l3344
  2933  0012A0                     l3342:
  2934                           
  2935                           ; BSR set to: 0
  2936  0012A0  90D8               	bcf	status,0,c
  2937  0012A2  37C4               	rlcf	___lwmod@divisor& (0+255),f,b
  2938  0012A4  37C5               	rlcf	(___lwmod@divisor+1)& (0+255),f,b
  2939  0012A6  2BC6               	incf	___lwmod@counter& (0+255),f,b
  2940  0012A8                     l3344:
  2941                           
  2942                           ; BSR set to: 0
  2943  0012A8  AFC5               	btfss	(___lwmod@divisor+1)& (0+255),7,b
  2944  0012AA  D7FA               	goto	l3342
  2945  0012AC                     l3346:
  2946                           
  2947                           ; BSR set to: 0
  2948  0012AC  51C4               	movf	___lwmod@divisor& (0+255),w,b
  2949  0012AE  5DC2               	subwf	___lwmod@dividend& (0+255),w,b
  2950  0012B0  51C5               	movf	(___lwmod@divisor+1)& (0+255),w,b
  2951  0012B2  59C3               	subwfb	(___lwmod@dividend+1)& (0+255),w,b
  2952  0012B4  E304               	bnc	l3350
  2953                           
  2954                           ; BSR set to: 0
  2955  0012B6  51C4               	movf	___lwmod@divisor& (0+255),w,b
  2956  0012B8  5FC2               	subwf	___lwmod@dividend& (0+255),f,b
  2957  0012BA  51C5               	movf	(___lwmod@divisor+1)& (0+255),w,b
  2958  0012BC  5BC3               	subwfb	(___lwmod@dividend+1)& (0+255),f,b
  2959  0012BE                     l3350:
  2960                           
  2961                           ; BSR set to: 0
  2962  0012BE  90D8               	bcf	status,0,c
  2963  0012C0  33C5               	rrcf	(___lwmod@divisor+1)& (0+255),f,b
  2964  0012C2  33C4               	rrcf	___lwmod@divisor& (0+255),f,b
  2965                           
  2966                           ; BSR set to: 0
  2967  0012C4  2FC6               	decfsz	___lwmod@counter& (0+255),f,b
  2968  0012C6  D7F2               	goto	l3346
  2969  0012C8                     l1535:
  2970                           
  2971                           ; BSR set to: 0
  2972  0012C8  C0C2  F0C2         	movff	___lwmod@dividend,?___lwmod
  2973  0012CC  C0C3  F0C3         	movff	___lwmod@dividend+1,?___lwmod+1
  2974                           
  2975                           ; BSR set to: 0
  2976  0012D0  0012               	return	
  2977  0012D2                     __end_of___lwmod:
  2978                           	opt stack 0
  2979                           tblptru	equ	0xFF8
  2980                           tblptrh	equ	0xFF7
  2981                           tblptrl	equ	0xFF6
  2982                           tablat	equ	0xFF5
  2983                           prodl	equ	0xFF3
  2984                           intcon	equ	0xFF2
  2985                           intcon2	equ	0xFF1
  2986                           intcon3	equ	0xFF0
  2987                           postinc0	equ	0xFEE
  2988                           wreg	equ	0xFE8
  2989                           indf1	equ	0xFE7
  2990                           postinc1	equ	0xFE6
  2991                           postdec1	equ	0xFE5
  2992                           fsr1h	equ	0xFE2
  2993                           fsr1l	equ	0xFE1
  2994                           indf2	equ	0xFDF
  2995                           postinc2	equ	0xFDE
  2996                           fsr2h	equ	0xFDA
  2997                           fsr2l	equ	0xFD9
  2998                           status	equ	0xFD8
  2999                           
  3000 ;; *************** function _F_l *****************
  3001 ;; Defined at:
  3002 ;;		line 1431 in file "prog.c"
  3003 ;; Parameters:    Size  Location     Type
  3004 ;;		None
  3005 ;; Auto vars:     Size  Location     Type
  3006 ;;  digit           1   60[COMRAM] unsigned char 
  3007 ;;  symbol          2   65[COMRAM] int 
  3008 ;;  a               2   63[COMRAM] int 
  3009 ;;  _KeyIndex       1   62[COMRAM] unsigned char 
  3010 ;;  data_temp       1   61[COMRAM] unsigned char 
  3011 ;;  line            1   67[COMRAM] unsigned char 
  3012 ;;  MinuteAgo       1   59[COMRAM] unsigned char 
  3013 ;; Return value:  Size  Location     Type
  3014 ;;		None               void
  3015 ;; Registers used:
  3016 ;;		wreg, fsr2l, fsr2h, status,2, status,0, prodl, prodh, cstack
  3017 ;; Tracked objects:
  3018 ;;		On entry : 0/0
  3019 ;;		On exit  : 0/0
  3020 ;;		Unchanged: 0/0
  3021 ;; Data sizes:     COMRAM   BANK0   BANK1   BANK2   BANK3   BANK4   BANK5   BANK6   BANK7   BANK8   BANK9  BANK10  BANK1
      +1  BANK12  BANK13  BANK14  BANK15
  3022 ;;      Params:         0       0       0       0       0       0       0       0       0       0       0       0       
      +0       0       0       0       0
  3023 ;;      Locals:         9       0       0       0       0       0       0       0       0       0       0       0       
      +0       0       0       0       0
  3024 ;;      Temps:         11       0       0       0       0       0       0       0       0       0       0       0       
      +0       0       0       0       0
  3025 ;;      Totals:        20       0       0       0       0       0       0       0       0       0       0       0       
      +0       0       0       0       0
  3026 ;;Total ram usage:       20 bytes
  3027 ;; Hardware stack levels used:    1
  3028 ;; Hardware stack levels required when called:    5
  3029 ;; This function calls:
  3030 ;;		_ConvKeyNum
  3031 ;;		_FillMinutes
  3032 ;;		_SendSymbolToLCD
  3033 ;;		_SignalsOnOff
  3034 ;;		_getLcdCodeOfChar
  3035 ;;		i1_lcd_send_byte
  3036 ;; This function is called by:
  3037 ;;		Interrupt level 1
  3038 ;; This function uses a non-reentrant model
  3039 ;;
  3040                           
  3041                           	psect	intcodelo
  3042  000018                     __pintcodelo:
  3043                           	opt stack 0
  3044  000018                     _F_l:
  3045                           	opt stack 21
  3046                           
  3047                           ; BSR set to: 0
  3048                           ;incstack = 0
  3049  000018  CFD8 F035          	movff	status,??_F_l+4
  3050  00001C  CFE8 F036          	movff	wreg,??_F_l+5
  3051  000020  CFE0 F037          	movff	bsr,??_F_l+6
  3052  000024  CFD9 F038          	movff	fsr2l,??_F_l+7
  3053  000028  CFDA F039          	movff	fsr2h,??_F_l+8
  3054  00002C  CFF3 F03A          	movff	prodl,??_F_l+9
  3055  000030  CFF4 F03B          	movff	prodh,??_F_l+10
  3056  000034  0004               	clrwdt		;# 
  3057                           
  3058                           ;prog.c: 1433: if (TMR1IF) {
  3059  000036  A09E               	btfss	3998,0,c	;volatile
  3060  000038  D0CB               	goto	i1l883
  3061                           
  3062                           ;prog.c: 1434: TMR1IF = 0;
  3063  00003A  909E               	bcf	3998,0,c	;volatile
  3064                           
  3065                           ;prog.c: 1435: TMR1 += 51200;
  3066  00003C  0EC8               	movlw	200
  3067  00003E  26CF               	addwf	4047,f,c	;volatile
  3068                           
  3069                           ;prog.c: 1436: SignalsOnOff();
  3070  000040  EC03  F004         	call	_SignalsOnOff	;wreg free
  3071                           
  3072                           ;prog.c: 1437: char MinuteAgo = (Clock - Minutes > 6000);
  3073  000044  5063               	movf	_Minutes,w,c
  3074  000046  5C5F               	subwf	_Clock,w,c
  3075  000048  6E31               	movwf	??_F_l& (0+255),c
  3076  00004A  5064               	movf	_Minutes+1,w,c
  3077  00004C  5860               	subwfb	_Clock+1,w,c
  3078  00004E  6E32               	movwf	(??_F_l+1)& (0+255),c
  3079  000050  5065               	movf	_Minutes+2,w,c
  3080  000052  5861               	subwfb	_Clock+2,w,c
  3081  000054  6E33               	movwf	(??_F_l+2)& (0+255),c
  3082  000056  5066               	movf	_Minutes+3,w,c
  3083  000058  5862               	subwfb	_Clock+3,w,c
  3084  00005A  6E34               	movwf	(??_F_l+3)& (0+255),c
  3085  00005C  5034               	movf	??_F_l+3,w,c
  3086  00005E  0A80               	xorlw	128
  3087  000060  0F80               	addlw	128
  3088  000062  E108               	bnz	i1u155_25
  3089  000064  0E00               	movlw	0
  3090  000066  5C33               	subwf	??_F_l+2,w,c
  3091  000068  E105               	bnz	i1u155_25
  3092  00006A  0E17               	movlw	23
  3093  00006C  5C32               	subwf	??_F_l+1,w,c
  3094  00006E  E102               	bnz	i1u155_25
  3095  000070  0E71               	movlw	113
  3096  000072  5C31               	subwf	??_F_l,w,c
  3097  000074                     i1u155_25:
  3098  000074  0E01               	movlw	1
  3099  000076  A0D8               	btfss	status,0,c
  3100  000078  0E00               	movlw	0
  3101  00007A  6E3C               	movwf	F_l@MinuteAgo,c
  3102                           
  3103                           ;prog.c: 1438: if (MinuteAgo > 0) {
  3104  00007C  503C               	movf	F_l@MinuteAgo,w,c
  3105  00007E  E004               	bz	i1l4286
  3106                           
  3107                           ;prog.c: 1439: FillMinutes();
  3108  000080  ECF3  F009         	call	_FillMinutes	;wreg free
  3109                           
  3110                           ;prog.c: 1440: flags.RelevanceOfNextStartCell = 0;
  3111  000084  0100               	movlb	0	; () banked
  3112  000086  93C0               	bcf	_flags& (0+255),1,b
  3113  000088                     i1l4286:
  3114                           
  3115                           ;prog.c: 1441: }
  3116                           ;prog.c: 1443: if (flags.LCD_Power_On && (GlobalBlinkCycleTime == 100 || flags.IsLCDModi
      +                          fied)) {
  3117  000088  0100               	movlb	0	; () banked
  3118  00008A  ADC0               	btfss	_flags& (0+255),6,b
  3119  00008C  D057               	goto	i1l4328
  3120                           
  3121                           ; BSR set to: 0
  3122  00008E  5057               	movf	_GlobalBlinkCycleTime,w,c
  3123  000090  0A64               	xorlw	100
  3124  000092  E002               	bz	i1l854
  3125                           
  3126                           ; BSR set to: 0
  3127  000094  A1C1               	btfss	(_flags+1)& (0+255),0,b
  3128  000096  D052               	goto	i1l4328
  3129  000098                     i1l854:
  3130                           
  3131                           ; BSR set to: 0
  3132                           ;prog.c: 1444: for (char line = 0; line < 2; line++) {
  3133  000098  6A44               	clrf	F_l@line,c
  3134  00009A                     i1l855:
  3135                           
  3136                           ; BSR set to: 0
  3137                           ;prog.c: 1445: for (int symbol = 0; symbol < 16; symbol++) {
  3138  00009A  6A42               	clrf	F_l@symbol,c
  3139  00009C  6A43               	clrf	F_l@symbol+1,c
  3140  00009E                     i1l4300:
  3141                           
  3142                           ; BSR set to: 0
  3143                           ;prog.c: 1446: if (GlobalBlinkCycleTime == 100 || digitsAtrib[line][symbol].modifided > 
      +                          0) {
  3144  00009E  5057               	movf	_GlobalBlinkCycleTime,w,c
  3145  0000A0  0A64               	xorlw	100
  3146  0000A2  E009               	bz	i1l4304
  3147                           
  3148                           ; BSR set to: 0
  3149  0000A4  5044               	movf	F_l@line,w,c
  3150  0000A6  0D10               	mullw	16
  3151  0000A8  50F3               	movf	prodl,w,c
  3152  0000AA  0FA0               	addlw	low _digitsAtrib	;volatile
  3153  0000AC  2442               	addwf	F_l@symbol,w,c
  3154  0000AE  6ED9               	movwf	fsr2l,c
  3155  0000B0  6ADA               	clrf	fsr2h,c
  3156  0000B2  A2DF               	btfss	indf2,1,c
  3157  0000B4  D035               	goto	i1l4320
  3158  0000B6                     i1l4304:
  3159                           
  3160                           ; BSR set to: 0
  3161                           ;prog.c: 1447: unsigned char digit = digits[line][symbol];
  3162  0000B6  5044               	movf	F_l@line,w,c
  3163  0000B8  0D10               	mullw	16
  3164  0000BA  50F3               	movf	prodl,w,c
  3165  0000BC  0F80               	addlw	low _digits	;volatile
  3166  0000BE  2442               	addwf	F_l@symbol,w,c
  3167  0000C0  6ED9               	movwf	fsr2l,c
  3168  0000C2  6ADA               	clrf	fsr2h,c
  3169  0000C4  50DF               	movf	indf2,w,c
  3170  0000C6  6E3D               	movwf	F_l@digit,c
  3171                           
  3172                           ; BSR set to: 0
  3173                           ;prog.c: 1448: lcd_send_byte((line * 0x40 + symbol) | 0b10000000);
  3174  0000C8  5044               	movf	F_l@line,w,c
  3175  0000CA  0D40               	mullw	64
  3176  0000CC  50F3               	movf	prodl,w,c
  3177  0000CE  2442               	addwf	F_l@symbol,w,c
  3178  0000D0  0980               	iorlw	128
  3179  0000D2  ECC4  F009         	call	i1_lcd_send_byte
  3180                           
  3181                           ;prog.c: 1449: if (!(digitsAtrib[line][symbol].blink == 0 || digitsAtrib[line][symbol].b
      +                          link == 1 && flags.GlobalBlink)) {
  3182  0000D6  5044               	movf	F_l@line,w,c
  3183  0000D8  0D10               	mullw	16
  3184  0000DA  50F3               	movf	prodl,w,c
  3185  0000DC  0100               	movlb	0	; () banked
  3186  0000DE  0FA0               	addlw	low _digitsAtrib	;volatile
  3187  0000E0  2442               	addwf	F_l@symbol,w,c
  3188  0000E2  6ED9               	movwf	fsr2l,c
  3189  0000E4  6ADA               	clrf	fsr2h,c
  3190  0000E6  A0DF               	btfss	indf2,0,c
  3191  0000E8  D00D               	goto	i1l4316
  3192                           
  3193                           ; BSR set to: 0
  3194  0000EA  5044               	movf	F_l@line,w,c
  3195  0000EC  0D10               	mullw	16
  3196  0000EE  50F3               	movf	prodl,w,c
  3197  0000F0  0FA0               	addlw	low _digitsAtrib	;volatile
  3198  0000F2  2442               	addwf	F_l@symbol,w,c
  3199  0000F4  6ED9               	movwf	fsr2l,c
  3200  0000F6  6ADA               	clrf	fsr2h,c
  3201  0000F8  A0DF               	btfss	indf2,0,c
  3202  0000FA  D002               	goto	i1l4314
  3203                           
  3204                           ; BSR set to: 0
  3205  0000FC  B3C1               	btfsc	(_flags+1)& (0+255),1,b
  3206  0000FE  D002               	goto	i1l4316
  3207  000100                     i1l4314:
  3208                           
  3209                           ; BSR set to: 0
  3210                           ;prog.c: 1450: digit = '_';
  3211  000100  0E5F               	movlw	95
  3212  000102  6E3D               	movwf	F_l@digit,c
  3213  000104                     i1l4316:
  3214                           
  3215                           ; BSR set to: 0
  3216                           ;prog.c: 1451: }
  3217                           ;prog.c: 1452: SendSymbolToLCD(getLcdCodeOfChar(digit));
  3218  000104  503D               	movf	F_l@digit,w,c
  3219  000106  ECF9  F000         	call	_getLcdCodeOfChar
  3220  00010A  ECAB  F007         	call	_SendSymbolToLCD
  3221                           
  3222                           ;prog.c: 1453: digitsAtrib[line][symbol].modifided = 0;
  3223  00010E  5044               	movf	F_l@line,w,c
  3224  000110  0D10               	mullw	16
  3225  000112  50F3               	movf	prodl,w,c
  3226  000114  0100               	movlb	0	; () banked
  3227  000116  0FA0               	addlw	low _digitsAtrib	;volatile
  3228  000118  2442               	addwf	F_l@symbol,w,c
  3229  00011A  6ED9               	movwf	fsr2l,c
  3230  00011C  6ADA               	clrf	fsr2h,c
  3231  00011E  92DF               	bcf	indf2,1,c
  3232  000120                     i1l4320:
  3233                           
  3234                           ; BSR set to: 0
  3235  000120  4A42               	infsnz	F_l@symbol,f,c
  3236  000122  2A43               	incf	F_l@symbol+1,f,c
  3237                           
  3238                           ; BSR set to: 0
  3239  000124  5043               	movf	F_l@symbol+1,w,c
  3240  000126  0A80               	xorlw	128
  3241  000128  0F80               	addlw	-128
  3242  00012A  0E10               	movlw	16
  3243  00012C  B4D8               	btfsc	status,2,c
  3244  00012E  5C42               	subwf	F_l@symbol,w,c
  3245  000130  E3B6               	bnc	i1l4300
  3246                           
  3247                           ; BSR set to: 0
  3248  000132  2A44               	incf	F_l@line,f,c
  3249                           
  3250                           ; BSR set to: 0
  3251  000134  0E01               	movlw	1
  3252  000136  6444               	cpfsgt	F_l@line,c
  3253  000138  D7B0               	goto	i1l855
  3254                           
  3255                           ; BSR set to: 0
  3256                           ;prog.c: 1454: }
  3257                           ;prog.c: 1455: }
  3258                           ;prog.c: 1456: }
  3259                           ;prog.c: 1457: flags.IsLCDModified = 0;
  3260  00013A  91C1               	bcf	(_flags+1)& (0+255),0,b
  3261  00013C                     i1l4328:
  3262                           
  3263                           ; BSR set to: 0
  3264                           ;prog.c: 1458: }
  3265                           ;prog.c: 1460: if (GlobalBlinkCycleTime > 0) {
  3266  00013C  5057               	movf	_GlobalBlinkCycleTime,w,c
  3267  00013E  E002               	bz	i1l865
  3268                           
  3269                           ; BSR set to: 0
  3270                           ;prog.c: 1461: GlobalBlinkCycleTime--;
  3271  000140  0657               	decf	_GlobalBlinkCycleTime,f,c
  3272                           
  3273                           ;prog.c: 1462: } else {
  3274  000142  D00D               	goto	i1l4336
  3275  000144                     i1l865:
  3276                           
  3277                           ; BSR set to: 0
  3278                           ;prog.c: 1463: flags.IsLCDModified = 1;
  3279  000144  81C1               	bsf	(_flags+1)& (0+255),0,b
  3280                           
  3281                           ; BSR set to: 0
  3282                           ;prog.c: 1464: GlobalBlinkCycleTime = 100;
  3283  000146  0E64               	movlw	100
  3284  000148  6E57               	movwf	_GlobalBlinkCycleTime,c
  3285  00014A  0E01               	movlw	1
  3286                           
  3287                           ; BSR set to: 0
  3288                           ;prog.c: 1465: flags.GlobalBlink = !flags.GlobalBlink;
  3289  00014C  B3C1               	btfsc	(_flags+1)& (0+255),1,b
  3290  00014E  0E00               	movlw	0
  3291  000150  6E31               	movwf	??_F_l& (0+255),c
  3292  000152  4631               	rlncf	??_F_l,f,c
  3293  000154  51C1               	movf	(_flags+1)& (0+255),w,b
  3294  000156  1831               	xorwf	??_F_l,w,c
  3295  000158  0BFD               	andlw	-3
  3296  00015A  1831               	xorwf	??_F_l,w,c
  3297  00015C  6FC1               	movwf	(_flags+1)& (0+255),b
  3298  00015E                     i1l4336:
  3299                           
  3300                           ; BSR set to: 0
  3301                           ;prog.c: 1468: }
  3302                           ;prog.c: 1470: static unsigned char ButtonPressTimeOut;
  3303                           ;prog.c: 1472: static unsigned char KeyIndex;
  3304                           ;prog.c: 1473: static unsigned char PressedKeyIndex = 0xFF;
  3305                           ;prog.c: 1475: if (ButtonPressTimeOut > 0) {
  3306  00015E  506B               	movf	F_l@ButtonPressTimeOut,w,c
  3307  000160  E002               	bz	i1l873
  3308                           
  3309                           ; BSR set to: 0
  3310                           ;prog.c: 1476: ButtonPressTimeOut--;
  3311  000162  066B               	decf	F_l@ButtonPressTimeOut,f,c
  3312                           
  3313                           ;prog.c: 1477: } else {
  3314  000164  D034               	goto	i1l4380
  3315  000166                     i1l873:
  3316                           
  3317                           ; BSR set to: 0
  3318                           ;prog.c: 1478: KeyCode = 0;
  3319  000166  0101               	movlb	1	; () banked
  3320  000168  6BD1               	clrf	_KeyCode& (0+255),b	;volatile
  3321                           
  3322                           ;prog.c: 1479: if (RB7) {
  3323  00016A  AE81               	btfss	3969,7,c	;volatile
  3324  00016C  D026               	goto	i1l4372
  3325                           
  3326                           ; BSR set to: 1
  3327                           ;prog.c: 1480: if (KeyIndex == 0x0F) {
  3328  00016E  506C               	movf	F_l@KeyIndex,w,c
  3329  000170  0A0F               	xorlw	15
  3330  000172  E102               	bnz	i1l4344
  3331                           
  3332                           ; BSR set to: 1
  3333                           ;prog.c: 1481: KeyIndex = 0;
  3334  000174  6A6C               	clrf	F_l@KeyIndex,c
  3335                           
  3336                           ;prog.c: 1482: } else {
  3337  000176  D001               	goto	i1l4346
  3338  000178                     i1l4344:
  3339                           
  3340                           ; BSR set to: 1
  3341                           ;prog.c: 1483: KeyIndex++;
  3342  000178  2A6C               	incf	F_l@KeyIndex,f,c
  3343  00017A                     i1l4346:
  3344                           
  3345                           ; BSR set to: 1
  3346                           ;prog.c: 1484: }
  3347                           ;prog.c: 1485: unsigned char data_temp = KeyIndex;
  3348  00017A  C06C  F03E         	movff	F_l@KeyIndex,F_l@data_temp
  3349                           
  3350                           ; BSR set to: 1
  3351                           ;prog.c: 1486: unsigned char _KeyIndex = 0;
  3352  00017E  6A3F               	clrf	F_l@_KeyIndex,c
  3353                           
  3354                           ; BSR set to: 1
  3355                           ;prog.c: 1487: for (int a = 4; a > 0; a--) {
  3356  000180  6A41               	clrf	F_l@a+1,c
  3357  000182  0E04               	movlw	4
  3358  000184  6E40               	movwf	F_l@a,c
  3359  000186                     i1l4356:
  3360                           
  3361                           ;prog.c: 1488: _KeyIndex *= 2;
  3362  000186  0E02               	movlw	2
  3363  000188  023F               	mulwf	F_l@_KeyIndex,c
  3364  00018A  50F3               	movf	prodl,w,c
  3365  00018C  6E3F               	movwf	F_l@_KeyIndex,c
  3366                           
  3367                           ;prog.c: 1489: if (data_temp % 2 == 1) {
  3368  00018E  B03E               	btfsc	F_l@data_temp,0,c
  3369                           
  3370                           ;prog.c: 1490: _KeyIndex++;
  3371  000190  2A3F               	incf	F_l@_KeyIndex,f,c
  3372                           
  3373                           ;prog.c: 1491: }
  3374                           ;prog.c: 1492: data_temp /= 2;
  3375  000192  90D8               	bcf	status,0,c
  3376  000194  323E               	rrcf	F_l@data_temp,f,c
  3377  000196  0640               	decf	F_l@a,f,c
  3378  000198  A0D8               	btfss	status,0,c
  3379  00019A  0641               	decf	F_l@a+1,f,c
  3380  00019C  5041               	movf	F_l@a+1,w,c
  3381  00019E  0A80               	xorlw	128
  3382  0001A0  6EF3               	movwf	prodl,c
  3383  0001A2  0E80               	movlw	128
  3384  0001A4  5CF3               	subwf	prodl,w,c
  3385  0001A6  0E01               	movlw	1
  3386  0001A8  B4D8               	btfsc	status,2,c
  3387  0001AA  5C40               	subwf	F_l@a,w,c
  3388  0001AC  E2EC               	bc	i1l4356
  3389                           
  3390                           ;prog.c: 1493: }
  3391                           ;prog.c: 1495: PORTB = _KeyIndex * 2;
  3392  0001AE  503F               	movf	F_l@_KeyIndex,w,c
  3393  0001B0  0D02               	mullw	2
  3394  0001B2  CFF3 FF81          	movff	prodl,3969	;volatile
  3395                           
  3396                           ;prog.c: 1496: PressedKeyIndex = 0xFF;
  3397  0001B6  6856               	setf	F_l@PressedKeyIndex,c
  3398                           
  3399                           ;prog.c: 1497: } else {
  3400  0001B8  D00A               	goto	i1l4380
  3401  0001BA                     i1l4372:
  3402                           
  3403                           ; BSR set to: 1
  3404                           ;prog.c: 1498: if (PressedKeyIndex == 0xFF) {
  3405  0001BA  2856               	incf	F_l@PressedKeyIndex,w,c
  3406  0001BC  E108               	bnz	i1l4380
  3407                           
  3408                           ; BSR set to: 1
  3409                           ;prog.c: 1499: PressedKeyIndex = KeyIndex;
  3410  0001BE  C06C  F056         	movff	F_l@KeyIndex,F_l@PressedKeyIndex
  3411                           
  3412                           ; BSR set to: 1
  3413                           ;prog.c: 1500: KeyCode = ConvKeyNum(PressedKeyIndex);
  3414  0001C2  5056               	movf	F_l@PressedKeyIndex,w,c
  3415  0001C4  ECF3  F006         	call	_ConvKeyNum
  3416  0001C8  6FD1               	movwf	_KeyCode& (0+255),b	;volatile
  3417                           
  3418                           ; BSR set to: 1
  3419                           ;prog.c: 1501: ButtonPressTimeOut = 30;
  3420  0001CA  0E1E               	movlw	30
  3421  0001CC  6E6B               	movwf	F_l@ButtonPressTimeOut,c
  3422  0001CE                     i1l4380:
  3423                           
  3424                           ;prog.c: 1502: }
  3425                           ;prog.c: 1503: }
  3426                           ;prog.c: 1504: }
  3427                           ;prog.c: 1505: T0IF = 0;
  3428  0001CE  94F2               	bcf	intcon,2,c	;volatile
  3429  0001D0                     i1l883:
  3430  0001D0  C03B  FFF4         	movff	??_F_l+10,prodh
  3431  0001D4  C03A  FFF3         	movff	??_F_l+9,prodl
  3432  0001D8  C039  FFDA         	movff	??_F_l+8,fsr2h
  3433  0001DC  C038  FFD9         	movff	??_F_l+7,fsr2l
  3434  0001E0  C037  FFE0         	movff	??_F_l+6,bsr
  3435  0001E4  C036  FFE8         	movff	??_F_l+5,wreg
  3436  0001E8  C035  FFD8         	movff	??_F_l+4,status
  3437  0001EC  0010               	retfie	
  3438  0001EE                     __end_of_F_l:
  3439                           	opt stack 0
  3440                           tblptru	equ	0xFF8
  3441                           tblptrh	equ	0xFF7
  3442                           tblptrl	equ	0xFF6
  3443                           tablat	equ	0xFF5
  3444                           prodh	equ	0xFF4
  3445                           prodl	equ	0xFF3
  3446                           intcon	equ	0xFF2
  3447                           intcon2	equ	0xFF1
  3448                           intcon3	equ	0xFF0
  3449                           postinc0	equ	0xFEE
  3450                           wreg	equ	0xFE8
  3451                           indf1	equ	0xFE7
  3452                           postinc1	equ	0xFE6
  3453                           postdec1	equ	0xFE5
  3454                           fsr1h	equ	0xFE2
  3455                           fsr1l	equ	0xFE1
  3456                           bsr	equ	0xFE0
  3457                           indf2	equ	0xFDF
  3458                           postinc2	equ	0xFDE
  3459                           fsr2h	equ	0xFDA
  3460                           fsr2l	equ	0xFD9
  3461                           status	equ	0xFD8
  3462                           
  3463 ;; *************** function i1_lcd_send_byte *****************
  3464 ;; Defined at:
  3465 ;;		line 863 in file "prog.c"
  3466 ;; Parameters:    Size  Location     Type
  3467 ;;  data            1    wreg     unsigned char 
  3468 ;; Auto vars:     Size  Location     Type
  3469 ;;  data            1    3[COMRAM] unsigned char 
  3470 ;; Return value:  Size  Location     Type
  3471 ;;		None               void
  3472 ;; Registers used:
  3473 ;;		wreg, status,2, status,0, prodl, prodh, cstack
  3474 ;; Tracked objects:
  3475 ;;		On entry : F/0
  3476 ;;		On exit  : 0/0
  3477 ;;		Unchanged: 0/0
  3478 ;; Data sizes:     COMRAM   BANK0   BANK1   BANK2   BANK3   BANK4   BANK5   BANK6   BANK7   BANK8   BANK9  BANK10  BANK1
      +1  BANK12  BANK13  BANK14  BANK15
  3479 ;;      Params:         0       0       0       0       0       0       0       0       0       0       0       0       
      +0       0       0       0       0
  3480 ;;      Locals:         1       0       0       0       0       0       0       0       0       0       0       0       
      +0       0       0       0       0
  3481 ;;      Temps:          0       0       0       0       0       0       0       0       0       0       0       0       
      +0       0       0       0       0
  3482 ;;      Totals:         1       0       0       0       0       0       0       0       0       0       0       0       
      +0       0       0       0       0
  3483 ;;Total ram usage:        1 bytes
  3484 ;; Hardware stack levels used:    1
  3485 ;; Hardware stack levels required when called:    2
  3486 ;; This function calls:
  3487 ;;		i1_lcd_send_initial_half_byte
  3488 ;; This function is called by:
  3489 ;;		_F_l
  3490 ;; This function uses a non-reentrant model
  3491 ;;
  3492                           
  3493                           	psect	text13
  3494  001388                     __ptext13:
  3495                           	opt stack 0
  3496  001388                     i1_lcd_send_byte:
  3497                           	opt stack 23
  3498                           
  3499                           ;incstack = 0
  3500                           ;i1lcd_send_byte@data stored from wreg
  3501  001388  6E04               	movwf	i1lcd_send_byte@data,c
  3502                           
  3503                           ; BSR set to: 0
  3504                           ;prog.c: 864: lcd_send_initial_half_byte((data & 0b11110000) / 16);
  3505  00138A  3804               	swapf	i1lcd_send_byte@data,w,c
  3506  00138C  0B0F               	andlw	15
  3507  00138E  ECB0  F009         	call	i1_lcd_send_initial_half_byte
  3508                           
  3509                           ; BSR set to: 0
  3510                           ;prog.c: 865: _delay((unsigned long)((40)*(39400000/4000000.0)));
  3511  001392  0E83               	movlw	131
  3512  001394                     i1u187_27:
  3513  001394  2EE8               	decfsz	wreg,f,c
  3514  001396  D7FE               	goto	i1u187_27
  3515  001398  F000               	nop	
  3516                           
  3517                           ;prog.c: 866: lcd_send_initial_half_byte(data & 0b00001111);
  3518  00139A  5004               	movf	i1lcd_send_byte@data,w,c
  3519  00139C  0B0F               	andlw	15
  3520  00139E  ECB0  F009         	call	i1_lcd_send_initial_half_byte
  3521                           
  3522                           ;prog.c: 867: _delay((unsigned long)((40)*(39400000/4000000.0)));
  3523  0013A2  0E83               	movlw	131
  3524  0013A4                     i1u188_27:
  3525  0013A4  2EE8               	decfsz	wreg,f,c
  3526  0013A6  D7FE               	goto	i1u188_27
  3527  0013A8  F000               	nop	
  3528  0013AA  0012               	return	
  3529  0013AC                     __end_ofi1_lcd_send_byte:
  3530                           	opt stack 0
  3531                           tblptru	equ	0xFF8
  3532                           tblptrh	equ	0xFF7
  3533                           tblptrl	equ	0xFF6
  3534                           tablat	equ	0xFF5
  3535                           prodh	equ	0xFF4
  3536                           prodl	equ	0xFF3
  3537                           intcon	equ	0xFF2
  3538                           intcon2	equ	0xFF1
  3539                           intcon3	equ	0xFF0
  3540                           postinc0	equ	0xFEE
  3541                           wreg	equ	0xFE8
  3542                           indf1	equ	0xFE7
  3543                           postinc1	equ	0xFE6
  3544                           postdec1	equ	0xFE5
  3545                           fsr1h	equ	0xFE2
  3546                           fsr1l	equ	0xFE1
  3547                           bsr	equ	0xFE0
  3548                           indf2	equ	0xFDF
  3549                           postinc2	equ	0xFDE
  3550                           fsr2h	equ	0xFDA
  3551                           fsr2l	equ	0xFD9
  3552                           status	equ	0xFD8
  3553                           
  3554 ;; *************** function i1_lcd_send_initial_half_byte *****************
  3555 ;; Defined at:
  3556 ;;		line 856 in file "prog.c"
  3557 ;; Parameters:    Size  Location     Type
  3558 ;;  data            1    wreg     unsigned char 
  3559 ;; Auto vars:     Size  Location     Type
  3560 ;;  data            1    0[COMRAM] unsigned char 
  3561 ;; Return value:  Size  Location     Type
  3562 ;;		None               void
  3563 ;; Registers used:
  3564 ;;		wreg, status,2, status,0, prodl, prodh
  3565 ;; Tracked objects:
  3566 ;;		On entry : 0/0
  3567 ;;		On exit  : F/0
  3568 ;;		Unchanged: 0/0
  3569 ;; Data sizes:     COMRAM   BANK0   BANK1   BANK2   BANK3   BANK4   BANK5   BANK6   BANK7   BANK8   BANK9  BANK10  BANK1
      +1  BANK12  BANK13  BANK14  BANK15
  3570 ;;      Params:         0       0       0       0       0       0       0       0       0       0       0       0       
      +0       0       0       0       0
  3571 ;;      Locals:         3       0       0       0       0       0       0       0       0       0       0       0       
      +0       0       0       0       0
  3572 ;;      Temps:          0       0       0       0       0       0       0       0       0       0       0       0       
      +0       0       0       0       0
  3573 ;;      Totals:         3       0       0       0       0       0       0       0       0       0       0       0       
      +0       0       0       0       0
  3574 ;;Total ram usage:        3 bytes
  3575 ;; Hardware stack levels used:    1
  3576 ;; Hardware stack levels required when called:    1
  3577 ;; This function calls:
  3578 ;;		Nothing
  3579 ;; This function is called by:
  3580 ;;		i1_lcd_send_byte
  3581 ;; This function uses a non-reentrant model
  3582 ;;
  3583                           
  3584                           	psect	text14
  3585  001360                     __ptext14:
  3586                           	opt stack 0
  3587  001360                     i1_lcd_send_initial_half_byte:
  3588                           	opt stack 23
  3589                           
  3590                           ;incstack = 0
  3591                           ;i1lcd_send_initial_half_byte@data stored from wreg
  3592  001360  6E01               	movwf	i1lcd_send_initial_half_byte@data,c
  3593                           
  3594                           ;prog.c: 857: RC2 = 0;
  3595  001362  9482               	bcf	3970,2,c	;volatile
  3596                           
  3597                           ;prog.c: 858: PORTA = (0b00011110 & (data * 2)) | (flags.LCD_Light_On == 1 ? 0b00100000 
      +                          : 0b00000000);
  3598  001364  0100               	movlb	0	; () banked
  3599  001366  BBC0               	btfsc	_flags& (0+255),5,b
  3600  001368  D003               	goto	i1l3358
  3601                           
  3602                           ; BSR set to: 0
  3603  00136A  6A02               	clrf	i1_lcd_send_initial_half_byte$955,c
  3604  00136C  6A03               	clrf	i1_lcd_send_initial_half_byte$955+1,c
  3605  00136E  D003               	goto	i1l3360
  3606  001370                     i1l3358:
  3607                           
  3608                           ; BSR set to: 0
  3609  001370  6A03               	clrf	i1_lcd_send_initial_half_byte$955+1,c
  3610  001372  0E20               	movlw	32
  3611  001374  6E02               	movwf	i1_lcd_send_initial_half_byte$955,c
  3612  001376                     i1l3360:
  3613                           
  3614                           ; BSR set to: 0
  3615  001376  5001               	movf	i1lcd_send_initial_half_byte@data,w,c
  3616  001378  0D02               	mullw	2
  3617  00137A  50F3               	movf	prodl,w,c
  3618  00137C  0B1E               	andlw	30
  3619  00137E  1002               	iorwf	i1_lcd_send_initial_half_byte$955,w,c
  3620  001380  6E80               	movwf	3968,c	;volatile
  3621                           
  3622                           ; BSR set to: 0
  3623                           ;prog.c: 859: RC0 = 1;
  3624  001382  8082               	bsf	3970,0,c	;volatile
  3625                           
  3626                           ; BSR set to: 0
  3627                           ;prog.c: 860: RC0 = 0;
  3628  001384  9082               	bcf	3970,0,c	;volatile
  3629                           
  3630                           ; BSR set to: 0
  3631  001386  0012               	return	
  3632  001388                     __end_ofi1_lcd_send_initial_half_byte:
  3633                           	opt stack 0
  3634                           tblptru	equ	0xFF8
  3635                           tblptrh	equ	0xFF7
  3636                           tblptrl	equ	0xFF6
  3637                           tablat	equ	0xFF5
  3638                           prodh	equ	0xFF4
  3639                           prodl	equ	0xFF3
  3640                           intcon	equ	0xFF2
  3641                           intcon2	equ	0xFF1
  3642                           intcon3	equ	0xFF0
  3643                           postinc0	equ	0xFEE
  3644                           wreg	equ	0xFE8
  3645                           indf1	equ	0xFE7
  3646                           postinc1	equ	0xFE6
  3647                           postdec1	equ	0xFE5
  3648                           fsr1h	equ	0xFE2
  3649                           fsr1l	equ	0xFE1
  3650                           bsr	equ	0xFE0
  3651                           indf2	equ	0xFDF
  3652                           postinc2	equ	0xFDE
  3653                           fsr2h	equ	0xFDA
  3654                           fsr2l	equ	0xFD9
  3655                           status	equ	0xFD8
  3656                           
  3657 ;; *************** function _getLcdCodeOfChar *****************
  3658 ;; Defined at:
  3659 ;;		line 201 in file "prog.c"
  3660 ;; Parameters:    Size  Location     Type
  3661 ;;  dig             1    wreg     unsigned char 
  3662 ;; Auto vars:     Size  Location     Type
  3663 ;;  dig             1    0[COMRAM] unsigned char 
  3664 ;; Return value:  Size  Location     Type
  3665 ;;                  1    wreg      unsigned char 
  3666 ;; Registers used:
  3667 ;;		wreg, status,2, status,0
  3668 ;; Tracked objects:
  3669 ;;		On entry : F/0
  3670 ;;		On exit  : F/0
  3671 ;;		Unchanged: F/0
  3672 ;; Data sizes:     COMRAM   BANK0   BANK1   BANK2   BANK3   BANK4   BANK5   BANK6   BANK7   BANK8   BANK9  BANK10  BANK1
      +1  BANK12  BANK13  BANK14  BANK15
  3673 ;;      Params:         0       0       0       0       0       0       0       0       0       0       0       0       
      +0       0       0       0       0
  3674 ;;      Locals:         1       0       0       0       0       0       0       0       0       0       0       0       
      +0       0       0       0       0
  3675 ;;      Temps:          0       0       0       0       0       0       0       0       0       0       0       0       
      +0       0       0       0       0
  3676 ;;      Totals:         1       0       0       0       0       0       0       0       0       0       0       0       
      +0       0       0       0       0
  3677 ;;Total ram usage:        1 bytes
  3678 ;; Hardware stack levels used:    1
  3679 ;; Hardware stack levels required when called:    1
  3680 ;; This function calls:
  3681 ;;		Nothing
  3682 ;; This function is called by:
  3683 ;;		_F_l
  3684 ;; This function uses a non-reentrant model
  3685 ;;
  3686                           
  3687                           	psect	text15
  3688  0001F2                     __ptext15:
  3689                           	opt stack 0
  3690  0001F2                     _getLcdCodeOfChar:
  3691                           	opt stack 24
  3692                           
  3693                           ; BSR set to: 0
  3694                           ;incstack = 0
  3695                           ;getLcdCodeOfChar@dig stored from wreg
  3696  0001F2  6E01               	movwf	getLcdCodeOfChar@dig,c
  3697                           
  3698                           ; BSR set to: 0
  3699                           ;prog.c: 202: switch (dig) {
  3700  0001F4  D11C               	goto	i1l4046
  3701  0001F6                     i1l3388:
  3702                           
  3703                           ; BSR set to: 0
  3704  0001F6  0E20               	movlw	32
  3705  0001F8  D305               	goto	i1l221
  3706  0001FA                     i1l3392:
  3707                           
  3708                           ; BSR set to: 0
  3709  0001FA  0E30               	movlw	48
  3710  0001FC  D303               	goto	i1l221
  3711  0001FE                     i1l3396:
  3712                           
  3713                           ; BSR set to: 0
  3714  0001FE  0E31               	movlw	49
  3715  000200  D301               	goto	i1l221
  3716  000202                     i1l3400:
  3717                           
  3718                           ; BSR set to: 0
  3719  000202  0E32               	movlw	50
  3720  000204  D2FF               	goto	i1l221
  3721  000206                     i1l3404:
  3722                           
  3723                           ; BSR set to: 0
  3724  000206  0E33               	movlw	51
  3725  000208  D2FD               	goto	i1l221
  3726  00020A                     i1l3408:
  3727                           
  3728                           ; BSR set to: 0
  3729  00020A  0E34               	movlw	52
  3730  00020C  D2FB               	goto	i1l221
  3731  00020E                     i1l3412:
  3732                           
  3733                           ; BSR set to: 0
  3734  00020E  0E35               	movlw	53
  3735  000210  D2F9               	goto	i1l221
  3736  000212                     i1l3416:
  3737                           
  3738                           ; BSR set to: 0
  3739  000212  0E36               	movlw	54
  3740  000214  D2F7               	goto	i1l221
  3741  000216                     i1l3420:
  3742                           
  3743                           ; BSR set to: 0
  3744  000216  0E37               	movlw	55
  3745  000218  D2F5               	goto	i1l221
  3746  00021A                     i1l3424:
  3747                           
  3748                           ; BSR set to: 0
  3749  00021A  0E38               	movlw	56
  3750  00021C  D2F3               	goto	i1l221
  3751  00021E                     i1l3428:
  3752                           
  3753                           ; BSR set to: 0
  3754  00021E  0E39               	movlw	57
  3755  000220  D2F1               	goto	i1l221
  3756  000222                     i1l3432:
  3757                           
  3758                           ; BSR set to: 0
  3759  000222  0E2D               	movlw	45
  3760  000224  D2EF               	goto	i1l221
  3761  000226                     i1l3440:
  3762                           
  3763                           ; BSR set to: 0
  3764  000226  0E21               	movlw	33
  3765  000228  D2ED               	goto	i1l221
  3766  00022A                     i1l3444:
  3767                           
  3768                           ; BSR set to: 0
  3769  00022A  0E22               	movlw	34
  3770  00022C  D2EB               	goto	i1l221
  3771  00022E                     i1l3448:
  3772                           
  3773                           ; BSR set to: 0
  3774  00022E  0E23               	movlw	35
  3775  000230  D2E9               	goto	i1l221
  3776  000232                     i1l3452:
  3777                           
  3778                           ; BSR set to: 0
  3779  000232  0E24               	movlw	36
  3780  000234  D2E7               	goto	i1l221
  3781  000236                     i1l3456:
  3782                           
  3783                           ; BSR set to: 0
  3784  000236  0E25               	movlw	37
  3785  000238  D2E5               	goto	i1l221
  3786  00023A                     i1l3460:
  3787                           
  3788                           ; BSR set to: 0
  3789  00023A  0E26               	movlw	38
  3790  00023C  D2E3               	goto	i1l221
  3791  00023E                     i1l3464:
  3792                           
  3793                           ; BSR set to: 0
  3794  00023E  0E28               	movlw	40
  3795  000240  D2E1               	goto	i1l221
  3796  000242                     i1l3468:
  3797                           
  3798                           ; BSR set to: 0
  3799  000242  0E29               	movlw	41
  3800  000244  D2DF               	goto	i1l221
  3801  000246                     i1l3472:
  3802                           
  3803                           ; BSR set to: 0
  3804  000246  0E2A               	movlw	42
  3805  000248  D2DD               	goto	i1l221
  3806  00024A                     i1l3476:
  3807                           
  3808                           ; BSR set to: 0
  3809  00024A  0E2C               	movlw	44
  3810  00024C  D2DB               	goto	i1l221
  3811  00024E                     i1l3480:
  3812                           
  3813                           ; BSR set to: 0
  3814  00024E  0E2E               	movlw	46
  3815  000250  D2D9               	goto	i1l221
  3816  000252                     i1l3484:
  3817                           
  3818                           ; BSR set to: 0
  3819  000252  0E2F               	movlw	47
  3820  000254  D2D7               	goto	i1l221
  3821  000256                     i1l3488:
  3822                           
  3823                           ; BSR set to: 0
  3824  000256  0E3A               	movlw	58
  3825  000258  D2D5               	goto	i1l221
  3826  00025A                     i1l3492:
  3827                           
  3828                           ; BSR set to: 0
  3829  00025A  0E3B               	movlw	59
  3830  00025C  D2D3               	goto	i1l221
  3831  00025E                     i1l3496:
  3832                           
  3833                           ; BSR set to: 0
  3834  00025E  0E3F               	movlw	63
  3835  000260  D2D1               	goto	i1l221
  3836  000262                     i1l3500:
  3837                           
  3838                           ; BSR set to: 0
  3839  000262  0E40               	movlw	64
  3840  000264  D2CF               	goto	i1l221
  3841  000266                     i1l3504:
  3842                           
  3843                           ; BSR set to: 0
  3844  000266  0E5B               	movlw	91
  3845  000268  D2CD               	goto	i1l221
  3846  00026A                     i1l3508:
  3847                           
  3848                           ; BSR set to: 0
  3849  00026A  0E5D               	movlw	93
  3850  00026C  D2CB               	goto	i1l221
  3851  00026E                     i1l3512:
  3852                           
  3853                           ; BSR set to: 0
  3854  00026E  0E5E               	movlw	94
  3855  000270  D2C9               	goto	i1l221
  3856  000272                     i1l3516:
  3857                           
  3858                           ; BSR set to: 0
  3859  000272  0E5F               	movlw	95
  3860  000274  D2C7               	goto	i1l221
  3861  000276                     i1l3520:
  3862                           
  3863                           ; BSR set to: 0
  3864  000276  0E60               	movlw	96
  3865  000278  D2C5               	goto	i1l221
  3866  00027A                     i1l3524:
  3867                           
  3868                           ; BSR set to: 0
  3869  00027A  0E27               	movlw	39
  3870  00027C  D2C3               	goto	i1l221
  3871  00027E                     i1l3528:
  3872                           
  3873                           ; BSR set to: 0
  3874  00027E  0E2B               	movlw	43
  3875  000280  D2C1               	goto	i1l221
  3876  000282                     i1l3532:
  3877                           
  3878                           ; BSR set to: 0
  3879  000282  0E3C               	movlw	60
  3880  000284  D2BF               	goto	i1l221
  3881  000286                     i1l3536:
  3882                           
  3883                           ; BSR set to: 0
  3884  000286  0E3D               	movlw	61
  3885  000288  D2BD               	goto	i1l221
  3886  00028A                     i1l3540:
  3887                           
  3888                           ; BSR set to: 0
  3889  00028A  0E3E               	movlw	62
  3890  00028C  D2BB               	goto	i1l221
  3891  00028E                     i1l3544:
  3892                           
  3893                           ; BSR set to: 0
  3894  00028E  0EEF               	movlw	239
  3895  000290  D2B9               	goto	i1l221
  3896  000292                     i1l3548:
  3897                           
  3898                           ; BSR set to: 0
  3899  000292  0EC8               	movlw	200
  3900  000294  D2B7               	goto	i1l221
  3901  000296                     i1l3552:
  3902                           
  3903                           ; BSR set to: 0
  3904  000296  0EC9               	movlw	201
  3905  000298  D2B5               	goto	i1l221
  3906  00029A                     i1l3560:
  3907                           
  3908                           ; BSR set to: 0
  3909  00029A  0EE9               	movlw	233
  3910  00029C  D2B3               	goto	i1l221
  3911  00029E                     i1l3564:
  3912                           
  3913                           ; BSR set to: 0
  3914  00029E  0E41               	movlw	65
  3915  0002A0  D2B1               	goto	i1l221
  3916  0002A2                     i1l3568:
  3917                           
  3918                           ; BSR set to: 0
  3919  0002A2  0E61               	movlw	97
  3920  0002A4  D2AF               	goto	i1l221
  3921  0002A6                     i1l3572:
  3922                           
  3923                           ; BSR set to: 0
  3924  0002A6  0E42               	movlw	66
  3925  0002A8  D2AD               	goto	i1l221
  3926  0002AA                     i1l3576:
  3927                           
  3928                           ; BSR set to: 0
  3929  0002AA  0E62               	movlw	98
  3930  0002AC  D2AB               	goto	i1l221
  3931  0002AE                     i1l3580:
  3932                           
  3933                           ; BSR set to: 0
  3934  0002AE  0E43               	movlw	67
  3935  0002B0  D2A9               	goto	i1l221
  3936  0002B2                     i1l3584:
  3937                           
  3938                           ; BSR set to: 0
  3939  0002B2  0E63               	movlw	99
  3940  0002B4  D2A7               	goto	i1l221
  3941  0002B6                     i1l3588:
  3942                           
  3943                           ; BSR set to: 0
  3944  0002B6  0E44               	movlw	68
  3945  0002B8  D2A5               	goto	i1l221
  3946  0002BA                     i1l3592:
  3947                           
  3948                           ; BSR set to: 0
  3949  0002BA  0E64               	movlw	100
  3950  0002BC  D2A3               	goto	i1l221
  3951  0002BE                     i1l3596:
  3952                           
  3953                           ; BSR set to: 0
  3954  0002BE  0E45               	movlw	69
  3955  0002C0  D2A1               	goto	i1l221
  3956  0002C2                     i1l3600:
  3957                           
  3958                           ; BSR set to: 0
  3959  0002C2  0E65               	movlw	101
  3960  0002C4  D29F               	goto	i1l221
  3961  0002C6                     i1l3604:
  3962                           
  3963                           ; BSR set to: 0
  3964  0002C6  0E46               	movlw	70
  3965  0002C8  D29D               	goto	i1l221
  3966  0002CA                     i1l3608:
  3967                           
  3968                           ; BSR set to: 0
  3969  0002CA  0E66               	movlw	102
  3970  0002CC  D29B               	goto	i1l221
  3971  0002CE                     i1l3612:
  3972                           
  3973                           ; BSR set to: 0
  3974  0002CE  0E47               	movlw	71
  3975  0002D0  D299               	goto	i1l221
  3976  0002D2                     i1l3616:
  3977                           
  3978                           ; BSR set to: 0
  3979  0002D2  0E67               	movlw	103
  3980  0002D4  D297               	goto	i1l221
  3981  0002D6                     i1l3620:
  3982                           
  3983                           ; BSR set to: 0
  3984  0002D6  0E48               	movlw	72
  3985  0002D8  D295               	goto	i1l221
  3986  0002DA                     i1l3624:
  3987                           
  3988                           ; BSR set to: 0
  3989  0002DA  0E68               	movlw	104
  3990  0002DC  D293               	goto	i1l221
  3991  0002DE                     i1l3628:
  3992                           
  3993                           ; BSR set to: 0
  3994  0002DE  0E49               	movlw	73
  3995  0002E0  D291               	goto	i1l221
  3996  0002E2                     i1l3632:
  3997                           
  3998                           ; BSR set to: 0
  3999  0002E2  0E69               	movlw	105
  4000  0002E4  D28F               	goto	i1l221
  4001  0002E6                     i1l3636:
  4002                           
  4003                           ; BSR set to: 0
  4004  0002E6  0E4A               	movlw	74
  4005  0002E8  D28D               	goto	i1l221
  4006  0002EA                     i1l3640:
  4007                           
  4008                           ; BSR set to: 0
  4009  0002EA  0E6A               	movlw	106
  4010  0002EC  D28B               	goto	i1l221
  4011  0002EE                     i1l3644:
  4012                           
  4013                           ; BSR set to: 0
  4014  0002EE  0E4B               	movlw	75
  4015  0002F0  D289               	goto	i1l221
  4016  0002F2                     i1l3648:
  4017                           
  4018                           ; BSR set to: 0
  4019  0002F2  0E6B               	movlw	107
  4020  0002F4  D287               	goto	i1l221
  4021  0002F6                     i1l3652:
  4022                           
  4023                           ; BSR set to: 0
  4024  0002F6  0E4C               	movlw	76
  4025  0002F8  D285               	goto	i1l221
  4026  0002FA                     i1l3656:
  4027                           
  4028                           ; BSR set to: 0
  4029  0002FA  0E6C               	movlw	108
  4030  0002FC  D283               	goto	i1l221
  4031  0002FE                     i1l3660:
  4032                           
  4033                           ; BSR set to: 0
  4034  0002FE  0E4D               	movlw	77
  4035  000300  D281               	goto	i1l221
  4036  000302                     i1l3664:
  4037                           
  4038                           ; BSR set to: 0
  4039  000302  0E6D               	movlw	109
  4040  000304  D27F               	goto	i1l221
  4041  000306                     i1l3668:
  4042                           
  4043                           ; BSR set to: 0
  4044  000306  0E4E               	movlw	78
  4045  000308  D27D               	goto	i1l221
  4046  00030A                     i1l3672:
  4047                           
  4048                           ; BSR set to: 0
  4049  00030A  0E6E               	movlw	110
  4050  00030C  D27B               	goto	i1l221
  4051  00030E                     i1l3676:
  4052                           
  4053                           ; BSR set to: 0
  4054  00030E  0ECC               	movlw	204
  4055  000310  D279               	goto	i1l221
  4056  000312                     i1l3680:
  4057                           
  4058                           ; BSR set to: 0
  4059  000312  0E4F               	movlw	79
  4060  000314  D277               	goto	i1l221
  4061  000316                     i1l3684:
  4062                           
  4063                           ; BSR set to: 0
  4064  000316  0E6F               	movlw	111
  4065  000318  D275               	goto	i1l221
  4066  00031A                     i1l3688:
  4067                           
  4068                           ; BSR set to: 0
  4069  00031A  0E50               	movlw	80
  4070  00031C  D273               	goto	i1l221
  4071  00031E                     i1l3692:
  4072                           
  4073                           ; BSR set to: 0
  4074  00031E  0E70               	movlw	112
  4075  000320  D271               	goto	i1l221
  4076  000322                     i1l3696:
  4077                           
  4078                           ; BSR set to: 0
  4079  000322  0E51               	movlw	81
  4080  000324  D26F               	goto	i1l221
  4081  000326                     i1l3700:
  4082                           
  4083                           ; BSR set to: 0
  4084  000326  0E71               	movlw	113
  4085  000328  D26D               	goto	i1l221
  4086  00032A                     i1l3704:
  4087                           
  4088                           ; BSR set to: 0
  4089  00032A  0E52               	movlw	82
  4090  00032C  D26B               	goto	i1l221
  4091  00032E                     i1l3708:
  4092                           
  4093                           ; BSR set to: 0
  4094  00032E  0E72               	movlw	114
  4095  000330  D269               	goto	i1l221
  4096  000332                     i1l3712:
  4097                           
  4098                           ; BSR set to: 0
  4099  000332  0E53               	movlw	83
  4100  000334  D267               	goto	i1l221
  4101  000336                     i1l3716:
  4102                           
  4103                           ; BSR set to: 0
  4104  000336  0E73               	movlw	115
  4105  000338  D265               	goto	i1l221
  4106  00033A                     i1l3720:
  4107                           
  4108                           ; BSR set to: 0
  4109  00033A  0E54               	movlw	84
  4110  00033C  D263               	goto	i1l221
  4111  00033E                     i1l3724:
  4112                           
  4113                           ; BSR set to: 0
  4114  00033E  0E74               	movlw	116
  4115  000340  D261               	goto	i1l221
  4116  000342                     i1l3728:
  4117                           
  4118                           ; BSR set to: 0
  4119  000342  0E55               	movlw	85
  4120  000344  D25F               	goto	i1l221
  4121  000346                     i1l3732:
  4122                           
  4123                           ; BSR set to: 0
  4124  000346  0E75               	movlw	117
  4125  000348  D25D               	goto	i1l221
  4126  00034A                     i1l3736:
  4127                           
  4128                           ; BSR set to: 0
  4129  00034A  0E56               	movlw	86
  4130  00034C  D25B               	goto	i1l221
  4131  00034E                     i1l3740:
  4132                           
  4133                           ; BSR set to: 0
  4134  00034E  0E76               	movlw	118
  4135  000350  D259               	goto	i1l221
  4136  000352                     i1l3744:
  4137                           
  4138                           ; BSR set to: 0
  4139  000352  0E57               	movlw	87
  4140  000354  D257               	goto	i1l221
  4141  000356                     i1l3748:
  4142                           
  4143                           ; BSR set to: 0
  4144  000356  0E77               	movlw	119
  4145  000358  D255               	goto	i1l221
  4146  00035A                     i1l3752:
  4147                           
  4148                           ; BSR set to: 0
  4149  00035A  0E58               	movlw	88
  4150  00035C  D253               	goto	i1l221
  4151  00035E                     i1l3756:
  4152                           
  4153                           ; BSR set to: 0
  4154  00035E  0E78               	movlw	120
  4155  000360  D251               	goto	i1l221
  4156  000362                     i1l3760:
  4157                           
  4158                           ; BSR set to: 0
  4159  000362  0E59               	movlw	89
  4160  000364  D24F               	goto	i1l221
  4161  000366                     i1l3764:
  4162                           
  4163                           ; BSR set to: 0
  4164  000366  0E79               	movlw	121
  4165  000368  D24D               	goto	i1l221
  4166  00036A                     i1l3768:
  4167                           
  4168                           ; BSR set to: 0
  4169  00036A  0E5A               	movlw	90
  4170  00036C  D24B               	goto	i1l221
  4171  00036E                     i1l3772:
  4172                           
  4173                           ; BSR set to: 0
  4174  00036E  0E7A               	movlw	122
  4175  000370  D249               	goto	i1l221
  4176  000372                     i1l3784:
  4177                           
  4178                           ; BSR set to: 0
  4179  000372  0EA0               	movlw	160
  4180  000374  D247               	goto	i1l221
  4181  000376                     i1l3788:
  4182                           
  4183                           ; BSR set to: 0
  4184  000376  0EB2               	movlw	178
  4185  000378  D245               	goto	i1l221
  4186  00037A                     i1l3796:
  4187                           
  4188                           ; BSR set to: 0
  4189  00037A  0EB3               	movlw	179
  4190  00037C  D243               	goto	i1l221
  4191  00037E                     i1l3800:
  4192                           
  4193                           ; BSR set to: 0
  4194  00037E  0EA1               	movlw	161
  4195  000380  D241               	goto	i1l221
  4196  000382                     i1l3804:
  4197                           
  4198                           ; BSR set to: 0
  4199  000382  0EB4               	movlw	180
  4200  000384  D23F               	goto	i1l221
  4201  000386                     i1l3808:
  4202                           
  4203                           ; BSR set to: 0
  4204  000386  0EE0               	movlw	224
  4205  000388  D23D               	goto	i1l221
  4206  00038A                     i1l3812:
  4207                           
  4208                           ; BSR set to: 0
  4209  00038A  0EE3               	movlw	227
  4210  00038C  D23B               	goto	i1l221
  4211  00038E                     i1l3824:
  4212                           
  4213                           ; BSR set to: 0
  4214  00038E  0EA2               	movlw	162
  4215  000390  D239               	goto	i1l221
  4216  000392                     i1l3828:
  4217                           
  4218                           ; BSR set to: 0
  4219  000392  0EB5               	movlw	181
  4220  000394  D237               	goto	i1l221
  4221  000396                     i1l3832:
  4222                           
  4223                           ; BSR set to: 0
  4224  000396  0EA3               	movlw	163
  4225  000398  D235               	goto	i1l221
  4226  00039A                     i1l3836:
  4227                           
  4228                           ; BSR set to: 0
  4229  00039A  0EB6               	movlw	182
  4230  00039C  D233               	goto	i1l221
  4231  00039E                     i1l3840:
  4232                           
  4233                           ; BSR set to: 0
  4234  00039E  0EA4               	movlw	164
  4235  0003A0  D231               	goto	i1l221
  4236  0003A2                     i1l3844:
  4237                           
  4238                           ; BSR set to: 0
  4239  0003A2  0EB7               	movlw	183
  4240  0003A4  D22F               	goto	i1l221
  4241  0003A6                     i1l3848:
  4242                           
  4243                           ; BSR set to: 0
  4244  0003A6  0EA5               	movlw	165
  4245  0003A8  D22D               	goto	i1l221
  4246  0003AA                     i1l3852:
  4247                           
  4248                           ; BSR set to: 0
  4249  0003AA  0EB8               	movlw	184
  4250  0003AC  D22B               	goto	i1l221
  4251  0003AE                     i1l3856:
  4252                           
  4253                           ; BSR set to: 0
  4254  0003AE  0EA6               	movlw	166
  4255  0003B0  D229               	goto	i1l221
  4256  0003B2                     i1l3860:
  4257                           
  4258                           ; BSR set to: 0
  4259  0003B2  0EB9               	movlw	185
  4260  0003B4  D227               	goto	i1l221
  4261  0003B6                     i1l3868:
  4262                           
  4263                           ; BSR set to: 0
  4264  0003B6  0EBA               	movlw	186
  4265  0003B8  D225               	goto	i1l221
  4266  0003BA                     i1l3872:
  4267                           
  4268                           ; BSR set to: 0
  4269  0003BA  0EA7               	movlw	167
  4270  0003BC  D223               	goto	i1l221
  4271  0003BE                     i1l3876:
  4272                           
  4273                           ; BSR set to: 0
  4274  0003BE  0EBB               	movlw	187
  4275  0003C0  D221               	goto	i1l221
  4276  0003C2                     i1l3880:
  4277                           
  4278                           ; BSR set to: 0
  4279  0003C2  0EBC               	movlw	188
  4280  0003C4  D21F               	goto	i1l221
  4281  0003C6                     i1l3892:
  4282                           
  4283                           ; BSR set to: 0
  4284  0003C6  0EBD               	movlw	189
  4285  0003C8  D21D               	goto	i1l221
  4286  0003CA                     i1l3904:
  4287                           
  4288                           ; BSR set to: 0
  4289  0003CA  0EA8               	movlw	168
  4290  0003CC  D21B               	goto	i1l221
  4291  0003CE                     i1l3908:
  4292                           
  4293                           ; BSR set to: 0
  4294  0003CE  0EBE               	movlw	190
  4295  0003D0  D219               	goto	i1l221
  4296  0003D2                     i1l3928:
  4297                           
  4298                           ; BSR set to: 0
  4299  0003D2  0EBF               	movlw	191
  4300  0003D4  D217               	goto	i1l221
  4301  0003D6                     i1l3936:
  4302                           
  4303                           ; BSR set to: 0
  4304  0003D6  0EA9               	movlw	169
  4305  0003D8  D215               	goto	i1l221
  4306  0003DA                     i1l3944:
  4307                           
  4308                           ; BSR set to: 0
  4309  0003DA  0EAA               	movlw	170
  4310  0003DC  D213               	goto	i1l221
  4311  0003DE                     i1l3948:
  4312                           
  4313                           ; BSR set to: 0
  4314  0003DE  0EE4               	movlw	228
  4315  0003E0  D211               	goto	i1l221
  4316  0003E2                     i1l3960:
  4317                           
  4318                           ; BSR set to: 0
  4319  0003E2  0EE1               	movlw	225
  4320  0003E4  D20F               	goto	i1l221
  4321  0003E6                     i1l3964:
  4322                           
  4323                           ; BSR set to: 0
  4324  0003E6  0EE5               	movlw	229
  4325  0003E8  D20D               	goto	i1l221
  4326  0003EA                     i1l3968:
  4327                           
  4328                           ; BSR set to: 0
  4329  0003EA  0EAB               	movlw	171
  4330  0003EC  D20B               	goto	i1l221
  4331  0003EE                     i1l3972:
  4332                           
  4333                           ; BSR set to: 0
  4334  0003EE  0EC0               	movlw	192
  4335  0003F0  D209               	goto	i1l221
  4336  0003F2                     i1l3976:
  4337                           
  4338                           ; BSR set to: 0
  4339  0003F2  0EAC               	movlw	172
  4340  0003F4  D207               	goto	i1l221
  4341  0003F6                     i1l3980:
  4342                           
  4343                           ; BSR set to: 0
  4344  0003F6  0EC1               	movlw	193
  4345  0003F8  D205               	goto	i1l221
  4346  0003FA                     i1l3984:
  4347                           
  4348                           ; BSR set to: 0
  4349  0003FA  0EE2               	movlw	226
  4350  0003FC  D203               	goto	i1l221
  4351  0003FE                     i1l3988:
  4352                           
  4353                           ; BSR set to: 0
  4354  0003FE  0EE6               	movlw	230
  4355  000400  D201               	goto	i1l221
  4356  000402                     i1l3992:
  4357                           
  4358                           ; BSR set to: 0
  4359  000402  0EAD               	movlw	173
  4360  000404  D1FF               	goto	i1l221
  4361  000406                     i1l3996:
  4362                           
  4363                           ; BSR set to: 0
  4364  000406  0EC2               	movlw	194
  4365  000408  D1FD               	goto	i1l221
  4366  00040A                     i1l4000:
  4367                           
  4368                           ; BSR set to: 0
  4369  00040A  0EAE               	movlw	174
  4370  00040C  D1FB               	goto	i1l221
  4371  00040E                     i1l4004:
  4372                           
  4373                           ; BSR set to: 0
  4374  00040E  0EC3               	movlw	195
  4375  000410  D1F9               	goto	i1l221
  4376  000412                     i1l4008:
  4377                           
  4378                           ; BSR set to: 0
  4379  000412  0EC4               	movlw	196
  4380  000414  D1F7               	goto	i1l221
  4381  000416                     i1l4016:
  4382                           
  4383                           ; BSR set to: 0
  4384  000416  0EAF               	movlw	175
  4385  000418  D1F5               	goto	i1l221
  4386  00041A                     i1l4020:
  4387                           
  4388                           ; BSR set to: 0
  4389  00041A  0EC5               	movlw	197
  4390  00041C  D1F3               	goto	i1l221
  4391  00041E                     i1l4024:
  4392                           
  4393                           ; BSR set to: 0
  4394  00041E  0EB0               	movlw	176
  4395  000420  D1F1               	goto	i1l221
  4396  000422                     i1l4028:
  4397                           
  4398                           ; BSR set to: 0
  4399  000422  0EC6               	movlw	198
  4400  000424  D1EF               	goto	i1l221
  4401  000426                     i1l4032:
  4402                           
  4403                           ; BSR set to: 0
  4404  000426  0EB1               	movlw	177
  4405  000428  D1ED               	goto	i1l221
  4406  00042A                     i1l4036:
  4407                           
  4408                           ; BSR set to: 0
  4409  00042A  0EC7               	movlw	199
  4410  00042C  D1EB               	goto	i1l221
  4411  00042E                     i1l4046:
  4412                           
  4413                           ; BSR set to: 0
  4414  00042E  5001               	movf	getLcdCodeOfChar@dig,w,c
  4415                           
  4416                           ; Switch size 1, requested type "space"
  4417                           ; Number of cases is 163, Range of values is 32 to 255
  4418                           ; switch strategies available:
  4419                           ; Name         Instructions Cycles
  4420                           ; simple_byte          490   246 (average)
  4421                           ;	Chosen strategy is simple_byte
  4422  000430  0A20               	xorlw	32	; case 32
  4423  000432  E101 D6E0          	bz	i1l3388
  4424  000436  0A01               	xorlw	1	; case 33
  4425  000438  E101 D6F5          	bz	i1l3440
  4426  00043C  0A03               	xorlw	3	; case 34
  4427  00043E  E101 D6F4          	bz	i1l3444
  4428  000442  0A01               	xorlw	1	; case 35
  4429  000444  E101 D6F3          	bz	i1l3448
  4430  000448  0A07               	xorlw	7	; case 36
  4431  00044A  E101 D6F2          	bz	i1l3452
  4432  00044E  0A01               	xorlw	1	; case 37
  4433  000450  E101 D6F1          	bz	i1l3456
  4434  000454  0A03               	xorlw	3	; case 38
  4435  000456  E101 D6F0          	bz	i1l3460
  4436  00045A  0A0E               	xorlw	14	; case 40
  4437  00045C  E101 D6EF          	bz	i1l3464
  4438  000460  0A01               	xorlw	1	; case 41
  4439  000462  E101 D6EE          	bz	i1l3468
  4440  000466  0A03               	xorlw	3	; case 42
  4441  000468  E101 D6ED          	bz	i1l3472
  4442  00046C  0A01               	xorlw	1	; case 43
  4443  00046E  E101 D706          	bz	i1l3528
  4444  000472  0A07               	xorlw	7	; case 44
  4445  000474  E101 D6E9          	bz	i1l3476
  4446  000478  0A01               	xorlw	1	; case 45
  4447  00047A  E101 D6D2          	bz	i1l3432
  4448  00047E  0A03               	xorlw	3	; case 46
  4449  000480  E101 D6E5          	bz	i1l3480
  4450  000484  0A01               	xorlw	1	; case 47
  4451  000486  E101 D6E4          	bz	i1l3484
  4452  00048A  0A1F               	xorlw	31	; case 48
  4453  00048C  E101 D6B5          	bz	i1l3392
  4454  000490  0A01               	xorlw	1	; case 49
  4455  000492  E101 D6B4          	bz	i1l3396
  4456  000496  0A03               	xorlw	3	; case 50
  4457  000498  E101 D6B3          	bz	i1l3400
  4458  00049C  0A01               	xorlw	1	; case 51
  4459  00049E  E101 D6B2          	bz	i1l3404
  4460  0004A2  0A07               	xorlw	7	; case 52
  4461  0004A4  E101 D6B1          	bz	i1l3408
  4462  0004A8  0A01               	xorlw	1	; case 53
  4463  0004AA  E101 D6B0          	bz	i1l3412
  4464  0004AE  0A03               	xorlw	3	; case 54
  4465  0004B0  E101 D6AF          	bz	i1l3416
  4466  0004B4  0A01               	xorlw	1	; case 55
  4467  0004B6  E101 D6AE          	bz	i1l3420
  4468  0004BA  0A0F               	xorlw	15	; case 56
  4469  0004BC  E101 D6AD          	bz	i1l3424
  4470  0004C0  0A01               	xorlw	1	; case 57
  4471  0004C2  E101 D6AC          	bz	i1l3428
  4472  0004C6  0A03               	xorlw	3	; case 58
  4473  0004C8  E101 D6C5          	bz	i1l3488
  4474  0004CC  0A01               	xorlw	1	; case 59
  4475  0004CE  E101 D6C4          	bz	i1l3492
  4476  0004D2  0A07               	xorlw	7	; case 60
  4477  0004D4  E101 D6D5          	bz	i1l3532
  4478  0004D8  0A01               	xorlw	1	; case 61
  4479  0004DA  E101 D6D4          	bz	i1l3536
  4480  0004DE  0A03               	xorlw	3	; case 62
  4481  0004E0  E101 D6D3          	bz	i1l3540
  4482  0004E4  0A01               	xorlw	1	; case 63
  4483  0004E6  E101 D6BA          	bz	i1l3496
  4484  0004EA  0A7F               	xorlw	127	; case 64
  4485  0004EC  E101 D6B9          	bz	i1l3500
  4486  0004F0  0A01               	xorlw	1	; case 65
  4487  0004F2  E101 D6D4          	bz	i1l3564
  4488  0004F6  0A03               	xorlw	3	; case 66
  4489  0004F8  E101 D6D5          	bz	i1l3572
  4490  0004FC  0A01               	xorlw	1	; case 67
  4491  0004FE  E101 D6D6          	bz	i1l3580
  4492  000502  0A07               	xorlw	7	; case 68
  4493  000504  E101 D6D7          	bz	i1l3588
  4494  000508  0A01               	xorlw	1	; case 69
  4495  00050A  E101 D6D8          	bz	i1l3596
  4496  00050E  0A03               	xorlw	3	; case 70
  4497  000510  E101 D6D9          	bz	i1l3604
  4498  000514  0A01               	xorlw	1	; case 71
  4499  000516  E101 D6DA          	bz	i1l3612
  4500  00051A  0A0F               	xorlw	15	; case 72
  4501  00051C  E101 D6DB          	bz	i1l3620
  4502  000520  0A01               	xorlw	1	; case 73
  4503  000522  E101 D6DC          	bz	i1l3628
  4504  000526  0A03               	xorlw	3	; case 74
  4505  000528  E101 D6DD          	bz	i1l3636
  4506  00052C  0A01               	xorlw	1	; case 75
  4507  00052E  E101 D6DE          	bz	i1l3644
  4508  000532  0A07               	xorlw	7	; case 76
  4509  000534  E101 D6DF          	bz	i1l3652
  4510  000538  0A01               	xorlw	1	; case 77
  4511  00053A  E101 D6E0          	bz	i1l3660
  4512  00053E  0A03               	xorlw	3	; case 78
  4513  000540  E101 D6E1          	bz	i1l3668
  4514  000544  0A01               	xorlw	1	; case 79
  4515  000546  E101 D6E4          	bz	i1l3680
  4516  00054A  0A1F               	xorlw	31	; case 80
  4517  00054C  E101 D6E5          	bz	i1l3688
  4518  000550  0A01               	xorlw	1	; case 81
  4519  000552  E101 D6E6          	bz	i1l3696
  4520  000556  0A03               	xorlw	3	; case 82
  4521  000558  E101 D6E7          	bz	i1l3704
  4522  00055C  0A01               	xorlw	1	; case 83
  4523  00055E  E101 D6E8          	bz	i1l3712
  4524  000562  0A07               	xorlw	7	; case 84
  4525  000564  E101 D6E9          	bz	i1l3720
  4526  000568  0A01               	xorlw	1	; case 85
  4527  00056A  E101 D6EA          	bz	i1l3728
  4528  00056E  0A03               	xorlw	3	; case 86
  4529  000570  E101 D6EB          	bz	i1l3736
  4530  000574  0A01               	xorlw	1	; case 87
  4531  000576  E101 D6EC          	bz	i1l3744
  4532  00057A  0A0F               	xorlw	15	; case 88
  4533  00057C  E101 D6ED          	bz	i1l3752
  4534  000580  0A01               	xorlw	1	; case 89
  4535  000582  E101 D6EE          	bz	i1l3760
  4536  000586  0A03               	xorlw	3	; case 90
  4537  000588  E101 D6EF          	bz	i1l3768
  4538  00058C  0A01               	xorlw	1	; case 91
  4539  00058E  E101 D66A          	bz	i1l3504
  4540  000592  0A07               	xorlw	7	; case 92
  4541  000594  E101 D65D          	bz	i1l3484
  4542  000598  0A01               	xorlw	1	; case 93
  4543  00059A  E101 D666          	bz	i1l3508
  4544  00059E  0A03               	xorlw	3	; case 94
  4545  0005A0  E101 D665          	bz	i1l3512
  4546  0005A4  0A01               	xorlw	1	; case 95
  4547  0005A6  E101 D664          	bz	i1l3516
  4548  0005AA  0A3F               	xorlw	63	; case 96
  4549  0005AC  E101 D663          	bz	i1l3520
  4550  0005B0  0A01               	xorlw	1	; case 97
  4551  0005B2  E101 D676          	bz	i1l3568
  4552  0005B6  0A03               	xorlw	3	; case 98
  4553  0005B8  E101 D677          	bz	i1l3576
  4554  0005BC  0A01               	xorlw	1	; case 99
  4555  0005BE  E101 D678          	bz	i1l3584
  4556  0005C2  0A07               	xorlw	7	; case 100
  4557  0005C4  E101 D679          	bz	i1l3592
  4558  0005C8  0A01               	xorlw	1	; case 101
  4559  0005CA  E101 D67A          	bz	i1l3600
  4560  0005CE  0A03               	xorlw	3	; case 102
  4561  0005D0  E101 D67B          	bz	i1l3608
  4562  0005D4  0A01               	xorlw	1	; case 103
  4563  0005D6  E101 D67C          	bz	i1l3616
  4564  0005DA  0A0F               	xorlw	15	; case 104
  4565  0005DC  E101 D67D          	bz	i1l3624
  4566  0005E0  0A01               	xorlw	1	; case 105
  4567  0005E2  E101 D67E          	bz	i1l3632
  4568  0005E6  0A03               	xorlw	3	; case 106
  4569  0005E8  E101 D67F          	bz	i1l3640
  4570  0005EC  0A01               	xorlw	1	; case 107
  4571  0005EE  E101 D680          	bz	i1l3648
  4572  0005F2  0A07               	xorlw	7	; case 108
  4573  0005F4  E101 D681          	bz	i1l3656
  4574  0005F8  0A01               	xorlw	1	; case 109
  4575  0005FA  E101 D682          	bz	i1l3664
  4576  0005FE  0A03               	xorlw	3	; case 110
  4577  000600  E101 D683          	bz	i1l3672
  4578  000604  0A01               	xorlw	1	; case 111
  4579  000606  E101 D686          	bz	i1l3684
  4580  00060A  0A1F               	xorlw	31	; case 112
  4581  00060C  E101 D687          	bz	i1l3692
  4582  000610  0A01               	xorlw	1	; case 113
  4583  000612  E101 D688          	bz	i1l3700
  4584  000616  0A03               	xorlw	3	; case 114
  4585  000618  E101 D689          	bz	i1l3708
  4586  00061C  0A01               	xorlw	1	; case 115
  4587  00061E  E101 D68A          	bz	i1l3716
  4588  000622  0A07               	xorlw	7	; case 116
  4589  000624  E101 D68B          	bz	i1l3724
  4590  000628  0A01               	xorlw	1	; case 117
  4591  00062A  E101 D68C          	bz	i1l3732
  4592  00062E  0A03               	xorlw	3	; case 118
  4593  000630  E101 D68D          	bz	i1l3740
  4594  000634  0A01               	xorlw	1	; case 119
  4595  000636  E101 D68E          	bz	i1l3748
  4596  00063A  0A0F               	xorlw	15	; case 120
  4597  00063C  E101 D68F          	bz	i1l3756
  4598  000640  0A01               	xorlw	1	; case 121
  4599  000642  E101 D690          	bz	i1l3764
  4600  000646  0A03               	xorlw	3	; case 122
  4601  000648  E101 D691          	bz	i1l3772
  4602  00064C  0A04               	xorlw	4	; case 126
  4603  00064E  E101 D624          	bz	i1l3560
  4604  000652  0AEC               	xorlw	236	; case 146
  4605  000654  E101 D611          	bz	i1l3524
  4606  000658  0A05               	xorlw	5	; case 151
  4607  00065A  E101 D5E2          	bz	i1l3432
  4608  00065E  0A3F               	xorlw	63	; case 168
  4609  000660  E101 D695          	bz	i1l3824
  4610  000664  0A03               	xorlw	3	; case 171
  4611  000666  E101 D614          	bz	i1l3548
  4612  00066A  0A1B               	xorlw	27	; case 176
  4613  00066C  E101 D60F          	bz	i1l3544
  4614  000670  0A08               	xorlw	8	; case 184
  4615  000672  E101 D68E          	bz	i1l3828
  4616  000676  0A01               	xorlw	1	; case 185
  4617  000678  E101 D649          	bz	i1l3676
  4618  00067C  0A02               	xorlw	2	; case 187
  4619  00067E  E101 D60A          	bz	i1l3552
  4620  000682  0A7B               	xorlw	123	; case 192
  4621  000684  E101 D60B          	bz	i1l3564
  4622  000688  0A01               	xorlw	1	; case 193
  4623  00068A  E101 D672          	bz	i1l3784
  4624  00068E  0A03               	xorlw	3	; case 194
  4625  000690  E101 D609          	bz	i1l3572
  4626  000694  0A01               	xorlw	1	; case 195
  4627  000696  E101 D672          	bz	i1l3800
  4628  00069A  0A07               	xorlw	7	; case 196
  4629  00069C  E101 D673          	bz	i1l3808
  4630  0006A0  0A01               	xorlw	1	; case 197
  4631  0006A2  E101 D60C          	bz	i1l3596
  4632  0006A6  0A03               	xorlw	3	; case 198
  4633  0006A8  E101 D675          	bz	i1l3832
  4634  0006AC  0A01               	xorlw	1	; case 199
  4635  0006AE  E101 D676          	bz	i1l3840
  4636  0006B2  0A0F               	xorlw	15	; case 200
  4637  0006B4  E101 D677          	bz	i1l3848
  4638  0006B8  0A01               	xorlw	1	; case 201
  4639  0006BA  E101 D678          	bz	i1l3856
  4640  0006BE  0A03               	xorlw	3	; case 202
  4641  0006C0  E101 D615          	bz	i1l3644
  4642  0006C4  0A01               	xorlw	1	; case 203
  4643  0006C6  E101 D678          	bz	i1l3872
  4644  0006CA  0A07               	xorlw	7	; case 204
  4645  0006CC  E101 D617          	bz	i1l3660
  4646  0006D0  0A01               	xorlw	1	; case 205
  4647  0006D2  E101 D600          	bz	i1l3620
  4648  0006D6  0A03               	xorlw	3	; case 206
  4649  0006D8  E101 D61B          	bz	i1l3680
  4650  0006DC  0A01               	xorlw	1	; case 207
  4651  0006DE  E101 D674          	bz	i1l3904
  4652  0006E2  0A1F               	xorlw	31	; case 208
  4653  0006E4  E101 D619          	bz	i1l3688
  4654  0006E8  0A01               	xorlw	1	; case 209
  4655  0006EA  E101 D5E0          	bz	i1l3580
  4656  0006EE  0A03               	xorlw	3	; case 210
  4657  0006F0  E101 D623          	bz	i1l3720
  4658  0006F4  0A01               	xorlw	1	; case 211
  4659  0006F6  E101 D66E          	bz	i1l3936
  4660  0006FA  0A07               	xorlw	7	; case 212
  4661  0006FC  E101 D66D          	bz	i1l3944
  4662  000700  0A01               	xorlw	1	; case 213
  4663  000702  E101 D62A          	bz	i1l3752
  4664  000706  0A03               	xorlw	3	; case 214
  4665  000708  E101 D66B          	bz	i1l3960
  4666  00070C  0A01               	xorlw	1	; case 215
  4667  00070E  E101 D66C          	bz	i1l3968
  4668  000712  0A0F               	xorlw	15	; case 216
  4669  000714  E101 D66D          	bz	i1l3976
  4670  000718  0A01               	xorlw	1	; case 217
  4671  00071A  E101 D66E          	bz	i1l3984
  4672  00071E  0A03               	xorlw	3	; case 218
  4673  000720  E101 D66F          	bz	i1l3992
  4674  000724  0A01               	xorlw	1	; case 219
  4675  000726  E101 D670          	bz	i1l4000
  4676  00072A  0A07               	xorlw	7	; case 220
  4677  00072C  E101 D671          	bz	i1l4008
  4678  000730  0A01               	xorlw	1	; case 221
  4679  000732  E101 D670          	bz	i1l4016
  4680  000736  0A03               	xorlw	3	; case 222
  4681  000738  E101 D671          	bz	i1l4024
  4682  00073C  0A01               	xorlw	1	; case 223
  4683  00073E  E101 D672          	bz	i1l4032
  4684  000742  0A3F               	xorlw	63	; case 224
  4685  000744  E101 D5AD          	bz	i1l3568
  4686  000748  0A01               	xorlw	1	; case 225
  4687  00074A  E101 D614          	bz	i1l3788
  4688  00074E  0A03               	xorlw	3	; case 226
  4689  000750  E101 D613          	bz	i1l3796
  4690  000754  0A01               	xorlw	1	; case 227
  4691  000756  E101 D614          	bz	i1l3804
  4692  00075A  0A07               	xorlw	7	; case 228
  4693  00075C  E101 D615          	bz	i1l3812
  4694  000760  0A01               	xorlw	1	; case 229
  4695  000762  E101 D5AE          	bz	i1l3600
  4696  000766  0A03               	xorlw	3	; case 230
  4697  000768  E101 D617          	bz	i1l3836
  4698  00076C  0A01               	xorlw	1	; case 231
  4699  00076E  E101 D618          	bz	i1l3844
  4700  000772  0A0F               	xorlw	15	; case 232
  4701  000774  E101 D619          	bz	i1l3852
  4702  000778  0A01               	xorlw	1	; case 233
  4703  00077A  E101 D61A          	bz	i1l3860
  4704  00077E  0A03               	xorlw	3	; case 234
  4705  000780  E101 D619          	bz	i1l3868
  4706  000784  0A01               	xorlw	1	; case 235
  4707  000786  E101 D61A          	bz	i1l3876
  4708  00078A  0A07               	xorlw	7	; case 236
  4709  00078C  E101 D619          	bz	i1l3880
  4710  000790  0A01               	xorlw	1	; case 237
  4711  000792  E101 D618          	bz	i1l3892
  4712  000796  0A03               	xorlw	3	; case 238
  4713  000798  E101 D5BD          	bz	i1l3684
  4714  00079C  0A01               	xorlw	1	; case 239
  4715  00079E  E101 D616          	bz	i1l3908
  4716  0007A2  0A1F               	xorlw	31	; case 240
  4717  0007A4  E101 D5BB          	bz	i1l3692
  4718  0007A8  0A01               	xorlw	1	; case 241
  4719  0007AA  E101 D582          	bz	i1l3584
  4720  0007AE  0A03               	xorlw	3	; case 242
  4721  0007B0  E101 D60F          	bz	i1l3928
  4722  0007B4  0A01               	xorlw	1	; case 243
  4723  0007B6  E101 D5D6          	bz	i1l3764
  4724  0007BA  0A07               	xorlw	7	; case 244
  4725  0007BC  E101 D60F          	bz	i1l3948
  4726  0007C0  0A01               	xorlw	1	; case 245
  4727  0007C2  E101 D5CC          	bz	i1l3756
  4728  0007C6  0A03               	xorlw	3	; case 246
  4729  0007C8  E101 D60D          	bz	i1l3964
  4730  0007CC  0A01               	xorlw	1	; case 247
  4731  0007CE  E101 D60E          	bz	i1l3972
  4732  0007D2  0A0F               	xorlw	15	; case 248
  4733  0007D4  E101 D60F          	bz	i1l3980
  4734  0007D8  0A01               	xorlw	1	; case 249
  4735  0007DA  E101 D610          	bz	i1l3988
  4736  0007DE  0A03               	xorlw	3	; case 250
  4737  0007E0  E101 D611          	bz	i1l3996
  4738  0007E4  0A01               	xorlw	1	; case 251
  4739  0007E6  E101 D612          	bz	i1l4004
  4740  0007EA  0A07               	xorlw	7	; case 252
  4741  0007EC  E101 D611          	bz	i1l4008
  4742  0007F0  0A01               	xorlw	1	; case 253
  4743  0007F2  E101 D612          	bz	i1l4020
  4744  0007F6  0A03               	xorlw	3	; case 254
  4745  0007F8  E101 D613          	bz	i1l4028
  4746  0007FC  0A01               	xorlw	1	; case 255
  4747  0007FE  E101 D614          	bz	i1l4036
  4748  000802  D52D               	goto	i1l3496
  4749  000804                     i1l221:
  4750                           
  4751                           ; BSR set to: 0
  4752  000804  0012               	return	
  4753  000806                     __end_of_getLcdCodeOfChar:
  4754                           	opt stack 0
  4755                           tblptru	equ	0xFF8
  4756                           tblptrh	equ	0xFF7
  4757                           tblptrl	equ	0xFF6
  4758                           tablat	equ	0xFF5
  4759                           prodh	equ	0xFF4
  4760                           prodl	equ	0xFF3
  4761                           intcon	equ	0xFF2
  4762                           intcon2	equ	0xFF1
  4763                           intcon3	equ	0xFF0
  4764                           postinc0	equ	0xFEE
  4765                           wreg	equ	0xFE8
  4766                           indf1	equ	0xFE7
  4767                           postinc1	equ	0xFE6
  4768                           postdec1	equ	0xFE5
  4769                           fsr1h	equ	0xFE2
  4770                           fsr1l	equ	0xFE1
  4771                           bsr	equ	0xFE0
  4772                           indf2	equ	0xFDF
  4773                           postinc2	equ	0xFDE
  4774                           fsr2h	equ	0xFDA
  4775                           fsr2l	equ	0xFD9
  4776                           status	equ	0xFD8
  4777                           
  4778 ;; *************** function _SignalsOnOff *****************
  4779 ;; Defined at:
  4780 ;;		line 1376 in file "prog.c"
  4781 ;; Parameters:    Size  Location     Type
  4782 ;;		None
  4783 ;; Auto vars:     Size  Location     Type
  4784 ;;  DayTime         2   38[COMRAM] unsigned int 
  4785 ;;  ThisTime        2   36[COMRAM] unsigned int 
  4786 ;;  ThisDay         1   42[COMRAM] unsigned char 
  4787 ;;  TimeStop        2   32[COMRAM] unsigned int 
  4788 ;;  TimeStart       2   30[COMRAM] unsigned int 
  4789 ;;  Signals         1   41[COMRAM] unsigned char 
  4790 ;;  Days            1   40[COMRAM] unsigned char 
  4791 ;;  Data            1   43[COMRAM] unsigned char 
  4792 ;;  Data            4   44[COMRAM] unsigned long 
  4793 ;; Return value:  Size  Location     Type
  4794 ;;		None               void
  4795 ;; Registers used:
  4796 ;;		wreg, status,2, status,0, prodl, prodh, cstack
  4797 ;; Tracked objects:
  4798 ;;		On entry : 0/0
  4799 ;;		On exit  : 0/0
  4800 ;;		Unchanged: 0/0
  4801 ;; Data sizes:     COMRAM   BANK0   BANK1   BANK2   BANK3   BANK4   BANK5   BANK6   BANK7   BANK8   BANK9  BANK10  BANK1
      +1  BANK12  BANK13  BANK14  BANK15
  4802 ;;      Params:         0       0       0       0       0       0       0       0       0       0       0       0       
      +0       0       0       0       0
  4803 ;;      Locals:        18       0       0       0       0       0       0       0       0       0       0       0       
      +0       0       0       0       0
  4804 ;;      Temps:          4       0       0       0       0       0       0       0       0       0       0       0       
      +0       0       0       0       0
  4805 ;;      Totals:        22       0       0       0       0       0       0       0       0       0       0       0       
      +0       0       0       0       0
  4806 ;;Total ram usage:       22 bytes
  4807 ;; Hardware stack levels used:    1
  4808 ;; Hardware stack levels required when called:    4
  4809 ;; This function calls:
  4810 ;;		_ConvertDayToBit
  4811 ;;		_EEWR
  4812 ;;		_ReadFourBytesEE
  4813 ;;		___aldiv
  4814 ;;		___lwdiv
  4815 ;;		i1___lwmod
  4816 ;; This function is called by:
  4817 ;;		_F_l
  4818 ;; This function uses a non-reentrant model
  4819 ;;
  4820                           
  4821                           	psect	text16
  4822  000806                     __ptext16:
  4823                           	opt stack 0
  4824  000806                     _SignalsOnOff:
  4825                           	opt stack 21
  4826                           
  4827                           ;prog.c: 1377: if (!flags.TimeIsRead) return;
  4828                           
  4829                           ; BSR set to: 0
  4830                           ;incstack = 0
  4831  000806  0100               	movlb	0	; () banked
  4832  000808  A7C0               	btfss	_flags& (0+255),3,b
  4833  00080A  D0D6               	goto	i1l831
  4834                           
  4835                           ; BSR set to: 0
  4836                           ;prog.c: 1378: if (!flags.LockSignals && CurrentReadingCell < 240) {
  4837  00080C  BFC0               	btfsc	_flags& (0+255),7,b
  4838  00080E  D08E               	goto	i1l832
  4839                           
  4840                           ; BSR set to: 0
  4841  000810  0EF0               	movlw	240
  4842  000812  5C69               	subwf	_CurrentReadingCell,w,c
  4843  000814  0E00               	movlw	0
  4844  000816  586A               	subwfb	_CurrentReadingCell+1,w,c
  4845  000818  E301 D088          	bc	i1l832
  4846                           
  4847                           ; BSR set to: 0
  4848                           ;prog.c: 1379: unsigned long int Data = ReadFourBytesEE(CurrentReadingCell);
  4849  00081C  C069  F00D         	movff	_CurrentReadingCell,ReadFourBytesEE@adress
  4850  000820  C06A  F00E         	movff	_CurrentReadingCell+1,ReadFourBytesEE@adress+1
  4851  000824  EC16  F008         	call	_ReadFourBytesEE	;wreg free
  4852  000828  C00D  F02D         	movff	?_ReadFourBytesEE,SignalsOnOff@Data
  4853  00082C  C00E  F02E         	movff	?_ReadFourBytesEE+1,SignalsOnOff@Data+1
  4854  000830  C00F  F02F         	movff	?_ReadFourBytesEE+2,SignalsOnOff@Data+2
  4855  000834  C010  F030         	movff	?_ReadFourBytesEE+3,SignalsOnOff@Data+3
  4856                           
  4857                           ;prog.c: 1380: if (Data != 0xFFFFFFFF) {
  4858  000838  282D               	incf	SignalsOnOff@Data,w,c
  4859  00083A  B4D8               	btfsc	status,2,c
  4860  00083C  282E               	incf	SignalsOnOff@Data+1,w,c
  4861  00083E  B4D8               	btfsc	status,2,c
  4862  000840  282F               	incf	SignalsOnOff@Data+2,w,c
  4863  000842  B4D8               	btfsc	status,2,c
  4864  000844  2830               	incf	SignalsOnOff@Data+3,w,c
  4865  000846  E06D               	bz	i1l833
  4866                           
  4867                           ;prog.c: 1381: unsigned int TimeStart;
  4868                           ;prog.c: 1382: unsigned int TimeStop;
  4869                           ;prog.c: 1383: unsigned char Days;
  4870                           ;prog.c: 1384: unsigned char Signals;
  4871                           ;prog.c: 1385: TimeStart = Data % 2048;
  4872  000848  502D               	movf	SignalsOnOff@Data,w,c
  4873  00084A  6E1F               	movwf	SignalsOnOff@TimeStart,c
  4874  00084C  0E07               	movlw	7
  4875  00084E  142E               	andwf	SignalsOnOff@Data+1,w,c
  4876  000850  6E20               	movwf	SignalsOnOff@TimeStart+1,c
  4877                           
  4878                           ;prog.c: 1386: Data /= 2048;
  4879  000852  0E0B               	movlw	11
  4880  000854  6E1B               	movwf	??_SignalsOnOff& (0+255),c
  4881  000856                     i1u135_25:
  4882  000856  D8B1               	call	PL2	;call to abstracted procedure
  4883  000858  2E1B               	decfsz	??_SignalsOnOff& (0+255),f,c
  4884  00085A  D7FD               	goto	i1u135_25
  4885                           
  4886                           ;prog.c: 1387: TimeStop = Data % 2048;
  4887  00085C  502D               	movf	SignalsOnOff@Data,w,c
  4888  00085E  6E21               	movwf	SignalsOnOff@TimeStop,c
  4889  000860  0E07               	movlw	7
  4890  000862  142E               	andwf	SignalsOnOff@Data+1,w,c
  4891  000864  6E22               	movwf	SignalsOnOff@TimeStop+1,c
  4892                           
  4893                           ;prog.c: 1388: Data /= 2048;
  4894  000866  0E0B               	movlw	11
  4895  000868  6E1B               	movwf	??_SignalsOnOff& (0+255),c
  4896  00086A                     i1u136_25:
  4897  00086A  D8A7               	call	PL2	;call to abstracted procedure
  4898  00086C  2E1B               	decfsz	??_SignalsOnOff& (0+255),f,c
  4899  00086E  D7FD               	goto	i1u136_25
  4900                           
  4901                           ;prog.c: 1389: Days = Data % 128;
  4902  000870  502D               	movf	SignalsOnOff@Data,w,c
  4903  000872  0B7F               	andlw	127
  4904  000874  6E29               	movwf	SignalsOnOff@Days,c
  4905                           
  4906                           ;prog.c: 1390: Data /= 128;
  4907  000876  0E07               	movlw	7
  4908  000878  6E1B               	movwf	??_SignalsOnOff& (0+255),c
  4909  00087A                     i1u137_25:
  4910  00087A  D89F               	call	PL2	;call to abstracted procedure
  4911  00087C  2E1B               	decfsz	??_SignalsOnOff& (0+255),f,c
  4912  00087E  D7FD               	goto	i1u137_25
  4913                           
  4914                           ;prog.c: 1391: Signals = Data % 8;
  4915  000880  502D               	movf	SignalsOnOff@Data,w,c
  4916  000882  0B07               	andlw	7
  4917  000884  6E2A               	movwf	SignalsOnOff@Signals,c
  4918                           
  4919                           ;prog.c: 1392: if (Signals != 0 && Days != 0) {
  4920  000886  502A               	movf	SignalsOnOff@Signals,w,c
  4921  000888  E04C               	bz	i1l833
  4922  00088A  5029               	movf	SignalsOnOff@Days,w,c
  4923  00088C  E04A               	bz	i1l833
  4924                           
  4925                           ;prog.c: 1393: unsigned int ThisTime;
  4926                           ;prog.c: 1394: unsigned char ThisDay;
  4927                           ;prog.c: 1395: unsigned int DayTime = (unsigned int) (Clock / 6000);
  4928  00088E  C05F  F001         	movff	_Clock,___aldiv@dividend
  4929  000892  C060  F002         	movff	_Clock+1,___aldiv@dividend+1
  4930  000896  C061  F003         	movff	_Clock+2,___aldiv@dividend+2
  4931  00089A  C062  F004         	movff	_Clock+3,___aldiv@dividend+3
  4932  00089E  0E70               	movlw	112
  4933  0008A0  6E05               	movwf	___aldiv@divisor,c
  4934  0008A2  0E17               	movlw	23
  4935  0008A4  6E06               	movwf	___aldiv@divisor+1,c
  4936  0008A6  0E00               	movlw	0
  4937  0008A8  6A07               	clrf	___aldiv@divisor+2,c
  4938  0008AA  6A08               	clrf	___aldiv@divisor+3,c
  4939  0008AC  ECE3  F004         	call	___aldiv	;wreg free
  4940  0008B0  C001  F01B         	movff	?___aldiv,??_SignalsOnOff
  4941  0008B4  C002  F01C         	movff	?___aldiv+1,??_SignalsOnOff+1
  4942  0008B8  C003  F01D         	movff	?___aldiv+2,??_SignalsOnOff+2
  4943  0008BC  C004  F01E         	movff	?___aldiv+3,??_SignalsOnOff+3
  4944  0008C0  C01B  F027         	movff	??_SignalsOnOff,SignalsOnOff@DayTime
  4945  0008C4  C01C  F028         	movff	??_SignalsOnOff+1,SignalsOnOff@DayTime+1
  4946                           
  4947                           ;prog.c: 1396: ThisTime = DayTime % 1440;
  4948  0008C8  C027  F001         	movff	SignalsOnOff@DayTime,i1___lwmod@dividend
  4949  0008CC  C028  F002         	movff	SignalsOnOff@DayTime+1,i1___lwmod@dividend+1
  4950  0008D0  0E05               	movlw	5
  4951  0008D2  6E04               	movwf	i1___lwmod@divisor+1,c
  4952  0008D4  0EA0               	movlw	160
  4953  0008D6  6E03               	movwf	i1___lwmod@divisor,c
  4954  0008D8  EC69  F009         	call	i1___lwmod	;wreg free
  4955  0008DC  C001  F025         	movff	?i1___lwmod,SignalsOnOff@ThisTime
  4956  0008E0  C002  F026         	movff	?i1___lwmod+1,SignalsOnOff@ThisTime+1
  4957                           
  4958                           ;prog.c: 1397: ThisDay = DayTime / 1440 + 1;
  4959  0008E4  C027  F001         	movff	SignalsOnOff@DayTime,___lwdiv@dividend
  4960  0008E8  C028  F002         	movff	SignalsOnOff@DayTime+1,___lwdiv@dividend+1
  4961  0008EC  0E05               	movlw	5
  4962  0008EE  6E04               	movwf	___lwdiv@divisor+1,c
  4963  0008F0  0EA0               	movlw	160
  4964  0008F2  6E03               	movwf	___lwdiv@divisor,c
  4965  0008F4  ECA0  F008         	call	___lwdiv	;wreg free
  4966  0008F8  2801               	incf	?___lwdiv,w,c
  4967  0008FA  6E2B               	movwf	SignalsOnOff@ThisDay,c
  4968                           
  4969                           ;prog.c: 1398: ThisDay = ConvertDayToBit(ThisDay);
  4970  0008FC  502B               	movf	SignalsOnOff@ThisDay,w,c
  4971  0008FE  ECC5  F008         	call	_ConvertDayToBit
  4972  000902  6E2B               	movwf	SignalsOnOff@ThisDay,c
  4973                           
  4974                           ;prog.c: 1399: if (((ThisDay & Days) > 0) && (TimeStart <= ThisTime) && (TimeStop > This
      +                          Time)) {
  4975  000904  502B               	movf	SignalsOnOff@ThisDay,w,c
  4976  000906  1429               	andwf	SignalsOnOff@Days,w,c
  4977  000908  E00C               	bz	i1l833
  4978  00090A  501F               	movf	SignalsOnOff@TimeStart,w,c
  4979  00090C  5C25               	subwf	SignalsOnOff@ThisTime,w,c
  4980  00090E  5020               	movf	SignalsOnOff@TimeStart+1,w,c
  4981  000910  5826               	subwfb	SignalsOnOff@ThisTime+1,w,c
  4982  000912  E307               	bnc	i1l833
  4983  000914  5021               	movf	SignalsOnOff@TimeStop,w,c
  4984  000916  5C25               	subwf	SignalsOnOff@ThisTime,w,c
  4985  000918  5022               	movf	SignalsOnOff@TimeStop+1,w,c
  4986  00091A  5826               	subwfb	SignalsOnOff@ThisTime+1,w,c
  4987  00091C  E202               	bc	i1l833
  4988                           
  4989                           ;prog.c: 1400: SignalsOut = Signals | SignalsOut;
  4990  00091E  502A               	movf	SignalsOnOff@Signals,w,c
  4991  000920  1271               	iorwf	_SignalsOut,f,c	;volatile
  4992  000922                     i1l833:
  4993                           
  4994                           ;prog.c: 1401: }
  4995                           ;prog.c: 1402: }
  4996                           ;prog.c: 1403: }
  4997                           ;prog.c: 1404: CurrentReadingCell += 4;
  4998  000922  0E04               	movlw	4
  4999  000924  2669               	addwf	_CurrentReadingCell,f,c
  5000  000926  0E00               	movlw	0
  5001  000928  226A               	addwfc	_CurrentReadingCell+1,f,c
  5002                           
  5003                           ;prog.c: 1405: } else {
  5004  00092A  D046               	goto	i1l831
  5005  00092C                     i1l832:
  5006                           
  5007                           ; BSR set to: 0
  5008                           ;prog.c: 1406: SignalsForInd = (flags.LockSignals ? 0 : SignalsOut);
  5009  00092C  BFC0               	btfsc	_flags& (0+255),7,b
  5010  00092E  D003               	goto	i1l838
  5011                           
  5012                           ; BSR set to: 0
  5013  000930  C071  F023         	movff	_SignalsOut,_SignalsOnOff$1069	;volatile
  5014  000934  D001               	goto	L1
  5015  000936                     i1l838:
  5016                           
  5017                           ; BSR set to: 0
  5018  000936  6A23               	clrf	_SignalsOnOff$1069,c
  5019  000938                     L1:
  5020  000938  6A24               	clrf	_SignalsOnOff$1069+1,c
  5021                           
  5022                           ; BSR set to: 0
  5023  00093A  C023  F070         	movff	_SignalsOnOff$1069,_SignalsForInd	;volatile
  5024                           
  5025                           ;prog.c: 1407: SignalsOut = 0;
  5026  00093E  6A71               	clrf	_SignalsOut,c	;volatile
  5027                           
  5028                           ;prog.c: 1408: CurrentReadingCell = 0;
  5029  000940  6A69               	clrf	_CurrentReadingCell,c
  5030  000942  6A6A               	clrf	_CurrentReadingCell+1,c
  5031                           
  5032                           ; BSR set to: 0
  5033                           ;prog.c: 1409: unsigned char Data = (PORTB & 0b00011111) | ((CurrentSignals | SignalsFor
      +                          Ind)*32);
  5034  000944  506E               	movf	_CurrentSignals,w,c
  5035  000946  1070               	iorwf	_SignalsForInd,w,c	;volatile
  5036  000948  0D20               	mullw	32
  5037  00094A  5081               	movf	3969,w,c	;volatile
  5038  00094C  0B1F               	andlw	31
  5039  00094E  10F3               	iorwf	prodl,w,c
  5040  000950  6E2C               	movwf	SignalsOnOff@Data_1070,c
  5041                           
  5042                           ; BSR set to: 0
  5043                           ;prog.c: 1410: if ((Data & 0b11100000) != CurrentSignalsData) {
  5044  000952  502C               	movf	SignalsOnOff@Data_1070,w,c
  5045  000954  0BE0               	andlw	224
  5046  000956  186F               	xorwf	_CurrentSignalsData,w,c
  5047  000958  E02A               	bz	i1l4218
  5048                           
  5049                           ; BSR set to: 0
  5050                           ;prog.c: 1411: EEWR(cMinutesAdress, cMinutes);
  5051  00095A  6A07               	clrf	EEWR@adress+1,c
  5052  00095C  0EF0               	movlw	240
  5053  00095E  6E06               	movwf	EEWR@adress,c
  5054  000960  C073  F008         	movff	_cMinutes,EEWR@data
  5055  000964  EC78  F008         	call	_EEWR	;wreg free
  5056                           
  5057                           ;prog.c: 1412: EEWR(cHoursAdress, cHours);
  5058  000968  6A07               	clrf	EEWR@adress+1,c
  5059  00096A  0EF1               	movlw	241
  5060  00096C  6E06               	movwf	EEWR@adress,c
  5061  00096E  C072  F008         	movff	_cHours,EEWR@data
  5062  000972  EC78  F008         	call	_EEWR	;wreg free
  5063                           
  5064                           ;prog.c: 1413: EEWR(cWeekDayAdress, cWeekDay);
  5065  000976  6A07               	clrf	EEWR@adress+1,c
  5066  000978  0EF2               	movlw	242
  5067  00097A  6E06               	movwf	EEWR@adress,c
  5068  00097C  C05A  F008         	movff	_cWeekDay,EEWR@data
  5069  000980  EC78  F008         	call	_EEWR	;wreg free
  5070                           
  5071                           ;prog.c: 1414: EEWR(cDaysAdress, cDays);
  5072  000984  6A07               	clrf	EEWR@adress+1,c
  5073  000986  0EF3               	movlw	243
  5074  000988  6E06               	movwf	EEWR@adress,c
  5075  00098A  C058  F008         	movff	_cDays,EEWR@data
  5076  00098E  EC78  F008         	call	_EEWR	;wreg free
  5077                           
  5078                           ;prog.c: 1415: EEWR(cMonthsAdress, cMonths);
  5079  000992  6A07               	clrf	EEWR@adress+1,c
  5080  000994  0EF4               	movlw	244
  5081  000996  6E06               	movwf	EEWR@adress,c
  5082  000998  C059  F008         	movff	_cMonths,EEWR@data
  5083  00099C  EC78  F008         	call	_EEWR	;wreg free
  5084                           
  5085                           ;prog.c: 1416: EEWR(cYearsAdress, cYears);
  5086  0009A0  6A07               	clrf	EEWR@adress+1,c
  5087  0009A2  0EF5               	movlw	245
  5088  0009A4  6E06               	movwf	EEWR@adress,c
  5089  0009A6  C05B  F008         	movff	_cYears,EEWR@data
  5090  0009AA  EC78  F008         	call	_EEWR	;wreg free
  5091  0009AE                     i1l4218:
  5092                           
  5093                           ;prog.c: 1417: }
  5094                           ;prog.c: 1418: CurrentSignalsData = Data & 0b11100000;
  5095  0009AE  502C               	movf	SignalsOnOff@Data_1070,w,c
  5096  0009B0  0BE0               	andlw	224
  5097  0009B2  6E6F               	movwf	_CurrentSignalsData,c
  5098                           
  5099                           ;prog.c: 1419: PORTB = Data;
  5100  0009B4  C02C  FF81         	movff	SignalsOnOff@Data_1070,3969	;volatile
  5101  0009B8                     i1l831:
  5102  0009B8  0012               	return	
  5103  0009BA                     __end_of_SignalsOnOff:
  5104                           	opt stack 0
  5105  0009BA                     PL2:
  5106                           	opt stack 21
  5107  0009BA  90D8               	bcf	status,0,c
  5108  0009BC  3230               	rrcf	SignalsOnOff@Data+3,f,c
  5109  0009BE  322F               	rrcf	SignalsOnOff@Data+2,f,c
  5110  0009C0  322E               	rrcf	SignalsOnOff@Data+1,f,c
  5111  0009C2  322D               	rrcf	SignalsOnOff@Data,f,c
  5112  0009C4  0012               	return	
  5113  0009C6                     __end_ofPL2:
  5114                           	opt stack 0
  5115                           tblptru	equ	0xFF8
  5116                           tblptrh	equ	0xFF7
  5117                           tblptrl	equ	0xFF6
  5118                           tablat	equ	0xFF5
  5119                           prodh	equ	0xFF4
  5120                           prodl	equ	0xFF3
  5121                           intcon	equ	0xFF2
  5122                           intcon2	equ	0xFF1
  5123                           intcon3	equ	0xFF0
  5124                           postinc0	equ	0xFEE
  5125                           wreg	equ	0xFE8
  5126                           indf1	equ	0xFE7
  5127                           postinc1	equ	0xFE6
  5128                           postdec1	equ	0xFE5
  5129                           fsr1h	equ	0xFE2
  5130                           fsr1l	equ	0xFE1
  5131                           bsr	equ	0xFE0
  5132                           indf2	equ	0xFDF
  5133                           postinc2	equ	0xFDE
  5134                           fsr2h	equ	0xFDA
  5135                           fsr2l	equ	0xFD9
  5136                           status	equ	0xFD8
  5137                           
  5138 ;; *************** function ___lwdiv *****************
  5139 ;; Defined at:
  5140 ;;		line 8 in file "C:\Program Files (x86)\Microchip\xc8\v1.33\sources\common\lwdiv.c"
  5141 ;; Parameters:    Size  Location     Type
  5142 ;;  dividend        2    0[COMRAM] unsigned int 
  5143 ;;  divisor         2    2[COMRAM] unsigned int 
  5144 ;; Auto vars:     Size  Location     Type
  5145 ;;  quotient        2    4[COMRAM] unsigned int 
  5146 ;;  counter         1    6[COMRAM] unsigned char 
  5147 ;; Return value:  Size  Location     Type
  5148 ;;                  2    0[COMRAM] unsigned int 
  5149 ;; Registers used:
  5150 ;;		wreg, status,2, status,0
  5151 ;; Tracked objects:
  5152 ;;		On entry : 0/0
  5153 ;;		On exit  : 0/0
  5154 ;;		Unchanged: 0/0
  5155 ;; Data sizes:     COMRAM   BANK0   BANK1   BANK2   BANK3   BANK4   BANK5   BANK6   BANK7   BANK8   BANK9  BANK10  BANK1
      +1  BANK12  BANK13  BANK14  BANK15
  5156 ;;      Params:         4       0       0       0       0       0       0       0       0       0       0       0       
      +0       0       0       0       0
  5157 ;;      Locals:         3       0       0       0       0       0       0       0       0       0       0       0       
      +0       0       0       0       0
  5158 ;;      Temps:          0       0       0       0       0       0       0       0       0       0       0       0       
      +0       0       0       0       0
  5159 ;;      Totals:         7       0       0       0       0       0       0       0       0       0       0       0       
      +0       0       0       0       0
  5160 ;;Total ram usage:        7 bytes
  5161 ;; Hardware stack levels used:    1
  5162 ;; Hardware stack levels required when called:    1
  5163 ;; This function calls:
  5164 ;;		Nothing
  5165 ;; This function is called by:
  5166 ;;		_SignalsOnOff
  5167 ;; This function uses a non-reentrant model
  5168 ;;
  5169                           
  5170                           	psect	text17
  5171  001140                     __ptext17:
  5172                           	opt stack 0
  5173  001140                     ___lwdiv:
  5174                           	opt stack 23
  5175                           
  5176                           ;incstack = 0
  5177  001140  6A05               	clrf	___lwdiv@quotient,c
  5178  001142  6A06               	clrf	___lwdiv@quotient+1,c
  5179  001144  5004               	movf	___lwdiv@divisor+1,w,c
  5180  001146  1003               	iorwf	___lwdiv@divisor,w,c
  5181  001148  E01B               	bz	i1l1525
  5182  00114A  0E01               	movlw	1
  5183  00114C  6E07               	movwf	___lwdiv@counter,c
  5184  00114E  D004               	goto	i1l3324
  5185  001150                     i1l3322:
  5186  001150  90D8               	bcf	status,0,c
  5187  001152  3603               	rlcf	___lwdiv@divisor,f,c
  5188  001154  3604               	rlcf	___lwdiv@divisor+1,f,c
  5189  001156  2A07               	incf	___lwdiv@counter,f,c
  5190  001158                     i1l3324:
  5191  001158  AE04               	btfss	___lwdiv@divisor+1,7,c
  5192  00115A  D7FA               	goto	i1l3322
  5193  00115C                     i1l3326:
  5194  00115C  90D8               	bcf	status,0,c
  5195  00115E  3605               	rlcf	___lwdiv@quotient,f,c
  5196  001160  3606               	rlcf	___lwdiv@quotient+1,f,c
  5197  001162  5003               	movf	___lwdiv@divisor,w,c
  5198  001164  5C01               	subwf	___lwdiv@dividend,w,c
  5199  001166  5004               	movf	___lwdiv@divisor+1,w,c
  5200  001168  5802               	subwfb	___lwdiv@dividend+1,w,c
  5201  00116A  E305               	bnc	i1l3334
  5202  00116C  5003               	movf	___lwdiv@divisor,w,c
  5203  00116E  5E01               	subwf	___lwdiv@dividend,f,c
  5204  001170  5004               	movf	___lwdiv@divisor+1,w,c
  5205  001172  5A02               	subwfb	___lwdiv@dividend+1,f,c
  5206  001174  8005               	bsf	___lwdiv@quotient,0,c
  5207  001176                     i1l3334:
  5208  001176  90D8               	bcf	status,0,c
  5209  001178  3204               	rrcf	___lwdiv@divisor+1,f,c
  5210  00117A  3203               	rrcf	___lwdiv@divisor,f,c
  5211  00117C  2E07               	decfsz	___lwdiv@counter,f,c
  5212  00117E  D7EE               	goto	i1l3326
  5213  001180                     i1l1525:
  5214  001180  C005  F001         	movff	___lwdiv@quotient,?___lwdiv
  5215  001184  C006  F002         	movff	___lwdiv@quotient+1,?___lwdiv+1
  5216  001188  0012               	return	
  5217  00118A                     __end_of___lwdiv:
  5218                           	opt stack 0
  5219                           tblptru	equ	0xFF8
  5220                           tblptrh	equ	0xFF7
  5221                           tblptrl	equ	0xFF6
  5222                           tablat	equ	0xFF5
  5223                           prodh	equ	0xFF4
  5224                           prodl	equ	0xFF3
  5225                           intcon	equ	0xFF2
  5226                           intcon2	equ	0xFF1
  5227                           intcon3	equ	0xFF0
  5228                           postinc0	equ	0xFEE
  5229                           wreg	equ	0xFE8
  5230                           indf1	equ	0xFE7
  5231                           postinc1	equ	0xFE6
  5232                           postdec1	equ	0xFE5
  5233                           fsr1h	equ	0xFE2
  5234                           fsr1l	equ	0xFE1
  5235                           bsr	equ	0xFE0
  5236                           indf2	equ	0xFDF
  5237                           postinc2	equ	0xFDE
  5238                           fsr2h	equ	0xFDA
  5239                           fsr2l	equ	0xFD9
  5240                           status	equ	0xFD8
  5241                           
  5242 ;; *************** function ___aldiv *****************
  5243 ;; Defined at:
  5244 ;;		line 8 in file "C:\Program Files (x86)\Microchip\xc8\v1.33\sources\common\aldiv.c"
  5245 ;; Parameters:    Size  Location     Type
  5246 ;;  dividend        4    0[COMRAM] long 
  5247 ;;  divisor         4    4[COMRAM] long 
  5248 ;; Auto vars:     Size  Location     Type
  5249 ;;  quotient        4   10[COMRAM] long 
  5250 ;;  sign            1    9[COMRAM] unsigned char 
  5251 ;;  counter         1    8[COMRAM] unsigned char 
  5252 ;; Return value:  Size  Location     Type
  5253 ;;                  4    0[COMRAM] long 
  5254 ;; Registers used:
  5255 ;;		wreg, status,2, status,0
  5256 ;; Tracked objects:
  5257 ;;		On entry : 0/0
  5258 ;;		On exit  : 0/0
  5259 ;;		Unchanged: 0/0
  5260 ;; Data sizes:     COMRAM   BANK0   BANK1   BANK2   BANK3   BANK4   BANK5   BANK6   BANK7   BANK8   BANK9  BANK10  BANK1
      +1  BANK12  BANK13  BANK14  BANK15
  5261 ;;      Params:         8       0       0       0       0       0       0       0       0       0       0       0       
      +0       0       0       0       0
  5262 ;;      Locals:         6       0       0       0       0       0       0       0       0       0       0       0       
      +0       0       0       0       0
  5263 ;;      Temps:          0       0       0       0       0       0       0       0       0       0       0       0       
      +0       0       0       0       0
  5264 ;;      Totals:        14       0       0       0       0       0       0       0       0       0       0       0       
      +0       0       0       0       0
  5265 ;;Total ram usage:       14 bytes
  5266 ;; Hardware stack levels used:    1
  5267 ;; Hardware stack levels required when called:    1
  5268 ;; This function calls:
  5269 ;;		Nothing
  5270 ;; This function is called by:
  5271 ;;		_SignalsOnOff
  5272 ;; This function uses a non-reentrant model
  5273 ;;
  5274                           
  5275                           	psect	text18
  5276  0009C6                     __ptext18:
  5277                           	opt stack 0
  5278  0009C6                     ___aldiv:
  5279                           	opt stack 23
  5280                           
  5281                           ;incstack = 0
  5282  0009C6  6A0A               	clrf	___aldiv@sign,c
  5283  0009C8  5008               	movf	___aldiv@divisor+3,w,c
  5284  0009CA  0A80               	xorlw	128
  5285  0009CC  0F80               	addlw	128
  5286  0009CE  E108               	bnz	i1u114_25
  5287  0009D0  0E00               	movlw	0
  5288  0009D2  5C07               	subwf	___aldiv@divisor+2,w,c
  5289  0009D4  E105               	bnz	i1u114_25
  5290  0009D6  0E00               	movlw	0
  5291  0009D8  5C06               	subwf	___aldiv@divisor+1,w,c
  5292  0009DA  E102               	bnz	i1u114_25
  5293  0009DC  0E00               	movlw	0
  5294  0009DE  5C05               	subwf	___aldiv@divisor,w,c
  5295  0009E0                     i1u114_25:
  5296  0009E0  E20A               	bc	i1l3280
  5297  0009E2  1E08               	comf	___aldiv@divisor+3,f,c
  5298  0009E4  1E07               	comf	___aldiv@divisor+2,f,c
  5299  0009E6  1E06               	comf	___aldiv@divisor+1,f,c
  5300  0009E8  6C05               	negf	___aldiv@divisor,c
  5301  0009EA  0E00               	movlw	0
  5302  0009EC  2206               	addwfc	___aldiv@divisor+1,f,c
  5303  0009EE  2207               	addwfc	___aldiv@divisor+2,f,c
  5304  0009F0  2208               	addwfc	___aldiv@divisor+3,f,c
  5305  0009F2  0E01               	movlw	1
  5306  0009F4  6E0A               	movwf	___aldiv@sign,c
  5307  0009F6                     i1l3280:
  5308  0009F6  5004               	movf	___aldiv@dividend+3,w,c
  5309  0009F8  0A80               	xorlw	128
  5310  0009FA  0F80               	addlw	128
  5311  0009FC  E108               	bnz	i1u115_25
  5312  0009FE  0E00               	movlw	0
  5313  000A00  5C03               	subwf	___aldiv@dividend+2,w,c
  5314  000A02  E105               	bnz	i1u115_25
  5315  000A04  0E00               	movlw	0
  5316  000A06  5C02               	subwf	___aldiv@dividend+1,w,c
  5317  000A08  E102               	bnz	i1u115_25
  5318  000A0A  0E00               	movlw	0
  5319  000A0C  5C01               	subwf	___aldiv@dividend,w,c
  5320  000A0E                     i1u115_25:
  5321  000A0E  E20A               	bc	i1l3286
  5322  000A10  1E04               	comf	___aldiv@dividend+3,f,c
  5323  000A12  1E03               	comf	___aldiv@dividend+2,f,c
  5324  000A14  1E02               	comf	___aldiv@dividend+1,f,c
  5325  000A16  6C01               	negf	___aldiv@dividend,c
  5326  000A18  0E00               	movlw	0
  5327  000A1A  2202               	addwfc	___aldiv@dividend+1,f,c
  5328  000A1C  2203               	addwfc	___aldiv@dividend+2,f,c
  5329  000A1E  2204               	addwfc	___aldiv@dividend+3,f,c
  5330  000A20  0E01               	movlw	1
  5331  000A22  1A0A               	xorwf	___aldiv@sign,f,c
  5332  000A24                     i1l3286:
  5333  000A24  6A0B               	clrf	___aldiv@quotient,c
  5334  000A26  6A0C               	clrf	___aldiv@quotient+1,c
  5335  000A28  6A0D               	clrf	___aldiv@quotient+2,c
  5336  000A2A  6A0E               	clrf	___aldiv@quotient+3,c
  5337  000A2C  5008               	movf	___aldiv@divisor+3,w,c
  5338  000A2E  1005               	iorwf	___aldiv@divisor,w,c
  5339  000A30  1006               	iorwf	___aldiv@divisor+1,w,c
  5340  000A32  1007               	iorwf	___aldiv@divisor+2,w,c
  5341  000A34  E029               	bz	i1l3308
  5342  000A36  0E01               	movlw	1
  5343  000A38  6E09               	movwf	___aldiv@counter,c
  5344  000A3A  D006               	goto	i1l3294
  5345  000A3C                     i1l3292:
  5346  000A3C  90D8               	bcf	status,0,c
  5347  000A3E  3605               	rlcf	___aldiv@divisor,f,c
  5348  000A40  3606               	rlcf	___aldiv@divisor+1,f,c
  5349  000A42  3607               	rlcf	___aldiv@divisor+2,f,c
  5350  000A44  3608               	rlcf	___aldiv@divisor+3,f,c
  5351  000A46  2A09               	incf	___aldiv@counter,f,c
  5352  000A48                     i1l3294:
  5353  000A48  AE08               	btfss	___aldiv@divisor+3,7,c
  5354  000A4A  D7F8               	goto	i1l3292
  5355  000A4C                     i1l3296:
  5356  000A4C  90D8               	bcf	status,0,c
  5357  000A4E  360B               	rlcf	___aldiv@quotient,f,c
  5358  000A50  360C               	rlcf	___aldiv@quotient+1,f,c
  5359  000A52  360D               	rlcf	___aldiv@quotient+2,f,c
  5360  000A54  360E               	rlcf	___aldiv@quotient+3,f,c
  5361  000A56  5005               	movf	___aldiv@divisor,w,c
  5362  000A58  5C01               	subwf	___aldiv@dividend,w,c
  5363  000A5A  5006               	movf	___aldiv@divisor+1,w,c
  5364  000A5C  5802               	subwfb	___aldiv@dividend+1,w,c
  5365  000A5E  5007               	movf	___aldiv@divisor+2,w,c
  5366  000A60  5803               	subwfb	___aldiv@dividend+2,w,c
  5367  000A62  5008               	movf	___aldiv@divisor+3,w,c
  5368  000A64  5804               	subwfb	___aldiv@dividend+3,w,c
  5369  000A66  E309               	bnc	i1l3304
  5370  000A68  5005               	movf	___aldiv@divisor,w,c
  5371  000A6A  5E01               	subwf	___aldiv@dividend,f,c
  5372  000A6C  5006               	movf	___aldiv@divisor+1,w,c
  5373  000A6E  5A02               	subwfb	___aldiv@dividend+1,f,c
  5374  000A70  5007               	movf	___aldiv@divisor+2,w,c
  5375  000A72  5A03               	subwfb	___aldiv@dividend+2,f,c
  5376  000A74  5008               	movf	___aldiv@divisor+3,w,c
  5377  000A76  5A04               	subwfb	___aldiv@dividend+3,f,c
  5378  000A78  800B               	bsf	___aldiv@quotient,0,c
  5379  000A7A                     i1l3304:
  5380  000A7A  90D8               	bcf	status,0,c
  5381  000A7C  3208               	rrcf	___aldiv@divisor+3,f,c
  5382  000A7E  3207               	rrcf	___aldiv@divisor+2,f,c
  5383  000A80  3206               	rrcf	___aldiv@divisor+1,f,c
  5384  000A82  3205               	rrcf	___aldiv@divisor,f,c
  5385  000A84  2E09               	decfsz	___aldiv@counter,f,c
  5386  000A86  D7E2               	goto	i1l3296
  5387  000A88                     i1l3308:
  5388  000A88  500A               	movf	___aldiv@sign,w,c
  5389  000A8A  E008               	bz	i1l3312
  5390  000A8C  1E0E               	comf	___aldiv@quotient+3,f,c
  5391  000A8E  1E0D               	comf	___aldiv@quotient+2,f,c
  5392  000A90  1E0C               	comf	___aldiv@quotient+1,f,c
  5393  000A92  6C0B               	negf	___aldiv@quotient,c
  5394  000A94  0E00               	movlw	0
  5395  000A96  220C               	addwfc	___aldiv@quotient+1,f,c
  5396  000A98  220D               	addwfc	___aldiv@quotient+2,f,c
  5397  000A9A  220E               	addwfc	___aldiv@quotient+3,f,c
  5398  000A9C                     i1l3312:
  5399  000A9C  C00B  F001         	movff	___aldiv@quotient,?___aldiv
  5400  000AA0  C00C  F002         	movff	___aldiv@quotient+1,?___aldiv+1
  5401  000AA4  C00D  F003         	movff	___aldiv@quotient+2,?___aldiv+2
  5402  000AA8  C00E  F004         	movff	___aldiv@quotient+3,?___aldiv+3
  5403  000AAC  0012               	return	
  5404  000AAE                     __end_of___aldiv:
  5405                           	opt stack 0
  5406                           tblptru	equ	0xFF8
  5407                           tblptrh	equ	0xFF7
  5408                           tblptrl	equ	0xFF6
  5409                           tablat	equ	0xFF5
  5410                           prodh	equ	0xFF4
  5411                           prodl	equ	0xFF3
  5412                           intcon	equ	0xFF2
  5413                           intcon2	equ	0xFF1
  5414                           intcon3	equ	0xFF0
  5415                           postinc0	equ	0xFEE
  5416                           wreg	equ	0xFE8
  5417                           indf1	equ	0xFE7
  5418                           postinc1	equ	0xFE6
  5419                           postdec1	equ	0xFE5
  5420                           fsr1h	equ	0xFE2
  5421                           fsr1l	equ	0xFE1
  5422                           bsr	equ	0xFE0
  5423                           indf2	equ	0xFDF
  5424                           postinc2	equ	0xFDE
  5425                           fsr2h	equ	0xFDA
  5426                           fsr2l	equ	0xFD9
  5427                           status	equ	0xFD8
  5428                           
  5429 ;; *************** function _ReadFourBytesEE *****************
  5430 ;; Defined at:
  5431 ;;		line 803 in file "prog.c"
  5432 ;; Parameters:    Size  Location     Type
  5433 ;;  adress          2   12[COMRAM] unsigned int 
  5434 ;; Auto vars:     Size  Location     Type
  5435 ;;  i               2   24[COMRAM] int 
  5436 ;;  x               4   20[COMRAM] unsigned long 
  5437 ;; Return value:  Size  Location     Type
  5438 ;;                  4   12[COMRAM] unsigned long 
  5439 ;; Registers used:
  5440 ;;		wreg, status,2, status,0, prodl, cstack
  5441 ;; Tracked objects:
  5442 ;;		On entry : F/0
  5443 ;;		On exit  : 0/0
  5444 ;;		Unchanged: 0/0
  5445 ;; Data sizes:     COMRAM   BANK0   BANK1   BANK2   BANK3   BANK4   BANK5   BANK6   BANK7   BANK8   BANK9  BANK10  BANK1
      +1  BANK12  BANK13  BANK14  BANK15
  5446 ;;      Params:         4       0       0       0       0       0       0       0       0       0       0       0       
      +0       0       0       0       0
  5447 ;;      Locals:         6       0       0       0       0       0       0       0       0       0       0       0       
      +0       0       0       0       0
  5448 ;;      Temps:          4       0       0       0       0       0       0       0       0       0       0       0       
      +0       0       0       0       0
  5449 ;;      Totals:        14       0       0       0       0       0       0       0       0       0       0       0       
      +0       0       0       0       0
  5450 ;;Total ram usage:       14 bytes
  5451 ;; Hardware stack levels used:    1
  5452 ;; Hardware stack levels required when called:    3
  5453 ;; This function calls:
  5454 ;;		i1_EERD
  5455 ;; This function is called by:
  5456 ;;		_SignalsOnOff
  5457 ;; This function uses a non-reentrant model
  5458 ;;
  5459                           
  5460                           	psect	text19
  5461  00102C                     __ptext19:
  5462                           	opt stack 0
  5463  00102C                     _ReadFourBytesEE:
  5464                           	opt stack 21
  5465                           
  5466                           ; BSR set to: 0
  5467                           ;prog.c: 804: unsigned long int x;
  5468                           ;prog.c: 805: for (int i = 3; i >= 0; i--) {
  5469                           
  5470                           ;incstack = 0
  5471  00102C  6A1A               	clrf	ReadFourBytesEE@i+1,c
  5472  00102E  0E03               	movlw	3
  5473  001030  6E19               	movwf	ReadFourBytesEE@i,c
  5474  001032                     i1l3116:
  5475                           
  5476                           ;prog.c: 806: x = x * 256 + EERD(adress + i);
  5477  001032  500D               	movf	ReadFourBytesEE@adress,w,c
  5478  001034  2419               	addwf	ReadFourBytesEE@i,w,c
  5479  001036  6E06               	movwf	i1EERD@adress,c
  5480  001038  500E               	movf	ReadFourBytesEE@adress+1,w,c
  5481  00103A  201A               	addwfc	ReadFourBytesEE@i+1,w,c
  5482  00103C  6E07               	movwf	i1EERD@adress+1,c
  5483  00103E  EC2A  F009         	call	i1_EERD	;wreg free
  5484  001042  C015  F012         	movff	ReadFourBytesEE@x,??_ReadFourBytesEE+1
  5485  001046  C016  F013         	movff	ReadFourBytesEE@x+1,??_ReadFourBytesEE+2
  5486  00104A  C017  F014         	movff	ReadFourBytesEE@x+2,??_ReadFourBytesEE+3
  5487  00104E  6A11               	clrf	??_ReadFourBytesEE& (0+255),c
  5488  001050  2411               	addwf	??_ReadFourBytesEE,w,c
  5489  001052  6E15               	movwf	ReadFourBytesEE@x,c
  5490  001054  0E00               	movlw	0
  5491  001056  2012               	addwfc	??_ReadFourBytesEE+1,w,c
  5492  001058  6E16               	movwf	ReadFourBytesEE@x+1,c
  5493  00105A  0E00               	movlw	0
  5494  00105C  2013               	addwfc	??_ReadFourBytesEE+2,w,c
  5495  00105E  6E17               	movwf	ReadFourBytesEE@x+2,c
  5496  001060  0E00               	movlw	0
  5497  001062  2014               	addwfc	??_ReadFourBytesEE+3,w,c
  5498  001064  6E18               	movwf	ReadFourBytesEE@x+3,c
  5499  001066  0619               	decf	ReadFourBytesEE@i,f,c
  5500  001068  A0D8               	btfss	status,0,c
  5501  00106A  061A               	decf	ReadFourBytesEE@i+1,f,c
  5502  00106C  501A               	movf	ReadFourBytesEE@i+1,w,c
  5503  00106E  0A80               	xorlw	128
  5504  001070  6EF3               	movwf	prodl,c
  5505  001072  0E80               	movlw	128
  5506  001074  5CF3               	subwf	prodl,w,c
  5507  001076  0E00               	movlw	0
  5508  001078  B4D8               	btfsc	status,2,c
  5509  00107A  5C19               	subwf	ReadFourBytesEE@i,w,c
  5510  00107C  E2DA               	bc	i1l3116
  5511                           
  5512                           ;prog.c: 807: }
  5513                           ;prog.c: 808: return x;
  5514  00107E  C015  F00D         	movff	ReadFourBytesEE@x,?_ReadFourBytesEE
  5515  001082  C016  F00E         	movff	ReadFourBytesEE@x+1,?_ReadFourBytesEE+1
  5516  001086  C017  F00F         	movff	ReadFourBytesEE@x+2,?_ReadFourBytesEE+2
  5517  00108A  C018  F010         	movff	ReadFourBytesEE@x+3,?_ReadFourBytesEE+3
  5518  00108E  0012               	return	
  5519  001090                     __end_of_ReadFourBytesEE:
  5520                           	opt stack 0
  5521                           tblptru	equ	0xFF8
  5522                           tblptrh	equ	0xFF7
  5523                           tblptrl	equ	0xFF6
  5524                           tablat	equ	0xFF5
  5525                           prodh	equ	0xFF4
  5526                           prodl	equ	0xFF3
  5527                           intcon	equ	0xFF2
  5528                           intcon2	equ	0xFF1
  5529                           intcon3	equ	0xFF0
  5530                           postinc0	equ	0xFEE
  5531                           wreg	equ	0xFE8
  5532                           indf1	equ	0xFE7
  5533                           postinc1	equ	0xFE6
  5534                           postdec1	equ	0xFE5
  5535                           fsr1h	equ	0xFE2
  5536                           fsr1l	equ	0xFE1
  5537                           bsr	equ	0xFE0
  5538                           indf2	equ	0xFDF
  5539                           postinc2	equ	0xFDE
  5540                           fsr2h	equ	0xFDA
  5541                           fsr2l	equ	0xFD9
  5542                           status	equ	0xFD8
  5543                           
  5544 ;; *************** function i1_EERD *****************
  5545 ;; Defined at:
  5546 ;;		line 613 in file "prog.c"
  5547 ;; Parameters:    Size  Location     Type
  5548 ;;  adress          2    5[COMRAM] unsigned int 
  5549 ;; Auto vars:     Size  Location     Type
  5550 ;;  EERD            1   11[COMRAM] volatile unsigned char 
  5551 ;;  EERD            1   10[COMRAM] volatile unsigned char 
  5552 ;; Return value:  Size  Location     Type
  5553 ;;                  1    wreg      unsigned char 
  5554 ;; Registers used:
  5555 ;;		wreg, status,2, status,0, cstack
  5556 ;; Tracked objects:
  5557 ;;		On entry : 0/0
  5558 ;;		On exit  : 0/0
  5559 ;;		Unchanged: 0/0
  5560 ;; Data sizes:     COMRAM   BANK0   BANK1   BANK2   BANK3   BANK4   BANK5   BANK6   BANK7   BANK8   BANK9  BANK10  BANK1
      +1  BANK12  BANK13  BANK14  BANK15
  5561 ;;      Params:         2       0       0       0       0       0       0       0       0       0       0       0       
      +0       0       0       0       0
  5562 ;;      Locals:         2       0       0       0       0       0       0       0       0       0       0       0       
      +0       0       0       0       0
  5563 ;;      Temps:          3       0       0       0       0       0       0       0       0       0       0       0       
      +0       0       0       0       0
  5564 ;;      Totals:         7       0       0       0       0       0       0       0       0       0       0       0       
      +0       0       0       0       0
  5565 ;;Total ram usage:        7 bytes
  5566 ;; Hardware stack levels used:    1
  5567 ;; Hardware stack levels required when called:    2
  5568 ;; This function calls:
  5569 ;;		i1___lwmod
  5570 ;; This function is called by:
  5571 ;;		_ReadFourBytesEE
  5572 ;; This function uses a non-reentrant model
  5573 ;;
  5574                           
  5575                           	psect	text20
  5576  001254                     __ptext20:
  5577                           	opt stack 0
  5578  001254                     i1_EERD:
  5579                           	opt stack 21
  5580                           
  5581                           ;prog.c: 614: volatile unsigned char INTCON_BUP = INTCON;
  5582                           
  5583                           ;incstack = 0
  5584  001254  CFF2 F00B          	movff	intcon,i1EERD@INTCON_BUP	;volatile
  5585                           
  5586                           ;prog.c: 615: volatile unsigned char EEDATA_BUP;
  5587                           ;prog.c: 616: INTCONbits.GIEH = 0;
  5588  001258  9EF2               	bcf	intcon,7,c	;volatile
  5589                           
  5590                           ;prog.c: 617: INTCONbits.GIEL = 0;
  5591  00125A  9CF2               	bcf	intcon,6,c	;volatile
  5592  00125C  0004               	clrwdt		;# 
  5593                           
  5594                           ;prog.c: 619: EEADRH = adress >> 8;
  5595  00125E  C007  F008         	movff	i1EERD@adress+1,??i1_EERD
  5596  001262  C008  F009         	movff	??i1_EERD,??i1_EERD+1
  5597  001266  6A0A               	clrf	(??i1_EERD+2)& (0+255),c
  5598  001268  5009               	movf	??i1_EERD+1,w,c
  5599  00126A  6EAA               	movwf	4010,c	;volatile
  5600                           
  5601                           ;prog.c: 620: EEADR = adress % 255;
  5602  00126C  C006  F001         	movff	i1EERD@adress,i1___lwmod@dividend
  5603  001270  C007  F002         	movff	i1EERD@adress+1,i1___lwmod@dividend+1
  5604  001274  0E00               	movlw	0
  5605  001276  6A04               	clrf	i1___lwmod@divisor+1,c
  5606  001278  6803               	setf	i1___lwmod@divisor,c
  5607  00127A  EC69  F009         	call	i1___lwmod	;wreg free
  5608  00127E  5001               	movf	?i1___lwmod,w,c
  5609  001280  6EA9               	movwf	4009,c	;volatile
  5610                           
  5611                           ;prog.c: 621: EECON1bits.EEPGD = 0;
  5612  001282  9EA6               	bcf	4006,7,c	;volatile
  5613                           
  5614                           ;prog.c: 622: EECON1bits.CFGS = 0;
  5615  001284  9CA6               	bcf	4006,6,c	;volatile
  5616                           
  5617                           ;prog.c: 623: EECON1bits.RD = 1;
  5618  001286  80A6               	bsf	4006,0,c	;volatile
  5619                           
  5620                           ;prog.c: 624: EEDATA_BUP = EEDATA;
  5621  001288  CFA8 F00C          	movff	4008,i1EERD@EEDATA_BUP	;volatile
  5622                           
  5623                           ;prog.c: 625: INTCON = INTCON_BUP;
  5624  00128C  C00B  FFF2         	movff	i1EERD@INTCON_BUP,intcon	;volatile
  5625                           
  5626                           ;prog.c: 626: return EEDATA_BUP;
  5627  001290  500C               	movf	i1EERD@EEDATA_BUP,w,c	;volatile
  5628  001292  0012               	return	
  5629  001294                     __end_ofi1_EERD:
  5630                           	opt stack 0
  5631                           tblptru	equ	0xFF8
  5632                           tblptrh	equ	0xFF7
  5633                           tblptrl	equ	0xFF6
  5634                           tablat	equ	0xFF5
  5635                           prodh	equ	0xFF4
  5636                           prodl	equ	0xFF3
  5637                           intcon	equ	0xFF2
  5638                           intcon2	equ	0xFF1
  5639                           intcon3	equ	0xFF0
  5640                           postinc0	equ	0xFEE
  5641                           wreg	equ	0xFE8
  5642                           indf1	equ	0xFE7
  5643                           postinc1	equ	0xFE6
  5644                           postdec1	equ	0xFE5
  5645                           fsr1h	equ	0xFE2
  5646                           fsr1l	equ	0xFE1
  5647                           bsr	equ	0xFE0
  5648                           indf2	equ	0xFDF
  5649                           postinc2	equ	0xFDE
  5650                           fsr2h	equ	0xFDA
  5651                           fsr2l	equ	0xFD9
  5652                           status	equ	0xFD8
  5653                           
  5654 ;; *************** function _EEWR *****************
  5655 ;; Defined at:
  5656 ;;		line 592 in file "prog.c"
  5657 ;; Parameters:    Size  Location     Type
  5658 ;;  adress          2    5[COMRAM] unsigned int 
  5659 ;;  data            1    7[COMRAM] unsigned char 
  5660 ;; Auto vars:     Size  Location     Type
  5661 ;;  INTCON_BUP      1   11[COMRAM] volatile unsigned char 
  5662 ;; Return value:  Size  Location     Type
  5663 ;;		None               void
  5664 ;; Registers used:
  5665 ;;		wreg, status,2, status,0, cstack
  5666 ;; Tracked objects:
  5667 ;;		On entry : 0/0
  5668 ;;		On exit  : 0/0
  5669 ;;		Unchanged: 0/0
  5670 ;; Data sizes:     COMRAM   BANK0   BANK1   BANK2   BANK3   BANK4   BANK5   BANK6   BANK7   BANK8   BANK9  BANK10  BANK1
      +1  BANK12  BANK13  BANK14  BANK15
  5671 ;;      Params:         3       0       0       0       0       0       0       0       0       0       0       0       
      +0       0       0       0       0
  5672 ;;      Locals:         1       0       0       0       0       0       0       0       0       0       0       0       
      +0       0       0       0       0
  5673 ;;      Temps:          3       0       0       0       0       0       0       0       0       0       0       0       
      +0       0       0       0       0
  5674 ;;      Totals:         7       0       0       0       0       0       0       0       0       0       0       0       
      +0       0       0       0       0
  5675 ;;Total ram usage:        7 bytes
  5676 ;; Hardware stack levels used:    1
  5677 ;; Hardware stack levels required when called:    2
  5678 ;; This function calls:
  5679 ;;		i1___lwmod
  5680 ;; This function is called by:
  5681 ;;		_SignalsOnOff
  5682 ;; This function uses a non-reentrant model
  5683 ;;
  5684                           
  5685                           	psect	text21
  5686  0010F0                     __ptext21:
  5687                           	opt stack 0
  5688  0010F0                     _EEWR:
  5689                           	opt stack 22
  5690                           
  5691                           ;prog.c: 593: volatile unsigned char INTCON_BUP = INTCON;
  5692                           
  5693                           ;incstack = 0
  5694  0010F0  CFF2 F00C          	movff	intcon,EEWR@INTCON_BUP	;volatile
  5695                           
  5696                           ;prog.c: 594: INTCONbits.GIEH = 0;
  5697  0010F4  9EF2               	bcf	intcon,7,c	;volatile
  5698                           
  5699                           ;prog.c: 595: INTCONbits.GIEL = 0;
  5700  0010F6  9CF2               	bcf	intcon,6,c	;volatile
  5701  0010F8  0004               	clrwdt		;# 
  5702                           
  5703                           ;prog.c: 597: EEADRH = adress >> 8;
  5704  0010FA  C007  F009         	movff	EEWR@adress+1,??_EEWR
  5705  0010FE  C009  F00A         	movff	??_EEWR,??_EEWR+1
  5706  001102  6A0B               	clrf	(??_EEWR+2)& (0+255),c
  5707  001104  500A               	movf	??_EEWR+1,w,c
  5708  001106  6EAA               	movwf	4010,c	;volatile
  5709                           
  5710                           ;prog.c: 598: EEADR = adress % 255;
  5711  001108  C006  F001         	movff	EEWR@adress,i1___lwmod@dividend
  5712  00110C  C007  F002         	movff	EEWR@adress+1,i1___lwmod@dividend+1
  5713  001110  0E00               	movlw	0
  5714  001112  6A04               	clrf	i1___lwmod@divisor+1,c
  5715  001114  6803               	setf	i1___lwmod@divisor,c
  5716  001116  EC69  F009         	call	i1___lwmod	;wreg free
  5717  00111A  5001               	movf	?i1___lwmod,w,c
  5718  00111C  6EA9               	movwf	4009,c	;volatile
  5719                           
  5720                           ;prog.c: 599: EEDATA = data;
  5721  00111E  C008  FFA8         	movff	EEWR@data,4008	;volatile
  5722                           
  5723                           ;prog.c: 600: EECON1bits.EEPGD = 0;
  5724  001122  9EA6               	bcf	4006,7,c	;volatile
  5725                           
  5726                           ;prog.c: 601: EECON1bits.CFGS = 0;
  5727  001124  9CA6               	bcf	4006,6,c	;volatile
  5728                           
  5729                           ;prog.c: 602: EECON1bits.WREN = 1;
  5730  001126  84A6               	bsf	4006,2,c	;volatile
  5731                           
  5732                           ;prog.c: 603: EECON2 = 0x55;
  5733  001128  0E55               	movlw	85
  5734  00112A  6EA7               	movwf	4007,c	;volatile
  5735                           
  5736                           ;prog.c: 604: EECON2 = 0xAA;
  5737  00112C  0EAA               	movlw	170
  5738  00112E  6EA7               	movwf	4007,c	;volatile
  5739                           
  5740                           ;prog.c: 605: EECON1bits.WR = 1;
  5741  001130  82A6               	bsf	4006,1,c	;volatile
  5742                           
  5743                           ;prog.c: 606: EECON1bits.WREN = 0;
  5744  001132  94A6               	bcf	4006,2,c	;volatile
  5745  001134                     i1l455:
  5746  001134  B2A6               	btfsc	4006,1,c	;volatile
  5747  001136  D7FE               	goto	i1l455
  5748                           
  5749                           ;prog.c: 608: }
  5750                           ;prog.c: 609: PIR2bits.EEIF = 0;
  5751  001138  98A1               	bcf	4001,4,c	;volatile
  5752                           
  5753                           ;prog.c: 610: INTCON = INTCON_BUP;
  5754  00113A  C00C  FFF2         	movff	EEWR@INTCON_BUP,intcon	;volatile
  5755  00113E  0012               	return	
  5756  001140                     __end_of_EEWR:
  5757                           	opt stack 0
  5758                           tblptru	equ	0xFF8
  5759                           tblptrh	equ	0xFF7
  5760                           tblptrl	equ	0xFF6
  5761                           tablat	equ	0xFF5
  5762                           prodh	equ	0xFF4
  5763                           prodl	equ	0xFF3
  5764                           intcon	equ	0xFF2
  5765                           intcon2	equ	0xFF1
  5766                           intcon3	equ	0xFF0
  5767                           postinc0	equ	0xFEE
  5768                           wreg	equ	0xFE8
  5769                           indf1	equ	0xFE7
  5770                           postinc1	equ	0xFE6
  5771                           postdec1	equ	0xFE5
  5772                           fsr1h	equ	0xFE2
  5773                           fsr1l	equ	0xFE1
  5774                           bsr	equ	0xFE0
  5775                           indf2	equ	0xFDF
  5776                           postinc2	equ	0xFDE
  5777                           fsr2h	equ	0xFDA
  5778                           fsr2l	equ	0xFD9
  5779                           status	equ	0xFD8
  5780                           
  5781 ;; *************** function i1___lwmod *****************
  5782 ;; Defined at:
  5783 ;;		line 8 in file "C:\Program Files (x86)\Microchip\xc8\v1.33\sources\common\lwmod.c"
  5784 ;; Parameters:    Size  Location     Type
  5785 ;;  dividend        2    0[COMRAM] unsigned int 
  5786 ;;  divisor         2    2[COMRAM] unsigned int 
  5787 ;; Auto vars:     Size  Location     Type
  5788 ;;  __lwmod         1    4[COMRAM] unsigned char 
  5789 ;; Return value:  Size  Location     Type
  5790 ;;                  2    0[COMRAM] unsigned int 
  5791 ;; Registers used:
  5792 ;;		wreg, status,2, status,0
  5793 ;; Tracked objects:
  5794 ;;		On entry : 0/0
  5795 ;;		On exit  : 0/0
  5796 ;;		Unchanged: 0/0
  5797 ;; Data sizes:     COMRAM   BANK0   BANK1   BANK2   BANK3   BANK4   BANK5   BANK6   BANK7   BANK8   BANK9  BANK10  BANK1
      +1  BANK12  BANK13  BANK14  BANK15
  5798 ;;      Params:         4       0       0       0       0       0       0       0       0       0       0       0       
      +0       0       0       0       0
  5799 ;;      Locals:         1       0       0       0       0       0       0       0       0       0       0       0       
      +0       0       0       0       0
  5800 ;;      Temps:          0       0       0       0       0       0       0       0       0       0       0       0       
      +0       0       0       0       0
  5801 ;;      Totals:         5       0       0       0       0       0       0       0       0       0       0       0       
      +0       0       0       0       0
  5802 ;;Total ram usage:        5 bytes
  5803 ;; Hardware stack levels used:    1
  5804 ;; Hardware stack levels required when called:    1
  5805 ;; This function calls:
  5806 ;;		Nothing
  5807 ;; This function is called by:
  5808 ;;		_EEWR
  5809 ;;		_SignalsOnOff
  5810 ;;		i1_EERD
  5811 ;; This function uses a non-reentrant model
  5812 ;;
  5813                           
  5814                           	psect	text22
  5815  0012D2                     __ptext22:
  5816                           	opt stack 0
  5817  0012D2                     i1___lwmod:
  5818                           	opt stack 23
  5819                           
  5820                           ;incstack = 0
  5821  0012D2  5004               	movf	i1___lwmod@divisor+1,w,c
  5822  0012D4  1003               	iorwf	i1___lwmod@divisor,w,c
  5823  0012D6  E017               	bz	i1l1535
  5824  0012D8  0E01               	movlw	1
  5825  0012DA  6E05               	movwf	i1___lwmod@counter,c
  5826  0012DC  D004               	goto	i1l3052
  5827  0012DE                     i1l3050:
  5828  0012DE  90D8               	bcf	status,0,c
  5829  0012E0  3603               	rlcf	i1___lwmod@divisor,f,c
  5830  0012E2  3604               	rlcf	i1___lwmod@divisor+1,f,c
  5831  0012E4  2A05               	incf	i1___lwmod@counter,f,c
  5832  0012E6                     i1l3052:
  5833  0012E6  AE04               	btfss	i1___lwmod@divisor+1,7,c
  5834  0012E8  D7FA               	goto	i1l3050
  5835  0012EA                     i1l3054:
  5836  0012EA  5003               	movf	i1___lwmod@divisor,w,c
  5837  0012EC  5C01               	subwf	i1___lwmod@dividend,w,c
  5838  0012EE  5004               	movf	i1___lwmod@divisor+1,w,c
  5839  0012F0  5802               	subwfb	i1___lwmod@dividend+1,w,c
  5840  0012F2  E304               	bnc	i1l3058
  5841  0012F4  5003               	movf	i1___lwmod@divisor,w,c
  5842  0012F6  5E01               	subwf	i1___lwmod@dividend,f,c
  5843  0012F8  5004               	movf	i1___lwmod@divisor+1,w,c
  5844  0012FA  5A02               	subwfb	i1___lwmod@dividend+1,f,c
  5845  0012FC                     i1l3058:
  5846  0012FC  90D8               	bcf	status,0,c
  5847  0012FE  3204               	rrcf	i1___lwmod@divisor+1,f,c
  5848  001300  3203               	rrcf	i1___lwmod@divisor,f,c
  5849  001302  2E05               	decfsz	i1___lwmod@counter,f,c
  5850  001304  D7F2               	goto	i1l3054
  5851  001306                     i1l1535:
  5852  001306  C001  F001         	movff	i1___lwmod@dividend,?i1___lwmod
  5853  00130A  C002  F002         	movff	i1___lwmod@dividend+1,?i1___lwmod+1
  5854  00130E  0012               	return	
  5855  001310                     __end_ofi1___lwmod:
  5856                           	opt stack 0
  5857                           tblptru	equ	0xFF8
  5858                           tblptrh	equ	0xFF7
  5859                           tblptrl	equ	0xFF6
  5860                           tablat	equ	0xFF5
  5861                           prodh	equ	0xFF4
  5862                           prodl	equ	0xFF3
  5863                           intcon	equ	0xFF2
  5864                           intcon2	equ	0xFF1
  5865                           intcon3	equ	0xFF0
  5866                           postinc0	equ	0xFEE
  5867                           wreg	equ	0xFE8
  5868                           indf1	equ	0xFE7
  5869                           postinc1	equ	0xFE6
  5870                           postdec1	equ	0xFE5
  5871                           fsr1h	equ	0xFE2
  5872                           fsr1l	equ	0xFE1
  5873                           bsr	equ	0xFE0
  5874                           indf2	equ	0xFDF
  5875                           postinc2	equ	0xFDE
  5876                           fsr2h	equ	0xFDA
  5877                           fsr2l	equ	0xFD9
  5878                           status	equ	0xFD8
  5879                           
  5880 ;; *************** function _ConvertDayToBit *****************
  5881 ;; Defined at:
  5882 ;;		line 1058 in file "prog.c"
  5883 ;; Parameters:    Size  Location     Type
  5884 ;;  DayNumber       1    wreg     unsigned char 
  5885 ;; Auto vars:     Size  Location     Type
  5886 ;;  DayNumber       1    0[COMRAM] unsigned char 
  5887 ;; Return value:  Size  Location     Type
  5888 ;;                  1    wreg      unsigned char 
  5889 ;; Registers used:
  5890 ;;		wreg, status,2, status,0
  5891 ;; Tracked objects:
  5892 ;;		On entry : 0/0
  5893 ;;		On exit  : 0/0
  5894 ;;		Unchanged: 0/0
  5895 ;; Data sizes:     COMRAM   BANK0   BANK1   BANK2   BANK3   BANK4   BANK5   BANK6   BANK7   BANK8   BANK9  BANK10  BANK1
      +1  BANK12  BANK13  BANK14  BANK15
  5896 ;;      Params:         0       0       0       0       0       0       0       0       0       0       0       0       
      +0       0       0       0       0
  5897 ;;      Locals:         1       0       0       0       0       0       0       0       0       0       0       0       
      +0       0       0       0       0
  5898 ;;      Temps:          0       0       0       0       0       0       0       0       0       0       0       0       
      +0       0       0       0       0
  5899 ;;      Totals:         1       0       0       0       0       0       0       0       0       0       0       0       
      +0       0       0       0       0
  5900 ;;Total ram usage:        1 bytes
  5901 ;; Hardware stack levels used:    1
  5902 ;; Hardware stack levels required when called:    1
  5903 ;; This function calls:
  5904 ;;		Nothing
  5905 ;; This function is called by:
  5906 ;;		_SignalsOnOff
  5907 ;; This function uses a non-reentrant model
  5908 ;;
  5909                           
  5910                           	psect	text23
  5911  00118A                     __ptext23:
  5912                           	opt stack 0
  5913  00118A                     _ConvertDayToBit:
  5914                           	opt stack 23
  5915                           
  5916                           ;incstack = 0
  5917                           ;ConvertDayToBit@DayNumber stored from wreg
  5918  00118A  6E01               	movwf	ConvertDayToBit@DayNumber,c
  5919                           
  5920                           ;prog.c: 1059: switch (DayNumber) {
  5921  00118C  D010               	goto	i1l3224
  5922  00118E                     i1l3190:
  5923  00118E  0E01               	movlw	1
  5924  001190  D01E               	goto	i1l678
  5925  001192                     i1l3194:
  5926  001192  0E02               	movlw	2
  5927  001194  D01C               	goto	i1l678
  5928  001196                     i1l3198:
  5929  001196  0E04               	movlw	4
  5930  001198  D01A               	goto	i1l678
  5931  00119A                     i1l3202:
  5932  00119A  0E08               	movlw	8
  5933  00119C  D018               	goto	i1l678
  5934  00119E                     i1l3206:
  5935  00119E  0E10               	movlw	16
  5936  0011A0  D016               	goto	i1l678
  5937  0011A2                     i1l3210:
  5938  0011A2  0E20               	movlw	32
  5939  0011A4  D014               	goto	i1l678
  5940  0011A6                     i1l3214:
  5941  0011A6  0E40               	movlw	64
  5942  0011A8  D012               	goto	i1l678
  5943  0011AA                     i1l3218:
  5944  0011AA  0E00               	movlw	0
  5945  0011AC  D010               	goto	i1l678
  5946  0011AE                     i1l3224:
  5947  0011AE  5001               	movf	ConvertDayToBit@DayNumber,w,c
  5948                           
  5949                           ; Switch size 1, requested type "space"
  5950                           ; Number of cases is 7, Range of values is 1 to 7
  5951                           ; switch strategies available:
  5952                           ; Name         Instructions Cycles
  5953                           ; simple_byte           22    12 (average)
  5954                           ;	Chosen strategy is simple_byte
  5955  0011B0  0A01               	xorlw	1	; case 1
  5956  0011B2  E0ED               	bz	i1l3190
  5957  0011B4  0A03               	xorlw	3	; case 2
  5958  0011B6  E0ED               	bz	i1l3194
  5959  0011B8  0A01               	xorlw	1	; case 3
  5960  0011BA  E0ED               	bz	i1l3198
  5961  0011BC  0A07               	xorlw	7	; case 4
  5962  0011BE  E0ED               	bz	i1l3202
  5963  0011C0  0A01               	xorlw	1	; case 5
  5964  0011C2  E0ED               	bz	i1l3206
  5965  0011C4  0A03               	xorlw	3	; case 6
  5966  0011C6  E0ED               	bz	i1l3210
  5967  0011C8  0A01               	xorlw	1	; case 7
  5968  0011CA  E0ED               	bz	i1l3214
  5969  0011CC  D7EE               	goto	i1l3218
  5970  0011CE                     i1l678:
  5971  0011CE  0012               	return	
  5972  0011D0                     __end_of_ConvertDayToBit:
  5973                           	opt stack 0
  5974                           tblptru	equ	0xFF8
  5975                           tblptrh	equ	0xFF7
  5976                           tblptrl	equ	0xFF6
  5977                           tablat	equ	0xFF5
  5978                           prodh	equ	0xFF4
  5979                           prodl	equ	0xFF3
  5980                           intcon	equ	0xFF2
  5981                           intcon2	equ	0xFF1
  5982                           intcon3	equ	0xFF0
  5983                           postinc0	equ	0xFEE
  5984                           wreg	equ	0xFE8
  5985                           indf1	equ	0xFE7
  5986                           postinc1	equ	0xFE6
  5987                           postdec1	equ	0xFE5
  5988                           fsr1h	equ	0xFE2
  5989                           fsr1l	equ	0xFE1
  5990                           bsr	equ	0xFE0
  5991                           indf2	equ	0xFDF
  5992                           postinc2	equ	0xFDE
  5993                           fsr2h	equ	0xFDA
  5994                           fsr2l	equ	0xFD9
  5995                           status	equ	0xFD8
  5996                           
  5997 ;; *************** function _SendSymbolToLCD *****************
  5998 ;; Defined at:
  5999 ;;		line 829 in file "prog.c"
  6000 ;; Parameters:    Size  Location     Type
  6001 ;;  Symb            1    wreg     unsigned char 
  6002 ;; Auto vars:     Size  Location     Type
  6003 ;;  Symb            1    7[COMRAM] unsigned char 
  6004 ;; Return value:  Size  Location     Type
  6005 ;;		None               void
  6006 ;; Registers used:
  6007 ;;		wreg, status,2, status,0, prodl, prodh, cstack
  6008 ;; Tracked objects:
  6009 ;;		On entry : F/0
  6010 ;;		On exit  : 0/0
  6011 ;;		Unchanged: 0/0
  6012 ;; Data sizes:     COMRAM   BANK0   BANK1   BANK2   BANK3   BANK4   BANK5   BANK6   BANK7   BANK8   BANK9  BANK10  BANK1
      +1  BANK12  BANK13  BANK14  BANK15
  6013 ;;      Params:         0       0       0       0       0       0       0       0       0       0       0       0       
      +0       0       0       0       0
  6014 ;;      Locals:         5       0       0       0       0       0       0       0       0       0       0       0       
      +0       0       0       0       0
  6015 ;;      Temps:          0       0       0       0       0       0       0       0       0       0       0       0       
      +0       0       0       0       0
  6016 ;;      Totals:         5       0       0       0       0       0       0       0       0       0       0       0       
      +0       0       0       0       0
  6017 ;;Total ram usage:        5 bytes
  6018 ;; Hardware stack levels used:    1
  6019 ;; Hardware stack levels required when called:    2
  6020 ;; This function calls:
  6021 ;;		_delay
  6022 ;; This function is called by:
  6023 ;;		_F_l
  6024 ;; This function uses a non-reentrant model
  6025 ;;
  6026                           
  6027                           	psect	text24
  6028  000F56                     __ptext24:
  6029                           	opt stack 0
  6030  000F56                     _SendSymbolToLCD:
  6031                           	opt stack 23
  6032                           
  6033                           ;incstack = 0
  6034                           ;SendSymbolToLCD@Symb stored from wreg
  6035  000F56  6E08               	movwf	SendSymbolToLCD@Symb,c
  6036                           
  6037                           ; BSR set to: 0
  6038                           ;prog.c: 830: RC2 = 1;
  6039  000F58  8482               	bsf	3970,2,c	;volatile
  6040                           
  6041                           ;prog.c: 831: PORTA = (0b11110000 & Symb) / 8 | (flags.LCD_Light_On == 1 ? 0b00100000 : 
      +                          0b00000000);
  6042  000F5A  BBC0               	btfsc	_flags& (0+255),5,b
  6043  000F5C  D003               	goto	i1l4072
  6044                           
  6045                           ; BSR set to: 0
  6046  000F5E  6A04               	clrf	_SendSymbolToLCD$945,c
  6047  000F60  6A05               	clrf	_SendSymbolToLCD$945+1,c
  6048  000F62  D003               	goto	i1l4074
  6049  000F64                     i1l4072:
  6050                           
  6051                           ; BSR set to: 0
  6052  000F64  6A05               	clrf	_SendSymbolToLCD$945+1,c
  6053  000F66  0E20               	movlw	32
  6054  000F68  6E04               	movwf	_SendSymbolToLCD$945,c
  6055  000F6A                     i1l4074:
  6056                           
  6057                           ; BSR set to: 0
  6058  000F6A  3808               	swapf	SendSymbolToLCD@Symb,w,c
  6059  000F6C  46E8               	rlncf	wreg,f,c
  6060  000F6E  0B1F               	andlw	31
  6061  000F70  0B1E               	andlw	30
  6062  000F72  1004               	iorwf	_SendSymbolToLCD$945,w,c
  6063                           
  6064                           ; BSR set to: 0
  6065                           ;prog.c: 832: RC0 = 1;
  6066                           
  6067                           ; BSR set to: 0
  6068                           ;prog.c: 833: delay(10, 1);
  6069  000F74  D822               	call	PL14	;call to abstracted procedure
  6070  000F76  ECD6  F009         	call	_delay
  6071                           
  6072                           ;prog.c: 834: RC0 = 0;
  6073                           
  6074                           ;prog.c: 835: RC2 = 0;
  6075                           
  6076                           ;prog.c: 836: delay(25, 5);
  6077  000F7A  D819               	call	PL10	;call to abstracted procedure
  6078  000F7C  ECD6  F009         	call	_delay
  6079                           
  6080                           ;prog.c: 838: RC2 = 1;
  6081  000F80  8482               	bsf	3970,2,c	;volatile
  6082                           
  6083                           ;prog.c: 839: PORTA = (0b11110000 & (Symb * 16)) / 8 | (flags.LCD_Light_On == 1 ? 0b0010
      +                          0000 : 0b00000000);
  6084  000F82  0100               	movlb	0	; () banked
  6085  000F84  BBC0               	btfsc	_flags& (0+255),5,b
  6086  000F86  D003               	goto	i1l4092
  6087                           
  6088                           ; BSR set to: 0
  6089  000F88  6A06               	clrf	_SendSymbolToLCD$947,c
  6090  000F8A  6A07               	clrf	_SendSymbolToLCD$947+1,c
  6091  000F8C  D003               	goto	i1l4094
  6092  000F8E                     i1l4092:
  6093                           
  6094                           ; BSR set to: 0
  6095  000F8E  6A07               	clrf	_SendSymbolToLCD$947+1,c
  6096  000F90  0E20               	movlw	32
  6097  000F92  6E06               	movwf	_SendSymbolToLCD$947,c
  6098  000F94                     i1l4094:
  6099                           
  6100                           ; BSR set to: 0
  6101  000F94  5008               	movf	SendSymbolToLCD@Symb,w,c
  6102  000F96  0D10               	mullw	16
  6103  000F98  38F3               	swapf	prodl,w,c
  6104  000F9A  46E8               	rlncf	wreg,f,c
  6105  000F9C  0B1F               	andlw	31
  6106  000F9E  0B1E               	andlw	30
  6107  000FA0  1006               	iorwf	_SendSymbolToLCD$947,w,c
  6108                           
  6109                           ; BSR set to: 0
  6110                           ;prog.c: 840: RC0 = 1;
  6111                           
  6112                           ; BSR set to: 0
  6113                           ;prog.c: 841: delay(10, 1);
  6114  000FA2  D80B               	call	PL14	;call to abstracted procedure
  6115  000FA4  ECD6  F009         	call	_delay
  6116                           
  6117                           ;prog.c: 842: RC0 = 0;
  6118                           
  6119                           ;prog.c: 843: RC2 = 0;
  6120                           
  6121                           ;prog.c: 844: delay(25, 5);
  6122  000FA8  D802               	call	PL10	;call to abstracted procedure
  6123  000FAA  EFD6  F009         	goto	_delay
  6124  000FAE                     __end_of_SendSymbolToLCD:
  6125                           	opt stack 0
  6126  000FAE                     PL10:
  6127                           	opt stack 23
  6128  000FAE  9082               	bcf	3970,0,c	;volatile
  6129  000FB0  9482               	bcf	3970,2,c	;volatile
  6130  000FB2  6A02               	clrf	delay@count+1,c
  6131  000FB4  0E05               	movlw	5
  6132  000FB6  6E01               	movwf	delay@count,c
  6133  000FB8  0C19               	retlw	25
  6134  000FBA                     __end_ofPL10:
  6135                           	opt stack 0
  6136  000FBA                     PL14:
  6137                           	opt stack 23
  6138  000FBA  6E80               	movwf	3968,c	;volatile
  6139  000FBC  8082               	bsf	3970,0,c	;volatile
  6140  000FBE  6A02               	clrf	delay@count+1,c
  6141  000FC0  0E01               	movlw	1
  6142  000FC2  6E01               	movwf	delay@count,c
  6143  000FC4  0C0A               	retlw	10
  6144  000FC6                     __end_ofPL14:
  6145                           	opt stack 0
  6146                           tblptru	equ	0xFF8
  6147                           tblptrh	equ	0xFF7
  6148                           tblptrl	equ	0xFF6
  6149                           tablat	equ	0xFF5
  6150                           prodh	equ	0xFF4
  6151                           prodl	equ	0xFF3
  6152                           intcon	equ	0xFF2
  6153                           intcon2	equ	0xFF1
  6154                           intcon3	equ	0xFF0
  6155                           postinc0	equ	0xFEE
  6156                           wreg	equ	0xFE8
  6157                           indf1	equ	0xFE7
  6158                           postinc1	equ	0xFE6
  6159                           postdec1	equ	0xFE5
  6160                           fsr1h	equ	0xFE2
  6161                           fsr1l	equ	0xFE1
  6162                           bsr	equ	0xFE0
  6163                           indf2	equ	0xFDF
  6164                           postinc2	equ	0xFDE
  6165                           fsr2h	equ	0xFDA
  6166                           fsr2l	equ	0xFD9
  6167                           status	equ	0xFD8
  6168                           
  6169 ;; *************** function _delay *****************
  6170 ;; Defined at:
  6171 ;;		line 818 in file "prog.c"
  6172 ;; Parameters:    Size  Location     Type
  6173 ;;  del             1    wreg     unsigned char 
  6174 ;;  count           2    0[COMRAM] unsigned int 
  6175 ;; Auto vars:     Size  Location     Type
  6176 ;;  del             1    2[COMRAM] unsigned char 
  6177 ;; Return value:  Size  Location     Type
  6178 ;;		None               void
  6179 ;; Registers used:
  6180 ;;		wreg, status,2, status,0
  6181 ;; Tracked objects:
  6182 ;;		On entry : 0/0
  6183 ;;		On exit  : 0/0
  6184 ;;		Unchanged: 0/0
  6185 ;; Data sizes:     COMRAM   BANK0   BANK1   BANK2   BANK3   BANK4   BANK5   BANK6   BANK7   BANK8   BANK9  BANK10  BANK1
      +1  BANK12  BANK13  BANK14  BANK15
  6186 ;;      Params:         2       0       0       0       0       0       0       0       0       0       0       0       
      +0       0       0       0       0
  6187 ;;      Locals:         1       0       0       0       0       0       0       0       0       0       0       0       
      +0       0       0       0       0
  6188 ;;      Temps:          0       0       0       0       0       0       0       0       0       0       0       0       
      +0       0       0       0       0
  6189 ;;      Totals:         3       0       0       0       0       0       0       0       0       0       0       0       
      +0       0       0       0       0
  6190 ;;Total ram usage:        3 bytes
  6191 ;; Hardware stack levels used:    1
  6192 ;; Hardware stack levels required when called:    1
  6193 ;; This function calls:
  6194 ;;		Nothing
  6195 ;; This function is called by:
  6196 ;;		_SendSymbolToLCD
  6197 ;; This function uses a non-reentrant model
  6198 ;;
  6199                           
  6200                           	psect	text25
  6201  0013AC                     __ptext25:
  6202                           	opt stack 0
  6203  0013AC                     _delay:
  6204                           	opt stack 23
  6205                           
  6206                           ;incstack = 0
  6207                           ;delay@del stored from wreg
  6208  0013AC  6E03               	movwf	delay@del,c
  6209                           
  6210                           ;prog.c: 819: while (count > 0) {
  6211  0013AE  D009               	goto	i1l3152
  6212  0013B0                     i1l530:
  6213                           
  6214                           ;prog.c: 820: TMR2 = 0;
  6215  0013B0  6ACC               	clrf	4044,c	;volatile
  6216                           
  6217                           ;prog.c: 821: PR2 = del;
  6218  0013B2  C003  FFCB         	movff	delay@del,4043	;volatile
  6219                           
  6220                           ;prog.c: 822: TMR2IF = 0;
  6221  0013B6  929E               	bcf	3998,1,c	;volatile
  6222  0013B8                     i1l531:
  6223  0013B8  A29E               	btfss	3998,1,c	;volatile
  6224  0013BA  D7FE               	goto	i1l531
  6225                           
  6226                           ;prog.c: 824: count--;
  6227  0013BC  0601               	decf	delay@count,f,c
  6228  0013BE  A0D8               	btfss	status,0,c
  6229  0013C0  0602               	decf	delay@count+1,f,c
  6230  0013C2                     i1l3152:
  6231  0013C2  5002               	movf	delay@count+1,w,c
  6232  0013C4  1001               	iorwf	delay@count,w,c
  6233  0013C6  B4D8               	btfsc	status,2,c
  6234  0013C8  0012               	return	
  6235  0013CA  D7F2               	goto	i1l530
  6236  0013CC                     __end_of_delay:
  6237                           	opt stack 0
  6238                           tblptru	equ	0xFF8
  6239                           tblptrh	equ	0xFF7
  6240                           tblptrl	equ	0xFF6
  6241                           tablat	equ	0xFF5
  6242                           prodh	equ	0xFF4
  6243                           prodl	equ	0xFF3
  6244                           intcon	equ	0xFF2
  6245                           intcon2	equ	0xFF1
  6246                           intcon3	equ	0xFF0
  6247                           postinc0	equ	0xFEE
  6248                           wreg	equ	0xFE8
  6249                           indf1	equ	0xFE7
  6250                           postinc1	equ	0xFE6
  6251                           postdec1	equ	0xFE5
  6252                           fsr1h	equ	0xFE2
  6253                           fsr1l	equ	0xFE1
  6254                           bsr	equ	0xFE0
  6255                           indf2	equ	0xFDF
  6256                           postinc2	equ	0xFDE
  6257                           fsr2h	equ	0xFDA
  6258                           fsr2l	equ	0xFD9
  6259                           status	equ	0xFD8
  6260                           
  6261 ;; *************** function _FillMinutes *****************
  6262 ;; Defined at:
  6263 ;;		line 1423 in file "prog.c"
  6264 ;; Parameters:    Size  Location     Type
  6265 ;;		None
  6266 ;; Auto vars:     Size  Location     Type
  6267 ;;		None
  6268 ;; Return value:  Size  Location     Type
  6269 ;;		None               void
  6270 ;; Registers used:
  6271 ;;		wreg, status,2, status,0
  6272 ;; Tracked objects:
  6273 ;;		On entry : 0/0
  6274 ;;		On exit  : 0/0
  6275 ;;		Unchanged: 0/0
  6276 ;; Data sizes:     COMRAM   BANK0   BANK1   BANK2   BANK3   BANK4   BANK5   BANK6   BANK7   BANK8   BANK9  BANK10  BANK1
      +1  BANK12  BANK13  BANK14  BANK15
  6277 ;;      Params:         0       0       0       0       0       0       0       0       0       0       0       0       
      +0       0       0       0       0
  6278 ;;      Locals:         0       0       0       0       0       0       0       0       0       0       0       0       
      +0       0       0       0       0
  6279 ;;      Temps:          0       0       0       0       0       0       0       0       0       0       0       0       
      +0       0       0       0       0
  6280 ;;      Totals:         0       0       0       0       0       0       0       0       0       0       0       0       
      +0       0       0       0       0
  6281 ;;Total ram usage:        0 bytes
  6282 ;; Hardware stack levels used:    1
  6283 ;; Hardware stack levels required when called:    1
  6284 ;; This function calls:
  6285 ;;		Nothing
  6286 ;; This function is called by:
  6287 ;;		_F_l
  6288 ;; This function uses a non-reentrant model
  6289 ;;
  6290                           
  6291                           	psect	text26
  6292  0013E6                     __ptext26:
  6293                           	opt stack 0
  6294  0013E6                     _FillMinutes:
  6295                           	opt stack 24
  6296                           
  6297                           ;prog.c: 1424: Minutes = Clock - 3000;
  6298                           
  6299                           ;incstack = 0
  6300  0013E6  0E48               	movlw	72
  6301  0013E8  245F               	addwf	_Clock,w,c
  6302  0013EA  6E63               	movwf	_Minutes,c
  6303  0013EC  0EF4               	movlw	244
  6304  0013EE  2060               	addwfc	_Clock+1,w,c
  6305  0013F0  6E64               	movwf	_Minutes+1,c
  6306  0013F2  0EFF               	movlw	255
  6307  0013F4  2061               	addwfc	_Clock+2,w,c
  6308  0013F6  6E65               	movwf	_Minutes+2,c
  6309  0013F8  0EFF               	movlw	255
  6310  0013FA  2062               	addwfc	_Clock+3,w,c
  6311  0013FC  6E66               	movwf	_Minutes+3,c
  6312  0013FE  0012               	return	
  6313  001400                     __end_of_FillMinutes:
  6314                           	opt stack 0
  6315                           tblptru	equ	0xFF8
  6316                           tblptrh	equ	0xFF7
  6317                           tblptrl	equ	0xFF6
  6318                           tablat	equ	0xFF5
  6319                           prodh	equ	0xFF4
  6320                           prodl	equ	0xFF3
  6321                           intcon	equ	0xFF2
  6322                           intcon2	equ	0xFF1
  6323                           intcon3	equ	0xFF0
  6324                           postinc0	equ	0xFEE
  6325                           wreg	equ	0xFE8
  6326                           indf1	equ	0xFE7
  6327                           postinc1	equ	0xFE6
  6328                           postdec1	equ	0xFE5
  6329                           fsr1h	equ	0xFE2
  6330                           fsr1l	equ	0xFE1
  6331                           bsr	equ	0xFE0
  6332                           indf2	equ	0xFDF
  6333                           postinc2	equ	0xFDE
  6334                           fsr2h	equ	0xFDA
  6335                           fsr2l	equ	0xFD9
  6336                           status	equ	0xFD8
  6337                           
  6338 ;; *************** function _ConvKeyNum *****************
  6339 ;; Defined at:
  6340 ;;		line 933 in file "prog.c"
  6341 ;; Parameters:    Size  Location     Type
  6342 ;;  Num             1    wreg     unsigned char 
  6343 ;; Auto vars:     Size  Location     Type
  6344 ;;  Num             1    0[COMRAM] unsigned char 
  6345 ;; Return value:  Size  Location     Type
  6346 ;;                  1    wreg      unsigned char 
  6347 ;; Registers used:
  6348 ;;		wreg, status,2, status,0
  6349 ;; Tracked objects:
  6350 ;;		On entry : F/1
  6351 ;;		On exit  : F/1
  6352 ;;		Unchanged: F/0
  6353 ;; Data sizes:     COMRAM   BANK0   BANK1   BANK2   BANK3   BANK4   BANK5   BANK6   BANK7   BANK8   BANK9  BANK10  BANK1
      +1  BANK12  BANK13  BANK14  BANK15
  6354 ;;      Params:         0       0       0       0       0       0       0       0       0       0       0       0       
      +0       0       0       0       0
  6355 ;;      Locals:         1       0       0       0       0       0       0       0       0       0       0       0       
      +0       0       0       0       0
  6356 ;;      Temps:          0       0       0       0       0       0       0       0       0       0       0       0       
      +0       0       0       0       0
  6357 ;;      Totals:         1       0       0       0       0       0       0       0       0       0       0       0       
      +0       0       0       0       0
  6358 ;;Total ram usage:        1 bytes
  6359 ;; Hardware stack levels used:    1
  6360 ;; Hardware stack levels required when called:    1
  6361 ;; This function calls:
  6362 ;;		Nothing
  6363 ;; This function is called by:
  6364 ;;		_F_l
  6365 ;; This function uses a non-reentrant model
  6366 ;;
  6367                           
  6368                           	psect	text27
  6369  000DE6                     __ptext27:
  6370                           	opt stack 0
  6371  000DE6                     _ConvKeyNum:
  6372                           	opt stack 24
  6373                           
  6374                           ;incstack = 0
  6375                           ;ConvKeyNum@Num stored from wreg
  6376  000DE6  6E01               	movwf	ConvKeyNum@Num,c
  6377                           
  6378                           ; BSR set to: 1
  6379                           ;prog.c: 934: switch (Num) {
  6380  000DE8  D022               	goto	i1l4182
  6381  000DEA                     i1l4112:
  6382                           
  6383                           ; BSR set to: 1
  6384  000DEA  0E21               	movlw	33
  6385  000DEC  D041               	goto	i1l589
  6386  000DEE                     i1l4116:
  6387                           
  6388                           ; BSR set to: 1
  6389  000DEE  0E2B               	movlw	43
  6390  000DF0  D03F               	goto	i1l589
  6391  000DF2                     i1l4120:
  6392                           
  6393                           ; BSR set to: 1
  6394  000DF2  0E2A               	movlw	42
  6395  000DF4  D03D               	goto	i1l589
  6396  000DF6                     i1l4124:
  6397                           
  6398                           ; BSR set to: 1
  6399  000DF6  0E29               	movlw	41
  6400  000DF8  D03B               	goto	i1l589
  6401  000DFA                     i1l4128:
  6402                           
  6403                           ; BSR set to: 1
  6404  000DFA  0E28               	movlw	40
  6405  000DFC  D039               	goto	i1l589
  6406  000DFE                     i1l4132:
  6407                           
  6408                           ; BSR set to: 1
  6409  000DFE  0E2D               	movlw	45
  6410  000E00  D037               	goto	i1l589
  6411  000E02                     i1l4136:
  6412                           
  6413                           ; BSR set to: 1
  6414  000E02  0E27               	movlw	39
  6415  000E04  D035               	goto	i1l589
  6416  000E06                     i1l4140:
  6417                           
  6418                           ; BSR set to: 1
  6419  000E06  0E24               	movlw	36
  6420  000E08  D033               	goto	i1l589
  6421  000E0A                     i1l4144:
  6422                           
  6423                           ; BSR set to: 1
  6424  000E0A  0E25               	movlw	37
  6425  000E0C  D031               	goto	i1l589
  6426  000E0E                     i1l4148:
  6427                           
  6428                           ; BSR set to: 1
  6429  000E0E  0E26               	movlw	38
  6430  000E10  D02F               	goto	i1l589
  6431  000E12                     i1l4152:
  6432                           
  6433                           ; BSR set to: 1
  6434  000E12  0E23               	movlw	35
  6435  000E14  D02D               	goto	i1l589
  6436  000E16                     i1l4156:
  6437                           
  6438                           ; BSR set to: 1
  6439  000E16  0E22               	movlw	34
  6440  000E18  D02B               	goto	i1l589
  6441  000E1A                     i1l4160:
  6442                           
  6443                           ; BSR set to: 1
  6444  000E1A  0E20               	movlw	32
  6445  000E1C  D029               	goto	i1l589
  6446  000E1E                     i1l4164:
  6447                           
  6448                           ; BSR set to: 1
  6449  000E1E  0E1E               	movlw	30
  6450  000E20  D027               	goto	i1l589
  6451  000E22                     i1l4168:
  6452                           
  6453                           ; BSR set to: 1
  6454  000E22  0E2C               	movlw	44
  6455  000E24  D025               	goto	i1l589
  6456  000E26                     i1l4172:
  6457                           
  6458                           ; BSR set to: 1
  6459  000E26  0E1F               	movlw	31
  6460  000E28  D023               	goto	i1l589
  6461  000E2A                     i1l4176:
  6462                           
  6463                           ; BSR set to: 1
  6464  000E2A  0E00               	movlw	0
  6465  000E2C  D021               	goto	i1l589
  6466  000E2E                     i1l4182:
  6467                           
  6468                           ; BSR set to: 1
  6469  000E2E  5001               	movf	ConvKeyNum@Num,w,c
  6470                           
  6471                           ; Switch size 1, requested type "space"
  6472                           ; Number of cases is 16, Range of values is 0 to 15
  6473                           ; switch strategies available:
  6474                           ; Name         Instructions Cycles
  6475                           ; simple_byte           49    25 (average)
  6476                           ;	Chosen strategy is simple_byte
  6477  000E30  E0DC               	bz	i1l4112
  6478  000E32  0A01               	xorlw	1	; case 1
  6479  000E34  E0DC               	bz	i1l4116
  6480  000E36  0A03               	xorlw	3	; case 2
  6481  000E38  E0DC               	bz	i1l4120
  6482  000E3A  0A01               	xorlw	1	; case 3
  6483  000E3C  E0DC               	bz	i1l4124
  6484  000E3E  0A07               	xorlw	7	; case 4
  6485  000E40  E0DC               	bz	i1l4128
  6486  000E42  0A01               	xorlw	1	; case 5
  6487  000E44  E0DC               	bz	i1l4132
  6488  000E46  0A03               	xorlw	3	; case 6
  6489  000E48  E0DC               	bz	i1l4136
  6490  000E4A  0A01               	xorlw	1	; case 7
  6491  000E4C  E0DC               	bz	i1l4140
  6492  000E4E  0A0F               	xorlw	15	; case 8
  6493  000E50  E0DC               	bz	i1l4144
  6494  000E52  0A01               	xorlw	1	; case 9
  6495  000E54  E0DC               	bz	i1l4148
  6496  000E56  0A03               	xorlw	3	; case 10
  6497  000E58  E0DC               	bz	i1l4152
  6498  000E5A  0A01               	xorlw	1	; case 11
  6499  000E5C  E0DC               	bz	i1l4156
  6500  000E5E  0A07               	xorlw	7	; case 12
  6501  000E60  E0DC               	bz	i1l4160
  6502  000E62  0A01               	xorlw	1	; case 13
  6503  000E64  E0DC               	bz	i1l4164
  6504  000E66  0A03               	xorlw	3	; case 14
  6505  000E68  E0DC               	bz	i1l4168
  6506  000E6A  0A01               	xorlw	1	; case 15
  6507  000E6C  E0DC               	bz	i1l4172
  6508  000E6E  D7DD               	goto	i1l4176
  6509  000E70                     i1l589:
  6510                           
  6511                           ; BSR set to: 1
  6512  000E70  0012               	return	
  6513  000E72                     __end_of_ConvKeyNum:
  6514                           	opt stack 0
  6515                           tblptru	equ	0xFF8
  6516                           tblptrh	equ	0xFF7
  6517                           tblptrl	equ	0xFF6
  6518                           tablat	equ	0xFF5
  6519                           prodh	equ	0xFF4
  6520                           prodl	equ	0xFF3
  6521                           intcon	equ	0xFF2
  6522                           intcon2	equ	0xFF1
  6523                           intcon3	equ	0xFF0
  6524                           postinc0	equ	0xFEE
  6525                           wreg	equ	0xFE8
  6526                           indf1	equ	0xFE7
  6527                           postinc1	equ	0xFE6
  6528                           postdec1	equ	0xFE5
  6529                           fsr1h	equ	0xFE2
  6530                           fsr1l	equ	0xFE1
  6531                           bsr	equ	0xFE0
  6532                           indf2	equ	0xFDF
  6533                           postinc2	equ	0xFDE
  6534                           fsr2h	equ	0xFDA
  6535                           fsr2l	equ	0xFD9
  6536                           status	equ	0xFD8
  6537                           
  6538 ;; *************** function _F_h *****************
  6539 ;; Defined at:
  6540 ;;		line 1427 in file "prog.c"
  6541 ;; Parameters:    Size  Location     Type
  6542 ;;		None
  6543 ;; Auto vars:     Size  Location     Type
  6544 ;;		None
  6545 ;; Return value:  Size  Location     Type
  6546 ;;		None               void
  6547 ;; Registers used:
  6548 ;;		None
  6549 ;; Tracked objects:
  6550 ;;		On entry : 0/0
  6551 ;;		On exit  : 0/0
  6552 ;;		Unchanged: 0/0
  6553 ;; Data sizes:     COMRAM   BANK0   BANK1   BANK2   BANK3   BANK4   BANK5   BANK6   BANK7   BANK8   BANK9  BANK10  BANK1
      +1  BANK12  BANK13  BANK14  BANK15
  6554 ;;      Params:         0       0       0       0       0       0       0       0       0       0       0       0       
      +0       0       0       0       0
  6555 ;;      Locals:         0       0       0       0       0       0       0       0       0       0       0       0       
      +0       0       0       0       0
  6556 ;;      Temps:          0       0       0       0       0       0       0       0       0       0       0       0       
      +0       0       0       0       0
  6557 ;;      Totals:         0       0       0       0       0       0       0       0       0       0       0       0       
      +0       0       0       0       0
  6558 ;;Total ram usage:        0 bytes
  6559 ;; Hardware stack levels used:    1
  6560 ;; This function calls:
  6561 ;;		Nothing
  6562 ;; This function is called by:
  6563 ;;		Interrupt level 2
  6564 ;; This function uses a non-reentrant model
  6565 ;;
  6566                           
  6567                           	psect	intcode
  6568  000008                     __pintcode:
  6569                           	opt stack 0
  6570  000008                     _F_h:
  6571                           	opt stack 21
  6572                           
  6573                           ; BSR set to: 1
  6574                           ;incstack = 0
  6575  000008  ED08  F00A         	call	int_func,f	;refresh shadow registers
  6576                           tblptru	equ	0xFF8
  6577                           tblptrh	equ	0xFF7
  6578                           tblptrl	equ	0xFF6
  6579                           tablat	equ	0xFF5
  6580                           prodh	equ	0xFF4
  6581                           prodl	equ	0xFF3
  6582                           intcon	equ	0xFF2
  6583                           intcon2	equ	0xFF1
  6584                           intcon3	equ	0xFF0
  6585                           postinc0	equ	0xFEE
  6586                           wreg	equ	0xFE8
  6587                           indf1	equ	0xFE7
  6588                           postinc1	equ	0xFE6
  6589                           postdec1	equ	0xFE5
  6590                           fsr1h	equ	0xFE2
  6591                           fsr1l	equ	0xFE1
  6592                           bsr	equ	0xFE0
  6593                           indf2	equ	0xFDF
  6594                           postinc2	equ	0xFDE
  6595                           fsr2h	equ	0xFDA
  6596                           fsr2l	equ	0xFD9
  6597                           status	equ	0xFD8
  6598                           
  6599                           	psect	intcode_body
  6600  001410                     __pintcode_body:
  6601                           	opt stack 21
  6602  001410                     int_func:
  6603                           	opt stack 21
  6604  001410  0006               	pop		; remove dummy address from shadow register refresh
  6605  001412  0004               	clrwdt		;# 
  6606  001414  0011               	retfie		f
  6607  001416                     __end_of_F_h:
  6608                           	opt stack 0
  6609  0000                     tblptru	equ	0xFF8
  6610                           tblptrh	equ	0xFF7
  6611                           tblptrl	equ	0xFF6
  6612                           tablat	equ	0xFF5
  6613                           prodh	equ	0xFF4
  6614                           prodl	equ	0xFF3
  6615                           intcon	equ	0xFF2
  6616                           intcon2	equ	0xFF1
  6617                           intcon3	equ	0xFF0
  6618                           postinc0	equ	0xFEE
  6619                           wreg	equ	0xFE8
  6620                           indf1	equ	0xFE7
  6621                           postinc1	equ	0xFE6
  6622                           postdec1	equ	0xFE5
  6623                           fsr1h	equ	0xFE2
  6624                           fsr1l	equ	0xFE1
  6625                           bsr	equ	0xFE0
  6626                           indf2	equ	0xFDF
  6627                           postinc2	equ	0xFDE
  6628                           fsr2h	equ	0xFDA
  6629                           fsr2l	equ	0xFD9
  6630                           status	equ	0xFD8
  6631                           tblptru	equ	0xFF8
  6632                           tblptrh	equ	0xFF7
  6633                           tblptrl	equ	0xFF6
  6634                           tablat	equ	0xFF5
  6635                           prodh	equ	0xFF4
  6636                           prodl	equ	0xFF3
  6637                           intcon	equ	0xFF2
  6638                           intcon2	equ	0xFF1
  6639                           intcon3	equ	0xFF0
  6640                           postinc0	equ	0xFEE
  6641                           wreg	equ	0xFE8
  6642                           indf1	equ	0xFE7
  6643                           postinc1	equ	0xFE6
  6644                           postdec1	equ	0xFE5
  6645                           fsr1h	equ	0xFE2
  6646                           fsr1l	equ	0xFE1
  6647                           bsr	equ	0xFE0
  6648                           indf2	equ	0xFDF
  6649                           postinc2	equ	0xFDE
  6650                           fsr2h	equ	0xFDA
  6651                           fsr2l	equ	0xFD9
  6652                           status	equ	0xFD8
  6653                           
  6654                           	psect	param0
  6655  0000                     tblptru	equ	0xFF8
  6656                           tblptrh	equ	0xFF7
  6657                           tblptrl	equ	0xFF6
  6658                           tablat	equ	0xFF5
  6659                           prodh	equ	0xFF4
  6660                           prodl	equ	0xFF3
  6661                           intcon	equ	0xFF2
  6662                           intcon2	equ	0xFF1
  6663                           intcon3	equ	0xFF0
  6664                           postinc0	equ	0xFEE
  6665                           wreg	equ	0xFE8
  6666                           indf1	equ	0xFE7
  6667                           postinc1	equ	0xFE6
  6668                           postdec1	equ	0xFE5
  6669                           fsr1h	equ	0xFE2
  6670                           fsr1l	equ	0xFE1
  6671                           bsr	equ	0xFE0
  6672                           indf2	equ	0xFDF
  6673                           postinc2	equ	0xFDE
  6674                           fsr2h	equ	0xFDA
  6675                           fsr2l	equ	0xFD9
  6676                           status	equ	0xFD8
  6677                           tblptru	equ	0xFF8
  6678                           tblptrh	equ	0xFF7
  6679                           tblptrl	equ	0xFF6
  6680                           tablat	equ	0xFF5
  6681                           prodh	equ	0xFF4
  6682                           prodl	equ	0xFF3
  6683                           intcon	equ	0xFF2
  6684                           intcon2	equ	0xFF1
  6685                           intcon3	equ	0xFF0
  6686                           postinc0	equ	0xFEE
  6687                           wreg	equ	0xFE8
  6688                           indf1	equ	0xFE7
  6689                           postinc1	equ	0xFE6
  6690                           postdec1	equ	0xFE5
  6691                           fsr1h	equ	0xFE2
  6692                           fsr1l	equ	0xFE1
  6693                           bsr	equ	0xFE0
  6694                           indf2	equ	0xFDF
  6695                           postinc2	equ	0xFDE
  6696                           fsr2h	equ	0xFDA
  6697                           fsr2l	equ	0xFD9
  6698                           status	equ	0xFD8


Data Sizes:
    Strings     0
    Constant    0
    Data        231
    BSS         92
    Persistent  0
    Stack       0

Auto Spaces:
    Space          Size  Autos    Used
    COMRAM          127     68     119
    BANK0           128     46     112
    BANK1           256    209     210
    BANK2           256      0     205
    BANK3           256      0       0
    BANK4           256      0       0
    BANK5           256      0       0
    BANK6           256      0       0
    BANK7           256      0       0
    BANK8           256      0       0
    BANK9           256      0       0
    BANK10          256      0       0
    BANK11          256      0       0
    BANK12          256      0       0
    BANK13          256      0       0
    BANK14          256      0       0
    BANK15          128      0       0

Pointer List with Targets:

    drowText@stringData	PTR unsigned char  size(2) Largest target is 205
		 -> main2@data(BANK1[205]), 

    outputString@stringData	PTR unsigned char  size(1) Largest target is 17
		 -> drowText@cutedString(BANK0[17]), 

    sp__GetDayOfWeek	PTR unsigned char  size(1) Largest target is 3
		 -> GetDayOfWeek@array(COMRAM[3]), 


Critical Paths under _main in COMRAM

    None.

Critical Paths under _F_h in COMRAM

    None.

Critical Paths under _F_l in COMRAM

    _F_l->_SignalsOnOff
    i1_lcd_send_byte->i1_lcd_send_initial_half_byte
    _SignalsOnOff->_ReadFourBytesEE
    _ReadFourBytesEE->i1_EERD
    i1_EERD->i1___lwmod
    _EEWR->i1___lwmod
    _SendSymbolToLCD->_delay

Critical Paths under _main in BANK0

    _main->_main2
    _main2->_drowText
    _drowText->_outputString
    _outputString->_setDigit
    _lcd_on->_lcd_init
    _lcd_init->_lcd_send_byte
    _lcd_send_byte->_lcd_send_initial_half_byte
    _EERD->___lwmod

Critical Paths under _F_h in BANK0

    None.

Critical Paths under _F_l in BANK0

    None.

Critical Paths under _main in BANK1

    _main->_main2

Critical Paths under _F_h in BANK1

    None.

Critical Paths under _F_l in BANK1

    None.

Critical Paths under _main in BANK2

    None.

Critical Paths under _F_h in BANK2

    None.

Critical Paths under _F_l in BANK2

    None.

Critical Paths under _main in BANK3

    None.

Critical Paths under _F_h in BANK3

    None.

Critical Paths under _F_l in BANK3

    None.

Critical Paths under _main in BANK4

    None.

Critical Paths under _F_h in BANK4

    None.

Critical Paths under _F_l in BANK4

    None.

Critical Paths under _main in BANK5

    None.

Critical Paths under _F_h in BANK5

    None.

Critical Paths under _F_l in BANK5

    None.

Critical Paths under _main in BANK6

    None.

Critical Paths under _F_h in BANK6

    None.

Critical Paths under _F_l in BANK6

    None.

Critical Paths under _main in BANK7

    None.

Critical Paths under _F_h in BANK7

    None.

Critical Paths under _F_l in BANK7

    None.

Critical Paths under _main in BANK8

    None.

Critical Paths under _F_h in BANK8

    None.

Critical Paths under _F_l in BANK8

    None.

Critical Paths under _main in BANK9

    None.

Critical Paths under _F_h in BANK9

    None.

Critical Paths under _F_l in BANK9

    None.

Critical Paths under _main in BANK10

    None.

Critical Paths under _F_h in BANK10

    None.

Critical Paths under _F_l in BANK10

    None.

Critical Paths under _main in BANK11

    None.

Critical Paths under _F_h in BANK11

    None.

Critical Paths under _F_l in BANK11

    None.

Critical Paths under _main in BANK12

    None.

Critical Paths under _F_h in BANK12

    None.

Critical Paths under _F_l in BANK12

    None.

Critical Paths under _main in BANK13

    None.

Critical Paths under _F_h in BANK13

    None.

Critical Paths under _F_l in BANK13

    None.

Critical Paths under _main in BANK14

    None.

Critical Paths under _F_h in BANK14

    None.

Critical Paths under _F_l in BANK14

    None.

Critical Paths under _main in BANK15

    None.

Critical Paths under _F_h in BANK15

    None.

Critical Paths under _F_l in BANK15

    None.

Call Graph Tables:

 ---------------------------------------------------------------------------------
 (Depth) Function   	        Calls       Base Space   Used Autos Params    Refs
 ---------------------------------------------------------------------------------
 (0) _main                                                 1     1      0    9471
                                             45 BANK0      1     1      0
                               _EERD
                             _clrInd
                             _lcd_on
                              _main2
 ---------------------------------------------------------------------------------
 (1) _main2                                              210   210      0    7135
                                             44 BANK0      1     1      0
                                              0 BANK1    209   209      0
                           _drowText
 ---------------------------------------------------------------------------------
 (2) _drowText                                            30    24      6    6952
                                             14 BANK0     30    24      6
                       _outputString
 ---------------------------------------------------------------------------------
 (3) _outputString                                         7     5      2    6091
                                              7 BANK0      7     5      2
                           _setDigit
 ---------------------------------------------------------------------------------
 (4) _setDigit                                             7     5      2    5664
                                              0 BANK0      7     5      2
 ---------------------------------------------------------------------------------
 (1) _lcd_on                                               0     0      0     249
                           _lcd_init
                      _lcd_send_byte
 ---------------------------------------------------------------------------------
 (2) _lcd_init                                             2     2      0     159
                                              4 BANK0      2     2      0
                      _lcd_send_byte
         _lcd_send_initial_half_byte
 ---------------------------------------------------------------------------------
 (2) _lcd_send_byte                                        1     1      0      90
                                              3 BANK0      1     1      0
         _lcd_send_initial_half_byte
 ---------------------------------------------------------------------------------
 (3) _lcd_send_initial_half_byte                           3     3      0      46
                                              0 BANK0      3     3      0
 ---------------------------------------------------------------------------------
 (1) _clrInd                                               2     2      0     224
                                              0 BANK0      2     2      0
 ---------------------------------------------------------------------------------
 (1) _EERD                                                 7     5      2    1863
                                              5 BANK0      7     5      2
                            ___lwmod
 ---------------------------------------------------------------------------------
 (2) ___lwmod                                              5     1      4    1333
                                              0 BANK0      5     1      4
 ---------------------------------------------------------------------------------
 Estimated maximum stack depth 4
 ---------------------------------------------------------------------------------
 (Depth) Function   	        Calls       Base Space   Used Autos Params    Refs
 ---------------------------------------------------------------------------------
 (5) _F_l                                                 20    20      0    6168
                                             48 COMRAM    20    20      0
                         _ConvKeyNum
                        _FillMinutes
                    _SendSymbolToLCD
                       _SignalsOnOff
                   _getLcdCodeOfChar
                    i1_lcd_send_byte
 ---------------------------------------------------------------------------------
 (6) i1_lcd_send_byte                                      1     1      0      90
                                              3 COMRAM     1     1      0
       i1_lcd_send_initial_half_byte
 ---------------------------------------------------------------------------------
 (7) i1_lcd_send_initial_half_byte                         3     3      0      46
                                              0 COMRAM     3     3      0
 ---------------------------------------------------------------------------------
 (6) _getLcdCodeOfChar                                     1     1      0      22
                                              0 COMRAM     1     1      0
 ---------------------------------------------------------------------------------
 (6) _SignalsOnOff                                        22    22      0    5187
                                             26 COMRAM    22    22      0
                    _ConvertDayToBit
                               _EEWR
                    _ReadFourBytesEE
                            ___aldiv
                            ___lwdiv
                          i1___lwmod
 ---------------------------------------------------------------------------------
 (7) ___lwdiv                                              7     3      4    1068
                                              0 COMRAM     7     3      4
 ---------------------------------------------------------------------------------
 (7) ___aldiv                                             14     6      8    1446
                                              0 COMRAM    14     6      8
 ---------------------------------------------------------------------------------
 (7) _ReadFourBytesEE                                     14    10      4     739
                                             12 COMRAM    14    10      4
                             i1_EERD
 ---------------------------------------------------------------------------------
 (8) i1_EERD                                               7     5      2     431
                                              5 COMRAM     7     5      2
                          i1___lwmod
 ---------------------------------------------------------------------------------
 (7) _EEWR                                                 7     4      3    1120
                                              5 COMRAM     7     4      3
                          i1___lwmod
 ---------------------------------------------------------------------------------
 (7) i1___lwmod                                            5     1      4     315
                                              0 COMRAM     5     1      4
 ---------------------------------------------------------------------------------
 (7) _ConvertDayToBit                                      1     1      0      22
                                              0 COMRAM     1     1      0
 ---------------------------------------------------------------------------------
 (6) _SendSymbolToLCD                                      5     5      0     349
                                              3 COMRAM     5     5      0
                              _delay
 ---------------------------------------------------------------------------------
 (7) _delay                                                3     1      2     257
                                              0 COMRAM     3     1      2
 ---------------------------------------------------------------------------------
 (6) _FillMinutes                                          0     0      0       0
 ---------------------------------------------------------------------------------
 (6) _ConvKeyNum                                           1     1      0      22
                                              0 COMRAM     1     1      0
 ---------------------------------------------------------------------------------
 Estimated maximum stack depth 8
 ---------------------------------------------------------------------------------
 (Depth) Function   	        Calls       Base Space   Used Autos Params    Refs
 ---------------------------------------------------------------------------------
 (10) _F_h                                                 0     0      0       0
 ---------------------------------------------------------------------------------
 Estimated maximum stack depth 10
 ---------------------------------------------------------------------------------

 Call Graph Graphs:

 _main (ROOT)
   _EERD
     ___lwmod
   _clrInd
   _lcd_on
     _lcd_init
       _lcd_send_byte
         _lcd_send_initial_half_byte
       _lcd_send_initial_half_byte
     _lcd_send_byte
       _lcd_send_initial_half_byte
   _main2
     _drowText
       _outputString
         _setDigit

 _F_l (ROOT)
   _ConvKeyNum
   _FillMinutes
   _SendSymbolToLCD
     _delay
   _SignalsOnOff
     _ConvertDayToBit
     _EEWR
       i1___lwmod
     _ReadFourBytesEE
       i1_EERD
         i1___lwmod
     ___aldiv
     ___lwdiv
     i1___lwmod
   _getLcdCodeOfChar
   i1_lcd_send_byte
     i1_lcd_send_initial_half_byte

 _F_h (ROOT)

 Address spaces:
Name               Size   Autos  Total    Cost      Usage
BIGRAM             F7F      0       0      37        0.0%
EEDATA             400      0       0       0        0.0%
BITBANK14          100      0       0      32        0.0%
BANK14             100      0       0      33        0.0%
BITBANK13          100      0       0      30        0.0%
BANK13             100      0       0      31        0.0%
BITBANK12          100      0       0      28        0.0%
BANK12             100      0       0      29        0.0%
BITBANK11          100      0       0      26        0.0%
BANK11             100      0       0      27        0.0%
BITBANK10          100      0       0      24        0.0%
BANK10             100      0       0      25        0.0%
BITBANK9           100      0       0      22        0.0%
BANK9              100      0       0      23        0.0%
BITBANK8           100      0       0      20        0.0%
BANK8              100      0       0      21        0.0%
BITBANK7           100      0       0      18        0.0%
BANK7              100      0       0      19        0.0%
BITBANK6           100      0       0      16        0.0%
BANK6              100      0       0      17        0.0%
BITBANK5           100      0       0      14        0.0%
BANK5              100      0       0      15        0.0%
BITBANK4           100      0       0      12        0.0%
BANK4              100      0       0      13        0.0%
BITBANK3           100      0       0      10        0.0%
BANK3              100      0       0      11        0.0%
BITBANK2           100      0       0       8        0.0%
BANK2              100      0      CD       9       80.1%
BITBANK1           100      0       0       6        0.0%
BANK1              100     D1      D2       7       82.0%
BITBANK15           80      0       0      35        0.0%
BANK15              80      0       0      36        0.0%
BITBANK0            80      0       0       4        0.0%
BANK0               80     2E      70       5       87.5%
BITCOMRAM           7F      0       0       0        0.0%
COMRAM              7F     44      77       1       93.7%
BITSFR               0      0       0      40        0.0%
SFR                  0      0       0      40        0.0%
STACK                0      0       0       2        0.0%
NULL                 0      0       0       0        0.0%
ABS                  0      0     286      34        0.0%
DATA                 0      0     286       3        0.0%
CODE                 0      0       0       0        0.0%


Microchip Technology PIC18 Macro Assembler V1.33 build 59893 
Symbol Table                                                                                   Tue Feb 23 00:43:13 2016

                                   PL2 09BA                                     PL4 1202  
                                   PL6 0F36                                     PL8 0F46  
                          _SSPSTATbits 000FC7                         ?_lcd_send_byte 0001  
                                   bsr 000FE0                            __CFG_BORV$3 000000  
                         __CFG_CP0$OFF 000000                           __CFG_CP1$OFF 000000  
                         __CFG_CP2$OFF 000000                           __CFG_CP3$OFF 000000  
                                  PL10 0FAE                                    PL12 0D18  
                                  PL14 0FBA                                    l203 0F22  
                                  l212 11D2                       ?_SendSymbolToLCD 0001  
                                  l906 1098                                    l907 10A6  
                                  l918 0C66                           __CFG_CPB$OFF 000000  
                                  _RC0 007C10                                    _RC2 007C12  
                                  _RB7 007C0F                                    _PR2 000FCB  
                         __CFG_CPD$OFF 000000                                    u905 0F0E  
                                  u906 0F12                                    u935 0F2A  
                                  u936 0F2E                                    _F_h 0008  
                                  _F_l 0018                                    wreg 000FE8  
                         __CFG_IESO$ON 000000                  ReadFourBytesEE@adress 000D  
                         __CFG_LVP$OFF 000000                                   ?_F_h 0001  
                                 ?_F_l 0001                           __CFG_WDT$OFF 000000  
                                 l3022 0F04                                   l3040 134E  
                                 l3038 1348                                   l3070 109E  
                                 l1535 12C8                                   l3080 10CA  
                                 l3240 0C6E                                   l3074 10AE  
                                 l3234 0C6C                                   l3084 10DC  
                                 l3350 12BE                                   l3342 12A0  
                                 l3270 0CF8                                   l3344 12A8  
                                 l3088 10E0                                   l3264 0CE4  
                                 l4232 0ACE                                   l3346 12AC  
                                 l3258 0CC2                                   l4242 0B16  
                                 l4254 0B48                                   l3376 11D4  
                                 l4256 0B64                                   F_l@a 0040  
                                 _EERD 1212                                   _T0IF 007F92  
                                 _EEWR 10F0                                   u1101 0CB8  
                                 u1070 0C9A                                   u1085 0C9E  
                                 _LATA 000F89                                   _LATB 000F8A  
                                 _LATC 000F8B                                   u1451 0ABA  
                                 _IPR1 000F9F                                   _IPR2 000FA2  
                                 u1807 0D8C                                   _PIE1 000F9D  
                                 _PIE2 000FA0                                   u1817 0D9A  
                                 u1827 0DA8                                   u1837 0DB6  
                                 u1757 0D36                                   u1847 0DCE  
                                 u1767 0D4C                                   u1857 131E  
                                 u1777 0D5E                                   u1867 1330  
                                 u1787 0D70                                   u1797 0D7E  
                                 _PIR1 000F9E                                   _PIR2 000FA1  
                                 _RCON 000FD0                                   _TMR1 000FCE  
                                 _TMR2 000FCC                    i1lcd_send_byte@data 0004  
                         __CFG_PWRT$ON 000000                  __size_of_outputString 0060  
                   lcd_init@INTCON_BUF 00C7                                   _main 0E72  
                  __end_of_FillMinutes 1400                                   fsr1h 000FE2  
                                 fsr2h 000FDA                                   indf1 000FE7  
                                 fsr1l 000FE1                                   indf2 000FDF  
                                 fsr2l 000FD9                                   prodh 000FF4  
                                 prodl 000FF3                                   start 01EE  
                       EEWR@INTCON_BUP 000C                                  ??_F_h 00C2  
                                ??_F_l 0031                                  ?_EERD 00C7  
                                ?_EEWR 0006                        __end_of___aldiv 0AAE  
                    _SignalsOnOff$1069 0023                                  ?_main 0001  
                                _EEADR 000FA9                                  _T2CON 000FCA  
                      __end_of___lwdiv 118A                                  i1l221 0804  
                      __end_of___lwmod 12D2                                  i1l530 13B0  
                                i1l531 13B8                                  i1l455 1134  
                                i1l831 09B8                                  i1l832 092C  
                                i1l833 0922                                  i1l589 0E70  
                                i1l678 11CE                                  i1l838 0936  
                                i1l854 0098                                  i1l855 009A  
                                i1l873 0166                                  i1l865 0144  
                                i1l883 01D0                       drowText@destLine 00EB  
                                _PORTA 000F80                                  _PORTB 000F81  
                                _TRISA 000F92                                  _TRISB 000F93  
                                _TRISC 000F94                       main2@maxPosition 01CD  
                                _Clock 005F                          __CFG_WRT0$OFF 000000  
                      i1_lcd_send_byte 1388                          __CFG_WRT1$OFF 000000  
                        __CFG_WRT2$OFF 000000                             _ConvKeyNum 0DE6  
                        __CFG_WRT3$OFF 000000                         __CFG_EBTR0$OFF 000000  
                       __CFG_FCMEN$OFF 000000                         __CFG_EBTR1$OFF 000000  
                                _cDays 0058                         __CFG_EBTR2$OFF 000000  
                  SignalsOnOff@DayTime 0027                         __CFG_EBTR3$OFF 000000  
                         _outputString 1090                          __CFG_WRTB$OFF 000000  
                   i1___lwmod@dividend 0001                          __CFG_WRTC$OFF 000000  
                        __CFG_WRTD$OFF 000000                         __CFG_EBTRB$OFF 000000  
                                _delay 13AC                           F_l@_KeyIndex 003F  
                                _flags 00C0                                  _main2 0AAE  
                    ??_ReadFourBytesEE 0011                           F_l@MinuteAgo 003C  
                                tablat 000FF5                    drowText@symbol_1136 00EC  
                  SignalsOnOff@ThisDay 002B                    SignalsOnOff@Signals 002A  
            SchedulerNew@NumberOfCells 006D                                  status 000FD8  
                   __size_ofi1___lwmod 003E                           __end_of_EERD 1254  
                         __end_of_EEWR 1140                         __CFG_MCLRE$OFF 000000  
                     drowText@startNum 00D2                        __initialization 0FC6  
                         __end_of_main 0EE6                        ??_lcd_send_byte 00C5  
                       EERD@EEDATA_BUP 00CD                                 ??_EERD 00C9  
                               ??_EEWR 0009                         __CFG_OSC$HSPLL 000000  
                               ??_main 00EF                          __activetblptr 000002  
                               ?_delay 0001                            _FillMinutes 13E6  
                               ?_main2 0001                                 _ADCON1 000FC1  
                               _EEADRH 000FAA                                 _EEDATA 000FA8  
                               _EECON2 000FA7                                 i1l4000 040A  
                               i1l3210 11A2                                 i1l3202 119A  
                               i1l3050 12DE                                 i1l3052 12E6  
                               i1l3116 1032                                 i1l4020 041A  
                               i1l4004 040E                                 i1l1525 1180  
                               i1l3214 11A6                                 i1l3206 119E  
                               i1l3054 12EA                                 i1l1535 1306  
                               i1l4120 0DF2                                 i1l4112 0DEA  
                               i1l3152 13C2                                 i1l3224 11AE  
                               i1l3312 0A9C                                 i1l3304 0A7A  
                               i1l4032 0426                                 i1l4024 041E  
                               i1l4016 0416                                 i1l4008 0412  
                               i1l3400 0202                                 i1l3218 11AA  
                               i1l3058 12FC                                 i1l3322 1150  
                               i1l4140 0E06                                 i1l4132 0DFE  
                               i1l4124 0DF6                                 i1l4116 0DEE  
                               i1l3308 0A88                                 i1l3324 1158  
                               i1l4036 042A                                 i1l4028 0422  
                               i1l3500 0262                                 i1l3420 0216  
                               i1l3412 020E                                 i1l3404 0206  
                               i1l4300 009E                                 i1l3190 118E  
                               i1l3334 1176                                 i1l3326 115C  
                               i1l4046 042E                                 i1l4160 0E1A  
                               i1l4152 0E12                                 i1l4144 0E0A  
                               i1l4136 0E02                                 i1l4128 0DFA  
                               i1l4072 0F64                                 i1l3280 09F6  
                               i1l3600 02C2                                 i1l3520 0276  
                               i1l3512 026E                                 i1l3504 0266  
                               i1l3440 0226                                 i1l3432 0222  
                               i1l3424 021A                                 i1l3416 0212  
                               i1l3408 020A                                 i1l3360 1376  
                               i1l4320 0120                                 i1l4304 00B6  
                               i1l4074 0F6A                                 i1l3194 1192  
                               i1l4218 09AE                                 i1l4314 0100  
                               i1l4172 0E26                                 i1l4164 0E1E  
                               i1l4156 0E16                                 i1l4148 0E0E  
                               i1l4092 0F8E                                 i1l3292 0A3C  
                               i1l3700 0326                                 i1l3620 02D6  
                               i1l3612 02CE                                 i1l3604 02C6  
                               i1l3540 028A                                 i1l3532 0282  
                               i1l3524 027A                                 i1l3516 0272  
                               i1l3508 026A                                 i1l3460 023A  
                               i1l3452 0232                                 i1l3444 022A  
                               i1l3428 021E                                 i1l4316 0104  
                               i1l4182 0E2E                                 i1l4094 0F94  
                               i1l3198 1196                                 i1l3294 0A48  
                               i1l3286 0A24                                 i1l3358 1370  
                               i1l4176 0E2A                                 i1l4168 0E22  
                               i1l3296 0A4C                                 i1l3800 037E  
                               i1l3720 033A                                 i1l3712 0332  
                               i1l3704 032A                                 i1l3640 02EA  
                               i1l3632 02E2                                 i1l3624 02DA  
                               i1l3616 02D2                                 i1l3608 02CA  
                               i1l3560 029A                                 i1l3552 0296  
                               i1l3544 028E                                 i1l3536 0286  
                               i1l3528 027E                                 i1l3480 024E  
                               i1l3472 0246                                 i1l3464 023E  
                               i1l3456 0236                                 i1l3448 022E  
                               i1l3392 01FA                                 i1l4344 0178  
                               i1l4336 015E                                 i1l4328 013C  
                               i1l4346 017A                                 i1l3812 038A  
                               i1l3804 0382                                 i1l3740 034E  
                               i1l3732 0346                                 i1l3724 033E  
                               i1l3716 0336                                 i1l3708 032E  
                               i1l3660 02FE                                 i1l3652 02F6  
                               i1l3644 02EE                                 i1l3636 02E6  
                               i1l3628 02DE                                 i1l3580 02AE  
                               i1l3572 02A6                                 i1l3564 029E  
                               i1l3548 0292                                 i1l3492 025A  
                               i1l3484 0252                                 i1l3476 024A  
                               i1l3468 0242                                 i1l3396 01FE  
                               i1l3388 01F6                                 i1l4356 0186  
                               i1l4372 01BA                                 i1l4380 01CE  
                               i1l4286 0088                                 i1l3904 03CA  
                               i1l3840 039E                                 i1l3832 0396  
                               i1l3824 038E                                 i1l3808 0386  
                               i1l3760 0362                                 i1l3752 035A  
                               i1l3744 0352                                 i1l3736 034A  
                               i1l3728 0342                                 i1l3680 0312  
                               i1l3672 030A                                 i1l3664 0302  
                               i1l3656 02FA                                 i1l3648 02F2  
                               i1l3592 02BA                                 i1l3584 02B2  
                               i1l3576 02AA                                 i1l3568 02A2  
                               i1l3496 025E                                 i1l3488 0256  
                               i1l3908 03CE                                 i1l3860 03B2  
                               i1l3852 03AA                                 i1l3844 03A2  
                               i1l3836 039A                                 i1l3828 0392  
                               i1l3772 036E                                 i1l3764 0366  
                               i1l3756 035E                                 i1l3748 0356  
                               i1l3692 031E                                 i1l3684 0316  
                               i1l3676 030E                                 i1l3668 0306  
                               i1l3596 02BE                                 i1l3588 02B6  
                               i1l3960 03E2                                 i1l3944 03DA  
                               i1l3936 03D6                                 i1l3928 03D2  
                               i1l3880 03C2                                 i1l3872 03BA  
                               i1l3856 03AE                                 i1l3848 03A6  
                               i1l3784 0372                                 i1l3768 036A  
                               i1l3696 0322                                 i1l3688 031A  
                               i1l3980 03F6                                 i1l3972 03EE  
                               i1l3964 03E6                                 i1l3948 03DE  
                               i1l3892 03C6                                 i1l3876 03BE  
                               i1l3868 03B6                                 i1l3796 037A  
                               i1l3788 0376                                 i1l3992 0402  
                               i1l3984 03FA                                 i1l3976 03F2  
                               i1l3968 03EA                                 i1l3996 0406  
                               i1l3988 03FE                                 _INTCON 000FF2  
                               i1_EERD 1254                           F_l@data_temp 003E  
                               _TMR1IF 007CF0                                 _TMR2IF 007CF1  
                         i1EERD@adress 0006                                 _SSPADD 000FC8  
                               _SSPBUF 000FC9                      drowText@direction 00D4  
                           _SignalsOut 0071                         __CFG_XINST$OFF 000000  
                               _cHours 0072                       __end_of_lcd_init 0DE6  
                               _cYears 005B                              ??___aldiv 0009  
                       __CFG_STVREN$ON 000000                                 _clrInd 11D0  
                               _digits 0080                              ??___lwdiv 0005  
                     __end_of_drowText 0D18                              ??___lwmod 00C6  
             __size_of_ConvertDayToBit 0046                                 _lcd_on 1400  
              __end_ofi1_lcd_send_byte 13AC              __size_of_getLcdCodeOfChar 0614  
                               clear_0 0FD0                                 clear_1 0FDC  
                     __end_of_setDigit 0F36                           __pdataCOMRAM 0045  
                    __end_ofi1___lwmod 1310                            ?_ConvKeyNum 0001  
                               tblptrh 000FF7                                 tblptrl 000FF6  
                               tblptru 000FF8           ??_lcd_send_initial_half_byte 00C2  
                 SignalsOnOff@ThisTime 0025                   SignalsOnOff@TimeStop 0021  
                           __accesstop 0080                __end_of__initialization 1022  
                       EERD@INTCON_BUP 00CC                          setDigit@value 00C7  
                      __CFG_PBADEN$OFF 000000         ??i1_lcd_send_initial_half_byte 0001  
                     SignalsOnOff@Data 002D                       SignalsOnOff@Days 0029  
                       __pcstackCOMRAM 0001                           __pidataBANK2 0B8C  
                        __end_of_delay 13CC                          __end_of_main2 0B8C  
                       _CurrentSignals 006E                             __end_ofPL2 09C6  
                           __end_ofPL4 1212                             __end_ofPL6 0F46  
                           __end_ofPL8 0F56    __size_of_lcd_send_initial_half_byte 0028  
                       drowText@symbol 00ED                     F_l@PressedKeyIndex 0056  
                              ??_delay 0003                                ??_main2 00EE  
                      __CFG_LPT1OSC$ON 000000                    _SendSymbolToLCD$945 0004  
                  _SendSymbolToLCD$947 0006                             __pbssBANK0 0080  
                           __pbssBANK1 01D1                                ?i1_EERD 0006  
                        ?_SignalsOnOff 0001                    __size_of_ConvKeyNum 008C  
                              ?_clrInd 0001                                ?_lcd_on 0001  
                     ?i1_lcd_send_byte 0001                                F_l@line 0044  
                      _ReadFourBytesEE 102C                                _INTCON2 000FF1  
                              _INTCON3 000FF0                      ??_ConvertDayToBit 0001  
                   _CurrentReadingCell 0069                       outputString@line 00C9  
                              _SSPCON1 000FC6                                _SSPCON2 000FC5  
                            ?_lcd_init 0001               __size_of_SendSymbolToLCD 0058  
                              _SSPSTAT 000FC7                         ??_SignalsOnOff 001B  
                            ?_drowText 00D0                  SignalsOnOff@Data_1070 002C  
                      __size_ofi1_EERD 0040                                _KeyCode 01D1  
                            ?_setDigit 00C2                                __Hparam 0000  
                              _Minutes 0063                                __Lparam 0000  
                              _cMonths 0059                                ___aldiv 09C6  
                              ___lwdiv 1140                                ___lwmod 1294  
                      __size_of_clrInd 0032                              F_l@symbol 0042  
                      __size_of_lcd_on 0010                       _getLcdCodeOfChar 01F2  
                              __pcinit 0FC6                                __ramtop 1000  
                           EERD@adress 00C7                                __ptext0 0E72  
                              __ptext1 0AAE                                __ptext2 0C5A  
                              __ptext3 1090                                __ptext4 0EE6  
                              __ptext5 1400                                __ptext6 0D26  
                              __ptext7 1310                                __ptext8 1338  
                              __ptext9 11D0                              _T1CONbits 000FCD  
                         __size_of_F_h 140E                           __size_of_F_l 01D6  
                            _T2CONbits 000FCA                             delay@count 0001  
                     ___aldiv@dividend 0001               ConvertDayToBit@DayNumber 0001  
   __end_of_lcd_send_initial_half_byte 1360             _lcd_send_initial_half_byte 1338  
                         ?_FillMinutes 0001                       i1EERD@EEDATA_BUP 000C  
                           ??_lcd_init 00C6                             clrInd@line 00C2  
                       __pintcode_body 1410                             clrInd@symb 00C3  
                 end_of_initialization 1022                             ??_drowText 00D6  
                        __Lmediumconst 0000                                int_func 1410  
                   _CurrentSignalsData 006F                             ??_setDigit 00C4  
                           main2@F3379 0200                __end_of_ReadFourBytesEE 1090  
                           EEWR@adress 0006                       ___aldiv@quotient 000B  
                              postdec1 000FE5                                postinc0 000FEE  
                              postinc1 000FE6                                postinc2 000FDE  
                SignalsOnOff@TimeStart 001F                  __end_of_lcd_send_byte 1338  
                            _PORTBbits 000F81         _lcd_send_initial_half_byte$955 00C3  
                         ??_ConvKeyNum 0001                              _TRISCbits 000F94  
                       setDigit@value0 00C6                              i1___lwmod 12D2  
                       setDigit@symbol 00C2                         __end_ofi1_EERD 1294  
                    ??_SendSymbolToLCD 0004                     __end_of_ConvKeyNum 0E72  
                          F_l@KeyIndex 006C                       i1EERD@INTCON_BUP 000B  
                       __end_of_clrInd 1202                          __pidataCOMRAM 13CC  
                 __end_of_SignalsOnOff 09BA                         __end_of_lcd_on 1410  
                    i1___lwmod@divisor 0003                      i1___lwmod@counter 0005  
                   drowText@stringData 00D0                        drowText@srcLine 00EA  
                          __end_ofPL10 0FBA                            __end_ofPL12 0D26  
                          __end_ofPL14 0FC6                    start_initialization 0FC6  
                     ReadFourBytesEE@i 0019                       ReadFourBytesEE@x 0015  
                          __end_of_F_h 1416                            __end_of_F_l 01EE  
                        _SignalsForInd 0070                             ?i1___lwmod 0001  
                             ??i1_EERD 0008       i1lcd_send_initial_half_byte@data 0001  
                     ?_ReadFourBytesEE 000D                        _ConvertDayToBit 118A  
                             ??_clrInd 00C2                               ??_lcd_on 00C8  
                          __pdataBANK2 0200                          drowText@F3375 0045  
                             EEWR@data 0008                           setDigit@data 00C3  
                         setDigit@line 00C8   __end_ofi1_lcd_send_initial_half_byte 1388  
__size_ofi1_lcd_send_initial_half_byte 0028           i1_lcd_send_initial_half_byte 1360  
                          __pbssCOMRAM 005F                          __pcstackBANK0 00C2  
                        __pcstackBANK1 0100                          ?_outputString 00C9  
                 __size_of_FillMinutes 001A               __end_of_getLcdCodeOfChar 0806  
                    __size_of_lcd_init 00C0                      __size_of_drowText 00BE  
                     ___lwdiv@dividend 0001                      __CFG_CCP2MX$PORTC 000000  
                    __size_of_setDigit 0050                              __pintcode 0008  
                        outputString@i 00CC                          outputString@l 00CF  
                        outputString@s 00CB                               ?___aldiv 0001  
                             ?___lwdiv 0001                               ?___lwmod 00C2  
                          __pintcodelo 0018                      lcd_send_byte@data 00C5  
                          _digitsAtrib 00A0                         ??_outputString 00CB  
                             F_l@digit 003D          ?i1_lcd_send_initial_half_byte 0001  
          ?_lcd_send_initial_half_byte 0001               __size_ofi1_lcd_send_byte 0024  
                     ___lwdiv@quotient 0005                         __size_of_delay 0020  
                          ??i1___lwmod 0005                         __size_of_main2 00DE  
                      ___aldiv@divisor 0005                        ___aldiv@counter 0009  
              __end_of_ConvertDayToBit 11D0                               _PIE1bits 000F9D  
                             i1u114_25 09E0                               i1u115_25 0A0E  
                             i1u135_25 0856                               i1u136_25 086A  
                             i1u137_25 087A                               i1u155_25 0074  
                             i1u187_27 1394                               i1u188_27 13A4  
                             _PIR2bits 000FA1                  F_l@ButtonPressTimeOut 006B  
                         _setDigit$833 00C4                           _setDigit$834 00C5  
                __size_of_SignalsOnOff 01B4                               _RCONbits 000FD0  
                     __CFG_WDTPS$32768 000000                              main2@data 0100  
                      _SendSymbolToLCD 0F56                              copy_data0 0FF6  
                            copy_data1 1016       i1_lcd_send_initial_half_byte$955 0002  
                         _SignalsOnOff 0806                              drowText@a 00E9  
                           _EECON1bits 000FA6                               __Hparam0 0000  
                             __Lparam0 0000                     __CFG_BOREN$SBORDIS 000000  
                             _cMinutes 0073                               _cWeekDay 005A  
                     __size_of___aldiv 00E8                       __size_of___lwdiv 004A  
                     __size_of___lwmod 003E                      GetDayOfWeek@array 005C  
                        ConvKeyNum@Num 0001                        ___lwdiv@divisor 0003  
                      ___lwdiv@counter 0007                               __ptext10 1212  
                             __ptext11 1294                               __ptext20 1254  
                             __ptext21 10F0                               __ptext13 1388  
                             __ptext22 12D2                               __ptext14 1360  
                             __ptext23 118A                               __ptext15 01F2  
                             __ptext24 0F56                               __ptext16 0806  
                             __ptext25 13AC                               __ptext17 1140  
                             __ptext26 13E6                               __ptext18 09C6  
                             __ptext27 0DE6                               __ptext19 102C  
                             _lcd_init 0D26                    drowText@cutedString 00D8  
                        __size_of_EERD 0042                          __size_of_EEWR 0050  
                             _drowText 0C5A                 __size_of_lcd_send_byte 0028  
                    ??i1_lcd_send_byte 0004                          __size_of_main 0074  
                             delay@del 0003                       ?_ConvertDayToBit 0001  
                             _setDigit 0EE6                   __end_of_outputString 10F0  
                 _GlobalBlinkCycleTime 0057         lcd_send_initial_half_byte@data 00C2  
              __end_of_SendSymbolToLCD 0FAE                 Scheduler@NumberOfCells 0067  
                           _INTCONbits 000FF2                    getLcdCodeOfChar@dig 0001  
                             intlevel1 0000                               intlevel2 0000  
                        main2@position 01CF                 outputString@stringData 00CE  
                  SendSymbolToLCD@Symb 0008                      ?_getLcdCodeOfChar 0001  
                     ___lwmod@dividend 00C2                     ??_getLcdCodeOfChar 0001  
                        _lcd_send_byte 1310               __size_of_ReadFourBytesEE 0064  
                      ___lwmod@divisor 00C4                        ___lwmod@counter 00C6  
                         ___aldiv@sign 000A                          ??_FillMinutes 0001  
                          _SSPCON2bits 000FC5                   outputString@position 00CA  
                        _NearTimeStart 0074  
