

Microchip Technology PIC18 PRO Macro Assembler V1.37 build -260352376 
                                                                                               Tue May 10 21:38:54 2016

Microchip Technology Omniscient Code Generator v1.37 (PRO mode) build 201603110536
     1                           	processor	18F2620
     2                           	fnconf	rparam,??,?,0
     3                           	opt	pw 120
     4                           	opt	pm
     5                           	psect	idataCOMRAM,global,class=CODE,delta=1
     6                           	psect	idataBANK0,global,class=CODE,delta=1
     7                           	psect	idataBANK1,global,class=CODE,delta=1
     8                           	psect	smallconst,global,reloc=2,class=SMALLCONST,delta=1
     9                           	psect	cinit,global,reloc=2,class=CODE,delta=1
    10                           	psect	bssCOMRAM,global,class=COMRAM,space=1,delta=1
    11                           	psect	dataCOMRAM,global,class=COMRAM,space=1,delta=1
    12                           	psect	dataBANK0,global,class=BANK0,space=1,delta=1
    13                           	psect	bssBANK1,global,class=BANK1,space=1,delta=1
    14                           	psect	dataBANK1,global,class=BANK1,space=1,delta=1
    15                           	psect	cstackBANK1,global,class=BANK1,space=1,delta=1
    16                           	psect	cstackBANK0,global,class=BANK0,space=1,delta=1
    17                           	psect	cstackCOMRAM,global,class=COMRAM,space=1,delta=1
    18                           	psect	text0,global,reloc=2,class=CODE,delta=1
    19                           	psect	text1,global,reloc=2,class=CODE,delta=1
    20                           	psect	text2,global,reloc=2,class=CODE,delta=1
    21                           	psect	text3,global,reloc=2,class=CODE,delta=1
    22                           	psect	text4,global,reloc=2,class=CODE,delta=1
    23                           	psect	text5,global,reloc=2,class=CODE,delta=1
    24                           	psect	text6,global,reloc=2,class=CODE,delta=1
    25                           	psect	text7,global,reloc=2,class=CODE,delta=1
    26                           	psect	text8,global,reloc=2,class=CODE,delta=1
    27                           	psect	text9,global,reloc=2,class=CODE,delta=1
    28                           	psect	text10,global,reloc=2,class=CODE,delta=1
    29                           	psect	text11,global,reloc=2,class=CODE,delta=1
    30                           	psect	text12,global,reloc=2,class=CODE,delta=1
    31                           	psect	text13,global,reloc=2,class=CODE,delta=1
    32                           	psect	text14,global,reloc=2,class=CODE,delta=1
    33                           	psect	text15,global,reloc=2,class=CODE,delta=1
    34                           	psect	text16,global,reloc=2,class=CODE,delta=1
    35                           	psect	text17,global,reloc=2,class=CODE,delta=1
    36                           	psect	text18,global,reloc=2,class=CODE,delta=1
    37                           	psect	text19,global,reloc=2,class=CODE,delta=1
    38                           	psect	text20,global,reloc=2,class=CODE,delta=1
    39                           	psect	text21,global,reloc=2,class=CODE,delta=1
    40                           	psect	text22,global,reloc=2,class=CODE,delta=1
    41                           	psect	text23,global,reloc=2,class=CODE,delta=1
    42                           	psect	text24,global,reloc=2,class=CODE,delta=1
    43                           	psect	text25,global,reloc=2,class=CODE,delta=1
    44                           	psect	text26,global,reloc=2,class=CODE,delta=1
    45                           	psect	text27,global,reloc=2,class=CODE,delta=1
    46                           	psect	text28,global,reloc=2,class=CODE,delta=1
    47                           	psect	text29,global,reloc=2,class=CODE,delta=1
    48                           	psect	text30,global,reloc=2,class=CODE,delta=1
    49                           	psect	text31,global,reloc=2,class=CODE,delta=1
    50                           	psect	text32,global,reloc=2,class=CODE,delta=1
    51                           	psect	text33,global,reloc=2,class=CODE,delta=1
    52                           	psect	text34,global,reloc=2,class=CODE,delta=1
    53                           	psect	text35,global,reloc=2,class=CODE,delta=1
    54                           	psect	text36,global,reloc=2,class=CODE,delta=1
    55                           	psect	text37,global,reloc=2,class=CODE,delta=1
    56                           	psect	text38,global,reloc=2,class=CODE,delta=1
    57                           	psect	text39,global,reloc=2,class=CODE,delta=1
    58                           	psect	text40,global,reloc=2,class=CODE,delta=1
    59                           	psect	text41,global,reloc=2,class=CODE,delta=1
    60                           	psect	text42,global,reloc=2,class=CODE,delta=1
    61                           	psect	text43,global,reloc=2,class=CODE,delta=1
    62                           	psect	text44,global,reloc=2,class=CODE,delta=1
    63                           	psect	text45,global,reloc=2,class=CODE,delta=1
    64                           	psect	text46,global,reloc=2,class=CODE,delta=1
    65                           	psect	text47,global,reloc=2,class=CODE,delta=1
    66                           	psect	text48,global,reloc=2,class=CODE,delta=1
    67                           	psect	text49,global,reloc=2,class=CODE,delta=1
    68                           	psect	text50,global,reloc=2,class=CODE,delta=1
    69                           	psect	text51,global,reloc=2,class=CODE,delta=1
    70                           	psect	text52,global,reloc=2,class=CODE,delta=1
    71                           	psect	intcodelo,global,reloc=2,class=CODE,delta=1
    72                           	psect	text54,global,reloc=2,class=CODE,delta=1
    73                           	psect	text55,global,reloc=2,class=CODE,delta=1
    74                           	psect	text56,global,reloc=2,class=CODE,delta=1
    75                           	psect	text57,global,reloc=2,class=CODE,delta=1
    76                           	psect	text58,global,reloc=2,class=CODE,delta=1
    77                           	psect	text59,global,reloc=2,class=CODE,delta=1
    78                           	psect	text60,global,reloc=2,class=CODE,delta=1
    79                           	psect	intcode,global,reloc=2,class=CODE,delta=1
    80                           	psect	intcode_body,global,reloc=2,class=CODE,delta=1
    81                           	psect	intsave_regs,global,class=BIGRAM,space=1,delta=1
    82                           	psect	rparam,global,class=COMRAM,space=1,delta=1
    83                           	psect	temp,global,ovrld,common,class=COMRAM,space=1,delta=1
    84                           	psect	pa_nodes,global,class=CODE,delta=1
    85  0000                     tblptru	equ	0xFF8
    86                           tblptrh	equ	0xFF7
    87                           tblptrl	equ	0xFF6
    88                           tablat	equ	0xFF5
    89                           prodh	equ	0xFF4
    90                           prodl	equ	0xFF3
    91                           intcon	equ	0xFF2
    92                           intcon2	equ	0xFF1
    93                           intcon3	equ	0xFF0
    94                           wreg	equ	0xFE8
    95                           indf1	equ	0xFE7
    96                           plusw1	equ	0xFE3
    97                           fsr1h	equ	0xFE2
    98                           fsr1l	equ	0xFE1
    99                           indf2	equ	0xFDF
   100                           postinc2	equ	0xFDE
   101                           postdec2	equ	0xFDD
   102                           plusw2	equ	0xFDB
   103                           fsr2h	equ	0xFDA
   104                           fsr2l	equ	0xFD9
   105                           status	equ	0xFD8
   106                           
   107                           	psect	idataCOMRAM
   108  003C14                     __pidataCOMRAM:
   109                           	opt stack 0
   110                           
   111                           ;initializer for RefreshSchedulerIndicator@F3062
   112  003C14  20                 	db	32
   113  003C15  20                 	db	32
   114  003C16  00                 	db	0
   115                           
   116                           ;initializer for F_l@PressedKeyIndex
   117  003C17  FF                 	db	255
   118                           
   119                           ;initializer for _GlobalBlinkCycleTime
   120  003C18  46                 	db	70
   121                           tblptru	equ	0xFF8
   122                           tblptrh	equ	0xFF7
   123                           tblptrl	equ	0xFF6
   124                           tablat	equ	0xFF5
   125                           prodh	equ	0xFF4
   126                           prodl	equ	0xFF3
   127                           intcon	equ	0xFF2
   128                           intcon2	equ	0xFF1
   129                           intcon3	equ	0xFF0
   130                           wreg	equ	0xFE8
   131                           indf1	equ	0xFE7
   132                           plusw1	equ	0xFE3
   133                           fsr1h	equ	0xFE2
   134                           fsr1l	equ	0xFE1
   135                           indf2	equ	0xFDF
   136                           postinc2	equ	0xFDE
   137                           postdec2	equ	0xFDD
   138                           plusw2	equ	0xFDB
   139                           fsr2h	equ	0xFDA
   140                           fsr2l	equ	0xFD9
   141                           status	equ	0xFD8
   142                           
   143                           	psect	idataBANK0
   144  003BDC                     __pidataBANK0:
   145                           	opt stack 0
   146                           
   147                           ;initializer for TimeEdit@F2989
   148  003BDC  1F                 	db	31
   149  003BDD  1C                 	db	28
   150  003BDE  1F                 	db	31
   151  003BDF  1E                 	db	30
   152  003BE0  1F                 	db	31
   153  003BE1  1E                 	db	30
   154  003BE2  1F                 	db	31
   155  003BE3  1F                 	db	31
   156  003BE4  1E                 	db	30
   157  003BE5  1F                 	db	31
   158  003BE6  1E                 	db	30
   159  003BE7  1F                 	db	31
   160                           
   161                           ;initializer for _cDays
   162  003BE8  01                 	db	1
   163                           
   164                           ;initializer for _cMonths
   165  003BE9  01                 	db	1
   166                           
   167                           ;initializer for _cYears
   168  003BEA  01                 	db	1
   169                           tblptru	equ	0xFF8
   170                           tblptrh	equ	0xFF7
   171                           tblptrl	equ	0xFF6
   172                           tablat	equ	0xFF5
   173                           prodh	equ	0xFF4
   174                           prodl	equ	0xFF3
   175                           intcon	equ	0xFF2
   176                           intcon2	equ	0xFF1
   177                           intcon3	equ	0xFF0
   178                           wreg	equ	0xFE8
   179                           indf1	equ	0xFE7
   180                           plusw1	equ	0xFE3
   181                           fsr1h	equ	0xFE2
   182                           fsr1l	equ	0xFE1
   183                           indf2	equ	0xFDF
   184                           postinc2	equ	0xFDE
   185                           postdec2	equ	0xFDD
   186                           plusw2	equ	0xFDB
   187                           fsr2h	equ	0xFDA
   188                           fsr2l	equ	0xFD9
   189                           status	equ	0xFD8
   190                           
   191                           	psect	idataBANK1
   192  0037B2                     __pidataBANK1:
   193                           	opt stack 0
   194                           
   195                           ;initializer for TimeToInd@F2936
   196  0037B2  20                 	db	32
   197  0037B3  20                 	db	32
   198  0037B4  20                 	db	32
   199  0037B5  20                 	db	32
   200  0037B6  20                 	db	32
   201  0037B7  20                 	db	32
   202  0037B8  20                 	db	32
   203  0037B9  20                 	db	32
   204  0037BA  20                 	db	32
   205  0037BB  20                 	db	32
   206  0037BC  20                 	db	32
   207  0037BD  20                 	db	32
   208  0037BE  20                 	db	32
   209  0037BF  20                 	db	32
   210  0037C0  20                 	db	32
   211  0037C1  20                 	db	32
   212  0037C2  00                 	db	0
   213                           
   214                           ;initializer for TimeToInd@F2950
   215  0037C3  B9                 	db	185
   216  0037C4  20                 	db	32
   217  0037C5  20                 	db	32
   218  0037C6  20                 	db	32
   219  0037C7  EF                 	db	239
   220  0037C8  EE                 	db	238
   221  0037C9  20                 	db	32
   222  0037CA  2D                 	db	45
   223  0037CB  2D                 	db	45
   224  0037CC  3A                 	db	58
   225  0037CD  2D                 	db	45
   226  0037CE  2D                 	db	45
   227  0037CF  00                 	db	0
   228                           
   229                           ;initializer for EditSchedule@F3123
   230  0037D0  2A                 	db	42
   231  0037D1  2A                 	db	42
   232  0037D2  3A                 	db	58
   233  0037D3  2A                 	db	42
   234  0037D4  2A                 	db	42
   235  0037D5  2D                 	db	45
   236  0037D6  2A                 	db	42
   237  0037D7  2A                 	db	42
   238  0037D8  3A                 	db	58
   239  0037D9  2A                 	db	42
   240  0037DA  2A                 	db	42
   241  0037DB  00                 	db	0
   242                           
   243                           ;initializer for EditSchedule@F3130
   244  0037DC  2A                 	db	42
   245  0037DD  2A                 	db	42
   246  0037DE  3A                 	db	58
   247  0037DF  2A                 	db	42
   248  0037E0  2A                 	db	42
   249  0037E1  2D                 	db	45
   250  0037E2  2A                 	db	42
   251  0037E3  2A                 	db	42
   252  0037E4  3A                 	db	58
   253  0037E5  2A                 	db	42
   254  0037E6  2A                 	db	42
   255  0037E7  00                 	db	0
   256                           
   257                           ;initializer for TimeToInd@F2932
   258  0037E8  2D                 	db	45
   259  0037E9  2D                 	db	45
   260  0037EA  3A                 	db	58
   261  0037EB  2D                 	db	45
   262  0037EC  2D                 	db	45
   263  0037ED  3A                 	db	58
   264  0037EE  2D                 	db	45
   265  0037EF  2D                 	db	45
   266  0037F0  00                 	db	0
   267                           
   268                           ;initializer for TimeToInd@F2928
   269  0037F1  20                 	db	32
   270  0037F2  20                 	db	32
   271  0037F3  20                 	db	32
   272  0037F4  00                 	db	0
   273                           
   274                           ;initializer for _AdressOfNextStartCell
   275  0037F5  0180               	dw	384
   276  0000                     _TMR1	set	4046
   277  0000                     _ADCON1	set	4033
   278  0000                     _EEADR	set	4009
   279  0000                     _EEADRH	set	4010
   280  0000                     _EECON1bits	set	4006
   281  0000                     _EECON2	set	4007
   282  0000                     _EEDATA	set	4008
   283  0000                     _INTCON	set	4082
   284  0000                     _INTCON2	set	4081
   285  0000                     _INTCON3	set	4080
   286  0000                     _INTCONbits	set	4082
   287  0000                     _IPR1	set	3999
   288  0000                     _IPR2	set	4002
   289  0000                     _LATA	set	3977
   290  0000                     _LATB	set	3978
   291  0000                     _LATC	set	3979
   292  0000                     _PIE1	set	3997
   293  0000                     _PIE1bits	set	3997
   294  0000                     _PIE2	set	4000
   295  0000                     _PIR1	set	3998
   296  0000                     _PIR2	set	4001
   297  0000                     _PIR2bits	set	4001
   298  0000                     _PORTA	set	3968
   299  0000                     _PORTB	set	3969
   300  0000                     _PR2	set	4043
   301  0000                     _RCON	set	4048
   302  0000                     _RCONbits	set	4048
   303  0000                     _T1CONbits	set	4045
   304  0000                     _T2CON	set	4042
   305  0000                     _T2CONbits	set	4042
   306  0000                     _TMR2	set	4044
   307  0000                     _TRISA	set	3986
   308  0000                     _TRISB	set	3987
   309  0000                     _TRISC	set	3988
   310  0000                     _RB7	set	31759
   311  0000                     _RC0	set	31760
   312  0000                     _RC2	set	31762
   313  0000                     _T0IF	set	32658
   314  0000                     _TMR1IF	set	31984
   315  0000                     _TMR2IF	set	31985
   316                           tblptru	equ	0xFF8
   317                           tblptrh	equ	0xFF7
   318                           tblptrl	equ	0xFF6
   319                           tablat	equ	0xFF5
   320                           prodh	equ	0xFF4
   321                           prodl	equ	0xFF3
   322                           intcon	equ	0xFF2
   323                           intcon2	equ	0xFF1
   324                           intcon3	equ	0xFF0
   325                           wreg	equ	0xFE8
   326                           indf1	equ	0xFE7
   327                           plusw1	equ	0xFE3
   328                           fsr1h	equ	0xFE2
   329                           fsr1l	equ	0xFE1
   330                           indf2	equ	0xFDF
   331                           postinc2	equ	0xFDE
   332                           postdec2	equ	0xFDD
   333                           plusw2	equ	0xFDB
   334                           fsr2h	equ	0xFDA
   335                           fsr2l	equ	0xFD9
   336                           status	equ	0xFD8
   337                           
   338                           	psect	smallconst
   339  001000                     __psmallconst:
   340                           	opt stack 0
   341  001000  00                 	db	0
   342  001001                     STR_10:
   343  001001  20                 	db	32
   344  001002  20                 	db	32
   345  001003  20                 	db	32
   346  001004  20                 	db	32
   347  001005  20                 	db	32
   348  001006  20                 	db	32
   349  001007  20                 	db	32
   350  001008  20                 	db	32
   351  001009  20                 	db	32
   352  00100A  20                 	db	32
   353  00100B  20                 	db	32
   354  00100C  20                 	db	32
   355  00100D  20                 	db	32
   356  00100E  20                 	db	32
   357  00100F  20                 	db	32
   358  001010  20                 	db	32
   359  001011  00                 	db	0
   360  001012                     STR_9:
   361  001012  D0                 	db	-48
   362  001013  E0                 	db	-32
   363  001014  F1                 	db	-15
   364  001015  EF                 	db	-17
   365  001016  E8                 	db	-24
   366  001017  F1                 	db	-15
   367  001018  E0                 	db	-32
   368  001019  ED                 	db	-19
   369  00101A  E8                 	db	-24
   370  00101B  E5                 	db	-27
   371  00101C  20                 	db	32
   372  00101D  EE                 	db	-18
   373  00101E  F2                 	db	-14
   374  00101F  EA                 	db	-22
   375  001020  EB                 	db	-21
   376  001021  2E                 	db	46
   377  001022  00                 	db	0
   378  001023                     STR_12:
   379  001023  63                 	db	99	;'c'
   380  001024  6F                 	db	111	;'o'
   381  001025  70                 	db	112	;'p'
   382  001026  79                 	db	121	;'y'
   383  001027  20                 	db	32
   384  001028  66                 	db	102	;'f'
   385  001029  72                 	db	114	;'r'
   386  00102A  6F                 	db	111	;'o'
   387  00102B  6D                 	db	109	;'m'
   388  00102C  20                 	db	32
   389  00102D  00                 	db	0
   390  00102E                     STR_14:
   391  00102E  63                 	db	99	;'c'
   392  00102F  65                 	db	101	;'e'
   393  001030  6C                 	db	108	;'l'
   394  001031  6C                 	db	108	;'l'
   395  001032  20                 	db	32
   396  001033  00                 	db	0
   397  001034                     STR_13:
   398  001034  6E                 	db	110	;'n'
   399  001035  65                 	db	101	;'e'
   400  001036  77                 	db	119	;'w'
   401  001037  20                 	db	32
   402  001038  00                 	db	0
   403  001039                     STR_11:
   404  001039  74                 	db	116	;'t'
   405  00103A  6F                 	db	111	;'o'
   406  00103B  20                 	db	32
   407  00103C  00                 	db	0
   408  00103D                     STR_6:
   409  00103D  F1                 	db	-15
   410  00103E  E1                 	db	-31
   411  00103F  00                 	db	0
   412  001040                     STR_1:
   413  001040  EF                 	db	-17
   414  001041  ED                 	db	-19
   415  001042  00                 	db	0
   416  001043                     STR_3:
   417  001043  F1                 	db	-15
   418  001044  F0                 	db	-16
   419  001045  00                 	db	0
   420  001046                     STR_7:
   421  001046  E2                 	db	-30
   422  001047  F1                 	db	-15
   423  001048  00                 	db	0
   424  001049                     STR_2:
   425  001049  E2                 	db	-30
   426  00104A  F2                 	db	-14
   427  00104B  00                 	db	0
   428  00104C                     STR_5:
   429  00104C  EF                 	db	-17
   430  00104D  F2                 	db	-14
   431  00104E  00                 	db	0
   432  00104F                     STR_4:
   433  00104F  F7                 	db	-9
   434  001050  F2                 	db	-14
   435  001051  00                 	db	0
   436  001052                     STR_8:
   437  001052  3F                 	db	63	;'?'
   438  001053  3F                 	db	63	;'?'
   439  001054  00                 	db	0
   440                           
   441                           ; #config settings
   442  001055  00                 	db	0	; dummy byte at the end
   443  0000                     tblptru	equ	0xFF8
   444                           tblptrh	equ	0xFF7
   445                           tblptrl	equ	0xFF6
   446                           tablat	equ	0xFF5
   447                           prodh	equ	0xFF4
   448                           prodl	equ	0xFF3
   449                           intcon	equ	0xFF2
   450                           intcon2	equ	0xFF1
   451                           intcon3	equ	0xFF0
   452                           wreg	equ	0xFE8
   453                           indf1	equ	0xFE7
   454                           plusw1	equ	0xFE3
   455                           fsr1h	equ	0xFE2
   456                           fsr1l	equ	0xFE1
   457                           indf2	equ	0xFDF
   458                           postinc2	equ	0xFDE
   459                           postdec2	equ	0xFDD
   460                           plusw2	equ	0xFDB
   461                           fsr2h	equ	0xFDA
   462                           fsr2l	equ	0xFD9
   463                           status	equ	0xFD8
   464                           
   465                           	psect	cinit
   466  003192                     __pcinit:
   467                           	opt stack 0
   468  003192                     start_initialization:
   469                           	opt stack 0
   470  003192                     __initialization:
   471                           	opt stack 0
   472                           
   473                           ; Clear objects allocated to BANK1 (74 bytes)
   474  003192  EE01  F054         	lfsr	0,__pbssBANK1
   475  003196  0E4A               	movlw	74
   476  003198                     clear_0:
   477  003198  6AEE               	clrf	postinc0,c
   478  00319A  06E8               	decf	wreg,f,c
   479  00319C  E1FD               	bnz	clear_0
   480                           
   481                           ; Clear objects allocated to COMRAM (14 bytes)
   482  00319E  EE00  F04F         	lfsr	0,__pbssCOMRAM
   483  0031A2  0E0E               	movlw	14
   484  0031A4                     clear_1:
   485  0031A4  6AEE               	clrf	postinc0,c
   486  0031A6  06E8               	decf	wreg,f,c
   487  0031A8  E1FD               	bnz	clear_1
   488                           
   489                           ; Initialize objects allocated to BANK1 (69 bytes)
   490                           ; load TBLPTR registers with __pidataBANK1
   491  0031AA  0EB2               	movlw	low __pidataBANK1
   492  0031AC  6EF6               	movwf	tblptrl,c
   493  0031AE  0E37               	movlw	high __pidataBANK1
   494  0031B0  6EF7               	movwf	tblptrh,c
   495  0031B2  0E00               	movlw	low (__pidataBANK1 shr (0+16))
   496  0031B4  6EF8               	movwf	tblptru,c
   497  0031B6  EE01  F09E         	lfsr	0,__pdataBANK1
   498  0031BA  EE10 F045          	lfsr	1,69
   499  0031BE                     copy_data0:
   500  0031BE  0009               	tblrd		*+
   501  0031C0  CFF5 FFEE          	movff	tablat,postinc0
   502  0031C4  50E5               	movf	postdec1,w,c
   503  0031C6  50E1               	movf	fsr1l,w,c
   504  0031C8  E1FA               	bnz	copy_data0
   505                           
   506                           ; Initialize objects allocated to BANK0 (15 bytes)
   507                           ; load TBLPTR registers with __pidataBANK0
   508  0031CA  0EDC               	movlw	low __pidataBANK0
   509  0031CC  6EF6               	movwf	tblptrl,c
   510  0031CE  0E3B               	movlw	high __pidataBANK0
   511  0031D0  6EF7               	movwf	tblptrh,c
   512  0031D2  0E00               	movlw	low (__pidataBANK0 shr (0+16))
   513  0031D4  6EF8               	movwf	tblptru,c
   514  0031D6  EE00  F0E7         	lfsr	0,__pdataBANK0
   515  0031DA  EE10 F00F          	lfsr	1,15
   516  0031DE                     copy_data1:
   517  0031DE  0009               	tblrd		*+
   518  0031E0  CFF5 FFEE          	movff	tablat,postinc0
   519  0031E4  50E5               	movf	postdec1,w,c
   520  0031E6  50E1               	movf	fsr1l,w,c
   521  0031E8  E1FA               	bnz	copy_data1
   522                           
   523                           ; Initialize objects allocated to COMRAM (5 bytes)
   524                           ; load TBLPTR registers with __pidataCOMRAM
   525  0031EA  0E14               	movlw	low __pidataCOMRAM
   526  0031EC  6EF6               	movwf	tblptrl,c
   527  0031EE  0E3C               	movlw	high __pidataCOMRAM
   528  0031F0  6EF7               	movwf	tblptrh,c
   529  0031F2  0E00               	movlw	low (__pidataCOMRAM shr (0+16))
   530  0031F4  6EF8               	movwf	tblptru,c
   531  0031F6  EE00  F05D         	lfsr	0,__pdataCOMRAM
   532  0031FA  EE10 F005          	lfsr	1,5
   533  0031FE                     copy_data2:
   534  0031FE  0009               	tblrd		*+
   535  003200  CFF5 FFEE          	movff	tablat,postinc0
   536  003204  50E5               	movf	postdec1,w,c
   537  003206  50E1               	movf	fsr1l,w,c
   538  003208  E1FA               	bnz	copy_data2
   539  00320A                     end_of_initialization:
   540                           	opt stack 0
   541  00320A                     __end_of__initialization:
   542                           	opt stack 0
   543  00320A  9062               	bcf	int$flags,0,c	;clear compiler interrupt flag (level 1)
   544  00320C  9262               	bcf	int$flags,1,c	;clear compiler interrupt flag (level 2)
   545  00320E  0E00               	movlw	low (__Lmediumconst shr (0+16))
   546  003210  6EF8               	movwf	tblptru,c
   547  003212  0100               	movlb	0
   548  003214  EF4B  F019         	goto	_main	;jump to C main() function
   549                           tblptru	equ	0xFF8
   550                           tblptrh	equ	0xFF7
   551                           tblptrl	equ	0xFF6
   552                           tablat	equ	0xFF5
   553                           prodh	equ	0xFF4
   554                           prodl	equ	0xFF3
   555                           intcon	equ	0xFF2
   556                           intcon2	equ	0xFF1
   557                           intcon3	equ	0xFF0
   558                           postinc0	equ	0xFEE
   559                           wreg	equ	0xFE8
   560                           indf1	equ	0xFE7
   561                           postdec1	equ	0xFE5
   562                           plusw1	equ	0xFE3
   563                           fsr1h	equ	0xFE2
   564                           fsr1l	equ	0xFE1
   565                           indf2	equ	0xFDF
   566                           postinc2	equ	0xFDE
   567                           postdec2	equ	0xFDD
   568                           plusw2	equ	0xFDB
   569                           fsr2h	equ	0xFDA
   570                           fsr2l	equ	0xFD9
   571                           status	equ	0xFD8
   572                           
   573                           	psect	bssCOMRAM
   574  00004F                     __pbssCOMRAM:
   575                           	opt stack 0
   576  00004F                     _Minutes:
   577                           	opt stack 0
   578  00004F                     	ds	4
   579  000053                     Scheduler@NumberOfCells:
   580                           	opt stack 0
   581  000053                     	ds	2
   582  000055                     SchedulerNew@NumberOfCells:
   583                           	opt stack 0
   584  000055                     	ds	2
   585  000057                     _flags:
   586                           	opt stack 0
   587  000057                     	ds	2
   588  000059                     F_l@ButtonPressTimeOut:
   589                           	opt stack 0
   590  000059                     	ds	1
   591  00005A                     F_l@KeyIndex:
   592                           	opt stack 0
   593  00005A                     	ds	1
   594  00005B                     _KeyCode:
   595                           	opt stack 0
   596  00005B                     	ds	1
   597  00005C                     _SignalsOut:
   598                           	opt stack 0
   599  00005C                     	ds	1
   600                           tblptru	equ	0xFF8
   601                           tblptrh	equ	0xFF7
   602                           tblptrl	equ	0xFF6
   603                           tablat	equ	0xFF5
   604                           prodh	equ	0xFF4
   605                           prodl	equ	0xFF3
   606                           intcon	equ	0xFF2
   607                           intcon2	equ	0xFF1
   608                           intcon3	equ	0xFF0
   609                           postinc0	equ	0xFEE
   610                           wreg	equ	0xFE8
   611                           indf1	equ	0xFE7
   612                           postdec1	equ	0xFE5
   613                           plusw1	equ	0xFE3
   614                           fsr1h	equ	0xFE2
   615                           fsr1l	equ	0xFE1
   616                           indf2	equ	0xFDF
   617                           postinc2	equ	0xFDE
   618                           postdec2	equ	0xFDD
   619                           plusw2	equ	0xFDB
   620                           fsr2h	equ	0xFDA
   621                           fsr2l	equ	0xFD9
   622                           status	equ	0xFD8
   623                           
   624                           	psect	dataCOMRAM
   625  00005D                     __pdataCOMRAM:
   626                           	opt stack 0
   627  00005D                     RefreshSchedulerIndicator@F3062:
   628                           	opt stack 0
   629  00005D                     	ds	3
   630  000060                     F_l@PressedKeyIndex:
   631                           	opt stack 0
   632  000060                     	ds	1
   633  000061                     _GlobalBlinkCycleTime:
   634                           	opt stack 0
   635  000061                     	ds	1
   636                           tblptru	equ	0xFF8
   637                           tblptrh	equ	0xFF7
   638                           tblptrl	equ	0xFF6
   639                           tablat	equ	0xFF5
   640                           prodh	equ	0xFF4
   641                           prodl	equ	0xFF3
   642                           intcon	equ	0xFF2
   643                           intcon2	equ	0xFF1
   644                           intcon3	equ	0xFF0
   645                           postinc0	equ	0xFEE
   646                           wreg	equ	0xFE8
   647                           indf1	equ	0xFE7
   648                           postdec1	equ	0xFE5
   649                           plusw1	equ	0xFE3
   650                           fsr1h	equ	0xFE2
   651                           fsr1l	equ	0xFE1
   652                           indf2	equ	0xFDF
   653                           postinc2	equ	0xFDE
   654                           postdec2	equ	0xFDD
   655                           plusw2	equ	0xFDB
   656                           fsr2h	equ	0xFDA
   657                           fsr2l	equ	0xFD9
   658                           status	equ	0xFD8
   659                           
   660                           	psect	dataBANK0
   661  0000E7                     __pdataBANK0:
   662                           	opt stack 0
   663  0000E7                     TimeEdit@F2989:
   664                           	opt stack 0
   665  0000E7                     	ds	12
   666  0000F3                     _cDays:
   667                           	opt stack 0
   668  0000F3                     	ds	1
   669  0000F4                     _cMonths:
   670                           	opt stack 0
   671  0000F4                     	ds	1
   672  0000F5                     _cYears:
   673                           	opt stack 0
   674  0000F5                     	ds	1
   675                           tblptru	equ	0xFF8
   676                           tblptrh	equ	0xFF7
   677                           tblptrl	equ	0xFF6
   678                           tablat	equ	0xFF5
   679                           prodh	equ	0xFF4
   680                           prodl	equ	0xFF3
   681                           intcon	equ	0xFF2
   682                           intcon2	equ	0xFF1
   683                           intcon3	equ	0xFF0
   684                           postinc0	equ	0xFEE
   685                           wreg	equ	0xFE8
   686                           indf1	equ	0xFE7
   687                           postdec1	equ	0xFE5
   688                           plusw1	equ	0xFE3
   689                           fsr1h	equ	0xFE2
   690                           fsr1l	equ	0xFE1
   691                           indf2	equ	0xFDF
   692                           postinc2	equ	0xFDE
   693                           postdec2	equ	0xFDD
   694                           plusw2	equ	0xFDB
   695                           fsr2h	equ	0xFDA
   696                           fsr2l	equ	0xFD9
   697                           status	equ	0xFD8
   698                           
   699                           	psect	bssBANK1
   700  000154                     __pbssBANK1:
   701                           	opt stack 0
   702  000154                     _digits:
   703                           	opt stack 0
   704  000154                     	ds	32
   705  000174                     _digitsAtrib:
   706                           	opt stack 0
   707  000174                     	ds	32
   708  000194                     _Clock:
   709                           	opt stack 0
   710  000194                     	ds	4
   711  000198                     _CurrentSignals:
   712                           	opt stack 0
   713  000198                     	ds	1
   714  000199                     _SignalsForInd:
   715                           	opt stack 0
   716  000199                     	ds	1
   717  00019A                     _NearTimeStart:
   718                           	opt stack 0
   719  00019A                     	ds	4
   720                           tblptru	equ	0xFF8
   721                           tblptrh	equ	0xFF7
   722                           tblptrl	equ	0xFF6
   723                           tablat	equ	0xFF5
   724                           prodh	equ	0xFF4
   725                           prodl	equ	0xFF3
   726                           intcon	equ	0xFF2
   727                           intcon2	equ	0xFF1
   728                           intcon3	equ	0xFF0
   729                           postinc0	equ	0xFEE
   730                           wreg	equ	0xFE8
   731                           indf1	equ	0xFE7
   732                           postdec1	equ	0xFE5
   733                           plusw1	equ	0xFE3
   734                           fsr1h	equ	0xFE2
   735                           fsr1l	equ	0xFE1
   736                           indf2	equ	0xFDF
   737                           postinc2	equ	0xFDE
   738                           postdec2	equ	0xFDD
   739                           plusw2	equ	0xFDB
   740                           fsr2h	equ	0xFDA
   741                           fsr2l	equ	0xFD9
   742                           status	equ	0xFD8
   743                           
   744                           	psect	dataBANK1
   745  00019E                     __pdataBANK1:
   746                           	opt stack 0
   747  00019E                     TimeToInd@F2936:
   748                           	opt stack 0
   749  00019E                     	ds	17
   750  0001AF                     TimeToInd@F2950:
   751                           	opt stack 0
   752  0001AF                     	ds	13
   753  0001BC                     EditSchedule@F3123:
   754                           	opt stack 0
   755  0001BC                     	ds	12
   756  0001C8                     EditSchedule@F3130:
   757                           	opt stack 0
   758  0001C8                     	ds	12
   759  0001D4                     TimeToInd@F2932:
   760                           	opt stack 0
   761  0001D4                     	ds	9
   762  0001DD                     TimeToInd@F2928:
   763                           	opt stack 0
   764  0001DD                     	ds	4
   765  0001E1                     _AdressOfNextStartCell:
   766                           	opt stack 0
   767  0001E1                     	ds	2
   768                           tblptru	equ	0xFF8
   769                           tblptrh	equ	0xFF7
   770                           tblptrl	equ	0xFF6
   771                           tablat	equ	0xFF5
   772                           prodh	equ	0xFF4
   773                           prodl	equ	0xFF3
   774                           intcon	equ	0xFF2
   775                           intcon2	equ	0xFF1
   776                           intcon3	equ	0xFF0
   777                           postinc0	equ	0xFEE
   778                           wreg	equ	0xFE8
   779                           indf1	equ	0xFE7
   780                           postdec1	equ	0xFE5
   781                           plusw1	equ	0xFE3
   782                           fsr1h	equ	0xFE2
   783                           fsr1l	equ	0xFE1
   784                           indf2	equ	0xFDF
   785                           postinc2	equ	0xFDE
   786                           postdec2	equ	0xFDD
   787                           plusw2	equ	0xFDB
   788                           fsr2h	equ	0xFDA
   789                           fsr2l	equ	0xFD9
   790                           status	equ	0xFD8
   791                           
   792                           	psect	cstackBANK1
   793  000100                     __pcstackBANK1:
   794                           	opt stack 0
   795  000100                     TimeToInd@CellsData:
   796                           	opt stack 0
   797                           
   798                           ; 8 bytes @ 0x0
   799  000100                     	ds	8
   800  000108                     TimeToInd@DataArrayOfLine2:
   801                           	opt stack 0
   802                           
   803                           ; 13 bytes @ 0x8
   804  000108                     	ds	13
   805  000115                     TimeToInd@TimeData:
   806                           	opt stack 0
   807                           
   808                           ; 9 bytes @ 0x15
   809  000115                     	ds	9
   810  00011E                     TimeToInd@DataArray:
   811                           	opt stack 0
   812                           
   813                           ; 17 bytes @ 0x1E
   814  00011E                     	ds	17
   815  00012F                     TimeToInd@TimeStart:
   816                           	opt stack 0
   817                           
   818                           ; 2 bytes @ 0x2F
   819  00012F                     	ds	2
   820  000131                     TimeToInd@SignalOn:
   821                           	opt stack 0
   822                           
   823                           ; 1 bytes @ 0x31
   824  000131                     	ds	1
   825  000132                     TimeToInd@day:
   826                           	opt stack 0
   827                           
   828                           ; 1 bytes @ 0x32
   829  000132                     	ds	1
   830  000133                     TimeToInd@SignalOn_850:
   831                           	opt stack 0
   832                           
   833                           ; 1 bytes @ 0x33
   834  000133                     	ds	1
   835  000134                     TimeToInd@d:
   836                           	opt stack 0
   837                           
   838                           ; 1 bytes @ 0x34
   839  000134                     	ds	1
   840  000135                     _TimeToInd$835:
   841                           	opt stack 0
   842                           
   843                           ; 2 bytes @ 0x35
   844  000135                     	ds	2
   845  000137                     _TimeToInd$836:
   846                           	opt stack 0
   847                           
   848                           ; 2 bytes @ 0x37
   849  000137                     	ds	2
   850  000139                     TimeToInd@Days:
   851                           	opt stack 0
   852                           
   853                           ; 1 bytes @ 0x39
   854  000139                     	ds	1
   855  00013A                     TimeToInd@line:
   856                           	opt stack 0
   857                           
   858                           ; 1 bytes @ 0x3A
   859  00013A                     	ds	1
   860  00013B                     TimeToInd@D:
   861                           	opt stack 0
   862                           
   863                           ; 4 bytes @ 0x3B
   864  00013B                     	ds	4
   865  00013F                     TimeToInd@DataArray2:
   866                           	opt stack 0
   867                           
   868                           ; 1 bytes @ 0x3F
   869  00013F                     	ds	1
   870  000140                     TimeToInd@Day:
   871                           	opt stack 0
   872                           
   873                           ; 1 bytes @ 0x40
   874  000140                     	ds	1
   875  000141                     TimeToInd@Signals:
   876                           	opt stack 0
   877                           
   878                           ; 1 bytes @ 0x41
   879  000141                     	ds	1
   880  000142                     TimeToInd@Data:
   881                           	opt stack 0
   882                           
   883                           ; 4 bytes @ 0x42
   884  000142                     	ds	4
   885  000146                     TimeToInd@i:
   886                           	opt stack 0
   887                           
   888                           ; 1 bytes @ 0x46
   889  000146                     	ds	1
   890  000147                     TimeToInd@i_849:
   891                           	opt stack 0
   892                           
   893                           ; 1 bytes @ 0x47
   894  000147                     	ds	1
   895  000148                     TimeToInd@CellsNumber:
   896                           	opt stack 0
   897                           
   898                           ; 1 bytes @ 0x48
   899  000148                     	ds	1
   900  000149                     TimeToInd@j2:
   901                           	opt stack 0
   902                           
   903                           ; 2 bytes @ 0x49
   904  000149                     	ds	2
   905  00014B                     TimeToInd@SignalsFinal:
   906                           	opt stack 0
   907                           
   908                           ; 1 bytes @ 0x4B
   909  00014B                     	ds	1
   910  00014C                     TimeToInd@TimeStop:
   911                           	opt stack 0
   912                           
   913                           ; 2 bytes @ 0x4C
   914  00014C                     	ds	2
   915  00014E                     TimeToInd@Time:
   916                           	opt stack 0
   917                           
   918                           ; 2 bytes @ 0x4E
   919  00014E                     	ds	2
   920  000150                     TimeToInd@temp:
   921                           	opt stack 0
   922                           
   923                           ; 4 bytes @ 0x50
   924  000150                     	ds	4
   925                           tblptru	equ	0xFF8
   926                           tblptrh	equ	0xFF7
   927                           tblptrl	equ	0xFF6
   928                           tablat	equ	0xFF5
   929                           prodh	equ	0xFF4
   930                           prodl	equ	0xFF3
   931                           intcon	equ	0xFF2
   932                           intcon2	equ	0xFF1
   933                           intcon3	equ	0xFF0
   934                           postinc0	equ	0xFEE
   935                           wreg	equ	0xFE8
   936                           indf1	equ	0xFE7
   937                           postdec1	equ	0xFE5
   938                           plusw1	equ	0xFE3
   939                           fsr1h	equ	0xFE2
   940                           fsr1l	equ	0xFE1
   941                           indf2	equ	0xFDF
   942                           postinc2	equ	0xFDE
   943                           postdec2	equ	0xFDD
   944                           plusw2	equ	0xFDB
   945                           fsr2h	equ	0xFDA
   946                           fsr2l	equ	0xFD9
   947                           status	equ	0xFD8
   948                           
   949                           	psect	cstackBANK0
   950  000080                     __pcstackBANK0:
   951                           	opt stack 0
   952  000080                     ??_EditSchedule:
   953  000080                     FindCell@CellsData:
   954                           	opt stack 0
   955  000080                     FindNextTimeStart@CellsData:
   956                           	opt stack 0
   957  000080                     TimeEdit@MonthDays:
   958                           	opt stack 0
   959                           
   960                           ; 12 bytes @ 0x0
   961  000080                     	ds	8
   962  000088                     FindCell@adressNew:
   963                           	opt stack 0
   964  000088                     _FindNextTimeStart$1985:
   965                           	opt stack 0
   966                           
   967                           ; 4 bytes @ 0x8
   968  000088                     	ds	2
   969  00008A                     _FindCell$1088:
   970                           	opt stack 0
   971                           
   972                           ; 2 bytes @ 0xA
   973  00008A                     	ds	2
   974  00008C                     FindNextTimeStart@TimeStop:
   975                           	opt stack 0
   976  00008C                     TimeEdit@n:
   977                           	opt stack 0
   978  00008C                     FindCell@Data:
   979                           	opt stack 0
   980                           
   981                           ; 4 bytes @ 0xC
   982  00008C                     	ds	2
   983  00008E                     FindNextTimeStart@DayOn:
   984                           	opt stack 0
   985                           
   986                           ; 1 bytes @ 0xE
   987  00008E                     	ds	1
   988  00008F                     FindNextTimeStart@adressStart:
   989                           	opt stack 0
   990                           
   991                           ; 2 bytes @ 0xF
   992  00008F                     	ds	1
   993  000090                     FindCell@CellIsEmpty:
   994                           	opt stack 0
   995  000090                     _TimeEdit$1984:
   996                           	opt stack 0
   997                           
   998                           ; 4 bytes @ 0x10
   999  000090                     	ds	1
  1000  000091                     FindCell@i:
  1001                           	opt stack 0
  1002  000091                     FindNextTimeStart@LastFoundTimeStart:
  1003                           	opt stack 0
  1004                           
  1005                           ; 4 bytes @ 0x11
  1006  000091                     	ds	1
  1007  000092                     FindCell@adress:
  1008                           	opt stack 0
  1009                           
  1010                           ; 2 bytes @ 0x12
  1011  000092                     	ds	2
  1012  000094                     TimeEdit@input:
  1013                           	opt stack 0
  1014  000094                     RefreshSchedulerIndicator@CellsData:
  1015                           	opt stack 0
  1016  000094                     EditSchedule@string:
  1017                           	opt stack 0
  1018                           
  1019                           ; 12 bytes @ 0x14
  1020  000094                     	ds	1
  1021  000095                     TimeEdit@month:
  1022                           	opt stack 0
  1023  000095                     FindNextTimeStart@TimeStart:
  1024                           	opt stack 0
  1025                           
  1026                           ; 2 bytes @ 0x15
  1027  000095                     	ds	1
  1028  000096                     TimeEdit@symb_array:
  1029                           	opt stack 0
  1030                           
  1031                           ; 11 bytes @ 0x16
  1032  000096                     	ds	1
  1033  000097                     FindNextTimeStart@Signals:
  1034                           	opt stack 0
  1035                           
  1036                           ; 1 bytes @ 0x17
  1037  000097                     	ds	1
  1038  000098                     FindNextTimeStart@TimeIsFound:
  1039                           	opt stack 0
  1040                           
  1041                           ; 1 bytes @ 0x18
  1042  000098                     	ds	1
  1043  000099                     FindNextTimeStart@Days:
  1044                           	opt stack 0
  1045                           
  1046                           ; 1 bytes @ 0x19
  1047  000099                     	ds	1
  1048  00009A                     FindNextTimeStart@TimeOfSignals:
  1049                           	opt stack 0
  1050                           
  1051                           ; 4 bytes @ 0x1A
  1052  00009A                     	ds	2
  1053  00009C                     RefreshSchedulerIndicator@num:
  1054                           	opt stack 0
  1055                           
  1056                           ; 3 bytes @ 0x1C
  1057  00009C                     	ds	2
  1058  00009E                     FindNextTimeStart@adress:
  1059                           	opt stack 0
  1060                           
  1061                           ; 2 bytes @ 0x1E
  1062  00009E                     	ds	1
  1063  00009F                     _RefreshSchedulerIndicator$1098:
  1064                           	opt stack 0
  1065                           
  1066                           ; 2 bytes @ 0x1F
  1067  00009F                     	ds	1
  1068  0000A0                     FindNextTimeStart@DayIndex:
  1069                           	opt stack 0
  1070  0000A0                     EditSchedule@string2:
  1071                           	opt stack 0
  1072                           
  1073                           ; 12 bytes @ 0x20
  1074  0000A0                     	ds	1
  1075  0000A1                     TimeEdit@blinking:
  1076                           	opt stack 0
  1077  0000A1                     RefreshSchedulerIndicator@Data:
  1078                           	opt stack 0
  1079  0000A1                     FindNextTimeStart@Data:
  1080                           	opt stack 0
  1081                           
  1082                           ; 4 bytes @ 0x21
  1083  0000A1                     	ds	1
  1084  0000A2                     TimeEdit@temp:
  1085                           	opt stack 0
  1086                           
  1087                           ; 4 bytes @ 0x22
  1088  0000A2                     	ds	3
  1089  0000A5                     RefreshSchedulerIndicator@CellIsEmpty:
  1090                           	opt stack 0
  1091                           
  1092                           ; 1 bytes @ 0x25
  1093  0000A5                     	ds	1
  1094  0000A6                     TimeEdit@t:
  1095                           	opt stack 0
  1096  0000A6                     RefreshSchedulerIndicator@cell:
  1097                           	opt stack 0
  1098                           
  1099                           ; 2 bytes @ 0x26
  1100  0000A6                     	ds	1
  1101  0000A7                     TimeEdit@TimeData:
  1102                           	opt stack 0
  1103                           
  1104                           ; 64 bytes @ 0x27
  1105  0000A7                     	ds	1
  1106  0000A8                     RefreshSchedulerIndicator@NumberFrom:
  1107                           	opt stack 0
  1108                           
  1109                           ; 2 bytes @ 0x28
  1110  0000A8                     	ds	2
  1111  0000AA                     RefreshSchedulerIndicator@i:
  1112                           	opt stack 0
  1113                           
  1114                           ; 1 bytes @ 0x2A
  1115  0000AA                     	ds	2
  1116  0000AC                     EditSchedule@CellsData:
  1117                           	opt stack 0
  1118                           
  1119                           ; 8 bytes @ 0x2C
  1120  0000AC                     	ds	8
  1121  0000B4                     EditSchedule@TargetAdress:
  1122                           	opt stack 0
  1123                           
  1124                           ; 2 bytes @ 0x34
  1125  0000B4                     	ds	2
  1126  0000B6                     EditSchedule@TimeData:
  1127                           	opt stack 0
  1128                           
  1129                           ; 8 bytes @ 0x36
  1130  0000B6                     	ds	8
  1131  0000BE                     EditSchedule@BeginEditTimes:
  1132                           	opt stack 0
  1133                           
  1134                           ; 1 bytes @ 0x3E
  1135  0000BE                     	ds	1
  1136  0000BF                     EditSchedule@TimeStart:
  1137                           	opt stack 0
  1138                           
  1139                           ; 2 bytes @ 0x3F
  1140  0000BF                     	ds	2
  1141  0000C1                     EditSchedule@TimeStop:
  1142                           	opt stack 0
  1143                           
  1144                           ; 2 bytes @ 0x41
  1145  0000C1                     	ds	2
  1146  0000C3                     EditSchedule@BorderUp:
  1147                           	opt stack 0
  1148                           
  1149                           ; 1 bytes @ 0x43
  1150  0000C3                     	ds	1
  1151  0000C4                     EditSchedule@T:
  1152                           	opt stack 0
  1153                           
  1154                           ; 4 bytes @ 0x44
  1155  0000C4                     	ds	4
  1156  0000C8                     EditSchedule@Days:
  1157                           	opt stack 0
  1158                           
  1159                           ; 1 bytes @ 0x48
  1160  0000C8                     	ds	1
  1161  0000C9                     EditSchedule@Signals:
  1162                           	opt stack 0
  1163                           
  1164                           ; 1 bytes @ 0x49
  1165  0000C9                     	ds	1
  1166  0000CA                     EditSchedule@f:
  1167                           	opt stack 0
  1168                           
  1169                           ; 1 bytes @ 0x4A
  1170  0000CA                     	ds	1
  1171  0000CB                     EditSchedule@mode:
  1172                           	opt stack 0
  1173                           
  1174                           ; 1 bytes @ 0x4B
  1175  0000CB                     	ds	1
  1176  0000CC                     EditSchedule@Times:
  1177                           	opt stack 0
  1178                           
  1179                           ; 4 bytes @ 0x4C
  1180  0000CC                     	ds	4
  1181  0000D0                     EditSchedule@j:
  1182                           	opt stack 0
  1183                           
  1184                           ; 1 bytes @ 0x50
  1185  0000D0                     	ds	1
  1186  0000D1                     EditSchedule@Data:
  1187                           	opt stack 0
  1188                           
  1189                           ; 4 bytes @ 0x51
  1190  0000D1                     	ds	4
  1191  0000D5                     EditSchedule@d:
  1192                           	opt stack 0
  1193                           
  1194                           ; 1 bytes @ 0x55
  1195  0000D5                     	ds	1
  1196  0000D6                     EditSchedule@key:
  1197                           	opt stack 0
  1198                           
  1199                           ; 1 bytes @ 0x56
  1200  0000D6                     	ds	1
  1201  0000D7                     EditSchedule@n:
  1202                           	opt stack 0
  1203                           
  1204                           ; 1 bytes @ 0x57
  1205  0000D7                     	ds	16
  1206                           tblptru	equ	0xFF8
  1207                           tblptrh	equ	0xFF7
  1208                           tblptrl	equ	0xFF6
  1209                           tablat	equ	0xFF5
  1210                           prodh	equ	0xFF4
  1211                           prodl	equ	0xFF3
  1212                           intcon	equ	0xFF2
  1213                           intcon2	equ	0xFF1
  1214                           intcon3	equ	0xFF0
  1215                           postinc0	equ	0xFEE
  1216                           wreg	equ	0xFE8
  1217                           indf1	equ	0xFE7
  1218                           postdec1	equ	0xFE5
  1219                           plusw1	equ	0xFE3
  1220                           fsr1h	equ	0xFE2
  1221                           fsr1l	equ	0xFE1
  1222                           indf2	equ	0xFDF
  1223                           postinc2	equ	0xFDE
  1224                           postdec2	equ	0xFDD
  1225                           plusw2	equ	0xFDB
  1226                           fsr2h	equ	0xFDA
  1227                           fsr2l	equ	0xFD9
  1228                           status	equ	0xFD8
  1229                           
  1230                           	psect	cstackCOMRAM
  1231  000001                     __pcstackCOMRAM:
  1232                           	opt stack 0
  1233  000001                     getLcdCodeOfChar@dig:
  1234                           	opt stack 0
  1235  000001                     ConvKeyNum@Num:
  1236                           	opt stack 0
  1237  000001                     i1lcd_send_initial_half_byte@data:
  1238                           	opt stack 0
  1239  000001                     delay@count:
  1240                           	opt stack 0
  1241                           
  1242                           ; 2 bytes @ 0x0
  1243  000001                     	ds	1
  1244  000002                     i1_lcd_send_initial_half_byte$1058:
  1245                           	opt stack 0
  1246                           
  1247                           ; 2 bytes @ 0x1
  1248  000002                     	ds	1
  1249  000003                     delay@del:
  1250                           	opt stack 0
  1251                           
  1252                           ; 1 bytes @ 0x2
  1253  000003                     	ds	1
  1254  000004                     i1lcd_send_byte@data:
  1255                           	opt stack 0
  1256  000004                     _SendSymbolToLCD$1048:
  1257                           	opt stack 0
  1258                           
  1259                           ; 2 bytes @ 0x3
  1260  000004                     	ds	2
  1261  000006                     _SendSymbolToLCD$1050:
  1262                           	opt stack 0
  1263                           
  1264                           ; 2 bytes @ 0x5
  1265  000006                     	ds	2
  1266  000008                     SendSymbolToLCD@Symb:
  1267                           	opt stack 0
  1268                           
  1269                           ; 1 bytes @ 0x7
  1270  000008                     	ds	1
  1271  000009                     ??_F_l:
  1272                           
  1273                           ; 1 bytes @ 0x8
  1274  000009                     	ds	11
  1275  000014                     F_l@MinuteAgo:
  1276                           	opt stack 0
  1277                           
  1278                           ; 1 bytes @ 0x13
  1279  000014                     	ds	1
  1280  000015                     F_l@digit:
  1281                           	opt stack 0
  1282                           
  1283                           ; 1 bytes @ 0x14
  1284  000015                     	ds	1
  1285  000016                     F_l@data_temp:
  1286                           	opt stack 0
  1287                           
  1288                           ; 1 bytes @ 0x15
  1289  000016                     	ds	1
  1290  000017                     F_l@_KeyIndex:
  1291                           	opt stack 0
  1292                           
  1293                           ; 1 bytes @ 0x16
  1294  000017                     	ds	1
  1295  000018                     F_l@a:
  1296                           	opt stack 0
  1297                           
  1298                           ; 2 bytes @ 0x17
  1299  000018                     	ds	2
  1300  00001A                     F_l@symbol:
  1301                           	opt stack 0
  1302                           
  1303                           ; 2 bytes @ 0x19
  1304  00001A                     	ds	2
  1305  00001C                     F_l@line:
  1306                           	opt stack 0
  1307                           
  1308                           ; 1 bytes @ 0x1B
  1309  00001C                     	ds	1
  1310  00001D                     ??_clrInd:
  1311  00001D                     ?___wmul:
  1312                           	opt stack 0
  1313  00001D                     ?___lwdiv:
  1314                           	opt stack 0
  1315  00001D                     ?___lwmod:
  1316                           	opt stack 0
  1317  00001D                     ?___lmul:
  1318                           	opt stack 0
  1319  00001D                     ?___aldiv:
  1320                           	opt stack 0
  1321  00001D                     ?___almod:
  1322                           	opt stack 0
  1323  00001D                     ?___lldiv:
  1324                           	opt stack 0
  1325  00001D                     ?___llmod:
  1326                           	opt stack 0
  1327  00001D                     getDigit@symbol:
  1328                           	opt stack 0
  1329  00001D                     setBlink@symbol:
  1330                           	opt stack 0
  1331  00001D                     entNum@borderUp:
  1332                           	opt stack 0
  1333  00001D                     TimeData_BlinkOFF@i:
  1334                           	opt stack 0
  1335  00001D                     TimeData_INIT@i:
  1336                           	opt stack 0
  1337  00001D                     lcd_send_initial_half_byte@data:
  1338                           	opt stack 0
  1339  00001D                     ConvertDayToBit@DayNumber:
  1340                           	opt stack 0
  1341  00001D                     getNumChar@num:
  1342                           	opt stack 0
  1343  00001D                     ___lbdiv@divisor:
  1344                           	opt stack 0
  1345  00001D                     ___lbmod@divisor:
  1346                           	opt stack 0
  1347  00001D                     EEWR@adress:
  1348                           	opt stack 0
  1349  00001D                     EERD@adress:
  1350                           	opt stack 0
  1351  00001D                     ___wmul@multiplier:
  1352                           	opt stack 0
  1353  00001D                     ___lwdiv@dividend:
  1354                           	opt stack 0
  1355  00001D                     ___lwmod@dividend:
  1356                           	opt stack 0
  1357  00001D                     ParseDataRecord@Data:
  1358                           	opt stack 0
  1359  00001D                     ___lmul@multiplier:
  1360                           	opt stack 0
  1361  00001D                     ___aldiv@dividend:
  1362                           	opt stack 0
  1363  00001D                     ___almod@dividend:
  1364                           	opt stack 0
  1365  00001D                     ___lldiv@dividend:
  1366                           	opt stack 0
  1367  00001D                     ___llmod@dividend:
  1368                           	opt stack 0
  1369                           
  1370                           ; 4 bytes @ 0x1C
  1371  00001D                     	ds	1
  1372  00001E                     ??_getDigit:
  1373  00001E                     setBlink@value:
  1374                           	opt stack 0
  1375  00001E                     entNum@borderDown:
  1376                           	opt stack 0
  1377  00001E                     TimeData_BlinkOFF@i_938:
  1378                           	opt stack 0
  1379  00001E                     TimeData_INIT@i_963:
  1380                           	opt stack 0
  1381  00001E                     TimeDataToString@string:
  1382                           	opt stack 0
  1383  00001E                     ___lbdiv@dividend:
  1384                           	opt stack 0
  1385  00001E                     ___lbmod@dividend:
  1386                           	opt stack 0
  1387  00001E                     _lcd_send_initial_half_byte$1058:
  1388                           	opt stack 0
  1389                           
  1390                           ; 2 bytes @ 0x1D
  1391  00001E                     	ds	1
  1392  00001F                     ??_setBlink:
  1393  00001F                     clrInd@line:
  1394                           	opt stack 0
  1395  00001F                     entNum@KeyValue:
  1396                           	opt stack 0
  1397  00001F                     GetDayOfWeek@day:
  1398                           	opt stack 0
  1399  00001F                     EEWR@data:
  1400                           	opt stack 0
  1401  00001F                     EERD@INTCON_BUP:
  1402                           	opt stack 0
  1403  00001F                     TimeData_BlinkOFF@TimeData:
  1404                           	opt stack 0
  1405  00001F                     TimeData_INIT@TimeData:
  1406                           	opt stack 0
  1407  00001F                     ___lbdiv@counter:
  1408                           	opt stack 0
  1409  00001F                     ___lbmod@counter:
  1410                           	opt stack 0
  1411  00001F                     ___wmul@multiplicand:
  1412                           	opt stack 0
  1413  00001F                     ___lwdiv@divisor:
  1414                           	opt stack 0
  1415  00001F                     ___lwmod@divisor:
  1416                           	opt stack 0
  1417                           
  1418                           ; 2 bytes @ 0x1E
  1419  00001F                     	ds	1
  1420  000020                     getDigit@line:
  1421                           	opt stack 0
  1422  000020                     clrInd@symb:
  1423                           	opt stack 0
  1424  000020                     EEWR@INTCON_BUP:
  1425                           	opt stack 0
  1426  000020                     EERD@EEDATA_BUP:
  1427                           	opt stack 0
  1428  000020                     lcd_send_byte@data:
  1429                           	opt stack 0
  1430  000020                     TimeDataToString@j:
  1431                           	opt stack 0
  1432  000020                     ___lbdiv@quotient:
  1433                           	opt stack 0
  1434  000020                     ___lbmod@rem:
  1435                           	opt stack 0
  1436                           
  1437                           ; 1 bytes @ 0x1F
  1438  000020                     	ds	1
  1439  000021                     ??_lcd_init:
  1440  000021                     setBlink@line:
  1441                           	opt stack 0
  1442  000021                     TimeDataToString@TimeData:
  1443                           	opt stack 0
  1444  000021                     getBorderUp@n:
  1445                           	opt stack 0
  1446  000021                     ___lwmod@counter:
  1447                           	opt stack 0
  1448  000021                     FillArrayFromEEPROM@container:
  1449                           	opt stack 0
  1450  000021                     WriteArrayToEEPROM@adress_start:
  1451                           	opt stack 0
  1452  000021                     ParseDataRecord@TimeStart:
  1453                           	opt stack 0
  1454  000021                     ___wmul@product:
  1455                           	opt stack 0
  1456  000021                     ___lwdiv@quotient:
  1457                           	opt stack 0
  1458  000021                     ___lmul@multiplicand:
  1459                           	opt stack 0
  1460  000021                     ___aldiv@divisor:
  1461                           	opt stack 0
  1462  000021                     ___almod@divisor:
  1463                           	opt stack 0
  1464  000021                     ___lldiv@divisor:
  1465                           	opt stack 0
  1466  000021                     ___llmod@divisor:
  1467                           	opt stack 0
  1468                           
  1469                           ; 4 bytes @ 0x20
  1470  000021                     	ds	1
  1471  000022                     lcd_init@INTCON_BUF:
  1472                           	opt stack 0
  1473  000022                     TimeDataToString@i:
  1474                           	opt stack 0
  1475  000022                     getBorderUp@BorderUp:
  1476                           	opt stack 0
  1477                           
  1478                           ; 1 bytes @ 0x21
  1479  000022                     	ds	1
  1480  000023                     ___lwdiv@counter:
  1481                           	opt stack 0
  1482  000023                     FillArrayFromEEPROM@adress_start:
  1483                           	opt stack 0
  1484  000023                     WriteArrayToEEPROM@quantity:
  1485                           	opt stack 0
  1486  000023                     ParseDataRecord@TimeStop:
  1487                           	opt stack 0
  1488                           
  1489                           ; 2 bytes @ 0x22
  1490  000023                     	ds	1
  1491  000024                     setDigit@symbol:
  1492                           	opt stack 0
  1493  000024                     TimesToTimeData@TimeData:
  1494                           	opt stack 0
  1495                           
  1496                           ; 1 bytes @ 0x23
  1497  000024                     	ds	1
  1498  000025                     ??_WriteArrayToEEPROM:
  1499  000025                     setDigit@data:
  1500                           	opt stack 0
  1501  000025                     TimesToTimeData@Times:
  1502                           	opt stack 0
  1503  000025                     ___aldiv@counter:
  1504                           	opt stack 0
  1505  000025                     ___almod@counter:
  1506                           	opt stack 0
  1507  000025                     ___llmod@counter:
  1508                           	opt stack 0
  1509  000025                     FillArrayFromEEPROM@quantity:
  1510                           	opt stack 0
  1511  000025                     ParseDataRecord@Days:
  1512                           	opt stack 0
  1513  000025                     ___lmul@product:
  1514                           	opt stack 0
  1515  000025                     ___lldiv@quotient:
  1516                           	opt stack 0
  1517                           
  1518                           ; 4 bytes @ 0x24
  1519  000025                     	ds	1
  1520  000026                     ??_setDigit:
  1521  000026                     TimesToTimeData@d:
  1522                           	opt stack 0
  1523  000026                     ___aldiv@sign:
  1524                           	opt stack 0
  1525  000026                     ___almod@sign:
  1526                           	opt stack 0
  1527                           
  1528                           ; 1 bytes @ 0x25
  1529  000026                     	ds	1
  1530  000027                     ??_FillArrayFromEEPROM:
  1531  000027                     WriteArrayToEEPROM@container:
  1532                           	opt stack 0
  1533  000027                     TimesToTimeData@j:
  1534                           	opt stack 0
  1535  000027                     ParseDataRecord@Signals:
  1536                           	opt stack 0
  1537  000027                     ___aldiv@quotient:
  1538                           	opt stack 0
  1539                           
  1540                           ; 4 bytes @ 0x26
  1541  000027                     	ds	1
  1542  000028                     _setDigit$793:
  1543                           	opt stack 0
  1544  000028                     WriteArrayToEEPROM@i:
  1545                           	opt stack 0
  1546  000028                     TimesToTimeData@temp:
  1547                           	opt stack 0
  1548                           
  1549                           ; 2 bytes @ 0x27
  1550  000028                     	ds	1
  1551  000029                     ??_ParseDataRecord:
  1552  000029                     _setDigit$794:
  1553                           	opt stack 0
  1554  000029                     FillArrayFromEEPROM@i:
  1555                           	opt stack 0
  1556  000029                     WriteDataOfCell@Data:
  1557                           	opt stack 0
  1558  000029                     ___lldiv@counter:
  1559                           	opt stack 0
  1560  000029                     DeleteDataOfCell@TargetAdress:
  1561                           	opt stack 0
  1562                           
  1563                           ; 2 bytes @ 0x28
  1564  000029                     	ds	1
  1565  00002A                     setDigit@value0:
  1566                           	opt stack 0
  1567  00002A                     ReadDataOfCell@CellsData:
  1568                           	opt stack 0
  1569  00002A                     WriteDataOfCell@TargetAdress:
  1570                           	opt stack 0
  1571  00002A                     NumericToString@n:
  1572                           	opt stack 0
  1573                           
  1574                           ; 4 bytes @ 0x29
  1575  00002A                     	ds	1
  1576  00002B                     setDigit@value:
  1577                           	opt stack 0
  1578  00002B                     ParseTime@TimeValue:
  1579                           	opt stack 0
  1580  00002B                     DeleteDataOfCell@CellsData:
  1581                           	opt stack 0
  1582                           
  1583                           ; 8 bytes @ 0x2A
  1584  00002B                     	ds	1
  1585  00002C                     ??_WriteDataOfCell:
  1586  00002C                     setDigit@line:
  1587                           	opt stack 0
  1588  00002C                     ReadDataOfCell@Data:
  1589                           	opt stack 0
  1590                           
  1591                           ; 2 bytes @ 0x2B
  1592  00002C                     	ds	1
  1593  00002D                     outputDateData@length:
  1594                           	opt stack 0
  1595  00002D                     ItemsToIndicator@max_i:
  1596                           	opt stack 0
  1597  00002D                     WriteDataOfCell@CellsData:
  1598                           	opt stack 0
  1599  00002D                     outputString@stringData:
  1600                           	opt stack 0
  1601                           
  1602                           ; 2 bytes @ 0x2C
  1603  00002D                     	ds	1
  1604  00002E                     NumericToString@mySring:
  1605                           	opt stack 0
  1606  00002E                     outputDateData@line:
  1607                           	opt stack 0
  1608  00002E                     ItemsToIndicator@firstDigit:
  1609                           	opt stack 0
  1610  00002E                     WriteDataOfCell@i:
  1611                           	opt stack 0
  1612  00002E                     ReadDataOfCell@TargetAdress:
  1613                           	opt stack 0
  1614                           
  1615                           ; 2 bytes @ 0x2D
  1616  00002E                     	ds	1
  1617  00002F                     NumericToString@size:
  1618                           	opt stack 0
  1619  00002F                     outputDateData@start_symbol:
  1620                           	opt stack 0
  1621  00002F                     ItemsToIndicator@items:
  1622                           	opt stack 0
  1623  00002F                     outputString@line:
  1624                           	opt stack 0
  1625  00002F                     ParseTime@Time:
  1626                           	opt stack 0
  1627                           
  1628                           ; 2 bytes @ 0x2E
  1629  00002F                     	ds	1
  1630  000030                     ??_ReadDataOfCell:
  1631  000030                     ??_NumericToString:
  1632  000030                     outputDateData@data:
  1633                           	opt stack 0
  1634  000030                     ItemsToIndicator@i:
  1635                           	opt stack 0
  1636  000030                     outputString@position:
  1637                           	opt stack 0
  1638                           
  1639                           ; 1 bytes @ 0x2F
  1640  000030                     	ds	1
  1641  000031                     ??_outputString:
  1642  000031                     outputDateData@i:
  1643                           	opt stack 0
  1644  000031                     ParseTime@Day:
  1645                           	opt stack 0
  1646                           
  1647                           ; 2 bytes @ 0x30
  1648  000031                     	ds	1
  1649  000032                     NumericToString@displacement:
  1650                           	opt stack 0
  1651                           
  1652                           ; 1 bytes @ 0x31
  1653  000032                     	ds	1
  1654  000033                     ReIndTimeEdit@i:
  1655                           	opt stack 0
  1656  000033                     DeleteDataOfCell@i:
  1657                           	opt stack 0
  1658  000033                     outputString@s:
  1659                           	opt stack 0
  1660  000033                     ParseTime@DayTime:
  1661                           	opt stack 0
  1662                           
  1663                           ; 2 bytes @ 0x32
  1664  000033                     	ds	1
  1665  000034                     ReIndTimeEdit@i_911:
  1666                           	opt stack 0
  1667  000034                     outputString@i:
  1668                           	opt stack 0
  1669                           
  1670                           ; 2 bytes @ 0x33
  1671  000034                     	ds	1
  1672  000035                     ReIndTimeEdit@TimeData:
  1673                           	opt stack 0
  1674                           
  1675                           ; 1 bytes @ 0x34
  1676  000035                     	ds	1
  1677  000036                     ??_TimeEdit:
  1678  000036                     outputString@l:
  1679                           	opt stack 0
  1680                           
  1681                           ; 1 bytes @ 0x35
  1682  000036                     	ds	2
  1683  000038                     ReadDataOfCell@i:
  1684                           	opt stack 0
  1685                           
  1686                           ; 2 bytes @ 0x37
  1687  000038                     	ds	2
  1688  00003A                     ?_FindNextTimeStart:
  1689                           	opt stack 0
  1690  00003A                     ?_FindCell:
  1691                           	opt stack 0
  1692  00003A                     FindCell@adressStart:
  1693                           	opt stack 0
  1694  00003A                     EditSchedule@adress:
  1695                           	opt stack 0
  1696  00003A                     FindNextTimeStart@TimeFrom:
  1697                           	opt stack 0
  1698                           
  1699                           ; 2 bytes @ 0x39
  1700  00003A                     	ds	2
  1701  00003C                     ??_FindNextTimeStart:
  1702  00003C                     FindCell@New:
  1703                           	opt stack 0
  1704  00003C                     EditSchedule@SourceOfRecord:
  1705                           	opt stack 0
  1706                           
  1707                           ; 2 bytes @ 0x3B
  1708  00003C                     	ds	1
  1709  00003D                     FindCell@previous:
  1710                           	opt stack 0
  1711                           
  1712                           ; 2 bytes @ 0x3C
  1713  00003D                     	ds	2
  1714  00003F                     
  1715                           ; 1 bytes @ 0x3E
  1716  00003F                     	ds	1
  1717  000040                     ?_RefreshSchedulerIndicator:
  1718                           	opt stack 0
  1719  000040                     RefreshSchedulerIndicator@adress:
  1720                           	opt stack 0
  1721                           
  1722                           ; 2 bytes @ 0x3F
  1723  000040                     	ds	2
  1724  000042                     RefreshSchedulerIndicator@New:
  1725                           	opt stack 0
  1726                           
  1727                           ; 1 bytes @ 0x41
  1728  000042                     	ds	1
  1729  000043                     RefreshSchedulerIndicator@CopyFrom:
  1730                           	opt stack 0
  1731                           
  1732                           ; 2 bytes @ 0x42
  1733  000043                     	ds	2
  1734  000045                     ??_RefreshSchedulerIndicator:
  1735                           
  1736                           ; 1 bytes @ 0x44
  1737  000045                     	ds	2
  1738  000047                     SchedulerNew@SourceOfRecord:
  1739                           	opt stack 0
  1740                           
  1741                           ; 2 bytes @ 0x46
  1742  000047                     	ds	2
  1743  000049                     Scheduler@StartFrom:
  1744                           	opt stack 0
  1745                           
  1746                           ; 2 bytes @ 0x48
  1747  000049                     	ds	2
  1748  00004B                     ??_TimeToInd:
  1749                           
  1750                           ; 1 bytes @ 0x4A
  1751  00004B                     	ds	2
  1752  00004D                     ??_main2:
  1753                           
  1754                           ; 1 bytes @ 0x4C
  1755  00004D                     	ds	1
  1756  00004E                     ??_main:
  1757                           
  1758                           ; 1 bytes @ 0x4D
  1759  00004E                     	ds	1
  1760                           tblptru	equ	0xFF8
  1761                           tblptrh	equ	0xFF7
  1762                           tblptrl	equ	0xFF6
  1763                           tablat	equ	0xFF5
  1764                           prodh	equ	0xFF4
  1765                           prodl	equ	0xFF3
  1766                           intcon	equ	0xFF2
  1767                           intcon2	equ	0xFF1
  1768                           intcon3	equ	0xFF0
  1769                           postinc0	equ	0xFEE
  1770                           wreg	equ	0xFE8
  1771                           indf1	equ	0xFE7
  1772                           postdec1	equ	0xFE5
  1773                           plusw1	equ	0xFE3
  1774                           fsr1h	equ	0xFE2
  1775                           fsr1l	equ	0xFE1
  1776                           indf2	equ	0xFDF
  1777                           postinc2	equ	0xFDE
  1778                           postdec2	equ	0xFDD
  1779                           plusw2	equ	0xFDB
  1780                           fsr2h	equ	0xFDA
  1781                           fsr2l	equ	0xFD9
  1782                           status	equ	0xFD8
  1783                           
  1784 ;;
  1785 ;;Main: autosize = 0, tempsize = 1, incstack = 0, save=0
  1786 ;;
  1787 ;; *************** function _main *****************
  1788 ;; Defined at:
  1789 ;;		line 1662 in file "prog.c"
  1790 ;; Parameters:    Size  Location     Type
  1791 ;;		None
  1792 ;; Auto vars:     Size  Location     Type
  1793 ;;		None
  1794 ;; Return value:  Size  Location     Type
  1795 ;;                  1    wreg      void 
  1796 ;; Registers used:
  1797 ;;		wreg, fsr1l, fsr1h, fsr2l, fsr2h, status,2, status,0, tblptrl, tblptrh, tblptru, prodl, prodh, cstack
  1798 ;; Tracked objects:
  1799 ;;		On entry : 0/0
  1800 ;;		On exit  : F/1
  1801 ;;		Unchanged: 0/0
  1802 ;; Data sizes:     COMRAM   BANK0   BANK1   BANK2   BANK3   BANK4   BANK5   BANK6   BANK7   BANK8   BANK9  BANK10  BANK1
      +1  BANK12  BANK13  BANK14  BANK15
  1803 ;;      Params:         0       0       0       0       0       0       0       0       0       0       0       0       
      +0       0       0       0       0
  1804 ;;      Locals:         0       0       0       0       0       0       0       0       0       0       0       0       
      +0       0       0       0       0
  1805 ;;      Temps:          1       0       0       0       0       0       0       0       0       0       0       0       
      +0       0       0       0       0
  1806 ;;      Totals:         1       0       0       0       0       0       0       0       0       0       0       0       
      +0       0       0       0       0
  1807 ;;Total ram usage:        1 bytes
  1808 ;; Hardware stack levels required when called:   13
  1809 ;; This function calls:
  1810 ;;		_EERD
  1811 ;;		_clrInd
  1812 ;;		_lcd_on
  1813 ;;		_main2
  1814 ;; This function is called by:
  1815 ;;		Startup code after reset
  1816 ;; This function uses a non-reentrant model
  1817 ;;
  1818                           
  1819                           	psect	text0
  1820  003296                     __ptext0:
  1821                           	opt stack 0
  1822  003296                     _main:
  1823                           	opt stack 18
  1824                           
  1825                           ;prog.c: 1664: flags.TimeIsRead = 0;
  1826                           
  1827                           ;incstack = 0
  1828  003296  9657               	bcf	_flags,3,c
  1829                           
  1830                           ;prog.c: 1666: INTCON = 0;
  1831  003298  6AF2               	clrf	intcon,c	;volatile
  1832                           
  1833                           ;prog.c: 1667: INTCON2 = 0;
  1834  00329A  6AF1               	clrf	intcon2,c	;volatile
  1835                           
  1836                           ;prog.c: 1668: INTCON3 = 0;
  1837  00329C  6AF0               	clrf	intcon3,c	;volatile
  1838                           
  1839                           ;prog.c: 1669: PIR1 = 0;
  1840  00329E  6A9E               	clrf	3998,c	;volatile
  1841                           
  1842                           ;prog.c: 1670: PIR2 = 0;
  1843  0032A0  6AA1               	clrf	4001,c	;volatile
  1844                           
  1845                           ;prog.c: 1671: PIE1 = 0;
  1846  0032A2  6A9D               	clrf	3997,c	;volatile
  1847                           
  1848                           ;prog.c: 1672: PIE2 = 0;
  1849  0032A4  6AA0               	clrf	4000,c	;volatile
  1850                           
  1851                           ;prog.c: 1673: IPR1 = 0;
  1852  0032A6  6A9F               	clrf	3999,c	;volatile
  1853                           
  1854                           ;prog.c: 1674: IPR2 = 0;
  1855  0032A8  6AA2               	clrf	4002,c	;volatile
  1856                           
  1857                           ;prog.c: 1675: RCON = 0;
  1858  0032AA  6AD0               	clrf	4048,c	;volatile
  1859                           
  1860                           ;prog.c: 1677: clrInd();
  1861  0032AC  ECC3  F01A         	call	_clrInd	;wreg free
  1862                           
  1863                           ; BSR set to: 1
  1864                           ;prog.c: 1679: RCONbits.IPEN = 1;
  1865  0032B0  8ED0               	bsf	4048,7,c	;volatile
  1866                           
  1867                           ; BSR set to: 1
  1868                           ;prog.c: 1681: INTCONbits.GIEH = 1;
  1869  0032B2  8EF2               	bsf	intcon,7,c	;volatile
  1870                           
  1871                           ; BSR set to: 1
  1872                           ;prog.c: 1682: INTCONbits.GIEL = 1;
  1873  0032B4  8CF2               	bsf	intcon,6,c	;volatile
  1874                           
  1875                           ; BSR set to: 1
  1876                           ;prog.c: 1684: T2CONbits.TMR2ON = 1;
  1877  0032B6  84CA               	bsf	4042,2,c	;volatile
  1878                           
  1879                           ; BSR set to: 1
  1880                           ;prog.c: 1686: T1CONbits.RD16 = 1;
  1881  0032B8  8ECD               	bsf	4045,7,c	;volatile
  1882                           
  1883                           ; BSR set to: 1
  1884                           ;prog.c: 1687: TMR1 = 51200;
  1885  0032BA  0EC8               	movlw	200
  1886  0032BC  6ECF               	movwf	4047,c	;volatile
  1887  0032BE  6ACE               	clrf	4046,c	;volatile
  1888                           
  1889                           ; BSR set to: 1
  1890                           ;prog.c: 1688: T1CONbits.TMR1ON = 1;
  1891  0032C0  80CD               	bsf	4045,0,c	;volatile
  1892                           
  1893                           ; BSR set to: 1
  1894                           ;prog.c: 1689: PIE1bits.TMR1IE = 1;
  1895  0032C2  809D               	bsf	3997,0,c	;volatile
  1896                           
  1897                           ; BSR set to: 1
  1898                           ;prog.c: 1691: ADCON1 = 0b00001111;
  1899  0032C4  0E0F               	movlw	15
  1900  0032C6  6EC1               	movwf	4033,c	;volatile
  1901                           
  1902                           ; BSR set to: 1
  1903                           ;prog.c: 1692: TRISA = 0b00000000;
  1904  0032C8  6A92               	clrf	3986,c	;volatile
  1905                           
  1906                           ; BSR set to: 1
  1907                           ;prog.c: 1693: TRISB = 0b10000000;
  1908  0032CA  0E80               	movlw	128
  1909  0032CC  6E93               	movwf	3987,c	;volatile
  1910                           
  1911                           ; BSR set to: 1
  1912                           ;prog.c: 1694: TRISC = 0b00000000;
  1913  0032CE  6A94               	clrf	3988,c	;volatile
  1914                           
  1915                           ; BSR set to: 1
  1916                           ;prog.c: 1696: Clock = 0;
  1917  0032D0  D81B               	call	PL136	;call to abstracted procedure
  1918                           
  1919                           ; BSR set to: 1
  1920                           ;prog.c: 1697: LATA = 0b00000000;
  1921  0032D2  6A89               	clrf	3977,c	;volatile
  1922                           
  1923                           ; BSR set to: 1
  1924                           ;prog.c: 1698: LATB = 0b00000000;
  1925  0032D4  6A8A               	clrf	3978,c	;volatile
  1926                           
  1927                           ; BSR set to: 1
  1928                           ;prog.c: 1699: LATC = 0b00000000;
  1929  0032D6  6A8B               	clrf	3979,c	;volatile
  1930                           
  1931                           ; BSR set to: 1
  1932                           ;prog.c: 1700: T2CON = 0b00100100;
  1933  0032D8  0E24               	movlw	36
  1934  0032DA  6ECA               	movwf	4042,c	;volatile
  1935                           
  1936                           ; BSR set to: 1
  1937                           ;prog.c: 1702: flags.LockSignals = EERD(((8 * 48) + 6));
  1938  0032DC  0E01               	movlw	1
  1939  0032DE  6E1E               	movwf	EERD@adress+1,c
  1940  0032E0  0E86               	movlw	134
  1941  0032E2  6E1D               	movwf	EERD@adress,c
  1942  0032E4  EC9B  F01D         	call	_EERD	;wreg free
  1943  0032E8  6E4E               	movwf	??_main& (0+255),c
  1944  0032EA  324E               	rrcf	??_main,f,c
  1945  0032EC  324E               	rrcf	??_main,f,c
  1946  0032EE  5057               	movf	_flags,w,c
  1947  0032F0  184E               	xorwf	??_main,w,c
  1948  0032F2  0B7F               	andlw	-129
  1949  0032F4  184E               	xorwf	??_main,w,c
  1950  0032F6  6E57               	movwf	_flags,c
  1951                           
  1952                           ;prog.c: 1704: Clock = ((long int) cMinutes * 60
  1953                           ;prog.c: 1705: + (long int) cHours * 3600
  1954                           ;prog.c: 1706: + ((long int) cWeekDay - 1) * 86400) * 100;
  1955  0032F8  0101               	movlb	1	; () banked
  1956  0032FA  D806               	call	PL136	;call to abstracted procedure
  1957                           
  1958                           ; BSR set to: 1
  1959                           ;prog.c: 1708: lcd_on();
  1960  0032FC  ECF6  F01D         	call	_lcd_on	;wreg free
  1961                           
  1962                           ;prog.c: 1709: main2();
  1963  003300  EC7E  F013         	call	_main2	;wreg free
  1964                           
  1965                           ; BSR set to: 1
  1966  003304  EF1F  F001         	goto	start
  1967  003308                     __end_of_main:
  1968                           	opt stack 0
  1969  003308                     PL136:
  1970                           	opt stack 18
  1971  003308  6B94               	clrf	_Clock& (0+255),b
  1972  00330A  6B95               	clrf	(_Clock+1)& (0+255),b
  1973  00330C  6B96               	clrf	(_Clock+2)& (0+255),b
  1974  00330E  6B97               	clrf	(_Clock+3)& (0+255),b
  1975  003310  0012               	return	
  1976  003312                     __end_ofPL136:
  1977                           	opt stack 0
  1978                           tblptru	equ	0xFF8
  1979                           tblptrh	equ	0xFF7
  1980                           tblptrl	equ	0xFF6
  1981                           tablat	equ	0xFF5
  1982                           prodh	equ	0xFF4
  1983                           prodl	equ	0xFF3
  1984                           intcon	equ	0xFF2
  1985                           intcon2	equ	0xFF1
  1986                           intcon3	equ	0xFF0
  1987                           postinc0	equ	0xFEE
  1988                           wreg	equ	0xFE8
  1989                           indf1	equ	0xFE7
  1990                           postdec1	equ	0xFE5
  1991                           plusw1	equ	0xFE3
  1992                           fsr1h	equ	0xFE2
  1993                           fsr1l	equ	0xFE1
  1994                           indf2	equ	0xFDF
  1995                           postinc2	equ	0xFDE
  1996                           postdec2	equ	0xFDD
  1997                           plusw2	equ	0xFDB
  1998                           fsr2h	equ	0xFDA
  1999                           fsr2l	equ	0xFD9
  2000                           status	equ	0xFD8
  2001                           
  2002 ;; *************** function _main2 *****************
  2003 ;; Defined at:
  2004 ;;		line 1778 in file "prog.c"
  2005 ;; Parameters:    Size  Location     Type
  2006 ;;		None
  2007 ;; Auto vars:     Size  Location     Type
  2008 ;;		None
  2009 ;; Return value:  Size  Location     Type
  2010 ;;                  1    wreg      void 
  2011 ;; Registers used:
  2012 ;;		wreg, fsr1l, fsr1h, fsr2l, fsr2h, status,2, status,0, tblptrl, tblptrh, tblptru, prodl, prodh, cstack
  2013 ;; Tracked objects:
  2014 ;;		On entry : 0/1
  2015 ;;		On exit  : F/1
  2016 ;;		Unchanged: 0/0
  2017 ;; Data sizes:     COMRAM   BANK0   BANK1   BANK2   BANK3   BANK4   BANK5   BANK6   BANK7   BANK8   BANK9  BANK10  BANK1
      +1  BANK12  BANK13  BANK14  BANK15
  2018 ;;      Params:         0       0       0       0       0       0       0       0       0       0       0       0       
      +0       0       0       0       0
  2019 ;;      Locals:         0       0       0       0       0       0       0       0       0       0       0       0       
      +0       0       0       0       0
  2020 ;;      Temps:          1       0       0       0       0       0       0       0       0       0       0       0       
      +0       0       0       0       0
  2021 ;;      Totals:         1       0       0       0       0       0       0       0       0       0       0       0       
      +0       0       0       0       0
  2022 ;;Total ram usage:        1 bytes
  2023 ;; Hardware stack levels used:    1
  2024 ;; Hardware stack levels required when called:   12
  2025 ;; This function calls:
  2026 ;;		_EEWR
  2027 ;;		_FillMinutes
  2028 ;;		_FindNextTimeStart
  2029 ;;		_Scheduler
  2030 ;;		_TimeEdit
  2031 ;;		_TimeToInd
  2032 ;;		_clrInd
  2033 ;;		_lcd_off
  2034 ;;		_lcd_on
  2035 ;; This function is called by:
  2036 ;;		_main
  2037 ;; This function uses a non-reentrant model
  2038 ;;
  2039                           
  2040                           	psect	text1
  2041  0026FC                     __ptext1:
  2042                           	opt stack 0
  2043  0026FC                     _main2:
  2044                           	opt stack 18
  2045                           
  2046                           ;prog.c: 1780: flags.LCD_Light_On = 1;
  2047                           
  2048                           ; BSR set to: 1
  2049                           ;incstack = 0
  2050  0026FC  8A57               	bsf	_flags,5,c
  2051                           
  2052                           ;prog.c: 1782: flags.isTimeSetting = 0;
  2053  0026FE  9857               	bcf	_flags,4,c
  2054                           
  2055                           ;prog.c: 1784: NearTimeStart = Clock;
  2056  002700  D89C               	call	PL38	;call to abstracted procedure
  2057  002702                     l8291:
  2058                           
  2059                           ;prog.c: 1785: AdressOfNextStartCell = FindNextTimeStart(&NearTimeStart);
  2060  002702  EC01  F00B         	call	PL132	;call to abstracted procedure
  2061  002706  ECAE  F012         	call	_FindNextTimeStart	;wreg free
  2062  00270A  EC06  F00B         	call	PL140	;call to abstracted procedure
  2063  00270E                     l1018:
  2064  00270E  BC57               	btfsc	_flags,6,c
  2065  002710  D005               	goto	l8307
  2066  002712  505B               	movf	_KeyCode,w,c	;volatile
  2067  002714  E003               	bz	l8307
  2068                           
  2069                           ;prog.c: 1792: KeyCode = 0;
  2070  002716  6A5B               	clrf	_KeyCode,c	;volatile
  2071                           
  2072                           ;prog.c: 1793: lcd_on();
  2073  002718  ECF6  F01D         	call	_lcd_on	;wreg free
  2074  00271C                     l8307:
  2075                           
  2076                           ;prog.c: 1794: }
  2077                           ;prog.c: 1796: if (flags.LCD_Power_On == 0) {
  2078  00271C  AC57               	btfss	_flags,6,c
  2079  00271E  D7F7               	goto	l1018
  2080                           
  2081                           ;prog.c: 1798: }
  2082                           ;prog.c: 1800: TimeToInd();
  2083  002720  EC2B  F008         	call	_TimeToInd	;wreg free
  2084                           
  2085                           ;prog.c: 1803: if (KeyCode == 45 && !flags.DetailModeOfViewSheduler) {
  2086  002724  0E2D               	movlw	45
  2087  002726  185B               	xorwf	_KeyCode,w,c	;volatile
  2088  002728  E106               	bnz	l8321
  2089  00272A  B057               	btfsc	_flags,0,c
  2090  00272C  D004               	goto	l8321
  2091                           
  2092                           ;prog.c: 1804: KeyCode = 0;
  2093  00272E  6A5B               	clrf	_KeyCode,c	;volatile
  2094                           
  2095                           ;prog.c: 1805: TimeEdit();
  2096  002730  EC85  F00D         	call	_TimeEdit	;wreg free
  2097                           
  2098                           ;prog.c: 1806: } else if (KeyCode == 40 || KeyCode == 41) {
  2099  002734  D7EC               	goto	l1018
  2100  002736                     l8321:
  2101  002736  0E28               	movlw	40
  2102  002738  185B               	xorwf	_KeyCode,w,c	;volatile
  2103  00273A  E003               	bz	l1027
  2104  00273C  0E29               	movlw	41
  2105  00273E  185B               	xorwf	_KeyCode,w,c	;volatile
  2106  002740  E108               	bnz	l8327
  2107  002742                     l1027:
  2108                           
  2109                           ;prog.c: 1807: KeyCode = 0;
  2110  002742  6A5B               	clrf	_KeyCode,c	;volatile
  2111                           
  2112                           ;prog.c: 1808: Scheduler((8 * 48));
  2113  002744  0E01               	movlw	1
  2114  002746  6E4A               	movwf	Scheduler@StartFrom+1,c
  2115  002748  0E80               	movlw	128
  2116  00274A  6E49               	movwf	Scheduler@StartFrom,c
  2117  00274C  EC2F  F014         	call	_Scheduler	;wreg free
  2118                           
  2119                           ;prog.c: 1809: } else if (KeyCode == 44) {
  2120  002750  D7DE               	goto	l1018
  2121  002752                     l8327:
  2122  002752  0E2C               	movlw	44
  2123  002754  185B               	xorwf	_KeyCode,w,c	;volatile
  2124  002756  E111               	bnz	l8333
  2125                           
  2126                           ;prog.c: 1810: KeyCode = 0;
  2127  002758  6A5B               	clrf	_KeyCode,c	;volatile
  2128                           
  2129                           ;prog.c: 1811: if (flags.LCD_Power_On) {
  2130  00275A  AC57               	btfss	_flags,6,c
  2131  00275C  D7D8               	goto	l1018
  2132                           
  2133                           ;prog.c: 1812: flags.LCD_Light_On = !flags.LCD_Light_On;
  2134  00275E  BA57               	btfsc	_flags,5,c
  2135  002760  D003               	goto	u7210
  2136  002762  6A4D               	clrf	??_main2& (0+255),c
  2137  002764  2A4D               	incf	??_main2& (0+255),f,c
  2138  002766  D001               	goto	u7228
  2139  002768                     u7210:
  2140  002768  6A4D               	clrf	??_main2& (0+255),c
  2141  00276A                     u7228:
  2142  00276A  3A4D               	swapf	??_main2,f,c
  2143  00276C  464D               	rlncf	??_main2,f,c
  2144  00276E  5057               	movf	_flags,w,c
  2145  002770  184D               	xorwf	??_main2,w,c
  2146  002772  0BDF               	andlw	-33
  2147  002774  184D               	xorwf	??_main2,w,c
  2148  002776  6E57               	movwf	_flags,c
  2149  002778  D7CA               	goto	l1018
  2150  00277A                     l8333:
  2151  00277A  0E1E               	movlw	30
  2152  00277C  185B               	xorwf	_KeyCode,w,c	;volatile
  2153  00277E  E108               	bnz	l8339
  2154                           
  2155                           ;prog.c: 1815: KeyCode = 0;
  2156  002780  6A5B               	clrf	_KeyCode,c	;volatile
  2157                           
  2158                           ;prog.c: 1816: flags.LockSignals = 1;
  2159  002782  8E57               	bsf	_flags,7,c
  2160                           
  2161                           ;prog.c: 1817: CurrentSignals = 0;
  2162  002784  0101               	movlb	1	; () banked
  2163  002786  6B98               	clrf	_CurrentSignals& (0+255),b
  2164                           
  2165                           ; BSR set to: 1
  2166                           ;prog.c: 1818: EEWR(((8 * 48) + 6), flags.LockSignals);
  2167  002788  D861               	call	PL62	;call to abstracted procedure
  2168  00278A  ECC8  F01C         	call	_EEWR	;wreg free
  2169                           
  2170                           ;prog.c: 1819: } else if (KeyCode == 31 && !flags.DetailModeOfViewSheduler) {
  2171  00278E  D7BF               	goto	l1018
  2172  002790                     l8339:
  2173  002790  0E1F               	movlw	31
  2174  002792  185B               	xorwf	_KeyCode,w,c	;volatile
  2175  002794  E107               	bnz	l8349
  2176  002796  B057               	btfsc	_flags,0,c
  2177  002798  D005               	goto	l8349
  2178                           
  2179                           ;prog.c: 1820: KeyCode = 0;
  2180  00279A  6A5B               	clrf	_KeyCode,c	;volatile
  2181                           
  2182                           ;prog.c: 1821: clrInd();
  2183  00279C  ECC3  F01A         	call	_clrInd	;wreg free
  2184                           
  2185                           ; BSR set to: 1
  2186                           ;prog.c: 1822: CurrentSignals = CurrentSignals^0b00000001;
  2187  0027A0  0E01               	movlw	1
  2188  0027A2  D013               	goto	L2
  2189  0027A4                     l8349:
  2190  0027A4  0E20               	movlw	32
  2191  0027A6  185B               	xorwf	_KeyCode,w,c	;volatile
  2192  0027A8  E107               	bnz	l8359
  2193  0027AA  B057               	btfsc	_flags,0,c
  2194  0027AC  D005               	goto	l8359
  2195                           
  2196                           ;prog.c: 1824: KeyCode = 0;
  2197  0027AE  6A5B               	clrf	_KeyCode,c	;volatile
  2198                           
  2199                           ;prog.c: 1825: clrInd();
  2200  0027B0  ECC3  F01A         	call	_clrInd	;wreg free
  2201                           
  2202                           ; BSR set to: 1
  2203                           ;prog.c: 1826: CurrentSignals = CurrentSignals^0b00000010;
  2204  0027B4  0E02               	movlw	2
  2205  0027B6  D009               	goto	L2
  2206  0027B8                     l8359:
  2207  0027B8  0E21               	movlw	33
  2208  0027BA  185B               	xorwf	_KeyCode,w,c	;volatile
  2209  0027BC  E108               	bnz	l8369
  2210  0027BE  B057               	btfsc	_flags,0,c
  2211  0027C0  D006               	goto	l8369
  2212                           
  2213                           ;prog.c: 1828: KeyCode = 0;
  2214  0027C2  6A5B               	clrf	_KeyCode,c	;volatile
  2215                           
  2216                           ;prog.c: 1829: clrInd();
  2217  0027C4  ECC3  F01A         	call	_clrInd	;wreg free
  2218                           
  2219                           ; BSR set to: 1
  2220                           ;prog.c: 1830: CurrentSignals = CurrentSignals^0b00000100;
  2221  0027C8  0E04               	movlw	4
  2222  0027CA                     L2:
  2223  0027CA  1B98               	xorwf	_CurrentSignals& (0+255),f,b
  2224                           
  2225                           ;prog.c: 1831: } else if (KeyCode == 34 && !flags.DetailModeOfViewSheduler) {
  2226  0027CC  D7A0               	goto	l1018
  2227  0027CE                     l8369:
  2228  0027CE  0E22               	movlw	34
  2229  0027D0  185B               	xorwf	_KeyCode,w,c	;volatile
  2230  0027D2  E107               	bnz	l8379
  2231  0027D4  B057               	btfsc	_flags,0,c
  2232  0027D6  D005               	goto	l8379
  2233                           
  2234                           ;prog.c: 1832: KeyCode = 0;
  2235  0027D8  6A5B               	clrf	_KeyCode,c	;volatile
  2236                           
  2237                           ;prog.c: 1833: clrInd();
  2238  0027DA  ECC3  F01A         	call	_clrInd	;wreg free
  2239                           
  2240                           ; BSR set to: 1
  2241                           ;prog.c: 1834: CurrentSignals = 0;
  2242  0027DE  6B98               	clrf	_CurrentSignals& (0+255),b
  2243                           
  2244                           ;prog.c: 1835: } else if (KeyCode == 35 && !flags.DetailModeOfViewSheduler) {
  2245  0027E0  D796               	goto	l1018
  2246  0027E2                     l8379:
  2247  0027E2  0E23               	movlw	35
  2248  0027E4  185B               	xorwf	_KeyCode,w,c	;volatile
  2249  0027E6  E10A               	bnz	l8389
  2250  0027E8  B057               	btfsc	_flags,0,c
  2251  0027EA  D008               	goto	l8389
  2252                           
  2253                           ;prog.c: 1836: KeyCode = 0;
  2254  0027EC  6A5B               	clrf	_KeyCode,c	;volatile
  2255                           
  2256                           ;prog.c: 1837: flags.LockSignals = 0;
  2257  0027EE  9E57               	bcf	_flags,7,c
  2258                           
  2259                           ;prog.c: 1838: EEWR(((8 * 48) + 6), flags.LockSignals);
  2260  0027F0  D82D               	call	PL62	;call to abstracted procedure
  2261  0027F2  ECC8  F01C         	call	_EEWR	;wreg free
  2262                           
  2263                           ;prog.c: 1839: clrInd();
  2264  0027F6  ECC3  F01A         	call	_clrInd	;wreg free
  2265                           
  2266                           ;prog.c: 1840: } else if (KeyCode == 37) {
  2267  0027FA  D789               	goto	l1018
  2268  0027FC                     l8389:
  2269  0027FC  0E25               	movlw	37
  2270  0027FE  185B               	xorwf	_KeyCode,w,c	;volatile
  2271  002800  E104               	bnz	l8395
  2272                           
  2273                           ;prog.c: 1841: KeyCode = 0;
  2274  002802  6A5B               	clrf	_KeyCode,c	;volatile
  2275                           
  2276                           ;prog.c: 1842: lcd_off();
  2277  002804  ECFD  F01D         	call	_lcd_off	;wreg free
  2278                           
  2279                           ;prog.c: 1843: } else if (KeyCode == 43 || (KeyCode == 36 && (!flags.LockSignals || flag
      +                          s.DetailModeOfViewSheduler))) {
  2280  002808  D782               	goto	l1018
  2281  00280A                     l8395:
  2282  00280A  0E2B               	movlw	43
  2283  00280C  185B               	xorwf	_KeyCode,w,c	;volatile
  2284  00280E  E008               	bz	l8403
  2285  002810  0E24               	movlw	36
  2286  002812  185B               	xorwf	_KeyCode,w,c	;volatile
  2287  002814  E001 D77B          	bnz	l1018
  2288  002818  AE57               	btfss	_flags,7,c
  2289  00281A  D002               	goto	l8403
  2290  00281C  A057               	btfss	_flags,0,c
  2291  00281E  D777               	goto	l1018
  2292  002820                     l8403:
  2293                           
  2294                           ;prog.c: 1844: if (KeyCode == 43) {
  2295  002820  0E2B               	movlw	43
  2296  002822  185B               	xorwf	_KeyCode,w,c	;volatile
  2297  002824  E106               	bnz	l8411
  2298                           
  2299                           ;prog.c: 1845: NearTimeStart = Clock;
  2300  002826  D809               	call	PL38	;call to abstracted procedure
  2301                           
  2302                           ;prog.c: 1846: if (flags.DetailModeOfViewSheduler) {
  2303  002828  A057               	btfss	_flags,0,c
  2304  00282A  D003               	goto	l8411
  2305                           
  2306                           ;prog.c: 1847: flags.DetailModeOfViewSheduler = 0;
  2307  00282C  9057               	bcf	_flags,0,c
  2308                           
  2309                           ;prog.c: 1848: clrInd();
  2310  00282E  ECC3  F01A         	call	_clrInd	;wreg free
  2311  002832                     l8411:
  2312                           
  2313                           ;prog.c: 1849: }
  2314                           ;prog.c: 1850: }
  2315                           ;prog.c: 1851: KeyCode = 0;
  2316  002832  6A5B               	clrf	_KeyCode,c	;volatile
  2317                           
  2318                           ;prog.c: 1852: FillMinutes();
  2319  002834  ECD0  F01D         	call	_FillMinutes	;wreg free
  2320  002838  D764               	goto	l8291
  2321  00283A                     __end_of_main2:
  2322                           	opt stack 0
  2323  00283A                     PL38:
  2324                           	opt stack 18
  2325  00283A  C194  F19A         	movff	_Clock,_NearTimeStart
  2326  00283E  C195  F19B         	movff	_Clock+1,_NearTimeStart+1
  2327  002842  C196  F19C         	movff	_Clock+2,_NearTimeStart+2
  2328  002846  C197  F19D         	movff	_Clock+3,_NearTimeStart+3
  2329  00284A  0012               	return	
  2330  00284C                     __end_ofPL38:
  2331                           	opt stack 0
  2332  00284C                     PL62:
  2333                           	opt stack 18
  2334  00284C  0E01               	movlw	1
  2335  00284E  6E1E               	movwf	EEWR@adress+1,c
  2336  002850  0E86               	movlw	134
  2337  002852  6E1D               	movwf	EEWR@adress,c
  2338  002854  0E00               	movlw	0
  2339  002856  BE57               	btfsc	_flags,7,c
  2340  002858  0E01               	movlw	1
  2341  00285A  6E1F               	movwf	EEWR@data,c
  2342  00285C  0012               	return	
  2343  00285E                     __end_ofPL62:
  2344                           	opt stack 0
  2345                           tblptru	equ	0xFF8
  2346                           tblptrh	equ	0xFF7
  2347                           tblptrl	equ	0xFF6
  2348                           tablat	equ	0xFF5
  2349                           prodh	equ	0xFF4
  2350                           prodl	equ	0xFF3
  2351                           intcon	equ	0xFF2
  2352                           intcon2	equ	0xFF1
  2353                           intcon3	equ	0xFF0
  2354                           postinc0	equ	0xFEE
  2355                           wreg	equ	0xFE8
  2356                           indf1	equ	0xFE7
  2357                           postdec1	equ	0xFE5
  2358                           plusw1	equ	0xFE3
  2359                           fsr1h	equ	0xFE2
  2360                           fsr1l	equ	0xFE1
  2361                           indf2	equ	0xFDF
  2362                           postinc2	equ	0xFDE
  2363                           postdec2	equ	0xFDD
  2364                           plusw2	equ	0xFDB
  2365                           fsr2h	equ	0xFDA
  2366                           fsr2l	equ	0xFD9
  2367                           status	equ	0xFD8
  2368                           
  2369 ;; *************** function _lcd_on *****************
  2370 ;; Defined at:
  2371 ;;		line 940 in file "prog.c"
  2372 ;; Parameters:    Size  Location     Type
  2373 ;;		None
  2374 ;; Auto vars:     Size  Location     Type
  2375 ;;		None
  2376 ;; Return value:  Size  Location     Type
  2377 ;;                  1    wreg      void 
  2378 ;; Registers used:
  2379 ;;		wreg, status,2, status,0, prodl, prodh, cstack
  2380 ;; Tracked objects:
  2381 ;;		On entry : 0/1
  2382 ;;		On exit  : 0/0
  2383 ;;		Unchanged: 0/0
  2384 ;; Data sizes:     COMRAM   BANK0   BANK1   BANK2   BANK3   BANK4   BANK5   BANK6   BANK7   BANK8   BANK9  BANK10  BANK1
      +1  BANK12  BANK13  BANK14  BANK15
  2385 ;;      Params:         0       0       0       0       0       0       0       0       0       0       0       0       
      +0       0       0       0       0
  2386 ;;      Locals:         0       0       0       0       0       0       0       0       0       0       0       0       
      +0       0       0       0       0
  2387 ;;      Temps:          0       0       0       0       0       0       0       0       0       0       0       0       
      +0       0       0       0       0
  2388 ;;      Totals:         0       0       0       0       0       0       0       0       0       0       0       0       
      +0       0       0       0       0
  2389 ;;Total ram usage:        0 bytes
  2390 ;; Hardware stack levels used:    1
  2391 ;; Hardware stack levels required when called:    7
  2392 ;; This function calls:
  2393 ;;		_lcd_init
  2394 ;;		_lcd_send_byte
  2395 ;; This function is called by:
  2396 ;;		_main
  2397 ;;		_main2
  2398 ;; This function uses a non-reentrant model
  2399 ;;
  2400                           
  2401                           	psect	text2
  2402  003BEC                     __ptext2:
  2403                           	opt stack 0
  2404  003BEC                     _lcd_on:
  2405                           	opt stack 22
  2406                           
  2407                           ;prog.c: 941: lcd_init();
  2408                           
  2409                           ; BSR set to: 1
  2410                           ;incstack = 0
  2411  003BEC  ECFD  F015         	call	_lcd_init	;wreg free
  2412                           
  2413                           ;prog.c: 942: lcd_send_byte(0b00001100);
  2414  003BF0  0E0C               	movlw	12
  2415  003BF2  EC89  F01D         	call	_lcd_send_byte
  2416                           
  2417                           ;prog.c: 943: flags.LCD_Power_On = 1;
  2418  003BF6  8C57               	bsf	_flags,6,c
  2419  003BF8  0012               	return		;funcret
  2420  003BFA                     __end_of_lcd_on:
  2421                           	opt stack 0
  2422                           tblptru	equ	0xFF8
  2423                           tblptrh	equ	0xFF7
  2424                           tblptrl	equ	0xFF6
  2425                           tablat	equ	0xFF5
  2426                           prodh	equ	0xFF4
  2427                           prodl	equ	0xFF3
  2428                           intcon	equ	0xFF2
  2429                           intcon2	equ	0xFF1
  2430                           intcon3	equ	0xFF0
  2431                           postinc0	equ	0xFEE
  2432                           wreg	equ	0xFE8
  2433                           indf1	equ	0xFE7
  2434                           postdec1	equ	0xFE5
  2435                           plusw1	equ	0xFE3
  2436                           fsr1h	equ	0xFE2
  2437                           fsr1l	equ	0xFE1
  2438                           indf2	equ	0xFDF
  2439                           postinc2	equ	0xFDE
  2440                           postdec2	equ	0xFDD
  2441                           plusw2	equ	0xFDB
  2442                           fsr2h	equ	0xFDA
  2443                           fsr2l	equ	0xFD9
  2444                           status	equ	0xFD8
  2445                           
  2446 ;; *************** function _lcd_init *****************
  2447 ;; Defined at:
  2448 ;;		line 947 in file "prog.c"
  2449 ;; Parameters:    Size  Location     Type
  2450 ;;		None
  2451 ;; Auto vars:     Size  Location     Type
  2452 ;;  INTCON_BUF      1   33[COMRAM] unsigned char 
  2453 ;; Return value:  Size  Location     Type
  2454 ;;                  1    wreg      void 
  2455 ;; Registers used:
  2456 ;;		wreg, status,2, status,0, prodl, prodh, cstack
  2457 ;; Tracked objects:
  2458 ;;		On entry : 0/1
  2459 ;;		On exit  : 0/0
  2460 ;;		Unchanged: 0/0
  2461 ;; Data sizes:     COMRAM   BANK0   BANK1   BANK2   BANK3   BANK4   BANK5   BANK6   BANK7   BANK8   BANK9  BANK10  BANK1
      +1  BANK12  BANK13  BANK14  BANK15
  2462 ;;      Params:         0       0       0       0       0       0       0       0       0       0       0       0       
      +0       0       0       0       0
  2463 ;;      Locals:         1       0       0       0       0       0       0       0       0       0       0       0       
      +0       0       0       0       0
  2464 ;;      Temps:          1       0       0       0       0       0       0       0       0       0       0       0       
      +0       0       0       0       0
  2465 ;;      Totals:         2       0       0       0       0       0       0       0       0       0       0       0       
      +0       0       0       0       0
  2466 ;;Total ram usage:        2 bytes
  2467 ;; Hardware stack levels used:    1
  2468 ;; Hardware stack levels required when called:    6
  2469 ;; This function calls:
  2470 ;;		_lcd_send_byte
  2471 ;;		_lcd_send_initial_half_byte
  2472 ;; This function is called by:
  2473 ;;		_lcd_on
  2474 ;; This function uses a non-reentrant model
  2475 ;;
  2476                           
  2477                           	psect	text3
  2478  002BFA                     __ptext3:
  2479                           	opt stack 0
  2480  002BFA                     _lcd_init:
  2481                           	opt stack 22
  2482                           
  2483                           ;prog.c: 948: unsigned char INTCON_BUF = INTCON;
  2484                           
  2485                           ;incstack = 0
  2486  002BFA  CFF2 F022          	movff	intcon,lcd_init@INTCON_BUF	;volatile
  2487                           
  2488                           ;prog.c: 949: INTCONbits.GIEH = 0;
  2489  002BFE  9EF2               	bcf	intcon,7,c	;volatile
  2490                           
  2491                           ;prog.c: 950: INTCONbits.GIEL = 0;
  2492  002C00  9CF2               	bcf	intcon,6,c	;volatile
  2493                           
  2494                           ;prog.c: 951: RC0 = 0;
  2495  002C02  9082               	bcf	3970,0,c	;volatile
  2496                           
  2497                           ;prog.c: 952: RC2 = 0;
  2498  002C04  9482               	bcf	3970,2,c	;volatile
  2499                           
  2500                           ;prog.c: 954: _delay((unsigned long)((20)*(39400000/4000.0)));
  2501  002C06  6A21               	clrf	??_lcd_init& (0+255),c
  2502  002C08  0ED7               	movlw	215
  2503  002C0A                     u7417:
  2504  002C0A  2EE8               	decfsz	wreg,f,c
  2505  002C0C  D7FE               	goto	u7417
  2506  002C0E  2E21               	decfsz	??_lcd_init& (0+255),f,c
  2507  002C10  D7FC               	goto	u7417
  2508  002C12  F000               	nop	
  2509                           
  2510                           ;prog.c: 955: lcd_send_initial_half_byte(0b00000011);
  2511  002C14  0E03               	movlw	3
  2512  002C16  EC14  F01D         	call	_lcd_send_initial_half_byte
  2513                           
  2514                           ;prog.c: 956: _delay((unsigned long)((5)*(39400000/4000.0)));
  2515  002C1A  0E40               	movlw	64
  2516  002C1C  6E21               	movwf	??_lcd_init& (0+255),c
  2517  002C1E  0EF5               	movlw	245
  2518  002C20                     u7427:
  2519  002C20  2EE8               	decfsz	wreg,f,c
  2520  002C22  D7FE               	goto	u7427
  2521  002C24  2E21               	decfsz	??_lcd_init& (0+255),f,c
  2522  002C26  D7FC               	goto	u7427
  2523  002C28  F000               	nop	
  2524                           
  2525                           ;prog.c: 957: lcd_send_initial_half_byte(0b00000011);
  2526  002C2A  0E03               	movlw	3
  2527  002C2C  EC14  F01D         	call	_lcd_send_initial_half_byte
  2528                           
  2529                           ;prog.c: 958: _delay((unsigned long)((110)*(39400000/4000000.0)));
  2530  002C30  0ED8               	movlw	216
  2531  002C32                     u7437:
  2532  002C32  D000               	nop2	
  2533  002C34  2EE8               	decfsz	wreg,f,c
  2534  002C36  D7FD               	goto	u7437
  2535  002C38  D000               	nop2		;nop
  2536  002C3A  F000               	nop	
  2537                           
  2538                           ;prog.c: 959: lcd_send_initial_half_byte(0b00000011);
  2539  002C3C  0E03               	movlw	3
  2540  002C3E  EC14  F01D         	call	_lcd_send_initial_half_byte
  2541                           
  2542                           ;prog.c: 960: _delay((unsigned long)((40)*(39400000/4000000.0)));
  2543  002C42  0E83               	movlw	131
  2544  002C44                     u7447:
  2545  002C44  2EE8               	decfsz	wreg,f,c
  2546  002C46  D7FE               	goto	u7447
  2547  002C48  F000               	nop	
  2548                           
  2549                           ;prog.c: 961: lcd_send_initial_half_byte(0b00000010);
  2550  002C4A  0E02               	movlw	2
  2551  002C4C  EC14  F01D         	call	_lcd_send_initial_half_byte
  2552                           
  2553                           ;prog.c: 962: _delay((unsigned long)((40)*(39400000/4000000.0)));
  2554  002C50  0E83               	movlw	131
  2555  002C52                     u7457:
  2556  002C52  2EE8               	decfsz	wreg,f,c
  2557  002C54  D7FE               	goto	u7457
  2558  002C56  F000               	nop	
  2559                           
  2560                           ;prog.c: 963: lcd_send_byte(0b00101100);
  2561  002C58  0E2C               	movlw	44
  2562  002C5A  EC89  F01D         	call	_lcd_send_byte
  2563                           
  2564                           ;prog.c: 964: _delay((unsigned long)((40)*(39400000/4000000.0)));
  2565  002C5E  0E83               	movlw	131
  2566  002C60                     u7467:
  2567  002C60  2EE8               	decfsz	wreg,f,c
  2568  002C62  D7FE               	goto	u7467
  2569  002C64  F000               	nop	
  2570                           
  2571                           ;prog.c: 965: lcd_send_byte(0b00001000);
  2572  002C66  0E08               	movlw	8
  2573  002C68  EC89  F01D         	call	_lcd_send_byte
  2574                           
  2575                           ;prog.c: 966: _delay((unsigned long)((40)*(39400000/4000000.0)));
  2576  002C6C  0E83               	movlw	131
  2577  002C6E                     u7477:
  2578  002C6E  2EE8               	decfsz	wreg,f,c
  2579  002C70  D7FE               	goto	u7477
  2580  002C72  F000               	nop	
  2581                           
  2582                           ;prog.c: 967: lcd_send_byte(0b00000001);
  2583  002C74  0E01               	movlw	1
  2584  002C76  EC89  F01D         	call	_lcd_send_byte
  2585                           
  2586                           ;prog.c: 968: _delay((unsigned long)((40)*(39400000/4000000.0)));
  2587  002C7A  0E83               	movlw	131
  2588  002C7C                     u7487:
  2589  002C7C  2EE8               	decfsz	wreg,f,c
  2590  002C7E  D7FE               	goto	u7487
  2591  002C80  F000               	nop	
  2592                           
  2593                           ;prog.c: 969: lcd_send_byte(0b00010010);
  2594  002C82  0E12               	movlw	18
  2595  002C84  EC89  F01D         	call	_lcd_send_byte
  2596                           
  2597                           ;prog.c: 970: _delay((unsigned long)((40)*(39400000/4000000.0)));
  2598  002C88  0E83               	movlw	131
  2599  002C8A                     u7497:
  2600  002C8A  2EE8               	decfsz	wreg,f,c
  2601  002C8C  D7FE               	goto	u7497
  2602  002C8E  F000               	nop	
  2603                           
  2604                           ;prog.c: 973: RC0 = 0;
  2605  002C90  9082               	bcf	3970,0,c	;volatile
  2606                           
  2607                           ;prog.c: 974: RC2 = 0;
  2608  002C92  9482               	bcf	3970,2,c	;volatile
  2609                           
  2610                           ;prog.c: 976: lcd_send_byte(0b00000001);
  2611  002C94  0E01               	movlw	1
  2612  002C96  EC89  F01D         	call	_lcd_send_byte
  2613                           
  2614                           ;prog.c: 977: _delay((unsigned long)((2)*(39400000/4000.0)));
  2615  002C9A  0E1A               	movlw	26
  2616  002C9C  6E21               	movwf	??_lcd_init& (0+255),c
  2617  002C9E  0E94               	movlw	148
  2618  002CA0                     u7507:
  2619  002CA0  2EE8               	decfsz	wreg,f,c
  2620  002CA2  D7FE               	goto	u7507
  2621  002CA4  2E21               	decfsz	??_lcd_init& (0+255),f,c
  2622  002CA6  D7FC               	goto	u7507
  2623  002CA8  D000               	nop2	
  2624                           
  2625                           ;prog.c: 979: INTCON = (INTCON_BUF | 0b10000000) | (INTCON & 0b01111111);
  2626  002CAA  50F2               	movf	intcon,w,c	;volatile
  2627  002CAC  0B7F               	andlw	127
  2628  002CAE  1022               	iorwf	lcd_init@INTCON_BUF,w,c
  2629  002CB0  0980               	iorlw	128
  2630  002CB2  6EF2               	movwf	intcon,c	;volatile
  2631  002CB4  0012               	return		;funcret
  2632  002CB6                     __end_of_lcd_init:
  2633                           	opt stack 0
  2634                           tblptru	equ	0xFF8
  2635                           tblptrh	equ	0xFF7
  2636                           tblptrl	equ	0xFF6
  2637                           tablat	equ	0xFF5
  2638                           prodh	equ	0xFF4
  2639                           prodl	equ	0xFF3
  2640                           intcon	equ	0xFF2
  2641                           intcon2	equ	0xFF1
  2642                           intcon3	equ	0xFF0
  2643                           postinc0	equ	0xFEE
  2644                           wreg	equ	0xFE8
  2645                           indf1	equ	0xFE7
  2646                           postdec1	equ	0xFE5
  2647                           plusw1	equ	0xFE3
  2648                           fsr1h	equ	0xFE2
  2649                           fsr1l	equ	0xFE1
  2650                           indf2	equ	0xFDF
  2651                           postinc2	equ	0xFDE
  2652                           postdec2	equ	0xFDD
  2653                           plusw2	equ	0xFDB
  2654                           fsr2h	equ	0xFDA
  2655                           fsr2l	equ	0xFD9
  2656                           status	equ	0xFD8
  2657                           
  2658 ;; *************** function _lcd_off *****************
  2659 ;; Defined at:
  2660 ;;		line 933 in file "prog.c"
  2661 ;; Parameters:    Size  Location     Type
  2662 ;;		None
  2663 ;; Auto vars:     Size  Location     Type
  2664 ;;		None
  2665 ;; Return value:  Size  Location     Type
  2666 ;;                  1    wreg      void 
  2667 ;; Registers used:
  2668 ;;		wreg, status,2, status,0, prodl, prodh, cstack
  2669 ;; Tracked objects:
  2670 ;;		On entry : 0/0
  2671 ;;		On exit  : 0/0
  2672 ;;		Unchanged: 0/0
  2673 ;; Data sizes:     COMRAM   BANK0   BANK1   BANK2   BANK3   BANK4   BANK5   BANK6   BANK7   BANK8   BANK9  BANK10  BANK1
      +1  BANK12  BANK13  BANK14  BANK15
  2674 ;;      Params:         0       0       0       0       0       0       0       0       0       0       0       0       
      +0       0       0       0       0
  2675 ;;      Locals:         0       0       0       0       0       0       0       0       0       0       0       0       
      +0       0       0       0       0
  2676 ;;      Temps:          0       0       0       0       0       0       0       0       0       0       0       0       
      +0       0       0       0       0
  2677 ;;      Totals:         0       0       0       0       0       0       0       0       0       0       0       0       
      +0       0       0       0       0
  2678 ;;Total ram usage:        0 bytes
  2679 ;; Hardware stack levels used:    1
  2680 ;; Hardware stack levels required when called:    6
  2681 ;; This function calls:
  2682 ;;		_lcd_send_byte
  2683 ;; This function is called by:
  2684 ;;		_main2
  2685 ;; This function uses a non-reentrant model
  2686 ;;
  2687                           
  2688                           	psect	text4
  2689  003BFA                     __ptext4:
  2690                           	opt stack 0
  2691  003BFA                     _lcd_off:
  2692                           	opt stack 23
  2693                           
  2694                           ;prog.c: 934: flags.LCD_Light_On = 0;
  2695                           
  2696                           ;incstack = 0
  2697  003BFA  9A57               	bcf	_flags,5,c
  2698                           
  2699                           ;prog.c: 935: lcd_send_byte(0b00001000);
  2700  003BFC  0E08               	movlw	8
  2701  003BFE  EC89  F01D         	call	_lcd_send_byte
  2702                           
  2703                           ;prog.c: 936: flags.LCD_Power_On = 0;
  2704  003C02  9C57               	bcf	_flags,6,c
  2705  003C04  0012               	return		;funcret
  2706  003C06                     __end_of_lcd_off:
  2707                           	opt stack 0
  2708                           tblptru	equ	0xFF8
  2709                           tblptrh	equ	0xFF7
  2710                           tblptrl	equ	0xFF6
  2711                           tablat	equ	0xFF5
  2712                           prodh	equ	0xFF4
  2713                           prodl	equ	0xFF3
  2714                           intcon	equ	0xFF2
  2715                           intcon2	equ	0xFF1
  2716                           intcon3	equ	0xFF0
  2717                           postinc0	equ	0xFEE
  2718                           wreg	equ	0xFE8
  2719                           indf1	equ	0xFE7
  2720                           postdec1	equ	0xFE5
  2721                           plusw1	equ	0xFE3
  2722                           fsr1h	equ	0xFE2
  2723                           fsr1l	equ	0xFE1
  2724                           indf2	equ	0xFDF
  2725                           postinc2	equ	0xFDE
  2726                           postdec2	equ	0xFDD
  2727                           plusw2	equ	0xFDB
  2728                           fsr2h	equ	0xFDA
  2729                           fsr2l	equ	0xFD9
  2730                           status	equ	0xFD8
  2731                           
  2732 ;; *************** function _lcd_send_byte *****************
  2733 ;; Defined at:
  2734 ;;		line 926 in file "prog.c"
  2735 ;; Parameters:    Size  Location     Type
  2736 ;;  data            1    wreg     unsigned char 
  2737 ;; Auto vars:     Size  Location     Type
  2738 ;;  data            1   31[COMRAM] unsigned char 
  2739 ;; Return value:  Size  Location     Type
  2740 ;;                  1    wreg      void 
  2741 ;; Registers used:
  2742 ;;		wreg, status,2, status,0, prodl, prodh, cstack
  2743 ;; Tracked objects:
  2744 ;;		On entry : 0/1
  2745 ;;		On exit  : 0/0
  2746 ;;		Unchanged: 0/0
  2747 ;; Data sizes:     COMRAM   BANK0   BANK1   BANK2   BANK3   BANK4   BANK5   BANK6   BANK7   BANK8   BANK9  BANK10  BANK1
      +1  BANK12  BANK13  BANK14  BANK15
  2748 ;;      Params:         0       0       0       0       0       0       0       0       0       0       0       0       
      +0       0       0       0       0
  2749 ;;      Locals:         1       0       0       0       0       0       0       0       0       0       0       0       
      +0       0       0       0       0
  2750 ;;      Temps:          0       0       0       0       0       0       0       0       0       0       0       0       
      +0       0       0       0       0
  2751 ;;      Totals:         1       0       0       0       0       0       0       0       0       0       0       0       
      +0       0       0       0       0
  2752 ;;Total ram usage:        1 bytes
  2753 ;; Hardware stack levels used:    1
  2754 ;; Hardware stack levels required when called:    5
  2755 ;; This function calls:
  2756 ;;		_lcd_send_initial_half_byte
  2757 ;; This function is called by:
  2758 ;;		_lcd_off
  2759 ;;		_lcd_on
  2760 ;;		_lcd_init
  2761 ;; This function uses a non-reentrant model
  2762 ;;
  2763                           
  2764                           	psect	text5
  2765  003B12                     __ptext5:
  2766                           	opt stack 0
  2767  003B12                     _lcd_send_byte:
  2768                           	opt stack 23
  2769                           
  2770                           ;incstack = 0
  2771                           ;lcd_send_byte@data stored from wreg
  2772  003B12  6E20               	movwf	lcd_send_byte@data,c
  2773                           
  2774                           ;prog.c: 927: lcd_send_initial_half_byte((data & 0b11110000) / 16);
  2775  003B14  3820               	swapf	lcd_send_byte@data,w,c
  2776  003B16  0B0F               	andlw	15
  2777  003B18  EC14  F01D         	call	_lcd_send_initial_half_byte
  2778                           
  2779                           ;prog.c: 928: _delay((unsigned long)((40)*(39400000/4000000.0)));
  2780  003B1C  0E83               	movlw	131
  2781  003B1E                     u7517:
  2782  003B1E  2EE8               	decfsz	wreg,f,c
  2783  003B20  D7FE               	goto	u7517
  2784  003B22  F000               	nop	
  2785                           
  2786                           ;prog.c: 929: lcd_send_initial_half_byte(data & 0b00001111);
  2787  003B24  5020               	movf	lcd_send_byte@data,w,c
  2788  003B26  0B0F               	andlw	15
  2789  003B28  EC14  F01D         	call	_lcd_send_initial_half_byte
  2790                           
  2791                           ;prog.c: 930: _delay((unsigned long)((40)*(39400000/4000000.0)));
  2792  003B2C  0E83               	movlw	131
  2793  003B2E                     u7527:
  2794  003B2E  2EE8               	decfsz	wreg,f,c
  2795  003B30  D7FE               	goto	u7527
  2796  003B32  F000               	nop	
  2797  003B34  0012               	return		;funcret
  2798  003B36                     __end_of_lcd_send_byte:
  2799                           	opt stack 0
  2800                           tblptru	equ	0xFF8
  2801                           tblptrh	equ	0xFF7
  2802                           tblptrl	equ	0xFF6
  2803                           tablat	equ	0xFF5
  2804                           prodh	equ	0xFF4
  2805                           prodl	equ	0xFF3
  2806                           intcon	equ	0xFF2
  2807                           intcon2	equ	0xFF1
  2808                           intcon3	equ	0xFF0
  2809                           postinc0	equ	0xFEE
  2810                           wreg	equ	0xFE8
  2811                           indf1	equ	0xFE7
  2812                           postdec1	equ	0xFE5
  2813                           plusw1	equ	0xFE3
  2814                           fsr1h	equ	0xFE2
  2815                           fsr1l	equ	0xFE1
  2816                           indf2	equ	0xFDF
  2817                           postinc2	equ	0xFDE
  2818                           postdec2	equ	0xFDD
  2819                           plusw2	equ	0xFDB
  2820                           fsr2h	equ	0xFDA
  2821                           fsr2l	equ	0xFD9
  2822                           status	equ	0xFD8
  2823                           
  2824 ;; *************** function _lcd_send_initial_half_byte *****************
  2825 ;; Defined at:
  2826 ;;		line 919 in file "prog.c"
  2827 ;; Parameters:    Size  Location     Type
  2828 ;;  data            1    wreg     unsigned char 
  2829 ;; Auto vars:     Size  Location     Type
  2830 ;;  data            1   28[COMRAM] unsigned char 
  2831 ;; Return value:  Size  Location     Type
  2832 ;;                  1    wreg      void 
  2833 ;; Registers used:
  2834 ;;		wreg, status,2, status,0, prodl, prodh
  2835 ;; Tracked objects:
  2836 ;;		On entry : 0/1
  2837 ;;		On exit  : 0/0
  2838 ;;		Unchanged: 0/0
  2839 ;; Data sizes:     COMRAM   BANK0   BANK1   BANK2   BANK3   BANK4   BANK5   BANK6   BANK7   BANK8   BANK9  BANK10  BANK1
      +1  BANK12  BANK13  BANK14  BANK15
  2840 ;;      Params:         0       0       0       0       0       0       0       0       0       0       0       0       
      +0       0       0       0       0
  2841 ;;      Locals:         3       0       0       0       0       0       0       0       0       0       0       0       
      +0       0       0       0       0
  2842 ;;      Temps:          0       0       0       0       0       0       0       0       0       0       0       0       
      +0       0       0       0       0
  2843 ;;      Totals:         3       0       0       0       0       0       0       0       0       0       0       0       
      +0       0       0       0       0
  2844 ;;Total ram usage:        3 bytes
  2845 ;; Hardware stack levels used:    1
  2846 ;; Hardware stack levels required when called:    4
  2847 ;; This function calls:
  2848 ;;		Nothing
  2849 ;; This function is called by:
  2850 ;;		_lcd_send_byte
  2851 ;;		_lcd_init
  2852 ;; This function uses a non-reentrant model
  2853 ;;
  2854                           
  2855                           	psect	text6
  2856  003A28                     __ptext6:
  2857                           	opt stack 0
  2858  003A28                     _lcd_send_initial_half_byte:
  2859                           	opt stack 23
  2860                           
  2861                           ;incstack = 0
  2862                           ;lcd_send_initial_half_byte@data stored from wreg
  2863  003A28  6E1D               	movwf	lcd_send_initial_half_byte@data,c
  2864                           
  2865                           ;prog.c: 920: RC2 = 0;
  2866  003A2A  9482               	bcf	3970,2,c	;volatile
  2867                           
  2868                           ;prog.c: 921: PORTA = (0b00011110 & (data * 2)) | (flags.LCD_Light_On == 1 ? 0b00100000 
      +                          : 0b00000000);
  2869  003A2C  BA57               	btfsc	_flags,5,c
  2870  003A2E  D003               	goto	l5117
  2871  003A30  6A1E               	clrf	_lcd_send_initial_half_byte$1058,c
  2872  003A32  6A1F               	clrf	_lcd_send_initial_half_byte$1058+1,c
  2873  003A34  D003               	goto	l5119
  2874  003A36                     l5117:
  2875  003A36  6A1F               	clrf	_lcd_send_initial_half_byte$1058+1,c
  2876  003A38  0E20               	movlw	32
  2877  003A3A  6E1E               	movwf	_lcd_send_initial_half_byte$1058,c
  2878  003A3C                     l5119:
  2879  003A3C  501D               	movf	lcd_send_initial_half_byte@data,w,c
  2880  003A3E  0D02               	mullw	2
  2881  003A40  50F3               	movf	prodl,w,c
  2882  003A42  0B1E               	andlw	30
  2883  003A44  101E               	iorwf	_lcd_send_initial_half_byte$1058,w,c
  2884                           
  2885                           ;prog.c: 922: RC0 = 1;
  2886                           
  2887                           ;prog.c: 923: RC0 = 0;
  2888  003A46  D000               	goto	PL130	;call to abstracted procedure
  2889  003A48                     __end_of_lcd_send_initial_half_byte:
  2890                           	opt stack 0
  2891  003A48                     PL130:
  2892                           	opt stack 18
  2893  003A48  6E80               	movwf	3968,c	;volatile
  2894  003A4A  8082               	bsf	3970,0,c	;volatile
  2895  003A4C  9082               	bcf	3970,0,c	;volatile
  2896  003A4E  0012               	return		;funcret
  2897  003A50                     __end_ofPL130:
  2898                           	opt stack 0
  2899                           tblptru	equ	0xFF8
  2900                           tblptrh	equ	0xFF7
  2901                           tblptrl	equ	0xFF6
  2902                           tablat	equ	0xFF5
  2903                           prodh	equ	0xFF4
  2904                           prodl	equ	0xFF3
  2905                           intcon	equ	0xFF2
  2906                           intcon2	equ	0xFF1
  2907                           intcon3	equ	0xFF0
  2908                           postinc0	equ	0xFEE
  2909                           wreg	equ	0xFE8
  2910                           indf1	equ	0xFE7
  2911                           postdec1	equ	0xFE5
  2912                           plusw1	equ	0xFE3
  2913                           fsr1h	equ	0xFE2
  2914                           fsr1l	equ	0xFE1
  2915                           indf2	equ	0xFDF
  2916                           postinc2	equ	0xFDE
  2917                           postdec2	equ	0xFDD
  2918                           plusw2	equ	0xFDB
  2919                           fsr2h	equ	0xFDA
  2920                           fsr2l	equ	0xFD9
  2921                           status	equ	0xFD8
  2922                           
  2923 ;; *************** function _TimeToInd *****************
  2924 ;; Defined at:
  2925 ;;		line 451 in file "prog.c"
  2926 ;; Parameters:    Size  Location     Type
  2927 ;;		None
  2928 ;; Auto vars:     Size  Location     Type
  2929 ;;  SignalOn        1   49[BANK1 ] unsigned char 
  2930 ;;  d               1   52[BANK1 ] unsigned char 
  2931 ;;  SignalOn        1   51[BANK1 ] unsigned char 
  2932 ;;  i               1   70[BANK1 ] unsigned char 
  2933 ;;  DataArrayOfL   13    8[BANK1 ] unsigned char [13]
  2934 ;;  j2              2   73[BANK1 ] int 
  2935 ;;  CellsNumber     1   72[BANK1 ] unsigned char 
  2936 ;;  i               1   71[BANK1 ] unsigned char 
  2937 ;;  D               4   59[BANK1 ] unsigned char [4]
  2938 ;;  DataArray      17   30[BANK1 ] unsigned char [17]
  2939 ;;  CellsData       8    0[BANK1 ] unsigned char [8]
  2940 ;;  Data            4   66[BANK1 ] unsigned long 
  2941 ;;  Time            2   78[BANK1 ] unsigned int 
  2942 ;;  TimeStop        2   76[BANK1 ] unsigned int 
  2943 ;;  TimeStart       2   47[BANK1 ] unsigned int 
  2944 ;;  Signals         1   65[BANK1 ] unsigned char 
  2945 ;;  Day             1   64[BANK1 ] unsigned char 
  2946 ;;  DataArray2      1   63[BANK1 ] PTR unsigned char 
  2947 ;;		 -> STR_8(3), STR_7(3), STR_6(3), STR_5(3), 
  2948 ;;		 -> STR_4(3), STR_3(3), STR_2(3), STR_1(3), 
  2949 ;;  line            1   58[BANK1 ] unsigned char 
  2950 ;;  Days            1   57[BANK1 ] unsigned char 
  2951 ;;  TimeData        9   21[BANK1 ] unsigned char [9]
  2952 ;;  temp            4   80[BANK1 ] long 
  2953 ;;  SignalsFinal    1   75[BANK1 ] unsigned char 
  2954 ;;  day             1   50[BANK1 ] unsigned char 
  2955 ;; Return value:  Size  Location     Type
  2956 ;;                  1    wreg      void 
  2957 ;; Registers used:
  2958 ;;		wreg, fsr1l, fsr1h, fsr2l, fsr2h, status,2, status,0, tblptrl, tblptrh, tblptru, prodl, prodh, cstack
  2959 ;; Tracked objects:
  2960 ;;		On entry : 0/0
  2961 ;;		On exit  : 0/0
  2962 ;;		Unchanged: 0/0
  2963 ;; Data sizes:     COMRAM   BANK0   BANK1   BANK2   BANK3   BANK4   BANK5   BANK6   BANK7   BANK8   BANK9  BANK10  BANK1
      +1  BANK12  BANK13  BANK14  BANK15
  2964 ;;      Params:         0       0       0       0       0       0       0       0       0       0       0       0       
      +0       0       0       0       0
  2965 ;;      Locals:         0       0      84       0       0       0       0       0       0       0       0       0       
      +0       0       0       0       0
  2966 ;;      Temps:          2       0       0       0       0       0       0       0       0       0       0       0       
      +0       0       0       0       0
  2967 ;;      Totals:         2       0      84       0       0       0       0       0       0       0       0       0       
      +0       0       0       0       0
  2968 ;;Total ram usage:       86 bytes
  2969 ;; Hardware stack levels used:    1
  2970 ;; Hardware stack levels required when called:   11
  2971 ;; This function calls:
  2972 ;;		_FindNextTimeStart
  2973 ;;		_GetDayOfWeek
  2974 ;;		_ParseDataRecord
  2975 ;;		_ParseTime
  2976 ;;		_ReadDataOfCell
  2977 ;;		_Scheduler
  2978 ;;		___aldiv
  2979 ;;		___almod
  2980 ;;		___lbdiv
  2981 ;;		___lbmod
  2982 ;;		___lwdiv
  2983 ;;		___lwmod
  2984 ;;		_clrInd
  2985 ;;		_getNumChar
  2986 ;;		_outputString
  2987 ;; This function is called by:
  2988 ;;		_main2
  2989 ;; This function uses a non-reentrant model
  2990 ;;
  2991                           
  2992                           	psect	text7
  2993  001056                     __ptext7:
  2994                           	opt stack 0
  2995  001056                     _TimeToInd:
  2996                           	opt stack 18
  2997                           
  2998                           ;prog.c: 453: if (KeyCode == 38 && (AdressOfNextStartCell != (8 * 48) || flags.DetailMod
      +                          eOfViewSheduler)) {
  2999                           
  3000                           ;incstack = 0
  3001  001056  0E26               	movlw	38
  3002  001058  185B               	xorwf	_KeyCode,w,c	;volatile
  3003  00105A  E116               	bnz	l8077
  3004  00105C  0E80               	movlw	128
  3005  00105E  0101               	movlb	1	; () banked
  3006  001060  19E1               	xorwf	_AdressOfNextStartCell& (0+255),w,b
  3007  001062  E104               	bnz	l421
  3008  001064  05E2               	decf	(_AdressOfNextStartCell+1)& (0+255),w,b
  3009  001066  E102               	bnz	l421
  3010                           
  3011                           ; BSR set to: 1
  3012  001068  A057               	btfss	_flags,0,c
  3013  00106A  D00E               	goto	l8077
  3014  00106C                     l421:
  3015                           
  3016                           ; BSR set to: 1
  3017                           ;prog.c: 454: KeyCode = 0;
  3018  00106C  6A5B               	clrf	_KeyCode,c	;volatile
  3019                           
  3020                           ; BSR set to: 1
  3021                           ;prog.c: 455: clrInd();
  3022  00106E  ECC3  F01A         	call	_clrInd	;wreg free
  3023                           
  3024                           ; BSR set to: 1
  3025                           ;prog.c: 456: flags.DetailModeOfViewSheduler = !flags.DetailModeOfViewSheduler;
  3026  001072  B057               	btfsc	_flags,0,c
  3027  001074  D003               	goto	u6800
  3028  001076  6A4B               	clrf	??_TimeToInd& (0+255),c
  3029  001078  2A4B               	incf	??_TimeToInd& (0+255),f,c
  3030  00107A  D001               	goto	u6818
  3031  00107C                     u6800:
  3032  00107C  6A4B               	clrf	??_TimeToInd& (0+255),c
  3033  00107E                     u6818:
  3034  00107E  5057               	movf	_flags,w,c
  3035  001080  184B               	xorwf	??_TimeToInd,w,c
  3036  001082  0BFE               	andlw	-2
  3037  001084  184B               	xorwf	??_TimeToInd,w,c
  3038  001086  6E57               	movwf	_flags,c
  3039  001088                     l8077:
  3040                           
  3041                           ;prog.c: 457: }
  3042                           ;prog.c: 458: if (KeyCode == 45 && AdressOfNextStartCell != (8 * 48) && flags.DetailMode
      +                          OfViewSheduler) {
  3043  001088  0E2D               	movlw	45
  3044  00108A  185B               	xorwf	_KeyCode,w,c	;volatile
  3045  00108C  E10F               	bnz	l8087
  3046  00108E  0E80               	movlw	128
  3047  001090  0101               	movlb	1	; () banked
  3048  001092  19E1               	xorwf	_AdressOfNextStartCell& (0+255),w,b
  3049  001094  E102               	bnz	u6830
  3050  001096  05E2               	decf	(_AdressOfNextStartCell+1)& (0+255),w,b
  3051  001098  E009               	bz	l8087
  3052  00109A                     u6830:
  3053                           
  3054                           ; BSR set to: 1
  3055  00109A  A057               	btfss	_flags,0,c
  3056  00109C  D007               	goto	l8087
  3057                           
  3058                           ; BSR set to: 1
  3059                           ;prog.c: 459: KeyCode = 0;
  3060  00109E  6A5B               	clrf	_KeyCode,c	;volatile
  3061                           
  3062                           ; BSR set to: 1
  3063                           ;prog.c: 460: Scheduler(AdressOfNextStartCell);
  3064  0010A0  C1E1  F049         	movff	_AdressOfNextStartCell,Scheduler@StartFrom
  3065  0010A4  C1E2  F04A         	movff	_AdressOfNextStartCell+1,Scheduler@StartFrom+1
  3066  0010A8  EC2F  F014         	call	_Scheduler	;wreg free
  3067  0010AC                     l8087:
  3068                           
  3069                           ;prog.c: 461: }
  3070                           ;prog.c: 462: if (!flags.RelevanceOfNextStartCell) {
  3071  0010AC  B257               	btfsc	_flags,1,c
  3072  0010AE  D00C               	goto	l8101
  3073                           
  3074                           ;prog.c: 463: NearTimeStart = Clock;
  3075  0010B0  EC1D  F014         	call	PL38	;call to abstracted procedure
  3076                           
  3077                           ;prog.c: 464: AdressOfNextStartCell = FindNextTimeStart(&NearTimeStart);
  3078  0010B4  DAA6               	call	PL132	;call to abstracted procedure
  3079  0010B6  ECAE  F012         	call	_FindNextTimeStart	;wreg free
  3080  0010BA  DAA8               	call	PL140	;call to abstracted procedure
  3081                           
  3082                           ; BSR set to: 0
  3083                           ;prog.c: 465: if (flags.DetailModeOfViewSheduler) {
  3084  0010BC  A057               	btfss	_flags,0,c
  3085  0010BE  D003               	goto	l8099
  3086                           
  3087                           ; BSR set to: 0
  3088                           ;prog.c: 466: flags.DetailModeOfViewSheduler = 0;
  3089  0010C0  9057               	bcf	_flags,0,c
  3090                           
  3091                           ; BSR set to: 0
  3092                           ;prog.c: 467: clrInd();
  3093  0010C2  ECC3  F01A         	call	_clrInd	;wreg free
  3094  0010C6                     l8099:
  3095                           
  3096                           ;prog.c: 468: }
  3097                           ;prog.c: 469: flags.RelevanceOfNextStartCell = 1;
  3098  0010C6  8257               	bsf	_flags,1,c
  3099  0010C8                     l8101:
  3100                           
  3101                           ;prog.c: 470: }
  3102                           ;prog.c: 472: if (AdressOfNextStartCell == (8 * 48) || !flags.DetailModeOfViewSheduler) 
      +                          {
  3103  0010C8  0E80               	movlw	128
  3104  0010CA  0101               	movlb	1	; () banked
  3105  0010CC  19E1               	xorwf	_AdressOfNextStartCell& (0+255),w,b
  3106  0010CE  E102               	bnz	u6870
  3107  0010D0  05E2               	decf	(_AdressOfNextStartCell+1)& (0+255),w,b
  3108  0010D2  E002               	bz	l8105
  3109  0010D4                     u6870:
  3110                           
  3111                           ; BSR set to: 1
  3112  0010D4  B057               	btfsc	_flags,0,c
  3113  0010D6  D0EE               	goto	l8181
  3114  0010D8                     l8105:
  3115                           
  3116                           ; BSR set to: 1
  3117                           ;prog.c: 473: unsigned char SignalsFinal = CurrentSignals | SignalsForInd;
  3118  0010D8  5198               	movf	_CurrentSignals& (0+255),w,b
  3119  0010DA  1199               	iorwf	_SignalsForInd& (0+255),w,b	;volatile
  3120  0010DC  6F4B               	movwf	TimeToInd@SignalsFinal& (0+255),b
  3121                           
  3122                           ; BSR set to: 1
  3123                           ;prog.c: 474: if (flags.ModeOfFirstLine != (SignalsFinal > 0)) {
  3124  0010DE  A457               	btfss	_flags,2,c
  3125  0010E0  D003               	goto	u6890
  3126  0010E2  6A4B               	clrf	??_TimeToInd& (0+255),c
  3127  0010E4  2A4B               	incf	??_TimeToInd& (0+255),f,c
  3128  0010E6  D001               	goto	u6898
  3129  0010E8                     u6890:
  3130  0010E8  6A4B               	clrf	??_TimeToInd& (0+255),c
  3131  0010EA                     u6898:
  3132  0010EA  0101               	movlb	1	; () banked
  3133  0010EC  514B               	movf	TimeToInd@SignalsFinal& (0+255),w,b
  3134  0010EE  0E01               	movlw	1
  3135  0010F0  B4D8               	btfsc	status,2,c
  3136  0010F2  0E00               	movlw	0
  3137  0010F4  184B               	xorwf	??_TimeToInd,w,c
  3138  0010F6  E00F               	bz	l8113
  3139                           
  3140                           ; BSR set to: 1
  3141                           ;prog.c: 475: clrInd();
  3142  0010F8  ECC3  F01A         	call	_clrInd	;wreg free
  3143                           
  3144                           ; BSR set to: 1
  3145                           ;prog.c: 476: flags.ModeOfFirstLine = SignalsFinal > 0;
  3146  0010FC  514B               	movf	TimeToInd@SignalsFinal& (0+255),w,b
  3147  0010FE  E003               	bz	u6930
  3148  001100  6A4B               	clrf	??_TimeToInd& (0+255),c
  3149  001102  2A4B               	incf	??_TimeToInd& (0+255),f,c
  3150  001104  D001               	goto	u6948
  3151  001106                     u6930:
  3152  001106  6A4B               	clrf	??_TimeToInd& (0+255),c
  3153  001108                     u6948:
  3154  001108  464B               	rlncf	??_TimeToInd,f,c
  3155  00110A  464B               	rlncf	??_TimeToInd,f,c
  3156  00110C  5057               	movf	_flags,w,c
  3157  00110E  184B               	xorwf	??_TimeToInd,w,c
  3158  001110  0BFB               	andlw	-5
  3159  001112  184B               	xorwf	??_TimeToInd,w,c
  3160  001114  6E57               	movwf	_flags,c
  3161  001116                     l8113:
  3162                           
  3163                           ;prog.c: 477: }
  3164                           ;prog.c: 478: if (SignalsFinal > 0) {
  3165  001116  0101               	movlb	1	; () banked
  3166  001118  514B               	movf	TimeToInd@SignalsFinal& (0+255),w,b
  3167  00111A  E026               	bz	l8135
  3168                           
  3169                           ; BSR set to: 1
  3170                           ;prog.c: 480: unsigned char D [] = "   ";
  3171  00111C  C1DD  F13B         	movff	TimeToInd@F2928,TimeToInd@D
  3172  001120  C1DE  F13C         	movff	TimeToInd@F2928+1,TimeToInd@D+1
  3173  001124  C1DF  F13D         	movff	TimeToInd@F2928+2,TimeToInd@D+2
  3174  001128  C1E0  F13E         	movff	TimeToInd@F2928+3,TimeToInd@D+3
  3175                           
  3176                           ; BSR set to: 1
  3177                           ;prog.c: 481: for (unsigned char i = 1; i < 4; i++) {
  3178  00112C  0E01               	movlw	1
  3179  00112E  6F46               	movwf	TimeToInd@i& (0+255),b
  3180  001130                     l8123:
  3181                           
  3182                           ; BSR set to: 1
  3183                           ;prog.c: 482: unsigned char SignalOn = SignalsFinal % 2;
  3184  001130  514B               	movf	TimeToInd@SignalsFinal& (0+255),w,b
  3185  001132  0B01               	andlw	1
  3186  001134  6F31               	movwf	TimeToInd@SignalOn& (0+255),b
  3187                           
  3188                           ;prog.c: 483: SignalsFinal /= 2;
  3189  001136  90D8               	bcf	status,0,c
  3190  001138  334B               	rrcf	TimeToInd@SignalsFinal& (0+255),f,b
  3191                           
  3192                           ;prog.c: 484: if (SignalOn == 1) {
  3193  00113A  0531               	decf	TimeToInd@SignalOn& (0+255),w,b
  3194  00113C  E109               	bnz	l8129
  3195                           
  3196                           ; BSR set to: 1
  3197                           ;prog.c: 485: D[0] = D[1];
  3198  00113E  C13C  F13B         	movff	TimeToInd@D+1,TimeToInd@D
  3199                           
  3200                           ;prog.c: 486: D[1] = D[2];
  3201  001142  C13D  F13C         	movff	TimeToInd@D+2,TimeToInd@D+1
  3202                           
  3203                           ; BSR set to: 1
  3204                           ;prog.c: 487: D[2] = getNumChar(i);
  3205  001146  5146               	movf	TimeToInd@i& (0+255),w,b
  3206  001148  EC2E  F01A         	call	_getNumChar
  3207  00114C  0101               	movlb	1	; () banked
  3208  00114E  6F3D               	movwf	(TimeToInd@D+2)& (0+255),b
  3209  001150                     l8129:
  3210                           
  3211                           ; BSR set to: 1
  3212  001150  2B46               	incf	TimeToInd@i& (0+255),f,b
  3213                           
  3214                           ; BSR set to: 1
  3215  001152  0E03               	movlw	3
  3216  001154  6546               	cpfsgt	TimeToInd@i& (0+255),b
  3217  001156  D7EC               	goto	l8123
  3218                           
  3219                           ; BSR set to: 1
  3220                           ;prog.c: 488: }
  3221                           ;prog.c: 489: }
  3222                           ;prog.c: 490: outputString(D, 0, 13);
  3223  001158  0E3B               	movlw	low TimeToInd@D
  3224  00115A  6E2D               	movwf	outputString@stringData,c
  3225  00115C  0E01               	movlw	high TimeToInd@D
  3226  00115E  6E2E               	movwf	outputString@stringData+1,c
  3227  001160  ECAA  F012         	call	PL158	;call to abstracted procedure
  3228  001164  ECAD  F017         	call	_outputString	;wreg free
  3229  001168                     l8135:
  3230                           
  3231                           ;prog.c: 491: }
  3232                           ;prog.c: 493: unsigned char TimeData [] = "--:--:--";
  3233  001168  EE21  F0D4         	lfsr	2,TimeToInd@F2932
  3234  00116C  EE11  F015         	lfsr	1,TimeToInd@TimeData
  3235  001170  0E08               	movlw	8
  3236  001172                     u6981:
  3237  001172  CFDB FFE3          	movff	plusw2,plusw1
  3238  001176  06E8               	decf	wreg,f,c
  3239  001178  E2FC               	bc	u6981
  3240                           
  3241                           ;prog.c: 494: long int temp = Clock / 100;
  3242  00117A  DA1C               	call	PL66	;call to abstracted procedure
  3243  00117C  0E64               	movlw	100
  3244  00117E  DA10               	call	PL28	;call to abstracted procedure
  3245  001180  EC5B  F016         	call	___aldiv	;wreg free
  3246                           
  3247                           ;prog.c: 495: TimeData[7] = getNumChar(temp % 10);
  3248  001184  D9E0               	call	PL2	;call to abstracted procedure
  3249  001186  0E0A               	movlw	10
  3250  001188  DA10               	call	PL32	;call to abstracted procedure
  3251  00118A  EC60  F017         	call	___almod	;wreg free
  3252  00118E  501D               	movf	?___almod,w,c
  3253  001190  EC2E  F01A         	call	_getNumChar
  3254  001194  0101               	movlb	1	; () banked
  3255  001196  6F1C               	movwf	(TimeToInd@TimeData+7)& (0+255),b
  3256                           
  3257                           ; BSR set to: 1
  3258                           ;prog.c: 496: temp /= 10;
  3259  001198  D9E7               	call	PL6	;call to abstracted procedure
  3260  00119A  0E0A               	movlw	10
  3261  00119C  DA01               	call	PL28	;call to abstracted procedure
  3262  00119E  EC5B  F016         	call	___aldiv	;wreg free
  3263                           
  3264                           ;prog.c: 497: TimeData[6] = getNumChar(temp % 6);
  3265  0011A2  D9D1               	call	PL2	;call to abstracted procedure
  3266  0011A4  0E06               	movlw	6
  3267  0011A6  DA01               	call	PL32	;call to abstracted procedure
  3268  0011A8  EC60  F017         	call	___almod	;wreg free
  3269  0011AC  501D               	movf	?___almod,w,c
  3270  0011AE  EC2E  F01A         	call	_getNumChar
  3271  0011B2  0101               	movlb	1	; () banked
  3272  0011B4  6F1B               	movwf	(TimeToInd@TimeData+6)& (0+255),b
  3273                           
  3274                           ; BSR set to: 1
  3275                           ;prog.c: 498: temp /= 6;
  3276  0011B6  D9D8               	call	PL6	;call to abstracted procedure
  3277  0011B8  0E06               	movlw	6
  3278  0011BA  D9F2               	call	PL28	;call to abstracted procedure
  3279  0011BC  EC5B  F016         	call	___aldiv	;wreg free
  3280                           
  3281                           ;prog.c: 499: TimeData[4] = getNumChar(temp % 10);
  3282  0011C0  D9C2               	call	PL2	;call to abstracted procedure
  3283  0011C2  0E0A               	movlw	10
  3284  0011C4  D9F2               	call	PL32	;call to abstracted procedure
  3285  0011C6  EC60  F017         	call	___almod	;wreg free
  3286  0011CA  501D               	movf	?___almod,w,c
  3287  0011CC  EC2E  F01A         	call	_getNumChar
  3288  0011D0  0101               	movlb	1	; () banked
  3289  0011D2  6F19               	movwf	(TimeToInd@TimeData+4)& (0+255),b
  3290                           
  3291                           ; BSR set to: 1
  3292                           ;prog.c: 500: temp /= 10;
  3293  0011D4  D9C9               	call	PL6	;call to abstracted procedure
  3294  0011D6  0E0A               	movlw	10
  3295  0011D8  D9E3               	call	PL28	;call to abstracted procedure
  3296  0011DA  EC5B  F016         	call	___aldiv	;wreg free
  3297                           
  3298                           ;prog.c: 501: TimeData[3] = getNumChar(temp % 6);
  3299  0011DE  D9B3               	call	PL2	;call to abstracted procedure
  3300  0011E0  0E06               	movlw	6
  3301  0011E2  D9E3               	call	PL32	;call to abstracted procedure
  3302  0011E4  EC60  F017         	call	___almod	;wreg free
  3303  0011E8  501D               	movf	?___almod,w,c
  3304  0011EA  EC2E  F01A         	call	_getNumChar
  3305  0011EE  0101               	movlb	1	; () banked
  3306  0011F0  6F18               	movwf	(TimeToInd@TimeData+3)& (0+255),b
  3307                           
  3308                           ; BSR set to: 1
  3309                           ;prog.c: 502: temp /= 6;
  3310  0011F2  D9BA               	call	PL6	;call to abstracted procedure
  3311  0011F4  0E06               	movlw	6
  3312  0011F6  D9D4               	call	PL28	;call to abstracted procedure
  3313  0011F8  EC5B  F016         	call	___aldiv	;wreg free
  3314  0011FC  C01D  F150         	movff	?___aldiv,TimeToInd@temp
  3315  001200  C01E  F151         	movff	?___aldiv+1,TimeToInd@temp+1
  3316  001204  C01F  F152         	movff	?___aldiv+2,TimeToInd@temp+2
  3317  001208  C020  F153         	movff	?___aldiv+3,TimeToInd@temp+3
  3318                           
  3319                           ;prog.c: 503: unsigned char day = temp / 24 + 1;
  3320  00120C  D9AD               	call	PL6	;call to abstracted procedure
  3321  00120E  0E18               	movlw	24
  3322  001210  D9C7               	call	PL28	;call to abstracted procedure
  3323  001212  EC5B  F016         	call	___aldiv	;wreg free
  3324  001216  281D               	incf	?___aldiv,w,c
  3325  001218  0101               	movlb	1	; () banked
  3326  00121A  6F32               	movwf	TimeToInd@day& (0+255),b
  3327                           
  3328                           ; BSR set to: 1
  3329                           ;prog.c: 504: temp %= 24;
  3330  00121C  D9AE               	call	PL8	;call to abstracted procedure
  3331  00121E  0E18               	movlw	24
  3332  001220  D9C4               	call	PL32	;call to abstracted procedure
  3333  001222  EC60  F017         	call	___almod	;wreg free
  3334  001226  C01D  F150         	movff	?___almod,TimeToInd@temp
  3335  00122A  C01E  F151         	movff	?___almod+1,TimeToInd@temp+1
  3336  00122E  C01F  F152         	movff	?___almod+2,TimeToInd@temp+2
  3337  001232  C020  F153         	movff	?___almod+3,TimeToInd@temp+3
  3338                           
  3339                           ;prog.c: 505: TimeData[1] = getNumChar(temp % 10);
  3340  001236  D9A1               	call	PL8	;call to abstracted procedure
  3341  001238  0E0A               	movlw	10
  3342  00123A  D9B7               	call	PL32	;call to abstracted procedure
  3343  00123C  EC60  F017         	call	___almod	;wreg free
  3344  001240  501D               	movf	?___almod,w,c
  3345  001242  EC2E  F01A         	call	_getNumChar
  3346  001246  0101               	movlb	1	; () banked
  3347  001248  6F16               	movwf	(TimeToInd@TimeData+1)& (0+255),b
  3348                           
  3349                           ; BSR set to: 1
  3350                           ;prog.c: 506: TimeData[0] = getNumChar(temp / 10);
  3351  00124A  D98E               	call	PL6	;call to abstracted procedure
  3352  00124C  0E0A               	movlw	10
  3353  00124E  D9A8               	call	PL28	;call to abstracted procedure
  3354  001250  EC5B  F016         	call	___aldiv	;wreg free
  3355  001254  501D               	movf	?___aldiv,w,c
  3356  001256  EC2E  F01A         	call	_getNumChar
  3357  00125A  0101               	movlb	1	; () banked
  3358  00125C  6F15               	movwf	TimeToInd@TimeData& (0+255),b
  3359                           
  3360                           ; BSR set to: 1
  3361                           ;prog.c: 508: SignalsFinal = CurrentSignals | SignalsForInd;
  3362  00125E  5198               	movf	_CurrentSignals& (0+255),w,b
  3363  001260  1199               	iorwf	_SignalsForInd& (0+255),w,b	;volatile
  3364  001262  6F4B               	movwf	TimeToInd@SignalsFinal& (0+255),b
  3365                           
  3366                           ; BSR set to: 1
  3367                           ;prog.c: 509: outputString(TimeData, 0, (SignalsFinal == 7) ? 4 : 5);
  3368  001264  0E07               	movlw	7
  3369  001266  194B               	xorwf	TimeToInd@SignalsFinal& (0+255),w,b
  3370  001268  E003               	bz	l8169
  3371                           
  3372                           ; BSR set to: 1
  3373  00126A  6B36               	clrf	(_TimeToInd$835+1)& (0+255),b
  3374  00126C  0E05               	movlw	5
  3375  00126E  D002               	goto	L3
  3376  001270                     l8169:
  3377                           
  3378                           ; BSR set to: 1
  3379  001270  6B36               	clrf	(_TimeToInd$835+1)& (0+255),b
  3380  001272  0E04               	movlw	4
  3381  001274                     L3:
  3382  001274  6F35               	movwf	_TimeToInd$835& (0+255),b
  3383                           
  3384                           ; BSR set to: 1
  3385  001276  0E15               	movlw	low TimeToInd@TimeData
  3386  001278  6E2D               	movwf	outputString@stringData,c
  3387  00127A  0E01               	movlw	high TimeToInd@TimeData
  3388  00127C  6E2E               	movwf	outputString@stringData+1,c
  3389  00127E  6A2F               	clrf	outputString@line,c
  3390  001280  C135  F030         	movff	_TimeToInd$835,outputString@position
  3391  001284  ECAD  F017         	call	_outputString	;wreg free
  3392                           
  3393                           ;prog.c: 510: outputString(GetDayOfWeek(day), 0, (SignalsFinal == 7) ? 1 : 2);
  3394  001288  0E07               	movlw	7
  3395  00128A  0101               	movlb	1	; () banked
  3396  00128C  194B               	xorwf	TimeToInd@SignalsFinal& (0+255),w,b
  3397  00128E  E003               	bz	l8177
  3398                           
  3399                           ; BSR set to: 1
  3400  001290  6B38               	clrf	(_TimeToInd$836+1)& (0+255),b
  3401  001292  0E02               	movlw	2
  3402  001294  D002               	goto	L4
  3403  001296                     l8177:
  3404                           
  3405                           ; BSR set to: 1
  3406  001296  6B38               	clrf	(_TimeToInd$836+1)& (0+255),b
  3407  001298  0E01               	movlw	1
  3408  00129A                     L4:
  3409  00129A  6F37               	movwf	_TimeToInd$836& (0+255),b
  3410                           
  3411                           ; BSR set to: 1
  3412  00129C  5132               	movf	TimeToInd@day& (0+255),w,b
  3413  00129E  ECB4  F01B         	call	_GetDayOfWeek
  3414  0012A2  6E4B               	movwf	??_TimeToInd& (0+255),c
  3415  0012A4  C04B  F02D         	movff	??_TimeToInd,outputString@stringData
  3416  0012A8  EC97  F012         	call	PL54	;call to abstracted procedure
  3417  0012AC  C137  F030         	movff	_TimeToInd$836,outputString@position
  3418  0012B0  ECAD  F017         	call	_outputString	;wreg free
  3419  0012B4                     l8181:
  3420                           
  3421                           ;prog.c: 511: }
  3422                           ;prog.c: 513: if (flags.LockSignals && !flags.DetailModeOfViewSheduler) {
  3423  0012B4  BE57               	btfsc	_flags,7,c
  3424  0012B6  B057               	btfsc	_flags,0,c
  3425  0012B8  D002               	goto	l8189
  3426                           
  3427                           ;prog.c: 514: outputString(" .", 1, 0);
  3428  0012BA  0E12               	movlw	low STR_9
  3429  0012BC  D13A               	goto	L23
  3430  0012BE                     l8189:
  3431                           
  3432                           ;prog.c: 516: }
  3433                           ;prog.c: 518: if (AdressOfNextStartCell != (8 * 48)) {
  3434  0012BE  0E80               	movlw	128
  3435  0012C0  0101               	movlb	1	; () banked
  3436  0012C2  19E1               	xorwf	_AdressOfNextStartCell& (0+255),w,b
  3437  0012C4  E103               	bnz	u7030
  3438  0012C6  05E2               	decf	(_AdressOfNextStartCell+1)& (0+255),w,b
  3439  0012C8  E101 D12D          	bz	l447
  3440  0012CC                     u7030:
  3441                           
  3442                           ; BSR set to: 1
  3443                           ;prog.c: 520: unsigned char DataArray[] = "                ";
  3444  0012CC  EE21  F09E         	lfsr	2,TimeToInd@F2936
  3445  0012D0  EE11  F01E         	lfsr	1,TimeToInd@DataArray
  3446  0012D4  0E10               	movlw	16
  3447  0012D6                     u7041:
  3448  0012D6  CFDB FFE3          	movff	plusw2,plusw1
  3449  0012DA  06E8               	decf	wreg,f,c
  3450  0012DC  E2FC               	bc	u7041
  3451                           
  3452                           ; BSR set to: 1
  3453                           ;prog.c: 521: DataArray[0] = '';
  3454  0012DE  0EA5               	movlw	165
  3455  0012E0  6F1E               	movwf	TimeToInd@DataArray& (0+255),b
  3456                           
  3457                           ; BSR set to: 1
  3458                           ;prog.c: 523: char line = 1;
  3459  0012E2  0E01               	movlw	1
  3460  0012E4  6F3A               	movwf	TimeToInd@line& (0+255),b
  3461                           
  3462                           ; BSR set to: 1
  3463                           ;prog.c: 524: if (flags.DetailModeOfViewSheduler) {
  3464  0012E6  A057               	btfss	_flags,0,c
  3465  0012E8  D003               	goto	l8203
  3466                           
  3467                           ; BSR set to: 1
  3468                           ;prog.c: 525: line = 0;
  3469  0012EA  6B3A               	clrf	TimeToInd@line& (0+255),b
  3470                           
  3471                           ; BSR set to: 1
  3472                           ;prog.c: 526: DataArray[5] = '';
  3473  0012EC  0EF1               	movlw	241
  3474  0012EE  6F23               	movwf	(TimeToInd@DataArray+5)& (0+255),b
  3475  0012F0                     l8203:
  3476                           
  3477                           ; BSR set to: 1
  3478                           ;prog.c: 527: }
  3479                           ;prog.c: 529: unsigned long int Data = 0;
  3480  0012F0  6B42               	clrf	TimeToInd@Data& (0+255),b
  3481  0012F2  6B43               	clrf	(TimeToInd@Data+1)& (0+255),b
  3482  0012F4  6B44               	clrf	(TimeToInd@Data+2)& (0+255),b
  3483  0012F6  6B45               	clrf	(TimeToInd@Data+3)& (0+255),b
  3484                           
  3485                           ; BSR set to: 1
  3486                           ;prog.c: 530: unsigned char CellsData [8];
  3487                           ;prog.c: 531: ReadDataOfCell(&CellsData, &Data, AdressOfNextStartCell);
  3488  0012F8  0E00               	movlw	low TimeToInd@CellsData
  3489  0012FA  6E2A               	movwf	ReadDataOfCell@CellsData,c
  3490  0012FC  0E01               	movlw	high TimeToInd@CellsData
  3491  0012FE  6E2B               	movwf	ReadDataOfCell@CellsData+1,c
  3492  001300  0E42               	movlw	low TimeToInd@Data
  3493  001302  6E2C               	movwf	ReadDataOfCell@Data,c
  3494  001304  0E01               	movlw	high TimeToInd@Data
  3495  001306  6E2D               	movwf	ReadDataOfCell@Data+1,c
  3496  001308  C1E1  F02E         	movff	_AdressOfNextStartCell,ReadDataOfCell@TargetAdress
  3497  00130C  C1E2  F02F         	movff	_AdressOfNextStartCell+1,ReadDataOfCell@TargetAdress+1
  3498  001310  EC3F  F018         	call	_ReadDataOfCell	;wreg free
  3499                           
  3500                           ;prog.c: 533: unsigned int TimeStart;
  3501                           ;prog.c: 534: unsigned int TimeStop;
  3502                           ;prog.c: 535: unsigned char Days;
  3503                           ;prog.c: 536: unsigned char Signals;
  3504                           ;prog.c: 537: ParseDataRecord(Data, &TimeStart, &TimeStop, &Days, &Signals);
  3505  001314  C142  F01D         	movff	TimeToInd@Data,ParseDataRecord@Data
  3506  001318  C143  F01E         	movff	TimeToInd@Data+1,ParseDataRecord@Data+1
  3507  00131C  C144  F01F         	movff	TimeToInd@Data+2,ParseDataRecord@Data+2
  3508  001320  C145  F020         	movff	TimeToInd@Data+3,ParseDataRecord@Data+3
  3509  001324  0E2F               	movlw	low TimeToInd@TimeStart
  3510  001326  6E21               	movwf	ParseDataRecord@TimeStart,c
  3511  001328  0E01               	movlw	high TimeToInd@TimeStart
  3512  00132A  6E22               	movwf	ParseDataRecord@TimeStart+1,c
  3513  00132C  0E4C               	movlw	low TimeToInd@TimeStop
  3514  00132E  6E23               	movwf	ParseDataRecord@TimeStop,c
  3515  001330  0E01               	movlw	high TimeToInd@TimeStop
  3516  001332  6E24               	movwf	ParseDataRecord@TimeStop+1,c
  3517  001334  0E39               	movlw	low TimeToInd@Days
  3518  001336  6E25               	movwf	ParseDataRecord@Days,c
  3519  001338  0E01               	movlw	high TimeToInd@Days
  3520  00133A  6E26               	movwf	ParseDataRecord@Days+1,c
  3521  00133C  0E41               	movlw	low TimeToInd@Signals
  3522  00133E  6E27               	movwf	ParseDataRecord@Signals,c
  3523  001340  0E01               	movlw	high TimeToInd@Signals
  3524  001342  6E28               	movwf	ParseDataRecord@Signals+1,c
  3525  001344  EC0C  F019         	call	_ParseDataRecord	;wreg free
  3526                           
  3527                           ;prog.c: 539: unsigned int Time;
  3528                           ;prog.c: 540: unsigned char Day;
  3529                           ;prog.c: 541: ParseTime(NearTimeStart, &Time, &Day);
  3530  001348  C19A  F02B         	movff	_NearTimeStart,ParseTime@TimeValue
  3531  00134C  C19B  F02C         	movff	_NearTimeStart+1,ParseTime@TimeValue+1
  3532  001350  C19C  F02D         	movff	_NearTimeStart+2,ParseTime@TimeValue+2
  3533  001354  C19D  F02E         	movff	_NearTimeStart+3,ParseTime@TimeValue+3
  3534  001358  0E4E               	movlw	low TimeToInd@Time
  3535  00135A  6E2F               	movwf	ParseTime@Time,c
  3536  00135C  0E01               	movlw	high TimeToInd@Time
  3537  00135E  6E30               	movwf	ParseTime@Time+1,c
  3538  001360  0E40               	movlw	low TimeToInd@Day
  3539  001362  6E31               	movwf	ParseTime@Day,c
  3540  001364  0E01               	movlw	high TimeToInd@Day
  3541  001366  6E32               	movwf	ParseTime@Day+1,c
  3542  001368  ECFB  F019         	call	_ParseTime	;wreg free
  3543                           
  3544                           ;prog.c: 543: DataArray[11] = getNumChar(Time % 10);
  3545  00136C  D938               	call	PL76	;call to abstracted procedure
  3546  00136E  0E0A               	movlw	10
  3547  001370  6E1F               	movwf	___lwmod@divisor,c
  3548  001372  EC1C  F01C         	call	___lwmod	;wreg free
  3549  001376  501D               	movf	?___lwmod,w,c
  3550  001378  EC2E  F01A         	call	_getNumChar
  3551  00137C  0101               	movlb	1	; () banked
  3552  00137E  6F29               	movwf	(TimeToInd@DataArray+11)& (0+255),b
  3553                           
  3554                           ; BSR set to: 1
  3555                           ;prog.c: 544: Time /= 10;
  3556  001380  D922               	call	PL72	;call to abstracted procedure
  3557  001382  0E0A               	movlw	10
  3558  001384  6E1F               	movwf	___lwdiv@divisor,c
  3559  001386  EC8F  F01B         	call	___lwdiv	;wreg free
  3560  00138A  D945               	call	PL148	;call to abstracted procedure
  3561                           
  3562                           ;prog.c: 545: DataArray[10] = getNumChar(Time % 6);
  3563  00138C  D928               	call	PL76	;call to abstracted procedure
  3564  00138E  0E06               	movlw	6
  3565  001390  6E1F               	movwf	___lwmod@divisor,c
  3566  001392  EC1C  F01C         	call	___lwmod	;wreg free
  3567  001396  501D               	movf	?___lwmod,w,c
  3568  001398  EC2E  F01A         	call	_getNumChar
  3569  00139C  0101               	movlb	1	; () banked
  3570  00139E  6F28               	movwf	(TimeToInd@DataArray+10)& (0+255),b
  3571                           
  3572                           ; BSR set to: 1
  3573                           ;prog.c: 546: Time /= 6;
  3574  0013A0  D912               	call	PL72	;call to abstracted procedure
  3575  0013A2  0E06               	movlw	6
  3576  0013A4  6E1F               	movwf	___lwdiv@divisor,c
  3577  0013A6  EC8F  F01B         	call	___lwdiv	;wreg free
  3578  0013AA  D935               	call	PL148	;call to abstracted procedure
  3579                           
  3580                           ;prog.c: 547: DataArray[9] = ':';
  3581  0013AC  0E3A               	movlw	58
  3582  0013AE  0101               	movlb	1	; () banked
  3583  0013B0  6F27               	movwf	(TimeToInd@DataArray+9)& (0+255),b
  3584                           
  3585                           ; BSR set to: 1
  3586                           ;prog.c: 548: DataArray[8] = getNumChar(Time % 10);
  3587  0013B2  D915               	call	PL76	;call to abstracted procedure
  3588  0013B4  0E0A               	movlw	10
  3589  0013B6  6E1F               	movwf	___lwmod@divisor,c
  3590  0013B8  EC1C  F01C         	call	___lwmod	;wreg free
  3591  0013BC  501D               	movf	?___lwmod,w,c
  3592  0013BE  EC2E  F01A         	call	_getNumChar
  3593  0013C2  0101               	movlb	1	; () banked
  3594  0013C4  6F26               	movwf	(TimeToInd@DataArray+8)& (0+255),b
  3595                           
  3596                           ; BSR set to: 1
  3597                           ;prog.c: 549: DataArray[7] = getNumChar(Time / 10);
  3598  0013C6  D8FF               	call	PL72	;call to abstracted procedure
  3599  0013C8  0E0A               	movlw	10
  3600  0013CA  6E1F               	movwf	___lwdiv@divisor,c
  3601  0013CC  EC8F  F01B         	call	___lwdiv	;wreg free
  3602  0013D0  501D               	movf	?___lwdiv,w,c
  3603  0013D2  EC2E  F01A         	call	_getNumChar
  3604  0013D6  0101               	movlb	1	; () banked
  3605  0013D8  6F25               	movwf	(TimeToInd@DataArray+7)& (0+255),b
  3606                           
  3607                           ; BSR set to: 1
  3608                           ;prog.c: 551: for (unsigned char i = 1; i < 4; i++) {
  3609  0013DA  0E01               	movlw	1
  3610  0013DC  6F47               	movwf	TimeToInd@i_849& (0+255),b
  3611  0013DE                     l8227:
  3612                           
  3613                           ; BSR set to: 1
  3614  0013DE  0E03               	movlw	3
  3615  0013E0  6547               	cpfsgt	TimeToInd@i_849& (0+255),b
  3616  0013E2  D001               	goto	l8231
  3617  0013E4  D012               	goto	l8241
  3618  0013E6                     l8231:
  3619                           
  3620                           ; BSR set to: 1
  3621                           ;prog.c: 552: unsigned char SignalOn = Signals % 2;
  3622  0013E6  5141               	movf	TimeToInd@Signals& (0+255),w,b
  3623  0013E8  0B01               	andlw	1
  3624  0013EA  6F33               	movwf	TimeToInd@SignalOn_850& (0+255),b
  3625                           
  3626                           ;prog.c: 553: Signals /= 2;
  3627  0013EC  90D8               	bcf	status,0,c
  3628  0013EE  3341               	rrcf	TimeToInd@Signals& (0+255),f,b
  3629                           
  3630                           ;prog.c: 554: if (SignalOn == 1) {
  3631  0013F0  0533               	decf	TimeToInd@SignalOn_850& (0+255),w,b
  3632  0013F2  E109               	bnz	l8237
  3633                           
  3634                           ; BSR set to: 1
  3635                           ;prog.c: 555: DataArray[13] = DataArray[14];
  3636  0013F4  C12C  F12B         	movff	TimeToInd@DataArray+14,TimeToInd@DataArray+13
  3637                           
  3638                           ;prog.c: 556: DataArray[14] = DataArray[15];
  3639  0013F8  C12D  F12C         	movff	TimeToInd@DataArray+15,TimeToInd@DataArray+14
  3640                           
  3641                           ; BSR set to: 1
  3642                           ;prog.c: 557: DataArray[15] = getNumChar(i);
  3643  0013FC  5147               	movf	TimeToInd@i_849& (0+255),w,b
  3644  0013FE  EC2E  F01A         	call	_getNumChar
  3645  001402  0101               	movlb	1	; () banked
  3646  001404  6F2D               	movwf	(TimeToInd@DataArray+15)& (0+255),b
  3647  001406                     l8237:
  3648                           
  3649                           ; BSR set to: 1
  3650  001406  2B47               	incf	TimeToInd@i_849& (0+255),f,b
  3651  001408  D7EA               	goto	l8227
  3652  00140A                     l8241:
  3653                           
  3654                           ; BSR set to: 1
  3655                           ;prog.c: 558: }
  3656                           ;prog.c: 559: }
  3657                           ;prog.c: 561: unsigned char *DataArray2 = GetDayOfWeek(Day);
  3658  00140A  5140               	movf	TimeToInd@Day& (0+255),w,b
  3659  00140C  ECB4  F01B         	call	_GetDayOfWeek
  3660  001410  0101               	movlb	1	; () banked
  3661  001412  6F3F               	movwf	TimeToInd@DataArray2& (0+255),b
  3662                           
  3663                           ; BSR set to: 1
  3664                           ;prog.c: 562: DataArray[2] = DataArray2[0];
  3665  001414  C13F  FFF6         	movff	TimeToInd@DataArray2,tblptrl
  3666  001418                     	if	1	;There is more than 1 active tblptr byte
  3667  001418  0E10               	movlw	high __smallconst
  3668  00141A  6EF7               	movwf	tblptrh,c
  3669  00141C                     	endif
  3670  00141C                     	if	0	;tblptru may be non-zero
  3671  00141C                     	endif
  3672  00141C                     	if	0	;tblptru may be non-zero
  3673  00141C                     	endif
  3674  00141C  0008               	tblrd		*
  3675  00141E  CFF5 F120          	movff	tablat,TimeToInd@DataArray+2
  3676                           
  3677                           ; BSR set to: 1
  3678                           ;prog.c: 563: DataArray[3] = DataArray2[1];
  3679  001422  C13F  F04B         	movff	TimeToInd@DataArray2,??_TimeToInd
  3680  001426  2A4B               	incf	??_TimeToInd,f,c
  3681  001428  C04B  FFF6         	movff	??_TimeToInd,tblptrl
  3682  00142C                     	if	1	;There is more than 1 active tblptr byte
  3683  00142C                     	endif
  3684  00142C                     	if	0	;tblptru may be non-zero
  3685  00142C                     	endif
  3686  00142C                     	if	0	;tblptru may be non-zero
  3687  00142C                     	endif
  3688  00142C  0008               	tblrd		*
  3689  00142E  CFF5 F121          	movff	tablat,TimeToInd@DataArray+3
  3690                           
  3691                           ; BSR set to: 1
  3692                           ;prog.c: 565: outputString(DataArray, line, 0);
  3693  001432  0E1E               	movlw	low TimeToInd@DataArray
  3694  001434  6E2D               	movwf	outputString@stringData,c
  3695  001436  0E01               	movlw	high TimeToInd@DataArray
  3696  001438  6E2E               	movwf	outputString@stringData+1,c
  3697  00143A  C13A  F02F         	movff	TimeToInd@line,outputString@line
  3698  00143E  6A30               	clrf	outputString@position,c
  3699  001440  ECAD  F017         	call	_outputString	;wreg free
  3700                           
  3701                           ;prog.c: 567: if (flags.DetailModeOfViewSheduler) {
  3702  001444  A057               	btfss	_flags,0,c
  3703  001446  0012               	return	
  3704                           
  3705                           ;prog.c: 568: unsigned char DataArrayOfLine2[] = "    --:--";
  3706  001448  EE21  F0AF         	lfsr	2,TimeToInd@F2950
  3707  00144C  EE11  F008         	lfsr	1,TimeToInd@DataArrayOfLine2
  3708  001450  0E0C               	movlw	12
  3709  001452                     u7091:
  3710  001452  CFDB FFE3          	movff	plusw2,plusw1
  3711  001456  06E8               	decf	wreg,f,c
  3712  001458  E2FC               	bc	u7091
  3713                           
  3714                           ;prog.c: 569: int j2 = sizeof(DataArrayOfLine2)-1;
  3715  00145A  0101               	movlb	1	; () banked
  3716  00145C  6B4A               	clrf	(TimeToInd@j2+1)& (0+255),b
  3717  00145E  0E0C               	movlw	12
  3718  001460  6F49               	movwf	TimeToInd@j2& (0+255),b
  3719                           
  3720                           ; BSR set to: 1
  3721                           ;prog.c: 570: DataArrayOfLine2[--j2] = getNumChar(TimeStop % 10);
  3722  001462  D894               	call	PL18	;call to abstracted procedure
  3723  001464  D8C2               	call	PL78	;call to abstracted procedure
  3724  001466  0E0A               	movlw	10
  3725  001468  6E1F               	movwf	___lwmod@divisor,c
  3726  00146A  EC1C  F01C         	call	___lwmod	;wreg free
  3727  00146E  501D               	movf	?___lwmod,w,c
  3728  001470  EC2E  F01A         	call	_getNumChar
  3729  001474  6EDF               	movwf	indf2,c
  3730                           
  3731                           ;prog.c: 571: TimeStop /= 10;
  3732  001476  D8AD               	call	PL74	;call to abstracted procedure
  3733  001478  0E0A               	movlw	10
  3734  00147A  6E1F               	movwf	___lwdiv@divisor,c
  3735  00147C  EC8F  F01B         	call	___lwdiv	;wreg free
  3736                           
  3737                           ;prog.c: 572: DataArrayOfLine2[--j2] = getNumChar(TimeStop % 6);
  3738  001480  D8BA               	call	PL112	;call to abstracted procedure
  3739  001482  D884               	call	PL18	;call to abstracted procedure
  3740  001484  D8B2               	call	PL78	;call to abstracted procedure
  3741  001486  0E06               	movlw	6
  3742  001488  6E1F               	movwf	___lwmod@divisor,c
  3743  00148A  EC1C  F01C         	call	___lwmod	;wreg free
  3744  00148E  501D               	movf	?___lwmod,w,c
  3745  001490  EC2E  F01A         	call	_getNumChar
  3746  001494  6EDF               	movwf	indf2,c
  3747                           
  3748                           ;prog.c: 573: TimeStop /= 6;
  3749  001496  D89D               	call	PL74	;call to abstracted procedure
  3750  001498  0E06               	movlw	6
  3751  00149A  6E1F               	movwf	___lwdiv@divisor,c
  3752  00149C  EC8F  F01B         	call	___lwdiv	;wreg free
  3753                           
  3754                           ;prog.c: 574: j2--;
  3755  0014A0  D8AA               	call	PL112	;call to abstracted procedure
  3756  0014A2  0749               	decf	TimeToInd@j2& (0+255),f,b
  3757  0014A4  A0D8               	btfss	status,0,c
  3758  0014A6  074A               	decf	(TimeToInd@j2+1)& (0+255),f,b
  3759                           
  3760                           ; BSR set to: 1
  3761                           ;prog.c: 575: DataArrayOfLine2[--j2] = getNumChar(TimeStop % 10);
  3762  0014A8  D871               	call	PL18	;call to abstracted procedure
  3763  0014AA  D89F               	call	PL78	;call to abstracted procedure
  3764  0014AC  0E0A               	movlw	10
  3765  0014AE  6E1F               	movwf	___lwmod@divisor,c
  3766  0014B0  EC1C  F01C         	call	___lwmod	;wreg free
  3767  0014B4  501D               	movf	?___lwmod,w,c
  3768  0014B6  EC2E  F01A         	call	_getNumChar
  3769  0014BA  6EDF               	movwf	indf2,c
  3770                           
  3771                           ;prog.c: 576: DataArrayOfLine2[--j2] = getNumChar(TimeStop / 10);
  3772  0014BC  0101               	movlb	1	; () banked
  3773  0014BE  D866               	call	PL18	;call to abstracted procedure
  3774  0014C0  D888               	call	PL74	;call to abstracted procedure
  3775  0014C2  0E0A               	movlw	10
  3776  0014C4  6E1F               	movwf	___lwdiv@divisor,c
  3777  0014C6  EC8F  F01B         	call	___lwdiv	;wreg free
  3778  0014CA  501D               	movf	?___lwdiv,w,c
  3779  0014CC  EC2E  F01A         	call	_getNumChar
  3780  0014D0  6EDF               	movwf	indf2,c
  3781                           
  3782                           ;prog.c: 578: unsigned char CellsNumber = AdressOfNextStartCell / 8 + 1;
  3783  0014D2  C1E1  F04B         	movff	_AdressOfNextStartCell,??_TimeToInd
  3784  0014D6  C1E2  F04C         	movff	_AdressOfNextStartCell+1,??_TimeToInd+1
  3785  0014DA  90D8               	bcf	status,0,c
  3786  0014DC  324C               	rrcf	??_TimeToInd+1,f,c
  3787  0014DE  324B               	rrcf	??_TimeToInd,f,c
  3788  0014E0  90D8               	bcf	status,0,c
  3789  0014E2  324C               	rrcf	??_TimeToInd+1,f,c
  3790  0014E4  324B               	rrcf	??_TimeToInd,f,c
  3791  0014E6  90D8               	bcf	status,0,c
  3792  0014E8  324C               	rrcf	??_TimeToInd+1,f,c
  3793  0014EA  324B               	rrcf	??_TimeToInd,f,c
  3794  0014EC  284B               	incf	??_TimeToInd,w,c
  3795  0014EE  0101               	movlb	1	; () banked
  3796  0014F0  6F48               	movwf	TimeToInd@CellsNumber& (0+255),b
  3797  0014F2                     l8271:
  3798                           
  3799                           ; BSR set to: 1
  3800                           ;prog.c: 580: char d = getNumChar(CellsNumber % 10);
  3801  0014F2  0E0A               	movlw	10
  3802  0014F4  6E1D               	movwf	___lbmod@divisor,c
  3803  0014F6  5148               	movf	TimeToInd@CellsNumber& (0+255),w,b
  3804  0014F8  EC76  F01D         	call	___lbmod
  3805  0014FC  EC2E  F01A         	call	_getNumChar
  3806  001500  0101               	movlb	1	; () banked
  3807  001502  6F34               	movwf	TimeToInd@d& (0+255),b
  3808                           
  3809                           ; BSR set to: 1
  3810                           ;prog.c: 581: DataArrayOfLine2[2] = DataArrayOfLine2[1];
  3811  001504  C109  F10A         	movff	TimeToInd@DataArrayOfLine2+1,TimeToInd@DataArrayOfLine2+2
  3812                           
  3813                           ; BSR set to: 1
  3814                           ;prog.c: 582: DataArrayOfLine2[1] = d;
  3815  001508  C134  F109         	movff	TimeToInd@d,TimeToInd@DataArrayOfLine2+1
  3816                           
  3817                           ; BSR set to: 1
  3818                           ;prog.c: 583: CellsNumber /= 10;
  3819  00150C  0E0A               	movlw	10
  3820  00150E  6E1D               	movwf	___lbdiv@divisor,c
  3821  001510  5148               	movf	TimeToInd@CellsNumber& (0+255),w,b
  3822  001512  ECE2  F01C         	call	___lbdiv
  3823  001516  0101               	movlb	1	; () banked
  3824  001518  6F48               	movwf	TimeToInd@CellsNumber& (0+255),b
  3825                           
  3826                           ; BSR set to: 1
  3827                           ;prog.c: 584: } while (CellsNumber > 0);
  3828  00151A  5148               	movf	TimeToInd@CellsNumber& (0+255),w,b
  3829  00151C  E1EA               	bnz	l8271
  3830                           
  3831                           ; BSR set to: 1
  3832                           ;prog.c: 586: outputString(DataArrayOfLine2, 1, 0);
  3833  00151E  0E08               	movlw	low TimeToInd@DataArrayOfLine2
  3834  001520  6E2D               	movwf	outputString@stringData,c
  3835  001522  0E01               	movlw	high TimeToInd@DataArrayOfLine2
  3836  001524  D00A               	goto	L22
  3837  001526                     l447:
  3838                           
  3839                           ; BSR set to: 1
  3840                           ;prog.c: 589: if (flags.DetailModeOfViewSheduler) {
  3841  001526  A057               	btfss	_flags,0,c
  3842  001528  D003               	goto	l8287
  3843                           
  3844                           ; BSR set to: 1
  3845                           ;prog.c: 590: clrInd();
  3846  00152A  ECC3  F01A         	call	_clrInd	;wreg free
  3847                           
  3848                           ; BSR set to: 1
  3849                           ;prog.c: 591: flags.DetailModeOfViewSheduler = 0;
  3850  00152E  9057               	bcf	_flags,0,c
  3851  001530                     l8287:
  3852                           
  3853                           ; BSR set to: 1
  3854                           ;prog.c: 592: }
  3855                           ;prog.c: 593: outputString("                ", 1, 0);
  3856  001530  0E01               	movlw	low STR_10
  3857  001532                     L23:
  3858  001532  6E2D               	movwf	outputString@stringData,c
  3859  001534  502D               	movf	outputString@stringData,w,c
  3860  001536  A4D8               	btfss	status,2,c
  3861  001538  0E10               	movlw	high __smallconst
  3862  00153A                     L22:
  3863  00153A  6E2E               	movwf	outputString@stringData+1,c
  3864  00153C  0E01               	movlw	1
  3865  00153E  6E2F               	movwf	outputString@line,c
  3866  001540  6A30               	clrf	outputString@position,c
  3867  001542  EFAD  F017         	goto	_outputString	;wreg free
  3868  001546                     __end_of_TimeToInd:
  3869                           	opt stack 0
  3870  001546                     PL2:
  3871                           	opt stack 18
  3872  001546  C01D  F150         	movff	?___aldiv,TimeToInd@temp
  3873  00154A  C01E  F151         	movff	?___aldiv+1,TimeToInd@temp+1
  3874  00154E  C01F  F152         	movff	?___aldiv+2,TimeToInd@temp+2
  3875  001552  C020  F153         	movff	?___aldiv+3,TimeToInd@temp+3
  3876  001556  C150  F01D         	movff	TimeToInd@temp,___almod@dividend
  3877  00155A  C151  F01E         	movff	TimeToInd@temp+1,___almod@dividend+1
  3878  00155E  C152  F01F         	movff	TimeToInd@temp+2,___almod@dividend+2
  3879  001562  C153  F020         	movff	TimeToInd@temp+3,___almod@dividend+3
  3880  001566  0012               	return	
  3881  001568                     __end_ofPL2:
  3882                           	opt stack 0
  3883  001568                     PL6:
  3884                           	opt stack 18
  3885  001568  C150  F01D         	movff	TimeToInd@temp,___aldiv@dividend
  3886  00156C  C151  F01E         	movff	TimeToInd@temp+1,___aldiv@dividend+1
  3887  001570  C152  F01F         	movff	TimeToInd@temp+2,___aldiv@dividend+2
  3888  001574  C153  F020         	movff	TimeToInd@temp+3,___aldiv@dividend+3
  3889  001578  0012               	return	
  3890  00157A                     __end_ofPL6:
  3891                           	opt stack 0
  3892  00157A                     PL8:
  3893                           	opt stack 18
  3894  00157A  C150  F01D         	movff	TimeToInd@temp,___almod@dividend
  3895  00157E  C151  F01E         	movff	TimeToInd@temp+1,___almod@dividend+1
  3896  001582  C152  F01F         	movff	TimeToInd@temp+2,___almod@dividend+2
  3897  001586  C153  F020         	movff	TimeToInd@temp+3,___almod@dividend+3
  3898  00158A  0012               	return	
  3899  00158C                     __end_ofPL8:
  3900                           	opt stack 0
  3901  00158C                     PL18:
  3902                           	opt stack 18
  3903  00158C  0749               	decf	TimeToInd@j2& (0+255),f,b
  3904  00158E  A0D8               	btfss	status,0,c
  3905  001590  074A               	decf	(TimeToInd@j2+1)& (0+255),f,b
  3906  001592  0E08               	movlw	low TimeToInd@DataArrayOfLine2
  3907  001594  2549               	addwf	TimeToInd@j2& (0+255),w,b
  3908  001596  6ED9               	movwf	fsr2l,c
  3909  001598  0E01               	movlw	high TimeToInd@DataArrayOfLine2
  3910  00159A  214A               	addwfc	(TimeToInd@j2+1)& (0+255),w,b
  3911  00159C  6EDA               	movwf	fsr2h,c
  3912  00159E  0012               	return	
  3913  0015A0                     __end_ofPL18:
  3914                           	opt stack 0
  3915  0015A0                     PL28:
  3916                           	opt stack 22
  3917  0015A0  6E21               	movwf	___aldiv@divisor,c
  3918  0015A2  6A22               	clrf	___aldiv@divisor+1,c
  3919  0015A4  6A23               	clrf	___aldiv@divisor+2,c
  3920  0015A6  6A24               	clrf	___aldiv@divisor+3,c
  3921  0015A8  0012               	return	
  3922  0015AA                     __end_ofPL28:
  3923                           	opt stack 0
  3924  0015AA                     PL32:
  3925                           	opt stack 22
  3926  0015AA  6E21               	movwf	___almod@divisor,c
  3927  0015AC  6A22               	clrf	___almod@divisor+1,c
  3928  0015AE  6A23               	clrf	___almod@divisor+2,c
  3929  0015B0  6A24               	clrf	___almod@divisor+3,c
  3930  0015B2  0012               	return	
  3931  0015B4                     __end_ofPL32:
  3932                           	opt stack 0
  3933  0015B4                     PL66:
  3934                           	opt stack 22
  3935  0015B4  C194  F01D         	movff	_Clock,___aldiv@dividend
  3936  0015B8  C195  F01E         	movff	_Clock+1,___aldiv@dividend+1
  3937  0015BC  C196  F01F         	movff	_Clock+2,___aldiv@dividend+2
  3938  0015C0  C197  F020         	movff	_Clock+3,___aldiv@dividend+3
  3939  0015C4  0012               	return	
  3940  0015C6                     __end_ofPL66:
  3941                           	opt stack 0
  3942  0015C6                     PL72:
  3943                           	opt stack 18
  3944  0015C6  C14E  F01D         	movff	TimeToInd@Time,___lwdiv@dividend
  3945  0015CA  C14F  F01E         	movff	TimeToInd@Time+1,___lwdiv@dividend+1
  3946  0015CE  6A20               	clrf	___lwdiv@divisor+1,c
  3947  0015D0  0012               	return	
  3948  0015D2                     __end_ofPL72:
  3949                           	opt stack 0
  3950  0015D2                     PL74:
  3951                           	opt stack 18
  3952  0015D2  C14C  F01D         	movff	TimeToInd@TimeStop,___lwdiv@dividend
  3953  0015D6  C14D  F01E         	movff	TimeToInd@TimeStop+1,___lwdiv@dividend+1
  3954  0015DA  6A20               	clrf	___lwdiv@divisor+1,c
  3955  0015DC  0012               	return	
  3956  0015DE                     __end_ofPL74:
  3957                           	opt stack 0
  3958  0015DE                     PL76:
  3959                           	opt stack 18
  3960  0015DE  C14E  F01D         	movff	TimeToInd@Time,___lwmod@dividend
  3961  0015E2  C14F  F01E         	movff	TimeToInd@Time+1,___lwmod@dividend+1
  3962  0015E6  6A20               	clrf	___lwmod@divisor+1,c
  3963  0015E8  0012               	return	
  3964  0015EA                     __end_ofPL76:
  3965                           	opt stack 0
  3966  0015EA                     PL78:
  3967                           	opt stack 18
  3968  0015EA  C14C  F01D         	movff	TimeToInd@TimeStop,___lwmod@dividend
  3969  0015EE  C14D  F01E         	movff	TimeToInd@TimeStop+1,___lwmod@dividend+1
  3970  0015F2  6A20               	clrf	___lwmod@divisor+1,c
  3971  0015F4  0012               	return	
  3972  0015F6                     __end_ofPL78:
  3973                           	opt stack 0
  3974  0015F6                     PL112:
  3975                           	opt stack 18
  3976  0015F6  C01D  F14C         	movff	?___lwdiv,TimeToInd@TimeStop
  3977  0015FA  C01E  F14D         	movff	?___lwdiv+1,TimeToInd@TimeStop+1
  3978  0015FE  0101               	movlb	1	; () banked
  3979  001600  0012               	return	
  3980  001602                     __end_ofPL112:
  3981                           	opt stack 0
  3982  001602                     PL132:
  3983                           	opt stack 18
  3984  001602  0E9A               	movlw	low _NearTimeStart
  3985  001604  6E3A               	movwf	FindNextTimeStart@TimeFrom,c
  3986  001606  0E01               	movlw	high _NearTimeStart
  3987  001608  6E3B               	movwf	FindNextTimeStart@TimeFrom+1,c
  3988  00160A  0012               	return	
  3989  00160C                     __end_ofPL132:
  3990                           	opt stack 0
  3991  00160C                     PL140:
  3992                           	opt stack 18
  3993  00160C  C03A  F1E1         	movff	?_FindNextTimeStart,_AdressOfNextStartCell
  3994  001610  C03B  F1E2         	movff	?_FindNextTimeStart+1,_AdressOfNextStartCell+1
  3995  001614  0012               	return	
  3996  001616                     __end_ofPL140:
  3997                           	opt stack 0
  3998  001616                     PL148:
  3999                           	opt stack 18
  4000  001616  C01D  F14E         	movff	?___lwdiv,TimeToInd@Time
  4001  00161A  C01E  F14F         	movff	?___lwdiv+1,TimeToInd@Time+1
  4002  00161E  0012               	return	
  4003  001620                     __end_ofPL148:
  4004                           	opt stack 0
  4005                           tblptru	equ	0xFF8
  4006                           tblptrh	equ	0xFF7
  4007                           tblptrl	equ	0xFF6
  4008                           tablat	equ	0xFF5
  4009                           prodh	equ	0xFF4
  4010                           prodl	equ	0xFF3
  4011                           intcon	equ	0xFF2
  4012                           intcon2	equ	0xFF1
  4013                           intcon3	equ	0xFF0
  4014                           postinc0	equ	0xFEE
  4015                           wreg	equ	0xFE8
  4016                           indf1	equ	0xFE7
  4017                           postdec1	equ	0xFE5
  4018                           plusw1	equ	0xFE3
  4019                           fsr1h	equ	0xFE2
  4020                           fsr1l	equ	0xFE1
  4021                           indf2	equ	0xFDF
  4022                           postinc2	equ	0xFDE
  4023                           postdec2	equ	0xFDD
  4024                           plusw2	equ	0xFDB
  4025                           fsr2h	equ	0xFDA
  4026                           fsr2l	equ	0xFD9
  4027                           status	equ	0xFD8
  4028                           
  4029 ;; *************** function _Scheduler *****************
  4030 ;; Defined at:
  4031 ;;		line 1383 in file "prog.c"
  4032 ;; Parameters:    Size  Location     Type
  4033 ;;  StartFrom       2   72[COMRAM] unsigned int 
  4034 ;; Auto vars:     Size  Location     Type
  4035 ;;		None
  4036 ;; Return value:  Size  Location     Type
  4037 ;;                  1    wreg      void 
  4038 ;; Registers used:
  4039 ;;		wreg, fsr1l, fsr1h, fsr2l, fsr2h, status,2, status,0, tblptrl, tblptrh, tblptru, prodl, prodh, cstack
  4040 ;; Tracked objects:
  4041 ;;		On entry : 0/0
  4042 ;;		On exit  : F/1
  4043 ;;		Unchanged: 0/0
  4044 ;; Data sizes:     COMRAM   BANK0   BANK1   BANK2   BANK3   BANK4   BANK5   BANK6   BANK7   BANK8   BANK9  BANK10  BANK1
      +1  BANK12  BANK13  BANK14  BANK15
  4045 ;;      Params:         2       0       0       0       0       0       0       0       0       0       0       0       
      +0       0       0       0       0
  4046 ;;      Locals:         0       0       0       0       0       0       0       0       0       0       0       0       
      +0       0       0       0       0
  4047 ;;      Temps:          0       0       0       0       0       0       0       0       0       0       0       0       
      +0       0       0       0       0
  4048 ;;      Totals:         2       0       0       0       0       0       0       0       0       0       0       0       
      +0       0       0       0       0
  4049 ;;Total ram usage:        2 bytes
  4050 ;; Hardware stack levels used:    1
  4051 ;; Hardware stack levels required when called:   10
  4052 ;; This function calls:
  4053 ;;		_DeleteDataOfCell
  4054 ;;		_EditSchedule
  4055 ;;		_FindCell
  4056 ;;		_RefreshSchedulerIndicator
  4057 ;;		_SchedulerNew
  4058 ;;		_clrInd
  4059 ;; This function is called by:
  4060 ;;		_TimeToInd
  4061 ;;		_main2
  4062 ;; This function uses a non-reentrant model
  4063 ;;
  4064                           
  4065                           	psect	text8
  4066  00285E                     __ptext8:
  4067                           	opt stack 0
  4068  00285E                     _Scheduler:
  4069                           	opt stack 18
  4070                           
  4071                           ;prog.c: 1384: clrInd();
  4072                           
  4073                           ;incstack = 0
  4074  00285E  ECC3  F01A         	call	_clrInd	;wreg free
  4075                           
  4076                           ; BSR set to: 1
  4077                           ;prog.c: 1385: volatile static unsigned int NumberOfCells = 0;
  4078                           ;prog.c: 1386: if (StartFrom != (8 * 48)) {
  4079  002862  0E80               	movlw	128
  4080  002864  1849               	xorwf	Scheduler@StartFrom,w,c
  4081  002866  E102               	bnz	u6560
  4082  002868  044A               	decf	Scheduler@StartFrom+1,w,c
  4083  00286A  E004               	bz	l7941
  4084  00286C                     u6560:
  4085                           
  4086                           ; BSR set to: 1
  4087                           ;prog.c: 1387: NumberOfCells = StartFrom;
  4088  00286C  C049  F053         	movff	Scheduler@StartFrom,Scheduler@NumberOfCells	;volatile
  4089  002870  C04A  F054         	movff	Scheduler@StartFrom+1,Scheduler@NumberOfCells+1	;volatile
  4090  002874                     l7941:
  4091                           
  4092                           ;prog.c: 1388: }
  4093                           ;prog.c: 1389: NumberOfCells = RefreshSchedulerIndicator(NumberOfCells, 0, (8 * 48));
  4094  002874  D873               	call	PL12	;call to abstracted procedure
  4095  002876  ECBC  F011         	call	_RefreshSchedulerIndicator	;wreg free
  4096  00287A  C040  F053         	movff	?_RefreshSchedulerIndicator,Scheduler@NumberOfCells	;volatile
  4097  00287E  C041  F054         	movff	?_RefreshSchedulerIndicator+1,Scheduler@NumberOfCells+1	;volatile
  4098  002882                     l7943:
  4099                           
  4100                           ;prog.c: 1391: if (NumberOfCells != (8 * 48) && KeyCode == 44) {
  4101  002882  0E80               	movlw	128
  4102  002884  1853               	xorwf	Scheduler@NumberOfCells,w,c	;volatile
  4103  002886  E102               	bnz	u6570
  4104  002888  0454               	decf	Scheduler@NumberOfCells+1,w,c	;volatile
  4105  00288A  E00B               	bz	l7953
  4106  00288C                     u6570:
  4107  00288C  0E2C               	movlw	44
  4108  00288E  185B               	xorwf	_KeyCode,w,c	;volatile
  4109  002890  E108               	bnz	l7953
  4110                           
  4111                           ;prog.c: 1392: KeyCode = 0;
  4112  002892  6A5B               	clrf	_KeyCode,c	;volatile
  4113                           
  4114                           ;prog.c: 1393: DeleteDataOfCell(NumberOfCells);
  4115  002894  C053  F029         	movff	Scheduler@NumberOfCells,DeleteDataOfCell@TargetAdress	;volatile
  4116  002898  C054  F02A         	movff	Scheduler@NumberOfCells+1,DeleteDataOfCell@TargetAdress+1	;volatile
  4117  00289C  EC28  F01D         	call	_DeleteDataOfCell	;wreg free
  4118  0028A0  D7E9               	goto	l7941
  4119  0028A2                     l7953:
  4120  0028A2  0E23               	movlw	35
  4121  0028A4  185B               	xorwf	_KeyCode,w,c	;volatile
  4122  0028A6  E10B               	bnz	l7959
  4123                           
  4124                           ;prog.c: 1396: KeyCode = 0;
  4125  0028A8  6A5B               	clrf	_KeyCode,c	;volatile
  4126                           
  4127                           ;prog.c: 1397: SchedulerNew((8 * 48));
  4128  0028AA  0E01               	movlw	1
  4129  0028AC  6E48               	movwf	SchedulerNew@SourceOfRecord+1,c
  4130  0028AE  0E80               	movlw	128
  4131  0028B0  6E47               	movwf	SchedulerNew@SourceOfRecord,c
  4132  0028B2  ECB9  F016         	call	_SchedulerNew	;wreg free
  4133                           
  4134                           ;prog.c: 1398: RefreshSchedulerIndicator(NumberOfCells, 0, (8 * 48));
  4135  0028B6  D852               	call	PL12	;call to abstracted procedure
  4136  0028B8  ECBC  F011         	call	_RefreshSchedulerIndicator	;wreg free
  4137                           
  4138                           ;prog.c: 1399: } else if (NumberOfCells != (8 * 48) && KeyCode == 39) {
  4139  0028BC  D7E2               	goto	l7943
  4140  0028BE                     l7959:
  4141  0028BE  0E80               	movlw	128
  4142  0028C0  1853               	xorwf	Scheduler@NumberOfCells,w,c	;volatile
  4143  0028C2  E102               	bnz	u6600
  4144  0028C4  0454               	decf	Scheduler@NumberOfCells+1,w,c	;volatile
  4145  0028C6  E00E               	bz	l7967
  4146  0028C8                     u6600:
  4147  0028C8  0E27               	movlw	39
  4148  0028CA  185B               	xorwf	_KeyCode,w,c	;volatile
  4149  0028CC  E10B               	bnz	l7967
  4150                           
  4151                           ;prog.c: 1400: KeyCode = 0;
  4152  0028CE  6A5B               	clrf	_KeyCode,c	;volatile
  4153                           
  4154                           ;prog.c: 1401: SchedulerNew(NumberOfCells);
  4155  0028D0  C053  F047         	movff	Scheduler@NumberOfCells,SchedulerNew@SourceOfRecord	;volatile
  4156  0028D4  C054  F048         	movff	Scheduler@NumberOfCells+1,SchedulerNew@SourceOfRecord+1	;volatile
  4157  0028D8  ECB9  F016         	call	_SchedulerNew	;wreg free
  4158                           
  4159                           ;prog.c: 1402: RefreshSchedulerIndicator(NumberOfCells, 0, (8 * 48));
  4160  0028DC  D83F               	call	PL12	;call to abstracted procedure
  4161  0028DE  ECBC  F011         	call	_RefreshSchedulerIndicator	;wreg free
  4162                           
  4163                           ;prog.c: 1403: } else if (NumberOfCells != (8 * 48) && KeyCode == 45) {
  4164  0028E2  D7CF               	goto	l7943
  4165  0028E4                     l7967:
  4166  0028E4  0E80               	movlw	128
  4167  0028E6  1853               	xorwf	Scheduler@NumberOfCells,w,c	;volatile
  4168  0028E8  E102               	bnz	u6620
  4169  0028EA  0454               	decf	Scheduler@NumberOfCells+1,w,c	;volatile
  4170  0028EC  E012               	bz	l7975
  4171  0028EE                     u6620:
  4172  0028EE  0E2D               	movlw	45
  4173  0028F0  185B               	xorwf	_KeyCode,w,c	;volatile
  4174  0028F2  E10F               	bnz	l7975
  4175                           
  4176                           ;prog.c: 1404: KeyCode = 0;
  4177  0028F4  6A5B               	clrf	_KeyCode,c	;volatile
  4178                           
  4179                           ;prog.c: 1405: EditSchedule(NumberOfCells, (8 * 48));
  4180  0028F6  C053  F03A         	movff	Scheduler@NumberOfCells,EditSchedule@adress	;volatile
  4181  0028FA  C054  F03B         	movff	Scheduler@NumberOfCells+1,EditSchedule@adress+1	;volatile
  4182  0028FE  0E01               	movlw	1
  4183  002900  6E3D               	movwf	EditSchedule@SourceOfRecord+1,c
  4184  002902  0E80               	movlw	128
  4185  002904  6E3C               	movwf	EditSchedule@SourceOfRecord,c
  4186  002906  EC10  F00B         	call	_EditSchedule	;wreg free
  4187                           
  4188                           ;prog.c: 1406: RefreshSchedulerIndicator(NumberOfCells, 0, (8 * 48));
  4189  00290A  D828               	call	PL12	;call to abstracted procedure
  4190  00290C  ECBC  F011         	call	_RefreshSchedulerIndicator	;wreg free
  4191                           
  4192                           ;prog.c: 1407: } else if (KeyCode == 40) {
  4193  002910  D7B8               	goto	l7943
  4194  002912                     l7975:
  4195  002912  0E28               	movlw	40
  4196  002914  185B               	xorwf	_KeyCode,w,c	;volatile
  4197  002916  E10C               	bnz	l7983
  4198                           
  4199                           ;prog.c: 1408: KeyCode = 0;
  4200                           
  4201                           ;prog.c: 1409: NumberOfCells = FindCell(NumberOfCells, 0, 0);
  4202  002918  D82B               	call	PL96	;call to abstracted procedure
  4203  00291A  6A3D               	clrf	FindCell@previous,c
  4204  00291C  EC33  F015         	call	_FindCell	;wreg free
  4205  002920  C03A  F053         	movff	?_FindCell,Scheduler@NumberOfCells	;volatile
  4206  002924  C03B  F054         	movff	?_FindCell+1,Scheduler@NumberOfCells+1	;volatile
  4207                           
  4208                           ; BSR set to: 0
  4209                           ;prog.c: 1410: RefreshSchedulerIndicator(NumberOfCells, 0, (8 * 48));
  4210  002928  D819               	call	PL12	;call to abstracted procedure
  4211  00292A  ECBC  F011         	call	_RefreshSchedulerIndicator	;wreg free
  4212                           
  4213                           ;prog.c: 1411: } else if (KeyCode == 41) {
  4214  00292E  D7A9               	goto	l7943
  4215  002930                     l7983:
  4216  002930  0E29               	movlw	41
  4217  002932  185B               	xorwf	_KeyCode,w,c	;volatile
  4218  002934  E106               	bnz	l7991
  4219                           
  4220                           ;prog.c: 1412: KeyCode = 0;
  4221                           
  4222                           ;prog.c: 1413: NumberOfCells = FindCell(NumberOfCells, 0, 1);
  4223  002936  D81C               	call	PL96	;call to abstracted procedure
  4224  002938  0E01               	movlw	1
  4225  00293A  6E3D               	movwf	FindCell@previous,c
  4226  00293C  EC33  F015         	call	_FindCell	;wreg free
  4227  002940  D7EF               	goto	L6
  4228  002942                     l7991:
  4229  002942  0E2B               	movlw	43
  4230  002944  185B               	xorwf	_KeyCode,w,c	;volatile
  4231  002946  E103               	bnz	l8001
  4232                           
  4233                           ;prog.c: 1416: KeyCode = 0;
  4234  002948  6A5B               	clrf	_KeyCode,c	;volatile
  4235                           
  4236                           ;prog.c: 1417: clrInd();
  4237  00294A  EFC3  F01A         	goto	_clrInd	;wreg free
  4238  00294E                     l8001:
  4239  00294E  0E1E               	movlw	30
  4240  002950  185B               	xorwf	_KeyCode,w,c	;volatile
  4241  002952  E197               	bnz	l7943
  4242                           
  4243                           ;prog.c: 1420: KeyCode = 0;
  4244  002954  6A5B               	clrf	_KeyCode,c	;volatile
  4245                           
  4246                           ;prog.c: 1421: NumberOfCells = 0;
  4247  002956  6A53               	clrf	Scheduler@NumberOfCells,c	;volatile
  4248  002958  6A54               	clrf	Scheduler@NumberOfCells+1,c	;volatile
  4249  00295A  D78C               	goto	l7941
  4250  00295C                     __end_of_Scheduler:
  4251                           	opt stack 0
  4252  00295C                     PL12:
  4253                           	opt stack 18
  4254  00295C  C053  F040         	movff	Scheduler@NumberOfCells,RefreshSchedulerIndicator@adress	;volatile
  4255  002960  C054  F041         	movff	Scheduler@NumberOfCells+1,RefreshSchedulerIndicator@adress+1	;volatile
  4256  002964  6A42               	clrf	RefreshSchedulerIndicator@New,c
  4257  002966  0E01               	movlw	1
  4258  002968  6E44               	movwf	RefreshSchedulerIndicator@CopyFrom+1,c
  4259  00296A  0E80               	movlw	128
  4260  00296C  6E43               	movwf	RefreshSchedulerIndicator@CopyFrom,c
  4261  00296E  0C80               	retlw	128
  4262  002970                     __end_ofPL12:
  4263                           	opt stack 0
  4264  002970                     PL96:
  4265                           	opt stack 18
  4266  002970  6A5B               	clrf	_KeyCode,c	;volatile
  4267  002972  C053  F03A         	movff	Scheduler@NumberOfCells,FindCell@adressStart	;volatile
  4268  002976  C054  F03B         	movff	Scheduler@NumberOfCells+1,FindCell@adressStart+1	;volatile
  4269  00297A  6A3C               	clrf	FindCell@New,c
  4270  00297C  6A3E               	clrf	FindCell@previous+1,c
  4271  00297E  0012               	return	
  4272  002980                     __end_ofPL96:
  4273                           	opt stack 0
  4274                           tblptru	equ	0xFF8
  4275                           tblptrh	equ	0xFF7
  4276                           tblptrl	equ	0xFF6
  4277                           tablat	equ	0xFF5
  4278                           prodh	equ	0xFF4
  4279                           prodl	equ	0xFF3
  4280                           intcon	equ	0xFF2
  4281                           intcon2	equ	0xFF1
  4282                           intcon3	equ	0xFF0
  4283                           postinc0	equ	0xFEE
  4284                           wreg	equ	0xFE8
  4285                           indf1	equ	0xFE7
  4286                           postdec1	equ	0xFE5
  4287                           plusw1	equ	0xFE3
  4288                           fsr1h	equ	0xFE2
  4289                           fsr1l	equ	0xFE1
  4290                           indf2	equ	0xFDF
  4291                           postinc2	equ	0xFDE
  4292                           postdec2	equ	0xFDD
  4293                           plusw2	equ	0xFDB
  4294                           fsr2h	equ	0xFDA
  4295                           fsr2l	equ	0xFD9
  4296                           status	equ	0xFD8
  4297                           
  4298 ;; *************** function _SchedulerNew *****************
  4299 ;; Defined at:
  4300 ;;		line 1427 in file "prog.c"
  4301 ;; Parameters:    Size  Location     Type
  4302 ;;  SourceOfReco    2   70[COMRAM] unsigned int 
  4303 ;; Auto vars:     Size  Location     Type
  4304 ;;		None
  4305 ;; Return value:  Size  Location     Type
  4306 ;;                  1    wreg      void 
  4307 ;; Registers used:
  4308 ;;		wreg, fsr1l, fsr1h, fsr2l, fsr2h, status,2, status,0, tblptrl, tblptrh, tblptru, prodl, prodh, cstack
  4309 ;; Tracked objects:
  4310 ;;		On entry : 0/1
  4311 ;;		On exit  : F/1
  4312 ;;		Unchanged: 0/0
  4313 ;; Data sizes:     COMRAM   BANK0   BANK1   BANK2   BANK3   BANK4   BANK5   BANK6   BANK7   BANK8   BANK9  BANK10  BANK1
      +1  BANK12  BANK13  BANK14  BANK15
  4314 ;;      Params:         2       0       0       0       0       0       0       0       0       0       0       0       
      +0       0       0       0       0
  4315 ;;      Locals:         0       0       0       0       0       0       0       0       0       0       0       0       
      +0       0       0       0       0
  4316 ;;      Temps:          0       0       0       0       0       0       0       0       0       0       0       0       
      +0       0       0       0       0
  4317 ;;      Totals:         2       0       0       0       0       0       0       0       0       0       0       0       
      +0       0       0       0       0
  4318 ;;Total ram usage:        2 bytes
  4319 ;; Hardware stack levels used:    1
  4320 ;; Hardware stack levels required when called:    9
  4321 ;; This function calls:
  4322 ;;		_EditSchedule
  4323 ;;		_FindCell
  4324 ;;		_RefreshSchedulerIndicator
  4325 ;;		_clrInd
  4326 ;; This function is called by:
  4327 ;;		_Scheduler
  4328 ;; This function uses a non-reentrant model
  4329 ;;
  4330                           
  4331                           	psect	text9
  4332  002D72                     __ptext9:
  4333                           	opt stack 0
  4334  002D72                     _SchedulerNew:
  4335                           	opt stack 18
  4336                           
  4337                           ;prog.c: 1428: clrInd();
  4338                           
  4339                           ; BSR set to: 1
  4340                           ;incstack = 0
  4341  002D72  ECC3  F01A         	call	_clrInd	;wreg free
  4342  002D76                     l7889:
  4343                           
  4344                           ;prog.c: 1429: volatile static unsigned int NumberOfCells = 0;
  4345                           ;prog.c: 1430: NumberOfCells = RefreshSchedulerIndicator(NumberOfCells, 1, SourceOfRecor
      +                          d);
  4346  002D76  D842               	call	PL56	;call to abstracted procedure
  4347  002D78  ECBC  F011         	call	_RefreshSchedulerIndicator	;wreg free
  4348  002D7C  C040  F055         	movff	?_RefreshSchedulerIndicator,SchedulerNew@NumberOfCells	;volatile
  4349  002D80  C041  F056         	movff	?_RefreshSchedulerIndicator+1,SchedulerNew@NumberOfCells+1	;volatile
  4350  002D84                     l7891:
  4351                           
  4352                           ;prog.c: 1432: if (NumberOfCells != (8 * 48) && KeyCode == 45) {
  4353  002D84  0E80               	movlw	128
  4354  002D86  1855               	xorwf	SchedulerNew@NumberOfCells,w,c	;volatile
  4355  002D88  E102               	bnz	u6490
  4356  002D8A  0456               	decf	SchedulerNew@NumberOfCells+1,w,c	;volatile
  4357  002D8C  E01C               	bz	l7903
  4358  002D8E                     u6490:
  4359  002D8E  0E2D               	movlw	45
  4360  002D90  185B               	xorwf	_KeyCode,w,c	;volatile
  4361  002D92  E119               	bnz	l7903
  4362                           
  4363                           ;prog.c: 1433: KeyCode = 0;
  4364  002D94  6A5B               	clrf	_KeyCode,c	;volatile
  4365                           
  4366                           ;prog.c: 1434: if (EditSchedule(NumberOfCells, SourceOfRecord) == 1) {
  4367  002D96  C055  F03A         	movff	SchedulerNew@NumberOfCells,EditSchedule@adress	;volatile
  4368  002D9A  C056  F03B         	movff	SchedulerNew@NumberOfCells+1,EditSchedule@adress+1	;volatile
  4369  002D9E  C047  F03C         	movff	SchedulerNew@SourceOfRecord,EditSchedule@SourceOfRecord
  4370  002DA2  C048  F03D         	movff	SchedulerNew@SourceOfRecord+1,EditSchedule@SourceOfRecord+1
  4371  002DA6  EC10  F00B         	call	_EditSchedule	;wreg free
  4372  002DAA  06E8               	decf	wreg,f,c
  4373  002DAC  E108               	bnz	l7901
  4374  002DAE                     l7899:
  4375                           
  4376                           ;prog.c: 1435: NumberOfCells = FindCell(NumberOfCells, 1, 0);
  4377  002DAE  D831               	call	PL94	;call to abstracted procedure
  4378  002DB0  6A3D               	clrf	FindCell@previous,c
  4379  002DB2  EC33  F015         	call	_FindCell	;wreg free
  4380  002DB6  C03A  F055         	movff	?_FindCell,SchedulerNew@NumberOfCells	;volatile
  4381  002DBA  C03B  F056         	movff	?_FindCell+1,SchedulerNew@NumberOfCells+1	;volatile
  4382  002DBE                     l7901:
  4383                           
  4384                           ;prog.c: 1436: }
  4385                           ;prog.c: 1437: RefreshSchedulerIndicator(NumberOfCells, 1, SourceOfRecord);
  4386  002DBE  D81E               	call	PL56	;call to abstracted procedure
  4387  002DC0  ECBC  F011         	call	_RefreshSchedulerIndicator	;wreg free
  4388                           
  4389                           ;prog.c: 1438: } else if (KeyCode == 40) {
  4390  002DC4  D7DF               	goto	l7891
  4391  002DC6                     l7903:
  4392  002DC6  0E28               	movlw	40
  4393  002DC8  185B               	xorwf	_KeyCode,w,c	;volatile
  4394  002DCA  E102               	bnz	l7911
  4395                           
  4396                           ;prog.c: 1439: KeyCode = 0;
  4397  002DCC  6A5B               	clrf	_KeyCode,c	;volatile
  4398  002DCE  D7EF               	goto	l7899
  4399  002DD0                     l7911:
  4400  002DD0  0E29               	movlw	41
  4401  002DD2  185B               	xorwf	_KeyCode,w,c	;volatile
  4402  002DD4  E106               	bnz	l7919
  4403                           
  4404                           ;prog.c: 1443: KeyCode = 0;
  4405  002DD6  6A5B               	clrf	_KeyCode,c	;volatile
  4406                           
  4407                           ;prog.c: 1444: NumberOfCells = FindCell(NumberOfCells, 1, 1);
  4408  002DD8  D81C               	call	PL94	;call to abstracted procedure
  4409  002DDA  6E3D               	movwf	FindCell@previous,c
  4410  002DDC  EC33  F015         	call	_FindCell	;wreg free
  4411  002DE0  D7EA               	goto	L7
  4412  002DE2                     l7919:
  4413  002DE2  0E2B               	movlw	43
  4414  002DE4  185B               	xorwf	_KeyCode,w,c	;volatile
  4415  002DE6  E103               	bnz	l7929
  4416                           
  4417                           ;prog.c: 1447: KeyCode = 0;
  4418  002DE8  6A5B               	clrf	_KeyCode,c	;volatile
  4419                           
  4420                           ;prog.c: 1448: clrInd();
  4421  002DEA  EFC3  F01A         	goto	_clrInd	;wreg free
  4422  002DEE                     l7929:
  4423  002DEE  0E1E               	movlw	30
  4424  002DF0  185B               	xorwf	_KeyCode,w,c	;volatile
  4425  002DF2  E1C8               	bnz	l7891
  4426                           
  4427                           ;prog.c: 1451: KeyCode = 0;
  4428  002DF4  6A5B               	clrf	_KeyCode,c	;volatile
  4429                           
  4430                           ;prog.c: 1452: NumberOfCells = 0;
  4431  002DF6  6A55               	clrf	SchedulerNew@NumberOfCells,c	;volatile
  4432  002DF8  6A56               	clrf	SchedulerNew@NumberOfCells+1,c	;volatile
  4433  002DFA  D7BD               	goto	l7889
  4434  002DFC                     __end_of_SchedulerNew:
  4435                           	opt stack 0
  4436  002DFC                     PL56:
  4437                           	opt stack 18
  4438  002DFC  C055  F040         	movff	SchedulerNew@NumberOfCells,RefreshSchedulerIndicator@adress	;volatile
  4439  002E00  C056  F041         	movff	SchedulerNew@NumberOfCells+1,RefreshSchedulerIndicator@adress+1	;volatile
  4440  002E04  0E01               	movlw	1
  4441  002E06  6E42               	movwf	RefreshSchedulerIndicator@New,c
  4442  002E08  C047  F043         	movff	SchedulerNew@SourceOfRecord,RefreshSchedulerIndicator@CopyFrom
  4443  002E0C  C048  F044         	movff	SchedulerNew@SourceOfRecord+1,RefreshSchedulerIndicator@CopyFrom+1
  4444  002E10  0C01               	retlw	1
  4445  002E12                     __end_ofPL56:
  4446                           	opt stack 0
  4447  002E12                     PL94:
  4448                           	opt stack 18
  4449  002E12  C055  F03A         	movff	SchedulerNew@NumberOfCells,FindCell@adressStart	;volatile
  4450  002E16  C056  F03B         	movff	SchedulerNew@NumberOfCells+1,FindCell@adressStart+1	;volatile
  4451  002E1A  0E01               	movlw	1
  4452  002E1C  6E3C               	movwf	FindCell@New,c
  4453  002E1E  6A3E               	clrf	FindCell@previous+1,c
  4454  002E20  0C01               	retlw	1
  4455  002E22                     __end_ofPL94:
  4456                           	opt stack 0
  4457                           tblptru	equ	0xFF8
  4458                           tblptrh	equ	0xFF7
  4459                           tblptrl	equ	0xFF6
  4460                           tablat	equ	0xFF5
  4461                           prodh	equ	0xFF4
  4462                           prodl	equ	0xFF3
  4463                           intcon	equ	0xFF2
  4464                           intcon2	equ	0xFF1
  4465                           intcon3	equ	0xFF0
  4466                           postinc0	equ	0xFEE
  4467                           wreg	equ	0xFE8
  4468                           indf1	equ	0xFE7
  4469                           postdec1	equ	0xFE5
  4470                           plusw1	equ	0xFE3
  4471                           fsr1h	equ	0xFE2
  4472                           fsr1l	equ	0xFE1
  4473                           indf2	equ	0xFDF
  4474                           postinc2	equ	0xFDE
  4475                           postdec2	equ	0xFDD
  4476                           plusw2	equ	0xFDB
  4477                           fsr2h	equ	0xFDA
  4478                           fsr2l	equ	0xFD9
  4479                           status	equ	0xFD8
  4480                           
  4481 ;; *************** function _RefreshSchedulerIndicator *****************
  4482 ;; Defined at:
  4483 ;;		line 1051 in file "prog.c"
  4484 ;; Parameters:    Size  Location     Type
  4485 ;;  adress          2   63[COMRAM] unsigned int 
  4486 ;;  New             1   65[COMRAM] unsigned char 
  4487 ;;  CopyFrom        2   66[COMRAM] unsigned int 
  4488 ;; Auto vars:     Size  Location     Type
  4489 ;;  NumberFrom      2   40[BANK0 ] unsigned int 
  4490 ;;  num             3   28[BANK0 ] unsigned char [3]
  4491 ;;  i               1   42[BANK0 ] unsigned char 
  4492 ;;  CellsData       8   20[BANK0 ] unsigned char [8]
  4493 ;;  Data            4   33[BANK0 ] unsigned long 
  4494 ;;  cell            2   38[BANK0 ] unsigned int 
  4495 ;;  CellIsEmpty     1   37[BANK0 ] unsigned char 
  4496 ;; Return value:  Size  Location     Type
  4497 ;;                  2   63[COMRAM] unsigned int 
  4498 ;; Registers used:
  4499 ;;		wreg, fsr1l, fsr1h, fsr2l, fsr2h, status,2, status,0, tblptrl, tblptrh, tblptru, prodl, prodh, cstack
  4500 ;; Tracked objects:
  4501 ;;		On entry : 0/1
  4502 ;;		On exit  : 0/0
  4503 ;;		Unchanged: 0/0
  4504 ;; Data sizes:     COMRAM   BANK0   BANK1   BANK2   BANK3   BANK4   BANK5   BANK6   BANK7   BANK8   BANK9  BANK10  BANK1
      +1  BANK12  BANK13  BANK14  BANK15
  4505 ;;      Params:         5       0       0       0       0       0       0       0       0       0       0       0       
      +0       0       0       0       0
  4506 ;;      Locals:         0      23       0       0       0       0       0       0       0       0       0       0       
      +0       0       0       0       0
  4507 ;;      Temps:          2       0       0       0       0       0       0       0       0       0       0       0       
      +0       0       0       0       0
  4508 ;;      Totals:         7      23       0       0       0       0       0       0       0       0       0       0       
      +0       0       0       0       0
  4509 ;;Total ram usage:       30 bytes
  4510 ;; Hardware stack levels used:    1
  4511 ;; Hardware stack levels required when called:    8
  4512 ;; This function calls:
  4513 ;;		_FindCell
  4514 ;;		_NumericToString
  4515 ;;		_ReadDataOfCell
  4516 ;;		___lwdiv
  4517 ;;		___lwmod
  4518 ;;		_getNumChar
  4519 ;;		_outputString
  4520 ;;		_setDigit
  4521 ;; This function is called by:
  4522 ;;		_Scheduler
  4523 ;;		_SchedulerNew
  4524 ;; This function uses a non-reentrant model
  4525 ;;
  4526                           
  4527                           	psect	text10
  4528  002378                     __ptext10:
  4529                           	opt stack 0
  4530  002378                     _RefreshSchedulerIndicator:
  4531                           	opt stack 18
  4532                           
  4533                           ;prog.c: 1053: unsigned int cell = 0;
  4534                           
  4535                           ; BSR set to: 1
  4536                           ;incstack = 0
  4537  002378  0100               	movlb	0	; () banked
  4538  00237A  6BA6               	clrf	RefreshSchedulerIndicator@cell& (0+255),b
  4539  00237C  6BA7               	clrf	(RefreshSchedulerIndicator@cell+1)& (0+255),b
  4540                           
  4541                           ;prog.c: 1055: unsigned long int Data = 0;
  4542  00237E  6BA1               	clrf	RefreshSchedulerIndicator@Data& (0+255),b
  4543  002380  6BA2               	clrf	(RefreshSchedulerIndicator@Data+1)& (0+255),b
  4544  002382  6BA3               	clrf	(RefreshSchedulerIndicator@Data+2)& (0+255),b
  4545  002384  6BA4               	clrf	(RefreshSchedulerIndicator@Data+3)& (0+255),b
  4546                           
  4547                           ; BSR set to: 0
  4548                           ;prog.c: 1056: unsigned char CellsData [8];
  4549                           ;prog.c: 1057: ReadDataOfCell(&CellsData, &Data, adress);
  4550  002386  0E94               	movlw	low RefreshSchedulerIndicator@CellsData
  4551  002388  6E2A               	movwf	ReadDataOfCell@CellsData,c
  4552  00238A  6A2B               	clrf	ReadDataOfCell@CellsData+1,c
  4553  00238C  0EA1               	movlw	low RefreshSchedulerIndicator@Data
  4554  00238E  6E2C               	movwf	ReadDataOfCell@Data,c
  4555  002390  6A2D               	clrf	ReadDataOfCell@Data+1,c
  4556  002392  C040  F02E         	movff	RefreshSchedulerIndicator@adress,ReadDataOfCell@TargetAdress
  4557  002396  C041  F02F         	movff	RefreshSchedulerIndicator@adress+1,ReadDataOfCell@TargetAdress+1
  4558  00239A  EC3F  F018         	call	_ReadDataOfCell	;wreg free
  4559                           
  4560                           ;prog.c: 1058: unsigned char CellIsEmpty = 1;
  4561  00239E  0E01               	movlw	1
  4562  0023A0  0100               	movlb	0	; () banked
  4563  0023A2  6FA5               	movwf	RefreshSchedulerIndicator@CellIsEmpty& (0+255),b
  4564                           
  4565                           ; BSR set to: 0
  4566                           ;prog.c: 1059: for(unsigned char i = 0; i < 8; i++){
  4567  0023A4  6BAA               	clrf	RefreshSchedulerIndicator@i& (0+255),b
  4568  0023A6                     l7563:
  4569                           
  4570                           ; BSR set to: 0
  4571                           ;prog.c: 1060: if(CellsData[i] != 0xFF) {
  4572  0023A6  51AA               	movf	RefreshSchedulerIndicator@i& (0+255),w,b
  4573  0023A8  0F94               	addlw	low RefreshSchedulerIndicator@CellsData
  4574  0023AA  6ED9               	movwf	fsr2l,c
  4575  0023AC  6ADA               	clrf	fsr2h,c
  4576  0023AE  28DE               	incf	postinc2,w,c
  4577  0023B0  E001               	bz	l7567
  4578                           
  4579                           ; BSR set to: 0
  4580                           ;prog.c: 1061: CellIsEmpty = 0;
  4581  0023B2  6BA5               	clrf	RefreshSchedulerIndicator@CellIsEmpty& (0+255),b
  4582  0023B4                     l7567:
  4583                           
  4584                           ; BSR set to: 0
  4585  0023B4  2BAA               	incf	RefreshSchedulerIndicator@i& (0+255),f,b
  4586                           
  4587                           ; BSR set to: 0
  4588  0023B6  0E07               	movlw	7
  4589  0023B8  65AA               	cpfsgt	RefreshSchedulerIndicator@i& (0+255),b
  4590  0023BA  D7F5               	goto	l7563
  4591                           
  4592                           ; BSR set to: 0
  4593                           ;prog.c: 1062: }
  4594                           ;prog.c: 1063: }
  4595                           ;prog.c: 1066: if (adress != (8 * 48) && (New != 1 ? CellIsEmpty == 0 : CellIsEmpty == 1
      +                          )) {
  4596  0023BC  0E80               	movlw	128
  4597  0023BE  1840               	xorwf	RefreshSchedulerIndicator@adress,w,c
  4598  0023C0  E102               	bnz	u5960
  4599  0023C2  0441               	decf	RefreshSchedulerIndicator@adress+1,w,c
  4600  0023C4  E01C               	bz	l7583
  4601  0023C6                     u5960:
  4602                           
  4603                           ; BSR set to: 0
  4604  0023C6  0442               	decf	RefreshSchedulerIndicator@New,w,c
  4605  0023C8  E104               	bnz	l7577
  4606                           
  4607                           ; BSR set to: 0
  4608  0023CA  05A5               	decf	RefreshSchedulerIndicator@CellIsEmpty& (0+255),w,b
  4609  0023CC  E104               	bnz	L24
  4610  0023CE                     u5981:
  4611  0023CE  0E01               	movlw	1
  4612  0023D0  D003               	goto	u6010
  4613  0023D2                     l7577:
  4614                           
  4615                           ; BSR set to: 0
  4616  0023D2  51A5               	movf	RefreshSchedulerIndicator@CellIsEmpty& (0+255),w,b
  4617  0023D4  E0FC               	bz	u5981
  4618  0023D6                     L24:
  4619  0023D6  0E00               	movlw	0
  4620  0023D8                     u6010:
  4621  0023D8  6F9F               	movwf	_RefreshSchedulerIndicator$1098& (0+255),b
  4622  0023DA  6BA0               	clrf	(_RefreshSchedulerIndicator$1098+1)& (0+255),b
  4623                           
  4624                           ; BSR set to: 0
  4625  0023DC  519F               	movf	_RefreshSchedulerIndicator$1098& (0+255),w,b
  4626  0023DE  11A0               	iorwf	(_RefreshSchedulerIndicator$1098+1)& (0+255),w,b
  4627  0023E0  E00E               	bz	l7583
  4628  0023E2                     l7581:
  4629                           
  4630                           ; BSR set to: 0
  4631                           ;prog.c: 1067: cell = adress / 8 + 1;
  4632  0023E2  C040  F045         	movff	RefreshSchedulerIndicator@adress,??_RefreshSchedulerIndicator
  4633  0023E6  C041  F046         	movff	RefreshSchedulerIndicator@adress+1,??_RefreshSchedulerIndicator+1
  4634  0023EA  90D8               	bcf	status,0,c
  4635  0023EC  3246               	rrcf	??_RefreshSchedulerIndicator+1,f,c
  4636  0023EE  3245               	rrcf	??_RefreshSchedulerIndicator,f,c
  4637  0023F0  D8AD               	call	PL154	;call to abstracted procedure
  4638  0023F2  D8A7               	call	PL134	;call to abstracted procedure
  4639  0023F4  6FA6               	movwf	RefreshSchedulerIndicator@cell& (0+255),b
  4640  0023F6  0E00               	movlw	0
  4641  0023F8  2046               	addwfc	??_RefreshSchedulerIndicator+1,w,c
  4642  0023FA  6FA7               	movwf	(RefreshSchedulerIndicator@cell+1)& (0+255),b
  4643                           
  4644                           ;prog.c: 1068: } else {
  4645  0023FC  D013               	goto	l678
  4646  0023FE                     l7583:
  4647                           
  4648                           ; BSR set to: 0
  4649                           ;prog.c: 1069: adress = FindCell(adress, New, 0);
  4650  0023FE  C040  F03A         	movff	RefreshSchedulerIndicator@adress,FindCell@adressStart
  4651  002402  C041  F03B         	movff	RefreshSchedulerIndicator@adress+1,FindCell@adressStart+1
  4652  002406  C042  F03C         	movff	RefreshSchedulerIndicator@New,FindCell@New
  4653  00240A  6A3E               	clrf	FindCell@previous+1,c
  4654  00240C  6A3D               	clrf	FindCell@previous,c
  4655  00240E  EC33  F015         	call	_FindCell	;wreg free
  4656  002412  C03A  F040         	movff	?_FindCell,RefreshSchedulerIndicator@adress
  4657  002416  C03B  F041         	movff	?_FindCell+1,RefreshSchedulerIndicator@adress+1
  4658                           
  4659                           ; BSR set to: 0
  4660                           ;prog.c: 1070: if (adress != (8 * 48)) {
  4661  00241A  0E80               	movlw	128
  4662  00241C  1840               	xorwf	RefreshSchedulerIndicator@adress,w,c
  4663  00241E  E1E1               	bnz	l7581
  4664  002420  0441               	decf	RefreshSchedulerIndicator@adress+1,w,c
  4665  002422  E1DF               	bnz	l7581
  4666  002424                     l678:
  4667                           
  4668                           ; BSR set to: 0
  4669                           ;prog.c: 1072: }
  4670                           ;prog.c: 1073: }
  4671                           ;prog.c: 1075: if(cell != 0){
  4672  002424  51A6               	movf	RefreshSchedulerIndicator@cell& (0+255),w,b
  4673  002426  11A7               	iorwf	(RefreshSchedulerIndicator@cell+1)& (0+255),w,b
  4674  002428  E019               	bz	l7595
  4675                           
  4676                           ; BSR set to: 0
  4677                           ;prog.c: 1076: unsigned char num [] = "  ";
  4678  00242A  C05D  F09C         	movff	RefreshSchedulerIndicator@F3062,RefreshSchedulerIndicator@num
  4679  00242E  C05E  F09D         	movff	RefreshSchedulerIndicator@F3062+1,RefreshSchedulerIndicator@num+1
  4680  002432  C05F  F09E         	movff	RefreshSchedulerIndicator@F3062+2,RefreshSchedulerIndicator@num+2
  4681                           
  4682                           ; BSR set to: 0
  4683                           ;prog.c: 1077: NumericToString(cell, num, sizeof(num)-1);
  4684  002436  C0A6  F02A         	movff	RefreshSchedulerIndicator@cell,NumericToString@n
  4685  00243A  C0A7  F02B         	movff	RefreshSchedulerIndicator@cell+1,NumericToString@n+1
  4686  00243E  6A2C               	clrf	NumericToString@n+2,c
  4687  002440  6A2D               	clrf	NumericToString@n+3,c
  4688  002442  0E9C               	movlw	low RefreshSchedulerIndicator@num
  4689  002444  6E2E               	movwf	NumericToString@mySring,c
  4690  002446  0E02               	movlw	2
  4691  002448  6E2F               	movwf	NumericToString@size,c
  4692  00244A  ECF7  F017         	call	_NumericToString	;wreg free
  4693                           
  4694                           ;prog.c: 1078: outputString(num, 0, 13);
  4695  00244E  0E9C               	movlw	low RefreshSchedulerIndicator@num
  4696  002450  6E2D               	movwf	outputString@stringData,c
  4697  002452  6A2E               	clrf	outputString@stringData+1,c
  4698  002454  D87F               	call	PL158	;call to abstracted procedure
  4699  002456  ECAD  F017         	call	_outputString	;wreg free
  4700                           
  4701                           ;prog.c: 1079: }else{
  4702  00245A  D008               	goto	l7597
  4703  00245C                     l7595:
  4704                           
  4705                           ; BSR set to: 0
  4706                           ;prog.c: 1080: setDigit(0, 13, '-');
  4707  00245C  0E0D               	movlw	13
  4708  00245E  D86D               	call	PL116	;call to abstracted procedure
  4709  002460  EC85  F018         	call	_setDigit
  4710                           
  4711                           ;prog.c: 1081: setDigit(0, 14, '-');
  4712  002464  0E0E               	movlw	14
  4713  002466  D869               	call	PL116	;call to abstracted procedure
  4714  002468  EC85  F018         	call	_setDigit
  4715  00246C                     l7597:
  4716                           
  4717                           ;prog.c: 1082: }
  4718                           ;prog.c: 1084: if (New == 1) {
  4719  00246C  0442               	decf	RefreshSchedulerIndicator@New,w,c
  4720  00246E  E153               	bnz	l7611
  4721                           
  4722                           ;prog.c: 1085: if (CopyFrom != (8 * 48)) {
  4723  002470  0E80               	movlw	128
  4724  002472  1843               	xorwf	RefreshSchedulerIndicator@CopyFrom,w,c
  4725  002474  E102               	bnz	u6060
  4726  002476  0444               	decf	RefreshSchedulerIndicator@CopyFrom+1,w,c
  4727  002478  E047               	bz	l7609
  4728  00247A                     u6060:
  4729                           
  4730                           ;prog.c: 1086: outputString("to ", 0, 1);
  4731  00247A  0E39               	movlw	low STR_11
  4732  00247C  6E2D               	movwf	outputString@stringData,c
  4733  00247E  D857               	call	PL54	;call to abstracted procedure
  4734  002480  0E01               	movlw	1
  4735  002482  6E30               	movwf	outputString@position,c
  4736  002484  ECAD  F017         	call	_outputString	;wreg free
  4737                           
  4738                           ;prog.c: 1087: outputString("copy from ", 1, 1);
  4739  002488  0E23               	movlw	low STR_12
  4740  00248A  6E2D               	movwf	outputString@stringData,c
  4741  00248C  502D               	movf	outputString@stringData,w,c
  4742  00248E  A4D8               	btfss	status,2,c
  4743  002490  0E10               	movlw	high __smallconst
  4744  002492  6E2E               	movwf	outputString@stringData+1,c
  4745  002494  0E01               	movlw	1
  4746  002496  6E2F               	movwf	outputString@line,c
  4747  002498  6E30               	movwf	outputString@position,c
  4748  00249A  ECAD  F017         	call	_outputString	;wreg free
  4749                           
  4750                           ;prog.c: 1089: unsigned int NumberFrom = 1 + CopyFrom / 8;
  4751  00249E  C043  F045         	movff	RefreshSchedulerIndicator@CopyFrom,??_RefreshSchedulerIndicator
  4752  0024A2  C044  F046         	movff	RefreshSchedulerIndicator@CopyFrom+1,??_RefreshSchedulerIndicator+1
  4753  0024A6  D852               	call	PL154	;call to abstracted procedure
  4754  0024A8  D851               	call	PL154	;call to abstracted procedure
  4755  0024AA  D84B               	call	PL134	;call to abstracted procedure
  4756  0024AC  0100               	movlb	0	; () banked
  4757  0024AE  6FA8               	movwf	RefreshSchedulerIndicator@NumberFrom& (0+255),b
  4758  0024B0  0E00               	movlw	0
  4759  0024B2  2046               	addwfc	??_RefreshSchedulerIndicator+1,w,c
  4760  0024B4  6FA9               	movwf	(RefreshSchedulerIndicator@NumberFrom+1)& (0+255),b
  4761                           
  4762                           ; BSR set to: 0
  4763                           ;prog.c: 1090: if (NumberFrom > 9) {
  4764  0024B6  51A9               	movf	(RefreshSchedulerIndicator@NumberFrom+1)& (0+255),w,b
  4765  0024B8  E103               	bnz	u6070
  4766  0024BA  0E0A               	movlw	10
  4767  0024BC  5DA8               	subwf	RefreshSchedulerIndicator@NumberFrom& (0+255),w,b
  4768  0024BE  E312               	bnc	l686
  4769  0024C0                     u6070:
  4770                           
  4771                           ; BSR set to: 0
  4772                           ;prog.c: 1091: setDigit(1, 13, getNumChar(NumberFrom / 10));
  4773  0024C0  0E0D               	movlw	13
  4774  0024C2  6E24               	movwf	setDigit@symbol,c
  4775  0024C4  C0A8  F01D         	movff	RefreshSchedulerIndicator@NumberFrom,___lwdiv@dividend
  4776  0024C8  C0A9  F01E         	movff	RefreshSchedulerIndicator@NumberFrom+1,___lwdiv@dividend+1
  4777  0024CC  6A20               	clrf	___lwdiv@divisor+1,c
  4778  0024CE  0E0A               	movlw	10
  4779  0024D0  6E1F               	movwf	___lwdiv@divisor,c
  4780  0024D2  EC8F  F01B         	call	___lwdiv	;wreg free
  4781  0024D6  501D               	movf	?___lwdiv,w,c
  4782  0024D8  EC2E  F01A         	call	_getNumChar
  4783  0024DC  6E25               	movwf	setDigit@data,c
  4784  0024DE  0E01               	movlw	1
  4785  0024E0  EC85  F018         	call	_setDigit
  4786  0024E4                     l686:
  4787                           
  4788                           ;prog.c: 1092: }
  4789                           ;prog.c: 1093: setDigit(1, 14, getNumChar(NumberFrom % 10));
  4790  0024E4  0E0E               	movlw	14
  4791  0024E6  6E24               	movwf	setDigit@symbol,c
  4792  0024E8  C0A8  F01D         	movff	RefreshSchedulerIndicator@NumberFrom,___lwmod@dividend
  4793  0024EC  C0A9  F01E         	movff	RefreshSchedulerIndicator@NumberFrom+1,___lwmod@dividend+1
  4794  0024F0  6A20               	clrf	___lwmod@divisor+1,c
  4795  0024F2  0E0A               	movlw	10
  4796  0024F4  6E1F               	movwf	___lwmod@divisor,c
  4797  0024F6  EC1C  F01C         	call	___lwmod	;wreg free
  4798  0024FA  501D               	movf	?___lwmod,w,c
  4799  0024FC  EC2E  F01A         	call	_getNumChar
  4800  002500  6E25               	movwf	setDigit@data,c
  4801  002502  0E01               	movlw	1
  4802  002504  EC85  F018         	call	_setDigit
  4803  002508                     l7609:
  4804                           
  4805                           ;prog.c: 1094: }
  4806                           ;prog.c: 1095: outputString("new ", 0, 4);
  4807  002508  0E34               	movlw	low STR_13
  4808  00250A  6E2D               	movwf	outputString@stringData,c
  4809  00250C  D810               	call	PL54	;call to abstracted procedure
  4810  00250E  0E04               	movlw	4
  4811  002510  6E30               	movwf	outputString@position,c
  4812  002512  ECAD  F017         	call	_outputString	;wreg free
  4813  002516                     l7611:
  4814                           
  4815                           ;prog.c: 1096: }
  4816                           ;prog.c: 1097: outputString("cell ", 0, 8);
  4817  002516  0E2E               	movlw	low STR_14
  4818  002518  6E2D               	movwf	outputString@stringData,c
  4819  00251A  D809               	call	PL54	;call to abstracted procedure
  4820  00251C  0E08               	movlw	8
  4821  00251E  6E30               	movwf	outputString@position,c
  4822  002520  ECAD  F017         	call	_outputString	;wreg free
  4823                           
  4824                           ;prog.c: 1099: return adress;
  4825  002524  C040  F040         	movff	RefreshSchedulerIndicator@adress,?_RefreshSchedulerIndicator
  4826  002528  C041  F041         	movff	RefreshSchedulerIndicator@adress+1,?_RefreshSchedulerIndicator+1
  4827  00252C  0012               	return		;funcret
  4828  00252E                     __end_of_RefreshSchedulerIndicator:
  4829                           	opt stack 0
  4830  00252E                     PL54:
  4831                           	opt stack 18
  4832  00252E  502D               	movf	outputString@stringData,w,c
  4833  002530  A4D8               	btfss	status,2,c
  4834  002532  0E10               	movlw	high __smallconst
  4835  002534  6E2E               	movwf	outputString@stringData+1,c
  4836  002536  6A2F               	clrf	outputString@line,c
  4837  002538  0012               	return	
  4838  00253A                     __end_ofPL54:
  4839                           	opt stack 0
  4840  00253A                     PL116:
  4841                           	opt stack 18
  4842  00253A  6E24               	movwf	setDigit@symbol,c
  4843  00253C  0E2D               	movlw	45
  4844  00253E  6E25               	movwf	setDigit@data,c
  4845  002540  0C00               	retlw	0
  4846  002542                     __end_ofPL116:
  4847                           	opt stack 0
  4848  002542                     PL134:
  4849                           	opt stack 18
  4850  002542  90D8               	bcf	status,0,c
  4851  002544  3246               	rrcf	??_RefreshSchedulerIndicator+1,f,c
  4852  002546  3245               	rrcf	??_RefreshSchedulerIndicator,f,c
  4853  002548  2845               	incf	??_RefreshSchedulerIndicator,w,c
  4854  00254A  0012               	return	
  4855  00254C                     __end_ofPL134:
  4856                           	opt stack 0
  4857  00254C                     PL154:
  4858                           	opt stack 18
  4859  00254C  90D8               	bcf	status,0,c
  4860  00254E  3246               	rrcf	??_RefreshSchedulerIndicator+1,f,c
  4861  002550  3245               	rrcf	??_RefreshSchedulerIndicator,f,c
  4862  002552  0012               	return	
  4863  002554                     __end_ofPL154:
  4864                           	opt stack 0
  4865  002554                     PL158:
  4866                           	opt stack 18
  4867  002554  6A2F               	clrf	outputString@line,c
  4868  002556  0E0D               	movlw	13
  4869  002558  6E30               	movwf	outputString@position,c
  4870  00255A  0C0D               	retlw	13
  4871  00255C                     __end_ofPL158:
  4872                           	opt stack 0
  4873                           tblptru	equ	0xFF8
  4874                           tblptrh	equ	0xFF7
  4875                           tblptrl	equ	0xFF6
  4876                           tablat	equ	0xFF5
  4877                           prodh	equ	0xFF4
  4878                           prodl	equ	0xFF3
  4879                           intcon	equ	0xFF2
  4880                           intcon2	equ	0xFF1
  4881                           intcon3	equ	0xFF0
  4882                           postinc0	equ	0xFEE
  4883                           wreg	equ	0xFE8
  4884                           indf1	equ	0xFE7
  4885                           postdec1	equ	0xFE5
  4886                           plusw1	equ	0xFE3
  4887                           fsr1h	equ	0xFE2
  4888                           fsr1l	equ	0xFE1
  4889                           indf2	equ	0xFDF
  4890                           postinc2	equ	0xFDE
  4891                           postdec2	equ	0xFDD
  4892                           plusw2	equ	0xFDB
  4893                           fsr2h	equ	0xFDA
  4894                           fsr2l	equ	0xFD9
  4895                           status	equ	0xFD8
  4896                           
  4897 ;; *************** function _NumericToString *****************
  4898 ;; Defined at:
  4899 ;;		line 417 in file "prog.c"
  4900 ;; Parameters:    Size  Location     Type
  4901 ;;  n               4   41[COMRAM] unsigned long 
  4902 ;;  mySring         1   45[COMRAM] PTR unsigned char 
  4903 ;;		 -> RefreshSchedulerIndicator@num(3), 
  4904 ;;  size            1   46[COMRAM] unsigned char 
  4905 ;; Auto vars:     Size  Location     Type
  4906 ;;  displacement    1   49[COMRAM] unsigned char 
  4907 ;; Return value:  Size  Location     Type
  4908 ;;                  1    wreg      void 
  4909 ;; Registers used:
  4910 ;;		wreg, fsr2l, fsr2h, status,2, status,0, cstack
  4911 ;; Tracked objects:
  4912 ;;		On entry : F/0
  4913 ;;		On exit  : 0/0
  4914 ;;		Unchanged: 0/0
  4915 ;; Data sizes:     COMRAM   BANK0   BANK1   BANK2   BANK3   BANK4   BANK5   BANK6   BANK7   BANK8   BANK9  BANK10  BANK1
      +1  BANK12  BANK13  BANK14  BANK15
  4916 ;;      Params:         6       0       0       0       0       0       0       0       0       0       0       0       
      +0       0       0       0       0
  4917 ;;      Locals:         1       0       0       0       0       0       0       0       0       0       0       0       
      +0       0       0       0       0
  4918 ;;      Temps:          2       0       0       0       0       0       0       0       0       0       0       0       
      +0       0       0       0       0
  4919 ;;      Totals:         9       0       0       0       0       0       0       0       0       0       0       0       
      +0       0       0       0       0
  4920 ;;Total ram usage:        9 bytes
  4921 ;; Hardware stack levels used:    1
  4922 ;; Hardware stack levels required when called:    5
  4923 ;; This function calls:
  4924 ;;		___lldiv
  4925 ;;		___llmod
  4926 ;;		_getNumChar
  4927 ;; This function is called by:
  4928 ;;		_RefreshSchedulerIndicator
  4929 ;; This function uses a non-reentrant model
  4930 ;;
  4931                           
  4932                           	psect	text11
  4933  002FEE                     __ptext11:
  4934                           	opt stack 0
  4935  002FEE                     _NumericToString:
  4936                           	opt stack 20
  4937                           
  4938                           ; BSR set to: 0
  4939                           ;prog.c: 418: unsigned char displacement = 1;
  4940                           
  4941                           ;incstack = 0
  4942  002FEE  0E01               	movlw	1
  4943  002FF0  6E32               	movwf	NumericToString@displacement,c
  4944  002FF2                     l4887:
  4945                           
  4946                           ;prog.c: 420: mySring[size - displacement] = getNumChar(n % 10);
  4947  002FF2  5032               	movf	NumericToString@displacement,w,c
  4948  002FF4  5C2E               	subwf	NumericToString@mySring,w,c
  4949  002FF6  242F               	addwf	NumericToString@size,w,c
  4950  002FF8  6ED9               	movwf	fsr2l,c
  4951  002FFA  6ADA               	clrf	fsr2h,c
  4952  002FFC  C02A  F01D         	movff	NumericToString@n,___llmod@dividend
  4953  003000  C02B  F01E         	movff	NumericToString@n+1,___llmod@dividend+1
  4954  003004  C02C  F01F         	movff	NumericToString@n+2,___llmod@dividend+2
  4955  003008  C02D  F020         	movff	NumericToString@n+3,___llmod@dividend+3
  4956  00300C  0E0A               	movlw	10
  4957  00300E  6E21               	movwf	___llmod@divisor,c
  4958  003010  6A22               	clrf	___llmod@divisor+1,c
  4959  003012  6A23               	clrf	___llmod@divisor+2,c
  4960  003014  6A24               	clrf	___llmod@divisor+3,c
  4961  003016  EC92  F01A         	call	___llmod	;wreg free
  4962  00301A  501D               	movf	?___llmod,w,c
  4963  00301C  EC2E  F01A         	call	_getNumChar
  4964  003020  6EDF               	movwf	indf2,c
  4965                           
  4966                           ;prog.c: 421: n /= 10;
  4967  003022  C02A  F01D         	movff	NumericToString@n,___lldiv@dividend
  4968  003026  C02B  F01E         	movff	NumericToString@n+1,___lldiv@dividend+1
  4969  00302A  C02C  F01F         	movff	NumericToString@n+2,___lldiv@dividend+2
  4970  00302E  C02D  F020         	movff	NumericToString@n+3,___lldiv@dividend+3
  4971  003032  0E0A               	movlw	10
  4972  003034  6E21               	movwf	___lldiv@divisor,c
  4973  003036  6A22               	clrf	___lldiv@divisor+1,c
  4974  003038  6A23               	clrf	___lldiv@divisor+2,c
  4975  00303A  6A24               	clrf	___lldiv@divisor+3,c
  4976  00303C  EC89  F019         	call	___lldiv	;wreg free
  4977  003040  C01D  F02A         	movff	?___lldiv,NumericToString@n
  4978  003044  C01E  F02B         	movff	?___lldiv+1,NumericToString@n+1
  4979  003048  C01F  F02C         	movff	?___lldiv+2,NumericToString@n+2
  4980  00304C  C020  F02D         	movff	?___lldiv+3,NumericToString@n+3
  4981                           
  4982                           ;prog.c: 422: displacement++;
  4983  003050  2A32               	incf	NumericToString@displacement,f,c
  4984                           
  4985                           ;prog.c: 423: } while ((size - (displacement - 1) > 0) && (n > 0));
  4986  003052  5032               	movf	NumericToString@displacement,w,c
  4987  003054  C02F  F030         	movff	NumericToString@size,??_NumericToString
  4988  003058  6A31               	clrf	(??_NumericToString+1)& (0+255),c
  4989  00305A  5E30               	subwf	??_NumericToString,f,c
  4990  00305C  0E00               	movlw	0
  4991  00305E  5A31               	subwfb	??_NumericToString+1,f,c
  4992  003060  2A30               	incf	??_NumericToString,f,c
  4993  003062  2231               	addwfc	??_NumericToString+1,f,c
  4994  003064  BE31               	btfsc	??_NumericToString+1,7,c
  4995  003066  0C00               	retlw	0
  4996  003068  5031               	movf	??_NumericToString+1,w,c
  4997  00306A  E103               	bnz	u3190
  4998  00306C  0430               	decf	??_NumericToString,w,c
  4999  00306E  A0D8               	btfss	status,0,c
  5000  003070  0012               	return	
  5001  003072                     u3190:
  5002  003072  502A               	movf	NumericToString@n,w,c
  5003  003074  102B               	iorwf	NumericToString@n+1,w,c
  5004  003076  102C               	iorwf	NumericToString@n+2,w,c
  5005  003078  102D               	iorwf	NumericToString@n+3,w,c
  5006  00307A  E1BB               	bnz	l4887
  5007  00307C  0012               	return		;funcret
  5008  00307E                     __end_of_NumericToString:
  5009                           	opt stack 0
  5010                           tblptru	equ	0xFF8
  5011                           tblptrh	equ	0xFF7
  5012                           tblptrl	equ	0xFF6
  5013                           tablat	equ	0xFF5
  5014                           prodh	equ	0xFF4
  5015                           prodl	equ	0xFF3
  5016                           intcon	equ	0xFF2
  5017                           intcon2	equ	0xFF1
  5018                           intcon3	equ	0xFF0
  5019                           postinc0	equ	0xFEE
  5020                           wreg	equ	0xFE8
  5021                           indf1	equ	0xFE7
  5022                           postdec1	equ	0xFE5
  5023                           plusw1	equ	0xFE3
  5024                           fsr1h	equ	0xFE2
  5025                           fsr1l	equ	0xFE1
  5026                           indf2	equ	0xFDF
  5027                           postinc2	equ	0xFDE
  5028                           postdec2	equ	0xFDD
  5029                           plusw2	equ	0xFDB
  5030                           fsr2h	equ	0xFDA
  5031                           fsr2l	equ	0xFD9
  5032                           status	equ	0xFD8
  5033                           
  5034 ;; *************** function ___llmod *****************
  5035 ;; Defined at:
  5036 ;;		line 8 in file "/opt/microchip/xc8/v1.37/sources/common/llmod.c"
  5037 ;; Parameters:    Size  Location     Type
  5038 ;;  dividend        4   28[COMRAM] unsigned long 
  5039 ;;  divisor         4   32[COMRAM] unsigned long 
  5040 ;; Auto vars:     Size  Location     Type
  5041 ;;  counter         1   36[COMRAM] unsigned char 
  5042 ;; Return value:  Size  Location     Type
  5043 ;;                  4   28[COMRAM] unsigned long 
  5044 ;; Registers used:
  5045 ;;		wreg, status,2, status,0
  5046 ;; Tracked objects:
  5047 ;;		On entry : 0/0
  5048 ;;		On exit  : 0/0
  5049 ;;		Unchanged: 0/0
  5050 ;; Data sizes:     COMRAM   BANK0   BANK1   BANK2   BANK3   BANK4   BANK5   BANK6   BANK7   BANK8   BANK9  BANK10  BANK1
      +1  BANK12  BANK13  BANK14  BANK15
  5051 ;;      Params:         8       0       0       0       0       0       0       0       0       0       0       0       
      +0       0       0       0       0
  5052 ;;      Locals:         1       0       0       0       0       0       0       0       0       0       0       0       
      +0       0       0       0       0
  5053 ;;      Temps:          0       0       0       0       0       0       0       0       0       0       0       0       
      +0       0       0       0       0
  5054 ;;      Totals:         9       0       0       0       0       0       0       0       0       0       0       0       
      +0       0       0       0       0
  5055 ;;Total ram usage:        9 bytes
  5056 ;; Hardware stack levels used:    1
  5057 ;; Hardware stack levels required when called:    4
  5058 ;; This function calls:
  5059 ;;		Nothing
  5060 ;; This function is called by:
  5061 ;;		_NumericToString
  5062 ;; This function uses a non-reentrant model
  5063 ;;
  5064                           
  5065                           	psect	text12
  5066  003524                     __ptext12:
  5067                           	opt stack 0
  5068  003524                     ___llmod:
  5069                           	opt stack 20
  5070                           
  5071                           ;incstack = 0
  5072  003524  5021               	movf	___llmod@divisor,w,c
  5073  003526  1022               	iorwf	___llmod@divisor+1,w,c
  5074  003528  1023               	iorwf	___llmod@divisor+2,w,c
  5075  00352A  1024               	iorwf	___llmod@divisor+3,w,c
  5076  00352C  E023               	bz	l1481
  5077  00352E  0E01               	movlw	1
  5078  003530  6E25               	movwf	___llmod@counter,c
  5079  003532  D006               	goto	l4785
  5080  003534                     l4783:
  5081  003534  90D8               	bcf	status,0,c
  5082  003536  3621               	rlcf	___llmod@divisor,f,c
  5083  003538  3622               	rlcf	___llmod@divisor+1,f,c
  5084  00353A  3623               	rlcf	___llmod@divisor+2,f,c
  5085  00353C  3624               	rlcf	___llmod@divisor+3,f,c
  5086  00353E  2A25               	incf	___llmod@counter,f,c
  5087  003540                     l4785:
  5088  003540  AE24               	btfss	___llmod@divisor+3,7,c
  5089  003542  D7F8               	goto	l4783
  5090  003544                     l4787:
  5091  003544  5021               	movf	___llmod@divisor,w,c
  5092  003546  5C1D               	subwf	___llmod@dividend,w,c
  5093  003548  5022               	movf	___llmod@divisor+1,w,c
  5094  00354A  581E               	subwfb	___llmod@dividend+1,w,c
  5095  00354C  5023               	movf	___llmod@divisor+2,w,c
  5096  00354E  581F               	subwfb	___llmod@dividend+2,w,c
  5097  003550  5024               	movf	___llmod@divisor+3,w,c
  5098  003552  5820               	subwfb	___llmod@dividend+3,w,c
  5099  003554  E308               	bnc	l4791
  5100  003556  5021               	movf	___llmod@divisor,w,c
  5101  003558  5E1D               	subwf	___llmod@dividend,f,c
  5102  00355A  5022               	movf	___llmod@divisor+1,w,c
  5103  00355C  5A1E               	subwfb	___llmod@dividend+1,f,c
  5104  00355E  5023               	movf	___llmod@divisor+2,w,c
  5105  003560  5A1F               	subwfb	___llmod@dividend+2,f,c
  5106  003562  5024               	movf	___llmod@divisor+3,w,c
  5107  003564  5A20               	subwfb	___llmod@dividend+3,f,c
  5108  003566                     l4791:
  5109  003566  90D8               	bcf	status,0,c
  5110  003568  3224               	rrcf	___llmod@divisor+3,f,c
  5111  00356A  3223               	rrcf	___llmod@divisor+2,f,c
  5112  00356C  3222               	rrcf	___llmod@divisor+1,f,c
  5113  00356E  3221               	rrcf	___llmod@divisor,f,c
  5114  003570  2E25               	decfsz	___llmod@counter,f,c
  5115  003572  D7E8               	goto	l4787
  5116  003574                     l1481:
  5117  003574  C01D  F01D         	movff	___llmod@dividend,?___llmod
  5118  003578  C01E  F01E         	movff	___llmod@dividend+1,?___llmod+1
  5119  00357C  C01F  F01F         	movff	___llmod@dividend+2,?___llmod+2
  5120  003580  C020  F020         	movff	___llmod@dividend+3,?___llmod+3
  5121  003584  0012               	return		;funcret
  5122  003586                     __end_of___llmod:
  5123                           	opt stack 0
  5124                           tblptru	equ	0xFF8
  5125                           tblptrh	equ	0xFF7
  5126                           tblptrl	equ	0xFF6
  5127                           tablat	equ	0xFF5
  5128                           prodh	equ	0xFF4
  5129                           prodl	equ	0xFF3
  5130                           intcon	equ	0xFF2
  5131                           intcon2	equ	0xFF1
  5132                           intcon3	equ	0xFF0
  5133                           postinc0	equ	0xFEE
  5134                           wreg	equ	0xFE8
  5135                           indf1	equ	0xFE7
  5136                           postdec1	equ	0xFE5
  5137                           plusw1	equ	0xFE3
  5138                           fsr1h	equ	0xFE2
  5139                           fsr1l	equ	0xFE1
  5140                           indf2	equ	0xFDF
  5141                           postinc2	equ	0xFDE
  5142                           postdec2	equ	0xFDD
  5143                           plusw2	equ	0xFDB
  5144                           fsr2h	equ	0xFDA
  5145                           fsr2l	equ	0xFD9
  5146                           status	equ	0xFD8
  5147                           
  5148 ;; *************** function ___lldiv *****************
  5149 ;; Defined at:
  5150 ;;		line 8 in file "/opt/microchip/xc8/v1.37/sources/common/lldiv.c"
  5151 ;; Parameters:    Size  Location     Type
  5152 ;;  dividend        4   28[COMRAM] unsigned long 
  5153 ;;  divisor         4   32[COMRAM] unsigned long 
  5154 ;; Auto vars:     Size  Location     Type
  5155 ;;  quotient        4   36[COMRAM] unsigned long 
  5156 ;;  counter         1   40[COMRAM] unsigned char 
  5157 ;; Return value:  Size  Location     Type
  5158 ;;                  4   28[COMRAM] unsigned long 
  5159 ;; Registers used:
  5160 ;;		wreg, status,2, status,0
  5161 ;; Tracked objects:
  5162 ;;		On entry : 0/0
  5163 ;;		On exit  : 0/0
  5164 ;;		Unchanged: 0/0
  5165 ;; Data sizes:     COMRAM   BANK0   BANK1   BANK2   BANK3   BANK4   BANK5   BANK6   BANK7   BANK8   BANK9  BANK10  BANK1
      +1  BANK12  BANK13  BANK14  BANK15
  5166 ;;      Params:         8       0       0       0       0       0       0       0       0       0       0       0       
      +0       0       0       0       0
  5167 ;;      Locals:         5       0       0       0       0       0       0       0       0       0       0       0       
      +0       0       0       0       0
  5168 ;;      Temps:          0       0       0       0       0       0       0       0       0       0       0       0       
      +0       0       0       0       0
  5169 ;;      Totals:        13       0       0       0       0       0       0       0       0       0       0       0       
      +0       0       0       0       0
  5170 ;;Total ram usage:       13 bytes
  5171 ;; Hardware stack levels used:    1
  5172 ;; Hardware stack levels required when called:    4
  5173 ;; This function calls:
  5174 ;;		Nothing
  5175 ;; This function is called by:
  5176 ;;		_NumericToString
  5177 ;; This function uses a non-reentrant model
  5178 ;;
  5179                           
  5180                           	psect	text13
  5181  003312                     __ptext13:
  5182                           	opt stack 0
  5183  003312                     ___lldiv:
  5184                           	opt stack 20
  5185                           
  5186                           ;incstack = 0
  5187  003312  6A25               	clrf	___lldiv@quotient,c
  5188  003314  6A26               	clrf	___lldiv@quotient+1,c
  5189  003316  6A27               	clrf	___lldiv@quotient+2,c
  5190  003318  6A28               	clrf	___lldiv@quotient+3,c
  5191  00331A  5021               	movf	___lldiv@divisor,w,c
  5192  00331C  1022               	iorwf	___lldiv@divisor+1,w,c
  5193  00331E  1023               	iorwf	___lldiv@divisor+2,w,c
  5194  003320  1024               	iorwf	___lldiv@divisor+3,w,c
  5195  003322  E029               	bz	l1471
  5196  003324  0E01               	movlw	1
  5197  003326  6E29               	movwf	___lldiv@counter,c
  5198  003328  D006               	goto	l4765
  5199  00332A                     l4763:
  5200  00332A  90D8               	bcf	status,0,c
  5201  00332C  3621               	rlcf	___lldiv@divisor,f,c
  5202  00332E  3622               	rlcf	___lldiv@divisor+1,f,c
  5203  003330  3623               	rlcf	___lldiv@divisor+2,f,c
  5204  003332  3624               	rlcf	___lldiv@divisor+3,f,c
  5205  003334  2A29               	incf	___lldiv@counter,f,c
  5206  003336                     l4765:
  5207  003336  AE24               	btfss	___lldiv@divisor+3,7,c
  5208  003338  D7F8               	goto	l4763
  5209  00333A                     l4767:
  5210  00333A  90D8               	bcf	status,0,c
  5211  00333C  3625               	rlcf	___lldiv@quotient,f,c
  5212  00333E  3626               	rlcf	___lldiv@quotient+1,f,c
  5213  003340  3627               	rlcf	___lldiv@quotient+2,f,c
  5214  003342  3628               	rlcf	___lldiv@quotient+3,f,c
  5215  003344  5021               	movf	___lldiv@divisor,w,c
  5216  003346  5C1D               	subwf	___lldiv@dividend,w,c
  5217  003348  5022               	movf	___lldiv@divisor+1,w,c
  5218  00334A  581E               	subwfb	___lldiv@dividend+1,w,c
  5219  00334C  5023               	movf	___lldiv@divisor+2,w,c
  5220  00334E  581F               	subwfb	___lldiv@dividend+2,w,c
  5221  003350  5024               	movf	___lldiv@divisor+3,w,c
  5222  003352  5820               	subwfb	___lldiv@dividend+3,w,c
  5223  003354  E309               	bnc	l4775
  5224  003356  5021               	movf	___lldiv@divisor,w,c
  5225  003358  5E1D               	subwf	___lldiv@dividend,f,c
  5226  00335A  5022               	movf	___lldiv@divisor+1,w,c
  5227  00335C  5A1E               	subwfb	___lldiv@dividend+1,f,c
  5228  00335E  5023               	movf	___lldiv@divisor+2,w,c
  5229  003360  5A1F               	subwfb	___lldiv@dividend+2,f,c
  5230  003362  5024               	movf	___lldiv@divisor+3,w,c
  5231  003364  5A20               	subwfb	___lldiv@dividend+3,f,c
  5232  003366  8025               	bsf	___lldiv@quotient,0,c
  5233  003368                     l4775:
  5234  003368  90D8               	bcf	status,0,c
  5235  00336A  3224               	rrcf	___lldiv@divisor+3,f,c
  5236  00336C  3223               	rrcf	___lldiv@divisor+2,f,c
  5237  00336E  3222               	rrcf	___lldiv@divisor+1,f,c
  5238  003370  3221               	rrcf	___lldiv@divisor,f,c
  5239  003372  2E29               	decfsz	___lldiv@counter,f,c
  5240  003374  D7E2               	goto	l4767
  5241  003376                     l1471:
  5242  003376  C025  F01D         	movff	___lldiv@quotient,?___lldiv
  5243  00337A  C026  F01E         	movff	___lldiv@quotient+1,?___lldiv+1
  5244  00337E  C027  F01F         	movff	___lldiv@quotient+2,?___lldiv+2
  5245  003382  C028  F020         	movff	___lldiv@quotient+3,?___lldiv+3
  5246  003386  0012               	return		;funcret
  5247  003388                     __end_of___lldiv:
  5248                           	opt stack 0
  5249                           tblptru	equ	0xFF8
  5250                           tblptrh	equ	0xFF7
  5251                           tblptrl	equ	0xFF6
  5252                           tablat	equ	0xFF5
  5253                           prodh	equ	0xFF4
  5254                           prodl	equ	0xFF3
  5255                           intcon	equ	0xFF2
  5256                           intcon2	equ	0xFF1
  5257                           intcon3	equ	0xFF0
  5258                           postinc0	equ	0xFEE
  5259                           wreg	equ	0xFE8
  5260                           indf1	equ	0xFE7
  5261                           postdec1	equ	0xFE5
  5262                           plusw1	equ	0xFE3
  5263                           fsr1h	equ	0xFE2
  5264                           fsr1l	equ	0xFE1
  5265                           indf2	equ	0xFDF
  5266                           postinc2	equ	0xFDE
  5267                           postdec2	equ	0xFDD
  5268                           plusw2	equ	0xFDB
  5269                           fsr2h	equ	0xFDA
  5270                           fsr2l	equ	0xFD9
  5271                           status	equ	0xFD8
  5272                           
  5273 ;; *************** function _FindCell *****************
  5274 ;; Defined at:
  5275 ;;		line 1018 in file "prog.c"
  5276 ;; Parameters:    Size  Location     Type
  5277 ;;  adressStart     2   57[COMRAM] unsigned int 
  5278 ;;  New             1   59[COMRAM] unsigned char 
  5279 ;;  previous        2   60[COMRAM] unsigned int 
  5280 ;; Auto vars:     Size  Location     Type
  5281 ;;  i               1   17[BANK0 ] unsigned char 
  5282 ;;  CellsData       8    0[BANK0 ] unsigned char [8]
  5283 ;;  Data            4   12[BANK0 ] unsigned long 
  5284 ;;  CellIsEmpty     1   16[BANK0 ] unsigned char 
  5285 ;;  adress          2   18[BANK0 ] unsigned int 
  5286 ;;  adressNew       2    8[BANK0 ] unsigned int 
  5287 ;; Return value:  Size  Location     Type
  5288 ;;                  2   57[COMRAM] unsigned int 
  5289 ;; Registers used:
  5290 ;;		wreg, fsr2l, fsr2h, status,2, status,0, cstack
  5291 ;; Tracked objects:
  5292 ;;		On entry : 0/1
  5293 ;;		On exit  : F/0
  5294 ;;		Unchanged: 0/0
  5295 ;; Data sizes:     COMRAM   BANK0   BANK1   BANK2   BANK3   BANK4   BANK5   BANK6   BANK7   BANK8   BANK9  BANK10  BANK1
      +1  BANK12  BANK13  BANK14  BANK15
  5296 ;;      Params:         5       0       0       0       0       0       0       0       0       0       0       0       
      +0       0       0       0       0
  5297 ;;      Locals:         0      20       0       0       0       0       0       0       0       0       0       0       
      +0       0       0       0       0
  5298 ;;      Temps:          1       0       0       0       0       0       0       0       0       0       0       0       
      +0       0       0       0       0
  5299 ;;      Totals:         6      20       0       0       0       0       0       0       0       0       0       0       
      +0       0       0       0       0
  5300 ;;Total ram usage:       26 bytes
  5301 ;; Hardware stack levels used:    1
  5302 ;; Hardware stack levels required when called:    7
  5303 ;; This function calls:
  5304 ;;		_ReadDataOfCell
  5305 ;; This function is called by:
  5306 ;;		_RefreshSchedulerIndicator
  5307 ;;		_Scheduler
  5308 ;;		_SchedulerNew
  5309 ;; This function uses a non-reentrant model
  5310 ;;
  5311                           
  5312                           	psect	text14
  5313  002A66                     __ptext14:
  5314                           	opt stack 0
  5315  002A66                     _FindCell:
  5316                           	opt stack 18
  5317                           
  5318                           ;prog.c: 1020: if (adressStart == (8 * 48)){
  5319                           
  5320                           ;incstack = 0
  5321  002A66  0E80               	movlw	128
  5322  002A68  183A               	xorwf	FindCell@adressStart,w,c
  5323  002A6A  E106               	bnz	l7503
  5324  002A6C  043B               	decf	FindCell@adressStart+1,w,c
  5325  002A6E  E104               	bnz	l7503
  5326                           
  5327                           ;prog.c: 1021: adressStart = ((8 * 48) - 8);
  5328  002A70  0E01               	movlw	1
  5329  002A72  6E3B               	movwf	FindCell@adressStart+1,c
  5330  002A74  0E78               	movlw	120
  5331  002A76  6E3A               	movwf	FindCell@adressStart,c
  5332  002A78                     l7503:
  5333                           
  5334                           ;prog.c: 1022: }
  5335                           ;prog.c: 1023: unsigned int adress = adressStart;
  5336  002A78  C03A  F092         	movff	FindCell@adressStart,FindCell@adress
  5337  002A7C  C03B  F093         	movff	FindCell@adressStart+1,FindCell@adress+1
  5338                           
  5339                           ;prog.c: 1024: unsigned int adressNew = (8 * 48);
  5340  002A80  0E01               	movlw	1
  5341  002A82  0100               	movlb	0	; () banked
  5342  002A84  6F89               	movwf	(FindCell@adressNew+1)& (0+255),b
  5343  002A86  0E80               	movlw	128
  5344  002A88  6F88               	movwf	FindCell@adressNew& (0+255),b
  5345  002A8A                     l7505:
  5346                           
  5347                           ; BSR set to: 0
  5348                           ;prog.c: 1027: if (!previous) {
  5349  002A8A  503D               	movf	FindCell@previous,w,c
  5350  002A8C  103E               	iorwf	FindCell@previous+1,w,c
  5351  002A8E  E10D               	bnz	l7513
  5352                           
  5353                           ; BSR set to: 0
  5354                           ;prog.c: 1028: adress == ((8 * 48) - 8) ? adress = 0 : adress += 8;
  5355  002A90  0E78               	movlw	120
  5356  002A92  1992               	xorwf	FindCell@adress& (0+255),w,b
  5357  002A94  E105               	bnz	l7511
  5358  002A96  0593               	decf	(FindCell@adress+1)& (0+255),w,b
  5359  002A98  E103               	bnz	l7511
  5360                           
  5361                           ; BSR set to: 0
  5362  002A9A  6B92               	clrf	FindCell@adress& (0+255),b
  5363  002A9C  6B93               	clrf	(FindCell@adress+1)& (0+255),b
  5364  002A9E  D011               	goto	l7519
  5365  002AA0                     l7511:
  5366                           
  5367                           ; BSR set to: 0
  5368  002AA0  0E08               	movlw	8
  5369  002AA2  2792               	addwf	FindCell@adress& (0+255),f,b
  5370  002AA4  0E00               	movlw	0
  5371  002AA6  2393               	addwfc	(FindCell@adress+1)& (0+255),f,b
  5372  002AA8  D00C               	goto	l7519
  5373  002AAA                     l7513:
  5374                           
  5375                           ; BSR set to: 0
  5376                           ;prog.c: 1030: adress == 0 ? adress = ((8 * 48) - 8) : adress -= 8;
  5377  002AAA  5192               	movf	FindCell@adress& (0+255),w,b
  5378  002AAC  1193               	iorwf	(FindCell@adress+1)& (0+255),w,b
  5379  002AAE  E105               	bnz	l7517
  5380                           
  5381                           ; BSR set to: 0
  5382  002AB0  0E01               	movlw	1
  5383  002AB2  6F93               	movwf	(FindCell@adress+1)& (0+255),b
  5384  002AB4  0E78               	movlw	120
  5385  002AB6  6F92               	movwf	FindCell@adress& (0+255),b
  5386  002AB8  D004               	goto	l7519
  5387  002ABA                     l7517:
  5388                           
  5389                           ; BSR set to: 0
  5390  002ABA  0E08               	movlw	8
  5391  002ABC  5F92               	subwf	FindCell@adress& (0+255),f,b
  5392  002ABE  0E00               	movlw	0
  5393  002AC0  5B93               	subwfb	(FindCell@adress+1)& (0+255),f,b
  5394  002AC2                     l7519:
  5395                           
  5396                           ; BSR set to: 0
  5397                           ;prog.c: 1031: }
  5398                           ;prog.c: 1033: unsigned long int Data = 0;
  5399  002AC2  6B8C               	clrf	FindCell@Data& (0+255),b
  5400  002AC4  6B8D               	clrf	(FindCell@Data+1)& (0+255),b
  5401  002AC6  6B8E               	clrf	(FindCell@Data+2)& (0+255),b
  5402  002AC8  6B8F               	clrf	(FindCell@Data+3)& (0+255),b
  5403                           
  5404                           ; BSR set to: 0
  5405                           ;prog.c: 1034: unsigned char CellsData [8];
  5406                           ;prog.c: 1035: ReadDataOfCell(&CellsData, &Data, adress);
  5407  002ACA  0E80               	movlw	low FindCell@CellsData
  5408  002ACC  6E2A               	movwf	ReadDataOfCell@CellsData,c
  5409  002ACE  6A2B               	clrf	ReadDataOfCell@CellsData+1,c
  5410  002AD0  0E8C               	movlw	low FindCell@Data
  5411  002AD2  6E2C               	movwf	ReadDataOfCell@Data,c
  5412  002AD4  6A2D               	clrf	ReadDataOfCell@Data+1,c
  5413  002AD6  C092  F02E         	movff	FindCell@adress,ReadDataOfCell@TargetAdress
  5414  002ADA  C093  F02F         	movff	FindCell@adress+1,ReadDataOfCell@TargetAdress+1
  5415  002ADE  EC3F  F018         	call	_ReadDataOfCell	;wreg free
  5416                           
  5417                           ;prog.c: 1036: unsigned char CellIsEmpty = 1;
  5418  002AE2  0E01               	movlw	1
  5419  002AE4  0100               	movlb	0	; () banked
  5420  002AE6  6F90               	movwf	FindCell@CellIsEmpty& (0+255),b
  5421                           
  5422                           ; BSR set to: 0
  5423                           ;prog.c: 1037: for(unsigned char i = 0; i < 8; i++){
  5424  002AE8  6B91               	clrf	FindCell@i& (0+255),b
  5425  002AEA                     l7531:
  5426                           
  5427                           ; BSR set to: 0
  5428                           ;prog.c: 1038: if(CellsData[i] != 0xFF) {
  5429  002AEA  5191               	movf	FindCell@i& (0+255),w,b
  5430  002AEC  0F80               	addlw	low FindCell@CellsData
  5431  002AEE  6ED9               	movwf	fsr2l,c
  5432  002AF0  6ADA               	clrf	fsr2h,c
  5433  002AF2  28DE               	incf	postinc2,w,c
  5434  002AF4  E001               	bz	l7535
  5435                           
  5436                           ; BSR set to: 0
  5437                           ;prog.c: 1039: CellIsEmpty = 0;
  5438  002AF6  6B90               	clrf	FindCell@CellIsEmpty& (0+255),b
  5439  002AF8                     l7535:
  5440                           
  5441                           ; BSR set to: 0
  5442  002AF8  2B91               	incf	FindCell@i& (0+255),f,b
  5443                           
  5444                           ; BSR set to: 0
  5445  002AFA  0E07               	movlw	7
  5446  002AFC  6591               	cpfsgt	FindCell@i& (0+255),b
  5447  002AFE  D7F5               	goto	l7531
  5448                           
  5449                           ; BSR set to: 0
  5450                           ;prog.c: 1040: }
  5451                           ;prog.c: 1041: }
  5452                           ;prog.c: 1043: if (New != 1 ? CellIsEmpty == 0 : CellIsEmpty == 1) {
  5453  002B00  043C               	decf	FindCell@New,w,c
  5454  002B02  E104               	bnz	l7543
  5455                           
  5456                           ; BSR set to: 0
  5457  002B04  0590               	decf	FindCell@CellIsEmpty& (0+255),w,b
  5458  002B06  E104               	bnz	L25
  5459  002B08                     u5881:
  5460  002B08  0E01               	movlw	1
  5461  002B0A  D003               	goto	u5910
  5462  002B0C                     l7543:
  5463                           
  5464                           ; BSR set to: 0
  5465  002B0C  5190               	movf	FindCell@CellIsEmpty& (0+255),w,b
  5466  002B0E  E0FC               	bz	u5881
  5467  002B10                     L25:
  5468  002B10  0E00               	movlw	0
  5469  002B12                     u5910:
  5470  002B12  6F8A               	movwf	_FindCell$1088& (0+255),b
  5471  002B14  6B8B               	clrf	(_FindCell$1088+1)& (0+255),b
  5472                           
  5473                           ; BSR set to: 0
  5474  002B16  518A               	movf	_FindCell$1088& (0+255),w,b
  5475  002B18  118B               	iorwf	(_FindCell$1088+1)& (0+255),w,b
  5476  002B1A  E005               	bz	l7549
  5477                           
  5478                           ; BSR set to: 0
  5479                           ;prog.c: 1044: adressNew = adress;
  5480  002B1C  C092  F088         	movff	FindCell@adress,FindCell@adressNew
  5481  002B20  C093  F089         	movff	FindCell@adress+1,FindCell@adressNew+1
  5482                           
  5483                           ;prog.c: 1045: break;
  5484  002B24  D006               	goto	l666
  5485  002B26                     l7549:
  5486                           
  5487                           ; BSR set to: 0
  5488                           ;prog.c: 1046: }
  5489                           ;prog.c: 1047: } while (adress != adressStart);
  5490  002B26  503A               	movf	FindCell@adressStart,w,c
  5491  002B28  1992               	xorwf	FindCell@adress& (0+255),w,b
  5492  002B2A  E1AF               	bnz	l7505
  5493  002B2C  503B               	movf	FindCell@adressStart+1,w,c
  5494  002B2E  1993               	xorwf	(FindCell@adress+1)& (0+255),w,b
  5495  002B30  E1AC               	bnz	l7505
  5496  002B32                     l666:
  5497                           
  5498                           ; BSR set to: 0
  5499                           ;prog.c: 1048: return adressNew;
  5500  002B32  C088  F03A         	movff	FindCell@adressNew,?_FindCell
  5501  002B36  C089  F03B         	movff	FindCell@adressNew+1,?_FindCell+1
  5502                           
  5503                           ; BSR set to: 0
  5504  002B3A  0012               	return		;funcret
  5505  002B3C                     __end_of_FindCell:
  5506                           	opt stack 0
  5507                           tblptru	equ	0xFF8
  5508                           tblptrh	equ	0xFF7
  5509                           tblptrl	equ	0xFF6
  5510                           tablat	equ	0xFF5
  5511                           prodh	equ	0xFF4
  5512                           prodl	equ	0xFF3
  5513                           intcon	equ	0xFF2
  5514                           intcon2	equ	0xFF1
  5515                           intcon3	equ	0xFF0
  5516                           postinc0	equ	0xFEE
  5517                           wreg	equ	0xFE8
  5518                           indf1	equ	0xFE7
  5519                           postdec1	equ	0xFE5
  5520                           plusw1	equ	0xFE3
  5521                           fsr1h	equ	0xFE2
  5522                           fsr1l	equ	0xFE1
  5523                           indf2	equ	0xFDF
  5524                           postinc2	equ	0xFDE
  5525                           postdec2	equ	0xFDD
  5526                           plusw2	equ	0xFDB
  5527                           fsr2h	equ	0xFDA
  5528                           fsr2l	equ	0xFD9
  5529                           status	equ	0xFD8
  5530                           
  5531 ;; *************** function _EditSchedule *****************
  5532 ;; Defined at:
  5533 ;;		line 1191 in file "prog.c"
  5534 ;; Parameters:    Size  Location     Type
  5535 ;;  adress          2   57[COMRAM] unsigned int 
  5536 ;;  SourceOfReco    2   59[COMRAM] unsigned int 
  5537 ;; Auto vars:     Size  Location     Type
  5538 ;;  f               1   74[BANK0 ] unsigned char 
  5539 ;;  j               1   80[BANK0 ] unsigned char 
  5540 ;;  T               4   68[BANK0 ] unsigned int [2]
  5541 ;;  string2        12   32[BANK0 ] unsigned char [12]
  5542 ;;  d               1   85[BANK0 ] unsigned char 
  5543 ;;  n               1   87[BANK0 ] unsigned char 
  5544 ;;  BorderUp        1   67[BANK0 ] unsigned char 
  5545 ;;  string         12   20[BANK0 ] unsigned char [12]
  5546 ;;  TimeData        8   54[BANK0 ] unsigned char [8]
  5547 ;;  CellsData       8   44[BANK0 ] unsigned char [8]
  5548 ;;  Times           4   76[BANK0 ] unsigned int [2]
  5549 ;;  Data            4   81[BANK0 ] unsigned long 
  5550 ;;  TimeStop        2   65[BANK0 ] unsigned int 
  5551 ;;  TimeStart       2   63[BANK0 ] unsigned int 
  5552 ;;  TargetAdress    2   52[BANK0 ] unsigned int 
  5553 ;;  key             1   86[BANK0 ] unsigned char 
  5554 ;;  mode            1   75[BANK0 ] unsigned char 
  5555 ;;  Signals         1   73[BANK0 ] unsigned char 
  5556 ;;  Days            1   72[BANK0 ] unsigned char 
  5557 ;;  BeginEditTim    1   62[BANK0 ] unsigned char 
  5558 ;; Return value:  Size  Location     Type
  5559 ;;                  1    wreg      unsigned char 
  5560 ;; Registers used:
  5561 ;;		wreg, fsr1l, fsr1h, fsr2l, fsr2h, status,2, status,0, tblptrl, tblptrh, tblptru, prodl, prodh, cstack
  5562 ;; Tracked objects:
  5563 ;;		On entry : 0/1
  5564 ;;		On exit  : F/1
  5565 ;;		Unchanged: 0/0
  5566 ;; Data sizes:     COMRAM   BANK0   BANK1   BANK2   BANK3   BANK4   BANK5   BANK6   BANK7   BANK8   BANK9  BANK10  BANK1
      +1  BANK12  BANK13  BANK14  BANK15
  5567 ;;      Params:         4       0       0       0       0       0       0       0       0       0       0       0       
      +0       0       0       0       0
  5568 ;;      Locals:         0      68       0       0       0       0       0       0       0       0       0       0       
      +0       0       0       0       0
  5569 ;;      Temps:          0      20       0       0       0       0       0       0       0       0       0       0       
      +0       0       0       0       0
  5570 ;;      Totals:         4      88       0       0       0       0       0       0       0       0       0       0       
      +0       0       0       0       0
  5571 ;;Total ram usage:       92 bytes
  5572 ;; Hardware stack levels used:    1
  5573 ;; Hardware stack levels required when called:    7
  5574 ;; This function calls:
  5575 ;;		_ConvertDayToBit
  5576 ;;		_ItemsToIndicator
  5577 ;;		_ParseDataRecord
  5578 ;;		_ReadDataOfCell
  5579 ;;		_TimeDataToString
  5580 ;;		_TimesToTimeData
  5581 ;;		_WriteDataOfCell
  5582 ;;		___wmul
  5583 ;;		_clrInd
  5584 ;;		_entNum
  5585 ;;		_getBorderUp
  5586 ;;		_outputString
  5587 ;;		_setBlink
  5588 ;; This function is called by:
  5589 ;;		_Scheduler
  5590 ;;		_SchedulerNew
  5591 ;; This function uses a non-reentrant model
  5592 ;;
  5593                           
  5594                           	psect	text15
  5595  001620                     __ptext15:
  5596                           	opt stack 0
  5597  001620                     _EditSchedule:
  5598                           	opt stack 19
  5599                           
  5600                           ;prog.c: 1193: unsigned int TargetAdress;
  5601                           ;prog.c: 1194: if (SourceOfRecord == (8 * 48)) {
  5602                           
  5603                           ; BSR set to: 0
  5604                           ;incstack = 0
  5605  001620  0E80               	movlw	128
  5606  001622  183C               	xorwf	EditSchedule@SourceOfRecord,w,c
  5607  001624  E107               	bnz	l761
  5608  001626  043D               	decf	EditSchedule@SourceOfRecord+1,w,c
  5609  001628  E105               	bnz	l761
  5610                           
  5611                           ;prog.c: 1195: TargetAdress = adress;
  5612  00162A  C03A  F0B4         	movff	EditSchedule@adress,EditSchedule@TargetAdress
  5613  00162E  C03B  F0B5         	movff	EditSchedule@adress+1,EditSchedule@TargetAdress+1
  5614                           
  5615                           ;prog.c: 1196: } else {
  5616  001632  D004               	goto	l762
  5617  001634                     l761:
  5618                           
  5619                           ;prog.c: 1197: TargetAdress = SourceOfRecord;
  5620  001634  C03C  F0B4         	movff	EditSchedule@SourceOfRecord,EditSchedule@TargetAdress
  5621  001638  C03D  F0B5         	movff	EditSchedule@SourceOfRecord+1,EditSchedule@TargetAdress+1
  5622  00163C                     l762:
  5623                           
  5624                           ;prog.c: 1198: }
  5625                           ;prog.c: 1200: unsigned long int Data = 0;
  5626  00163C  0100               	movlb	0	; () banked
  5627  00163E  DA5C               	call	PL152	;call to abstracted procedure
  5628                           
  5629                           ; BSR set to: 0
  5630                           ;prog.c: 1201: unsigned char CellsData [8];
  5631                           ;prog.c: 1202: ReadDataOfCell(&CellsData, &Data, TargetAdress);
  5632  001640  0EAC               	movlw	low EditSchedule@CellsData
  5633  001642  6E2A               	movwf	ReadDataOfCell@CellsData,c
  5634  001644  6A2B               	clrf	ReadDataOfCell@CellsData+1,c
  5635  001646  0ED1               	movlw	low EditSchedule@Data
  5636  001648  6E2C               	movwf	ReadDataOfCell@Data,c
  5637  00164A  6A2D               	clrf	ReadDataOfCell@Data+1,c
  5638  00164C  C0B4  F02E         	movff	EditSchedule@TargetAdress,ReadDataOfCell@TargetAdress
  5639  001650  C0B5  F02F         	movff	EditSchedule@TargetAdress+1,ReadDataOfCell@TargetAdress+1
  5640  001654  EC3F  F018         	call	_ReadDataOfCell	;wreg free
  5641                           
  5642                           ;prog.c: 1204: char BeginEditTimes = 0;
  5643  001658  0100               	movlb	0	; () banked
  5644  00165A  6BBE               	clrf	EditSchedule@BeginEditTimes& (0+255),b
  5645                           
  5646                           ; BSR set to: 0
  5647                           ;prog.c: 1205: if (Data == 0xFFFFFFFF) {
  5648  00165C  29D1               	incf	EditSchedule@Data& (0+255),w,b
  5649  00165E  E109               	bnz	l7631
  5650  001660  29D2               	incf	(EditSchedule@Data+1)& (0+255),w,b
  5651  001662  E107               	bnz	l7631
  5652  001664  29D3               	incf	(EditSchedule@Data+2)& (0+255),w,b
  5653  001666  E105               	bnz	l7631
  5654  001668  29D4               	incf	(EditSchedule@Data+3)& (0+255),w,b
  5655  00166A  E103               	bnz	l7631
  5656                           
  5657                           ; BSR set to: 0
  5658                           ;prog.c: 1206: Data = 0;
  5659  00166C  DA45               	call	PL152	;call to abstracted procedure
  5660                           
  5661                           ; BSR set to: 0
  5662                           ;prog.c: 1207: BeginEditTimes = 1;
  5663  00166E  0E01               	movlw	1
  5664  001670  6FBE               	movwf	EditSchedule@BeginEditTimes& (0+255),b
  5665  001672                     l7631:
  5666                           
  5667                           ; BSR set to: 0
  5668                           ;prog.c: 1208: }
  5669                           ;prog.c: 1210: unsigned int TimeStart;
  5670                           ;prog.c: 1211: unsigned int TimeStop;
  5671                           ;prog.c: 1212: unsigned char Days;
  5672                           ;prog.c: 1213: unsigned char Signals;
  5673                           ;prog.c: 1214: ParseDataRecord(Data, &TimeStart, &TimeStop, &Days, &Signals);
  5674  001672  C0D1  F01D         	movff	EditSchedule@Data,ParseDataRecord@Data
  5675  001676  C0D2  F01E         	movff	EditSchedule@Data+1,ParseDataRecord@Data+1
  5676  00167A  C0D3  F01F         	movff	EditSchedule@Data+2,ParseDataRecord@Data+2
  5677  00167E  C0D4  F020         	movff	EditSchedule@Data+3,ParseDataRecord@Data+3
  5678  001682  0EBF               	movlw	low EditSchedule@TimeStart
  5679  001684  6E21               	movwf	ParseDataRecord@TimeStart,c
  5680  001686  6A22               	clrf	ParseDataRecord@TimeStart+1,c
  5681  001688  0EC1               	movlw	low EditSchedule@TimeStop
  5682  00168A  6E23               	movwf	ParseDataRecord@TimeStop,c
  5683  00168C  6A24               	clrf	ParseDataRecord@TimeStop+1,c
  5684  00168E  0EC8               	movlw	low EditSchedule@Days
  5685  001690  6E25               	movwf	ParseDataRecord@Days,c
  5686  001692  6A26               	clrf	ParseDataRecord@Days+1,c
  5687  001694  0EC9               	movlw	low EditSchedule@Signals
  5688  001696  6E27               	movwf	ParseDataRecord@Signals,c
  5689  001698  6A28               	clrf	ParseDataRecord@Signals+1,c
  5690  00169A  EC0C  F019         	call	_ParseDataRecord	;wreg free
  5691                           
  5692                           ;prog.c: 1216: unsigned int Times[2];
  5693                           ;prog.c: 1217: Times[0] = TimeStart;
  5694  00169E  C0BF  F0CC         	movff	EditSchedule@TimeStart,EditSchedule@Times
  5695  0016A2  C0C0  F0CD         	movff	EditSchedule@TimeStart+1,EditSchedule@Times+1
  5696                           
  5697                           ;prog.c: 1218: Times[1] = TimeStop;
  5698  0016A6  C0C1  F0CE         	movff	EditSchedule@TimeStop,EditSchedule@Times+2
  5699  0016AA  C0C2  F0CF         	movff	EditSchedule@TimeStop+1,EditSchedule@Times+3
  5700                           
  5701                           ;prog.c: 1220: unsigned char TimeData[8];
  5702                           ;prog.c: 1221: TimesToTimeData(Times, TimeData);
  5703  0016AE  DA29               	call	PL160	;call to abstracted procedure
  5704  0016B0  EC9E  F015         	call	_TimesToTimeData
  5705                           
  5706                           ;prog.c: 1223: clrInd();
  5707  0016B4  ECC3  F01A         	call	_clrInd	;wreg free
  5708  0016B8                     l7641:
  5709                           
  5710                           ;prog.c: 1225: char mode = 1;
  5711  0016B8  0E01               	movlw	1
  5712  0016BA  0100               	movlb	0	; () banked
  5713  0016BC  6FCB               	movwf	EditSchedule@mode& (0+255),b
  5714  0016BE                     l7643:
  5715                           
  5716                           ;prog.c: 1229: if (KeyCode == 43) {
  5717  0016BE  0E2B               	movlw	43
  5718  0016C0  185B               	xorwf	_KeyCode,w,c	;volatile
  5719  0016C2  E104               	bnz	l7655
  5720                           
  5721                           ;prog.c: 1230: KeyCode = 0;
  5722  0016C4  6A5B               	clrf	_KeyCode,c	;volatile
  5723                           
  5724                           ;prog.c: 1231: clrInd();
  5725  0016C6  ECC3  F01A         	call	_clrInd	;wreg free
  5726                           
  5727                           ; BSR set to: 1
  5728                           ;prog.c: 1232: return 0;
  5729  0016CA  0C00               	retlw	0
  5730  0016CC                     l7655:
  5731  0016CC  0E2A               	movlw	42
  5732  0016CE  185B               	xorwf	_KeyCode,w,c	;volatile
  5733  0016D0  E001 D1D1          	bnz	l7857
  5734                           
  5735                           ;prog.c: 1234: KeyCode = 0;
  5736  0016D4  6A5B               	clrf	_KeyCode,c	;volatile
  5737                           
  5738                           ;prog.c: 1235: Data = (unsigned long int) Signals * 0x20000000 + (unsigned long int) Day
      +                          s * 0x400000 + (unsigned long int) Times[1]*0x800 + (unsigned long int) Times[0];
  5739  0016D6  0100               	movlb	0	; () banked
  5740  0016D8  51CE               	movf	(EditSchedule@Times+2)& (0+255),w,b
  5741  0016DA  6F80               	movwf	??_EditSchedule& (0+255),b
  5742  0016DC  51CF               	movf	(EditSchedule@Times+3)& (0+255),w,b
  5743  0016DE  6F81               	movwf	(??_EditSchedule+1)& (0+255),b
  5744  0016E0  6B82               	clrf	(??_EditSchedule+2)& (0+255),b
  5745  0016E2  6B83               	clrf	(??_EditSchedule+3)& (0+255),b
  5746  0016E4  0E0B               	movlw	11
  5747  0016E6                     u6125:
  5748  0016E6  90D8               	bcf	status,0,c
  5749  0016E8  3780               	rlcf	??_EditSchedule& (0+255),f,b
  5750  0016EA  3781               	rlcf	(??_EditSchedule+1)& (0+255),f,b
  5751  0016EC  3782               	rlcf	(??_EditSchedule+2)& (0+255),f,b
  5752  0016EE  3783               	rlcf	(??_EditSchedule+3)& (0+255),f,b
  5753  0016F0  2EE8               	decfsz	wreg,f,c
  5754  0016F2  D7F9               	goto	u6125
  5755  0016F4  C0C8  F084         	movff	EditSchedule@Days,??_EditSchedule+4
  5756  0016F8  6B85               	clrf	(??_EditSchedule+5)& (0+255),b
  5757  0016FA  6B86               	clrf	(??_EditSchedule+6)& (0+255),b
  5758  0016FC  6B87               	clrf	(??_EditSchedule+7)& (0+255),b
  5759  0016FE  0E16               	movlw	22
  5760  001700                     u6135:
  5761  001700  90D8               	bcf	status,0,c
  5762  001702  3784               	rlcf	(??_EditSchedule+4)& (0+255),f,b
  5763  001704  3785               	rlcf	(??_EditSchedule+5)& (0+255),f,b
  5764  001706  3786               	rlcf	(??_EditSchedule+6)& (0+255),f,b
  5765  001708  3787               	rlcf	(??_EditSchedule+7)& (0+255),f,b
  5766  00170A  2EE8               	decfsz	wreg,f,c
  5767  00170C  D7F9               	goto	u6135
  5768  00170E  C0C9  F088         	movff	EditSchedule@Signals,??_EditSchedule+8
  5769  001712  6B89               	clrf	(??_EditSchedule+9)& (0+255),b
  5770  001714  6B8A               	clrf	(??_EditSchedule+10)& (0+255),b
  5771  001716  6B8B               	clrf	(??_EditSchedule+11)& (0+255),b
  5772  001718  0E1D               	movlw	29
  5773  00171A                     u6145:
  5774  00171A  90D8               	bcf	status,0,c
  5775  00171C  3788               	rlcf	(??_EditSchedule+8)& (0+255),f,b
  5776  00171E  3789               	rlcf	(??_EditSchedule+9)& (0+255),f,b
  5777  001720  378A               	rlcf	(??_EditSchedule+10)& (0+255),f,b
  5778  001722  378B               	rlcf	(??_EditSchedule+11)& (0+255),f,b
  5779  001724  2EE8               	decfsz	wreg,f,c
  5780  001726  D7F9               	goto	u6145
  5781  001728  5184               	movf	(??_EditSchedule+4)& (0+255),w,b
  5782  00172A  2588               	addwf	(??_EditSchedule+8)& (0+255),w,b
  5783  00172C  6F8C               	movwf	(??_EditSchedule+12)& (0+255),b
  5784  00172E  5185               	movf	(??_EditSchedule+5)& (0+255),w,b
  5785  001730  2189               	addwfc	(??_EditSchedule+9)& (0+255),w,b
  5786  001732  6F8D               	movwf	(??_EditSchedule+13)& (0+255),b
  5787  001734  5186               	movf	(??_EditSchedule+6)& (0+255),w,b
  5788  001736  218A               	addwfc	(??_EditSchedule+10)& (0+255),w,b
  5789  001738  6F8E               	movwf	(??_EditSchedule+14)& (0+255),b
  5790  00173A  5187               	movf	(??_EditSchedule+7)& (0+255),w,b
  5791  00173C  218B               	addwfc	(??_EditSchedule+11)& (0+255),w,b
  5792  00173E  6F8F               	movwf	(??_EditSchedule+15)& (0+255),b
  5793  001740  5180               	movf	??_EditSchedule& (0+255),w,b
  5794  001742  258C               	addwf	(??_EditSchedule+12)& (0+255),w,b
  5795  001744  6F90               	movwf	(??_EditSchedule+16)& (0+255),b
  5796  001746  5181               	movf	(??_EditSchedule+1)& (0+255),w,b
  5797  001748  218D               	addwfc	(??_EditSchedule+13)& (0+255),w,b
  5798  00174A  6F91               	movwf	(??_EditSchedule+17)& (0+255),b
  5799  00174C  5182               	movf	(??_EditSchedule+2)& (0+255),w,b
  5800  00174E  218E               	addwfc	(??_EditSchedule+14)& (0+255),w,b
  5801  001750  6F92               	movwf	(??_EditSchedule+18)& (0+255),b
  5802  001752  5183               	movf	(??_EditSchedule+3)& (0+255),w,b
  5803  001754  218F               	addwfc	(??_EditSchedule+15)& (0+255),w,b
  5804  001756  6F93               	movwf	(??_EditSchedule+19)& (0+255),b
  5805  001758  51CC               	movf	EditSchedule@Times& (0+255),w,b
  5806  00175A  2590               	addwf	(??_EditSchedule+16)& (0+255),w,b
  5807  00175C  6FD1               	movwf	EditSchedule@Data& (0+255),b
  5808  00175E  51CD               	movf	(EditSchedule@Times+1)& (0+255),w,b
  5809  001760  2191               	addwfc	(??_EditSchedule+17)& (0+255),w,b
  5810  001762  6FD2               	movwf	(EditSchedule@Data+1)& (0+255),b
  5811  001764  0E00               	movlw	0
  5812  001766  2192               	addwfc	(??_EditSchedule+18)& (0+255),w,b
  5813  001768  6FD3               	movwf	(EditSchedule@Data+2)& (0+255),b
  5814  00176A  0E00               	movlw	0
  5815  00176C  2193               	addwfc	(??_EditSchedule+19)& (0+255),w,b
  5816  00176E  6FD4               	movwf	(EditSchedule@Data+3)& (0+255),b
  5817                           
  5818                           ; BSR set to: 0
  5819                           ;prog.c: 1236: WriteDataOfCell(&CellsData, &Data, adress);
  5820  001770  0ED1               	movlw	low EditSchedule@Data
  5821  001772  6E29               	movwf	WriteDataOfCell@Data,c
  5822  001774  C03A  F02A         	movff	EditSchedule@adress,WriteDataOfCell@TargetAdress
  5823  001778  C03B  F02B         	movff	EditSchedule@adress+1,WriteDataOfCell@TargetAdress+1
  5824  00177C  0EAC               	movlw	EditSchedule@CellsData& (0+255)
  5825  00177E  ECF0  F01A         	call	_WriteDataOfCell
  5826                           
  5827                           ;prog.c: 1237: clrInd();
  5828  001782  ECC3  F01A         	call	_clrInd	;wreg free
  5829                           
  5830                           ; BSR set to: 1
  5831                           ;prog.c: 1238: return 1;
  5832  001786  0C01               	retlw	1
  5833  001788                     l7669:
  5834                           
  5835                           ; BSR set to: 0
  5836                           ;prog.c: 1243: {
  5837                           ;prog.c: 1244: unsigned char string [] = "**:**-**:**";
  5838  001788  EE21  F0BC         	lfsr	2,EditSchedule@F3123
  5839  00178C  EE10  F094         	lfsr	1,EditSchedule@string
  5840  001790  0E0B               	movlw	11
  5841  001792                     u6151:
  5842  001792  CFDB FFE3          	movff	plusw2,plusw1
  5843  001796  06E8               	decf	wreg,f,c
  5844  001798  E2FC               	bc	u6151
  5845                           
  5846                           ; BSR set to: 0
  5847                           ;prog.c: 1245: TimeDataToString(TimeData, string);
  5848  00179A  0E94               	movlw	low EditSchedule@string
  5849  00179C  6E1E               	movwf	TimeDataToString@string,c
  5850  00179E  0EB6               	movlw	EditSchedule@TimeData& (0+255)
  5851  0017A0  ECAE  F01C         	call	_TimeDataToString
  5852                           
  5853                           ;prog.c: 1246: outputString(string, 0, 5);
  5854  0017A4  0E94               	movlw	low EditSchedule@string
  5855  0017A6  D9A2               	call	PL124	;call to abstracted procedure
  5856  0017A8  ECAD  F017         	call	_outputString	;wreg free
  5857                           
  5858                           ;prog.c: 1248: if (KeyCode == 45 || BeginEditTimes == 1) {
  5859  0017AC  0E2D               	movlw	45
  5860  0017AE  185B               	xorwf	_KeyCode,w,c	;volatile
  5861  0017B0  E004               	bz	l775
  5862  0017B2  0100               	movlb	0	; () banked
  5863  0017B4  05BE               	decf	EditSchedule@BeginEditTimes& (0+255),w,b
  5864  0017B6  E001 D167          	bnz	l7859
  5865  0017BA                     l775:
  5866                           
  5867                           ;prog.c: 1249: KeyCode = 0;
  5868  0017BA  6A5B               	clrf	_KeyCode,c	;volatile
  5869                           
  5870                           ;prog.c: 1250: BeginEditTimes = 0;
  5871  0017BC  0100               	movlb	0	; () banked
  5872  0017BE  6BBE               	clrf	EditSchedule@BeginEditTimes& (0+255),b
  5873                           
  5874                           ; BSR set to: 0
  5875                           ;prog.c: 1251: char n = 5;
  5876  0017C0  0E05               	movlw	5
  5877  0017C2  6FD7               	movwf	EditSchedule@n& (0+255),b
  5878                           
  5879                           ; BSR set to: 0
  5880                           ;prog.c: 1252: setBlink(0, n, 1);
  5881  0017C4  D97C               	call	PL50	;call to abstracted procedure
  5882  0017C6  EC3B  F01C         	call	_setBlink
  5883                           
  5884                           ; BSR set to: 1
  5885                           ;prog.c: 1253: unsigned char BorderUp = 2;
  5886  0017CA  0E02               	movlw	2
  5887  0017CC  0100               	movlb	0	; () banked
  5888  0017CE  6FC3               	movwf	EditSchedule@BorderUp& (0+255),b
  5889  0017D0                     l7685:
  5890                           
  5891                           ; BSR set to: 0
  5892                           ;prog.c: 1255: if (KeyCode == 43) {
  5893  0017D0  0E2B               	movlw	43
  5894  0017D2  185B               	xorwf	_KeyCode,w,c	;volatile
  5895  0017D4  E104               	bnz	l7693
  5896                           
  5897                           ; BSR set to: 0
  5898                           ;prog.c: 1256: KeyCode = 0;
  5899  0017D6  6A5B               	clrf	_KeyCode,c	;volatile
  5900  0017D8                     l7689:
  5901                           
  5902                           ; BSR set to: 0
  5903                           ;prog.c: 1257: clrInd();
  5904  0017D8  ECC3  F01A         	call	_clrInd	;wreg free
  5905                           
  5906                           ;prog.c: 1258: break;
  5907  0017DC  D155               	goto	l7859
  5908  0017DE                     l7693:
  5909                           
  5910                           ; BSR set to: 0
  5911  0017DE  0E2A               	movlw	42
  5912  0017E0  185B               	xorwf	_KeyCode,w,c	;volatile
  5913  0017E2  E166               	bnz	l7729
  5914                           
  5915                           ; BSR set to: 0
  5916                           ;prog.c: 1260: KeyCode = 0;
  5917  0017E4  6A5B               	clrf	_KeyCode,c	;volatile
  5918                           
  5919                           ;prog.c: 1261: unsigned int T[2];
  5920                           ;prog.c: 1262: for (char j = 0; j < 2; j++) {
  5921  0017E6  6BD0               	clrf	EditSchedule@j& (0+255),b
  5922  0017E8                     l7697:
  5923                           
  5924                           ; BSR set to: 0
  5925  0017E8  0E01               	movlw	1
  5926  0017EA  65D0               	cpfsgt	EditSchedule@j& (0+255),b
  5927  0017EC  D001               	goto	l7701
  5928  0017EE  D03C               	goto	l782
  5929  0017F0                     l7701:
  5930                           
  5931                           ; BSR set to: 0
  5932                           ;prog.c: 1263: char f = j * 4;
  5933  0017F0  51D0               	movf	EditSchedule@j& (0+255),w,b
  5934  0017F2  0D04               	mullw	4
  5935  0017F4  CFF3 F0CA          	movff	prodl,EditSchedule@f
  5936                           
  5937                           ; BSR set to: 0
  5938                           ;prog.c: 1264: T[j] = TimeData[f + 0] * 600
  5939                           ;prog.c: 1265: + TimeData[f + 1] * 60
  5940                           ;prog.c: 1266: + TimeData[f + 2] * 10
  5941                           ;prog.c: 1267: + TimeData[f + 3];
  5942  0017F8  51CA               	movf	EditSchedule@f& (0+255),w,b
  5943  0017FA  D96E               	call	PL100	;call to abstracted procedure
  5944  0017FC  6E1D               	movwf	___wmul@multiplier,c
  5945  0017FE  6A1E               	clrf	___wmul@multiplier+1,c
  5946  001800  0E02               	movlw	2
  5947  001802  6E20               	movwf	___wmul@multiplicand+1,c
  5948  001804  0E58               	movlw	88
  5949  001806  6E1F               	movwf	___wmul@multiplicand,c
  5950  001808  EC63  F01D         	call	___wmul	;wreg free
  5951  00180C  C0CA  F080         	movff	EditSchedule@f,??_EditSchedule
  5952  001810  2B80               	incf	??_EditSchedule& (0+255),f,b
  5953  001812  5180               	movf	??_EditSchedule& (0+255),w,b
  5954  001814  D961               	call	PL100	;call to abstracted procedure
  5955  001816  0D3C               	mullw	60
  5956  001818  CFF3 F081          	movff	prodl,??_EditSchedule+1
  5957  00181C  CFF4 F082          	movff	prodh,??_EditSchedule+2
  5958  001820  C0CA  F083         	movff	EditSchedule@f,??_EditSchedule+3
  5959  001824  0E02               	movlw	2
  5960  001826  2783               	addwf	(??_EditSchedule+3)& (0+255),f,b
  5961  001828  5183               	movf	(??_EditSchedule+3)& (0+255),w,b
  5962  00182A  D956               	call	PL100	;call to abstracted procedure
  5963  00182C  0D0A               	mullw	10
  5964  00182E  50F3               	movf	prodl,w,c
  5965  001830  2781               	addwf	(??_EditSchedule+1)& (0+255),f,b
  5966  001832  50F4               	movf	prodh,w,c
  5967  001834  2382               	addwfc	(??_EditSchedule+2)& (0+255),f,b
  5968  001836  501D               	movf	?___wmul,w,c
  5969  001838  2781               	addwf	(??_EditSchedule+1)& (0+255),f,b
  5970  00183A  501E               	movf	?___wmul+1,w,c
  5971  00183C  2382               	addwfc	(??_EditSchedule+2)& (0+255),f,b
  5972  00183E  C0CA  F084         	movff	EditSchedule@f,??_EditSchedule+4
  5973  001842  0E03               	movlw	3
  5974  001844  2784               	addwf	(??_EditSchedule+4)& (0+255),f,b
  5975  001846  5184               	movf	(??_EditSchedule+4)& (0+255),w,b
  5976  001848  D947               	call	PL100	;call to abstracted procedure
  5977  00184A  2781               	addwf	(??_EditSchedule+1)& (0+255),f,b
  5978  00184C  0E00               	movlw	0
  5979  00184E  2382               	addwfc	(??_EditSchedule+2)& (0+255),f,b
  5980  001850  51D0               	movf	EditSchedule@j& (0+255),w,b
  5981  001852  0D02               	mullw	2
  5982  001854  50F3               	movf	prodl,w,c
  5983  001856  0FC4               	addlw	low EditSchedule@T
  5984  001858  6ED9               	movwf	fsr2l,c
  5985  00185A  6ADA               	clrf	fsr2h,c
  5986  00185C  C081  FFDE         	movff	??_EditSchedule+1,postinc2
  5987  001860  C082  FFDD         	movff	??_EditSchedule+2,postdec2
  5988                           
  5989                           ; BSR set to: 0
  5990  001864  2BD0               	incf	EditSchedule@j& (0+255),f,b
  5991  001866  D7C0               	goto	l7697
  5992  001868                     l782:
  5993                           
  5994                           ; BSR set to: 0
  5995                           ;prog.c: 1268: }
  5996                           ;prog.c: 1269: Times[0] = T[0];
  5997  001868  C0C4  F0CC         	movff	EditSchedule@T,EditSchedule@Times
  5998  00186C  C0C5  F0CD         	movff	EditSchedule@T+1,EditSchedule@Times+1
  5999                           
  6000                           ; BSR set to: 0
  6001                           ;prog.c: 1270: if (T[0] < T[1]) {
  6002  001870  51C6               	movf	(EditSchedule@T+2)& (0+255),w,b
  6003  001872  5DC4               	subwf	EditSchedule@T& (0+255),w,b
  6004  001874  51C7               	movf	(EditSchedule@T+3)& (0+255),w,b
  6005  001876  59C5               	subwfb	(EditSchedule@T+1)& (0+255),w,b
  6006  001878  E205               	bc	l7717
  6007                           
  6008                           ; BSR set to: 0
  6009                           ;prog.c: 1271: Times[1] = T[1];
  6010  00187A  C0C6  F0CE         	movff	EditSchedule@T+2,EditSchedule@Times+2
  6011  00187E  C0C7  F0CF         	movff	EditSchedule@T+3,EditSchedule@Times+3
  6012  001882  D7AA               	goto	l7689
  6013  001884                     l7717:
  6014                           
  6015                           ; BSR set to: 0
  6016                           ;prog.c: 1275: setBlink(0, n, 0);
  6017  001884  D92E               	call	PL118	;call to abstracted procedure
  6018  001886  EC3B  F01C         	call	_setBlink
  6019                           
  6020                           ; BSR set to: 1
  6021                           ;prog.c: 1276: n = 11;
  6022  00188A  0E0B               	movlw	11
  6023  00188C  0100               	movlb	0	; () banked
  6024  00188E  6FD7               	movwf	EditSchedule@n& (0+255),b
  6025                           
  6026                           ; BSR set to: 0
  6027                           ;prog.c: 1277: BorderUp = getBorderUp(n);
  6028  001890  51D7               	movf	EditSchedule@n& (0+255),w,b
  6029  001892  EC6A  F01B         	call	_getBorderUp
  6030  001896  0100               	movlb	0	; () banked
  6031  001898  6FC3               	movwf	EditSchedule@BorderUp& (0+255),b
  6032                           
  6033                           ; BSR set to: 0
  6034                           ;prog.c: 1278: Times[1] = T[0];
  6035  00189A  C0C4  F0CE         	movff	EditSchedule@T,EditSchedule@Times+2
  6036  00189E  C0C5  F0CF         	movff	EditSchedule@T+1,EditSchedule@Times+3
  6037                           
  6038                           ; BSR set to: 0
  6039                           ;prog.c: 1279: TimesToTimeData(Times, TimeData);
  6040  0018A2  D92F               	call	PL160	;call to abstracted procedure
  6041  0018A4  EC9E  F015         	call	_TimesToTimeData
  6042                           
  6043                           ;prog.c: 1280: setBlink(0, n, 1);
  6044  0018A8  D90A               	call	PL50	;call to abstracted procedure
  6045  0018AA  EC3B  F01C         	call	_setBlink
  6046  0018AE  D041               	goto	l7773
  6047  0018B0                     l7729:
  6048                           
  6049                           ; BSR set to: 0
  6050  0018B0  0E29               	movlw	41
  6051  0018B2  185B               	xorwf	_KeyCode,w,c	;volatile
  6052  0018B4  E11E               	bnz	l7751
  6053                           
  6054                           ; BSR set to: 0
  6055                           ;prog.c: 1283: KeyCode = 0;
  6056  0018B6  6A5B               	clrf	_KeyCode,c	;volatile
  6057                           
  6058                           ; BSR set to: 0
  6059                           ;prog.c: 1284: if (n > 5) {
  6060  0018B8  0E05               	movlw	5
  6061  0018BA  65D7               	cpfsgt	EditSchedule@n& (0+255),b
  6062  0018BC  D03A               	goto	l7773
  6063                           
  6064                           ; BSR set to: 0
  6065                           ;prog.c: 1285: setBlink(0, n, 0);
  6066  0018BE  D911               	call	PL118	;call to abstracted procedure
  6067  0018C0  EC3B  F01C         	call	_setBlink
  6068                           
  6069                           ; BSR set to: 1
  6070                           ;prog.c: 1286: (n == 8 || n == 11 || n == 14) ? n -= 2 : n--;
  6071  0018C4  0E08               	movlw	8
  6072  0018C6  0100               	movlb	0	; () banked
  6073  0018C8  19D7               	xorwf	EditSchedule@n& (0+255),w,b
  6074  0018CA  E006               	bz	l7743
  6075                           
  6076                           ; BSR set to: 0
  6077  0018CC  0E0B               	movlw	11
  6078  0018CE  19D7               	xorwf	EditSchedule@n& (0+255),w,b
  6079  0018D0  E003               	bz	l7743
  6080                           
  6081                           ; BSR set to: 0
  6082  0018D2  0E0E               	movlw	14
  6083  0018D4  19D7               	xorwf	EditSchedule@n& (0+255),w,b
  6084  0018D6  E103               	bnz	l7745
  6085  0018D8                     l7743:
  6086                           
  6087                           ; BSR set to: 0
  6088  0018D8  0E02               	movlw	2
  6089  0018DA  5FD7               	subwf	EditSchedule@n& (0+255),f,b
  6090  0018DC  D001               	goto	l7747
  6091  0018DE                     l7745:
  6092                           
  6093                           ; BSR set to: 0
  6094  0018DE  07D7               	decf	EditSchedule@n& (0+255),f,b
  6095  0018E0                     l7747:
  6096                           
  6097                           ; BSR set to: 0
  6098                           ;prog.c: 1287: BorderUp = getBorderUp(n);
  6099  0018E0  51D7               	movf	EditSchedule@n& (0+255),w,b
  6100  0018E2  EC6A  F01B         	call	_getBorderUp
  6101  0018E6  0100               	movlb	0	; () banked
  6102  0018E8  6FC3               	movwf	EditSchedule@BorderUp& (0+255),b
  6103                           
  6104                           ; BSR set to: 0
  6105                           ;prog.c: 1288: setBlink(0, n, 1);
  6106  0018EA  D8E9               	call	PL50	;call to abstracted procedure
  6107  0018EC  EC3B  F01C         	call	_setBlink
  6108  0018F0  D020               	goto	l7773
  6109  0018F2                     l7751:
  6110                           
  6111                           ; BSR set to: 0
  6112  0018F2  0E28               	movlw	40
  6113  0018F4  185B               	xorwf	_KeyCode,w,c	;volatile
  6114  0018F6  E11D               	bnz	l7773
  6115                           
  6116                           ; BSR set to: 0
  6117                           ;prog.c: 1291: KeyCode = 0;
  6118  0018F8  6A5B               	clrf	_KeyCode,c	;volatile
  6119                           
  6120                           ; BSR set to: 0
  6121                           ;prog.c: 1292: if (n < 15) {
  6122  0018FA  0E0F               	movlw	15
  6123  0018FC  61D7               	cpfslt	EditSchedule@n& (0+255),b
  6124  0018FE  D019               	goto	l7773
  6125                           
  6126                           ; BSR set to: 0
  6127                           ;prog.c: 1293: setBlink(0, n, 0);
  6128  001900  D8F0               	call	PL118	;call to abstracted procedure
  6129  001902  EC3B  F01C         	call	_setBlink
  6130                           
  6131                           ; BSR set to: 1
  6132                           ;prog.c: 1294: n == 6 || n == 9 || n == 12 ? n += 2 : n++;
  6133  001906  0E06               	movlw	6
  6134  001908  0100               	movlb	0	; () banked
  6135  00190A  19D7               	xorwf	EditSchedule@n& (0+255),w,b
  6136  00190C  E006               	bz	l7765
  6137                           
  6138                           ; BSR set to: 0
  6139  00190E  0E09               	movlw	9
  6140  001910  19D7               	xorwf	EditSchedule@n& (0+255),w,b
  6141  001912  E003               	bz	l7765
  6142                           
  6143                           ; BSR set to: 0
  6144  001914  0E0C               	movlw	12
  6145  001916  19D7               	xorwf	EditSchedule@n& (0+255),w,b
  6146  001918  E103               	bnz	l7767
  6147  00191A                     l7765:
  6148                           
  6149                           ; BSR set to: 0
  6150  00191A  0E02               	movlw	2
  6151  00191C  27D7               	addwf	EditSchedule@n& (0+255),f,b
  6152  00191E  D001               	goto	l7769
  6153  001920                     l7767:
  6154                           
  6155                           ; BSR set to: 0
  6156  001920  2BD7               	incf	EditSchedule@n& (0+255),f,b
  6157  001922                     l7769:
  6158                           
  6159                           ; BSR set to: 0
  6160                           ;prog.c: 1295: BorderUp = getBorderUp(n);
  6161  001922  51D7               	movf	EditSchedule@n& (0+255),w,b
  6162  001924  EC6A  F01B         	call	_getBorderUp
  6163  001928  0100               	movlb	0	; () banked
  6164  00192A  6FC3               	movwf	EditSchedule@BorderUp& (0+255),b
  6165                           
  6166                           ; BSR set to: 0
  6167                           ;prog.c: 1296: setBlink(0, n, 1);
  6168  00192C  D8C8               	call	PL50	;call to abstracted procedure
  6169  00192E  EC3B  F01C         	call	_setBlink
  6170  001932                     l7773:
  6171                           
  6172                           ;prog.c: 1297: }
  6173                           ;prog.c: 1298: }
  6174                           ;prog.c: 1300: unsigned char string2 [] = "**:**-**:**";
  6175  001932  EE21  F0C8         	lfsr	2,EditSchedule@F3130
  6176  001936  EE10  F0A0         	lfsr	1,EditSchedule@string2
  6177  00193A  0E0B               	movlw	11
  6178  00193C                     u6321:
  6179  00193C  CFDB FFE3          	movff	plusw2,plusw1
  6180  001940  06E8               	decf	wreg,f,c
  6181  001942  E2FC               	bc	u6321
  6182                           
  6183                           ;prog.c: 1301: TimeDataToString(TimeData, string2);
  6184  001944  0EA0               	movlw	low EditSchedule@string2
  6185  001946  6E1E               	movwf	TimeDataToString@string,c
  6186  001948  0EB6               	movlw	EditSchedule@TimeData& (0+255)
  6187  00194A  ECAE  F01C         	call	_TimeDataToString
  6188                           
  6189                           ;prog.c: 1302: outputString(string2, 0, 5);
  6190  00194E  0EA0               	movlw	low EditSchedule@string2
  6191  001950  D8CD               	call	PL124	;call to abstracted procedure
  6192  001952  ECAD  F017         	call	_outputString	;wreg free
  6193                           
  6194                           ;prog.c: 1304: char d = 0;
  6195  001956  0100               	movlb	0	; () banked
  6196  001958  6BD5               	clrf	EditSchedule@d& (0+255),b
  6197                           
  6198                           ;prog.c: 1305: switch(n){
  6199  00195A  D011               	goto	l7797
  6200  00195C                     l806:
  6201                           
  6202                           ; BSR set to: 0
  6203  00195C  6BD5               	clrf	EditSchedule@d& (0+255),b
  6204  00195E  D020               	goto	l7799
  6205  001960                     l7781:
  6206                           
  6207                           ; BSR set to: 0
  6208  001960  0E01               	movlw	1
  6209  001962  D00B               	goto	L13
  6210  001964                     l7783:
  6211                           
  6212                           ; BSR set to: 0
  6213  001964  0E02               	movlw	2
  6214  001966  D009               	goto	L13
  6215  001968                     l7785:
  6216                           
  6217                           ; BSR set to: 0
  6218  001968  0E03               	movlw	3
  6219  00196A  D007               	goto	L13
  6220  00196C                     l7787:
  6221                           
  6222                           ; BSR set to: 0
  6223  00196C  0E04               	movlw	4
  6224  00196E  D005               	goto	L13
  6225  001970                     l7789:
  6226                           
  6227                           ; BSR set to: 0
  6228  001970  0E05               	movlw	5
  6229  001972  D003               	goto	L13
  6230  001974                     l7791:
  6231                           
  6232                           ; BSR set to: 0
  6233  001974  0E06               	movlw	6
  6234  001976  D001               	goto	L13
  6235  001978                     l7793:
  6236                           
  6237                           ; BSR set to: 0
  6238  001978  0E07               	movlw	7
  6239  00197A                     L13:
  6240  00197A  6FD5               	movwf	EditSchedule@d& (0+255),b
  6241  00197C  D011               	goto	l7799
  6242  00197E                     l7797:
  6243                           
  6244                           ; BSR set to: 0
  6245  00197E  51D7               	movf	EditSchedule@n& (0+255),w,b
  6246                           
  6247                           ; Switch size 1, requested type "space"
  6248                           ; Number of cases is 8, Range of values is 5 to 15
  6249                           ; switch strategies available:
  6250                           ; Name         Instructions Cycles
  6251                           ; simple_byte           25    13 (average)
  6252                           ;	Chosen strategy is simple_byte
  6253  001980  0A05               	xorlw	5	; case 5
  6254  001982  E0EC               	bz	l806
  6255  001984  0A03               	xorlw	3	; case 6
  6256  001986  E0EC               	bz	l7781
  6257  001988  0A0E               	xorlw	14	; case 8
  6258  00198A  E0EC               	bz	l7783
  6259  00198C  0A01               	xorlw	1	; case 9
  6260  00198E  E0EC               	bz	l7785
  6261  001990  0A02               	xorlw	2	; case 11
  6262  001992  E0EC               	bz	l7787
  6263  001994  0A07               	xorlw	7	; case 12
  6264  001996  E0EC               	bz	l7789
  6265  001998  0A02               	xorlw	2	; case 14
  6266  00199A  E0EC               	bz	l7791
  6267  00199C  0A01               	xorlw	1	; case 15
  6268  00199E  E0EC               	bz	l7793
  6269  0019A0                     l7799:
  6270                           
  6271                           ; BSR set to: 0
  6272                           ;prog.c: 1316: key = entNum(0, BorderUp);
  6273  0019A0  C0C3  F01D         	movff	EditSchedule@BorderUp,entNum@borderUp
  6274  0019A4  0E00               	movlw	0
  6275  0019A6  EC3C  F01D         	call	_entNum
  6276  0019AA  0100               	movlb	0	; () banked
  6277  0019AC  6FD6               	movwf	EditSchedule@key& (0+255),b
  6278                           
  6279                           ; BSR set to: 0
  6280                           ;prog.c: 1317: if (key != 255) {
  6281  0019AE  29D6               	incf	EditSchedule@key& (0+255),w,b
  6282  0019B0  E101 D70E          	bz	l7685
  6283                           
  6284                           ; BSR set to: 0
  6285                           ;prog.c: 1318: TimeData[d] = key;
  6286  0019B4  51D5               	movf	EditSchedule@d& (0+255),w,b
  6287  0019B6  0FB6               	addlw	low EditSchedule@TimeData
  6288  0019B8  6ED9               	movwf	fsr2l,c
  6289  0019BA  6ADA               	clrf	fsr2h,c
  6290  0019BC  C0D6  FFDF         	movff	EditSchedule@key,indf2
  6291                           
  6292                           ; BSR set to: 0
  6293                           ;prog.c: 1319: if ((d == 0 || d == 4) && key == 2 && (TimeData[d+1] > 3)){
  6294  0019C0  51D5               	movf	EditSchedule@d& (0+255),w,b
  6295  0019C2  E003               	bz	l7809
  6296                           
  6297                           ; BSR set to: 0
  6298  0019C4  0E04               	movlw	4
  6299  0019C6  19D5               	xorwf	EditSchedule@d& (0+255),w,b
  6300  0019C8  E108               	bnz	l7815
  6301  0019CA                     l7809:
  6302                           
  6303                           ; BSR set to: 0
  6304  0019CA  0E02               	movlw	2
  6305  0019CC  19D6               	xorwf	EditSchedule@key& (0+255),w,b
  6306  0019CE  E105               	bnz	l7815
  6307                           
  6308                           ; BSR set to: 0
  6309  0019D0  D87B               	call	PL64	;call to abstracted procedure
  6310  0019D2  64DF               	cpfsgt	indf2,c
  6311  0019D4  D002               	goto	l7815
  6312                           
  6313                           ; BSR set to: 0
  6314                           ;prog.c: 1320: TimeData[d+1] = 3;
  6315  0019D6  D878               	call	PL64	;call to abstracted procedure
  6316  0019D8  6EDF               	movwf	indf2,c
  6317  0019DA                     l7815:
  6318                           
  6319                           ; BSR set to: 0
  6320                           ;prog.c: 1321: }
  6321                           ;prog.c: 1322: if (n > 1) {
  6322  0019DA  0E01               	movlw	1
  6323  0019DC  65D7               	cpfsgt	EditSchedule@n& (0+255),b
  6324  0019DE  D002               	goto	l7819
  6325                           
  6326                           ; BSR set to: 0
  6327                           ;prog.c: 1323: KeyCode = 40;
  6328  0019E0  0E28               	movlw	40
  6329  0019E2  D001               	goto	L14
  6330  0019E4                     l7819:
  6331                           
  6332                           ; BSR set to: 0
  6333                           ;prog.c: 1325: KeyCode = 42;
  6334  0019E4  0E2A               	movlw	42
  6335  0019E6                     L14:
  6336  0019E6  6E5B               	movwf	_KeyCode,c	;volatile
  6337  0019E8  D6F3               	goto	l7685
  6338  0019EA                     l7821:
  6339                           
  6340                           ; BSR set to: 0
  6341                           ;prog.c: 1333: {
  6342                           ;prog.c: 1334: ItemsToIndicator(Days, 8, 9);
  6343  0019EA  0E08               	movlw	8
  6344  0019EC  6E2D               	movwf	ItemsToIndicator@max_i,c
  6345  0019EE  0E09               	movlw	9
  6346  0019F0  6E2E               	movwf	ItemsToIndicator@firstDigit,c
  6347  0019F2  51C8               	movf	EditSchedule@Days& (0+255),w,b
  6348  0019F4  ECFC  F01B         	call	_ItemsToIndicator
  6349                           
  6350                           ;prog.c: 1335: key = entNum(1, 7);
  6351  0019F8  0E07               	movlw	7
  6352  0019FA  6E1D               	movwf	entNum@borderUp,c
  6353  0019FC  0E01               	movlw	1
  6354  0019FE  EC3C  F01D         	call	_entNum
  6355  001A02  0100               	movlb	0	; () banked
  6356  001A04  6FD6               	movwf	EditSchedule@key& (0+255),b
  6357                           
  6358                           ; BSR set to: 0
  6359                           ;prog.c: 1336: if (key != 255) {
  6360  001A06  29D6               	incf	EditSchedule@key& (0+255),w,b
  6361  001A08  E006               	bz	l7829
  6362                           
  6363                           ; BSR set to: 0
  6364                           ;prog.c: 1337: Days ^= ConvertDayToBit(key);
  6365  001A0A  51D6               	movf	EditSchedule@key& (0+255),w,b
  6366  001A0C  ECFC  F01C         	call	_ConvertDayToBit
  6367  001A10  0100               	movlb	0	; () banked
  6368  001A12  1BC8               	xorwf	EditSchedule@Days& (0+255),f,b
  6369                           
  6370                           ;prog.c: 1338: } else if (KeyCode == 30) {
  6371  001A14  D039               	goto	l7859
  6372  001A16                     l7829:
  6373                           
  6374                           ; BSR set to: 0
  6375  001A16  0E1E               	movlw	30
  6376  001A18  185B               	xorwf	_KeyCode,w,c	;volatile
  6377  001A1A  E103               	bnz	l7833
  6378                           
  6379                           ; BSR set to: 0
  6380                           ;prog.c: 1339: KeyCode = 0;
  6381  001A1C  6A5B               	clrf	_KeyCode,c	;volatile
  6382                           
  6383                           ;prog.c: 1340: Days = 0;
  6384  001A1E  6BC8               	clrf	EditSchedule@Days& (0+255),b
  6385                           
  6386                           ;prog.c: 1341: } else if (KeyCode == 45) {
  6387  001A20  D033               	goto	l7859
  6388  001A22                     l7833:
  6389                           
  6390                           ; BSR set to: 0
  6391  001A22  0E2D               	movlw	45
  6392  001A24  185B               	xorwf	_KeyCode,w,c	;volatile
  6393  001A26  E130               	bnz	l7859
  6394                           
  6395                           ; BSR set to: 0
  6396                           ;prog.c: 1342: KeyCode = 0;
  6397  001A28  6A5B               	clrf	_KeyCode,c	;volatile
  6398                           
  6399                           ; BSR set to: 0
  6400                           ;prog.c: 1343: Days = 0b01111111;
  6401  001A2A  0E7F               	movlw	127
  6402  001A2C  6FC8               	movwf	EditSchedule@Days& (0+255),b
  6403  001A2E  D02C               	goto	l7859
  6404  001A30                     l7839:
  6405                           
  6406                           ; BSR set to: 0
  6407                           ;prog.c: 1348: {
  6408                           ;prog.c: 1349: ItemsToIndicator(Signals, 4, 8);
  6409  001A30  0E04               	movlw	4
  6410  001A32  6E2D               	movwf	ItemsToIndicator@max_i,c
  6411  001A34  0E08               	movlw	8
  6412  001A36  6E2E               	movwf	ItemsToIndicator@firstDigit,c
  6413  001A38  51C9               	movf	EditSchedule@Signals& (0+255),w,b
  6414  001A3A  ECFC  F01B         	call	_ItemsToIndicator
  6415                           
  6416                           ;prog.c: 1350: key = entNum(1, 3);
  6417  001A3E  0E03               	movlw	3
  6418  001A40  6E1D               	movwf	entNum@borderUp,c
  6419  001A42  0E01               	movlw	1
  6420  001A44  EC3C  F01D         	call	_entNum
  6421  001A48  0100               	movlb	0	; () banked
  6422  001A4A  6FD6               	movwf	EditSchedule@key& (0+255),b
  6423                           
  6424                           ; BSR set to: 0
  6425                           ;prog.c: 1351: if (key != 255) {
  6426  001A4C  29D6               	incf	EditSchedule@key& (0+255),w,b
  6427  001A4E  E006               	bz	l7847
  6428                           
  6429                           ; BSR set to: 0
  6430                           ;prog.c: 1352: Signals ^= ConvertDayToBit(key);
  6431  001A50  51D6               	movf	EditSchedule@key& (0+255),w,b
  6432  001A52  ECFC  F01C         	call	_ConvertDayToBit
  6433  001A56  0100               	movlb	0	; () banked
  6434  001A58  1BC9               	xorwf	EditSchedule@Signals& (0+255),f,b
  6435                           
  6436                           ;prog.c: 1353: } else if (KeyCode == 30) {
  6437  001A5A  D016               	goto	l7859
  6438  001A5C                     l7847:
  6439                           
  6440                           ; BSR set to: 0
  6441  001A5C  0E1E               	movlw	30
  6442  001A5E  185B               	xorwf	_KeyCode,w,c	;volatile
  6443  001A60  E103               	bnz	l7851
  6444                           
  6445                           ; BSR set to: 0
  6446                           ;prog.c: 1354: KeyCode = 0;
  6447  001A62  6A5B               	clrf	_KeyCode,c	;volatile
  6448                           
  6449                           ;prog.c: 1355: Signals = 0;
  6450  001A64  6BC9               	clrf	EditSchedule@Signals& (0+255),b
  6451                           
  6452                           ;prog.c: 1356: } else if (KeyCode == 45) {
  6453  001A66  D010               	goto	l7859
  6454  001A68                     l7851:
  6455                           
  6456                           ; BSR set to: 0
  6457  001A68  0E2D               	movlw	45
  6458  001A6A  185B               	xorwf	_KeyCode,w,c	;volatile
  6459  001A6C  E10D               	bnz	l7859
  6460                           
  6461                           ; BSR set to: 0
  6462                           ;prog.c: 1357: KeyCode = 0;
  6463  001A6E  6A5B               	clrf	_KeyCode,c	;volatile
  6464                           
  6465                           ; BSR set to: 0
  6466                           ;prog.c: 1358: Signals = 0b00000111;
  6467  001A70  0E07               	movlw	7
  6468  001A72  6FC9               	movwf	EditSchedule@Signals& (0+255),b
  6469  001A74  D009               	goto	l7859
  6470  001A76                     l7857:
  6471  001A76  0100               	movlb	0	; () banked
  6472  001A78  51CB               	movf	EditSchedule@mode& (0+255),w,b
  6473                           
  6474                           ; Switch size 1, requested type "space"
  6475                           ; Number of cases is 3, Range of values is 1 to 3
  6476                           ; switch strategies available:
  6477                           ; Name         Instructions Cycles
  6478                           ; simple_byte           10     6 (average)
  6479                           ;	Chosen strategy is simple_byte
  6480  001A7A  0A01               	xorlw	1	; case 1
  6481  001A7C  E101 D684          	bz	l7669
  6482  001A80  0A03               	xorlw	3	; case 2
  6483  001A82  E0B3               	bz	l7821
  6484  001A84  0A01               	xorlw	1	; case 3
  6485  001A86  E0D4               	bz	l7839
  6486  001A88                     l7859:
  6487                           
  6488                           ;prog.c: 1362: if (KeyCode == 40) {
  6489  001A88  0E28               	movlw	40
  6490  001A8A  185B               	xorwf	_KeyCode,w,c	;volatile
  6491  001A8C  E10A               	bnz	l7871
  6492                           
  6493                           ;prog.c: 1363: KeyCode = 0;
  6494  001A8E  6A5B               	clrf	_KeyCode,c	;volatile
  6495                           
  6496                           ;prog.c: 1364: clrInd();
  6497  001A90  ECC3  F01A         	call	_clrInd	;wreg free
  6498                           
  6499                           ; BSR set to: 1
  6500                           ;prog.c: 1365: if(mode == 3){
  6501  001A94  0E03               	movlw	3
  6502  001A96  0100               	movlb	0	; () banked
  6503  001A98  19CB               	xorwf	EditSchedule@mode& (0+255),w,b
  6504  001A9A  E101 D60D          	bz	l7641
  6505                           
  6506                           ; BSR set to: 0
  6507                           ;prog.c: 1368: mode++;
  6508  001A9E  2BCB               	incf	EditSchedule@mode& (0+255),f,b
  6509  001AA0  D60E               	goto	l7643
  6510  001AA2                     l7871:
  6511  001AA2  0E29               	movlw	41
  6512  001AA4  185B               	xorwf	_KeyCode,w,c	;volatile
  6513  001AA6  E001 D60A          	bnz	l7643
  6514                           
  6515                           ;prog.c: 1371: KeyCode = 0;
  6516  001AAA  6A5B               	clrf	_KeyCode,c	;volatile
  6517                           
  6518                           ;prog.c: 1372: clrInd();
  6519  001AAC  ECC3  F01A         	call	_clrInd	;wreg free
  6520                           
  6521                           ; BSR set to: 1
  6522                           ;prog.c: 1373: if(mode == 1){
  6523  001AB0  0100               	movlb	0	; () banked
  6524  001AB2  05CB               	decf	EditSchedule@mode& (0+255),w,b
  6525  001AB4  E102               	bnz	l7881
  6526                           
  6527                           ; BSR set to: 0
  6528                           ;prog.c: 1374: mode = 3;
  6529  001AB6  0E03               	movlw	3
  6530  001AB8  D601               	goto	L15
  6531  001ABA                     l7881:
  6532                           
  6533                           ; BSR set to: 0
  6534                           ;prog.c: 1376: mode--;
  6535  001ABA  07CB               	decf	EditSchedule@mode& (0+255),f,b
  6536  001ABC  D600               	goto	l7643
  6537  001ABE                     __end_of_EditSchedule:
  6538                           	opt stack 0
  6539  001ABE                     PL50:
  6540                           	opt stack 19
  6541  001ABE  C0D7  F01D         	movff	EditSchedule@n,setBlink@symbol
  6542  001AC2  0E01               	movlw	1
  6543  001AC4  6E1E               	movwf	setBlink@value,c
  6544  001AC6  0C00               	retlw	0
  6545  001AC8                     __end_ofPL50:
  6546                           	opt stack 0
  6547  001AC8                     PL64:
  6548                           	opt stack 19
  6549  001AC8  C0D5  F080         	movff	EditSchedule@d,??_EditSchedule
  6550  001ACC  2B80               	incf	??_EditSchedule& (0+255),f,b
  6551  001ACE  5180               	movf	??_EditSchedule& (0+255),w,b
  6552  001AD0  0FB6               	addlw	low EditSchedule@TimeData
  6553  001AD2  6ED9               	movwf	fsr2l,c
  6554  001AD4  6ADA               	clrf	fsr2h,c
  6555  001AD6  0C03               	retlw	3
  6556  001AD8                     __end_ofPL64:
  6557                           	opt stack 0
  6558  001AD8                     PL100:
  6559                           	opt stack 19
  6560  001AD8  0FB6               	addlw	low EditSchedule@TimeData
  6561  001ADA  6ED9               	movwf	fsr2l,c
  6562  001ADC  6ADA               	clrf	fsr2h,c
  6563  001ADE  50DF               	movf	indf2,w,c
  6564  001AE0  0012               	return	
  6565  001AE2                     __end_ofPL100:
  6566                           	opt stack 0
  6567  001AE2                     PL118:
  6568                           	opt stack 19
  6569  001AE2  C0D7  F01D         	movff	EditSchedule@n,setBlink@symbol
  6570  001AE6  0E00               	movlw	0
  6571  001AE8  6E1E               	movwf	setBlink@value,c
  6572  001AEA  0C00               	retlw	0
  6573  001AEC                     __end_ofPL118:
  6574                           	opt stack 0
  6575  001AEC                     PL124:
  6576                           	opt stack 19
  6577  001AEC  6E2D               	movwf	outputString@stringData,c
  6578  001AEE  6A2E               	clrf	outputString@stringData+1,c
  6579  001AF0  6A2F               	clrf	outputString@line,c
  6580  001AF2  0E05               	movlw	5
  6581  001AF4  6E30               	movwf	outputString@position,c
  6582  001AF6  0C05               	retlw	5
  6583  001AF8                     __end_ofPL124:
  6584                           	opt stack 0
  6585  001AF8                     PL152:
  6586                           	opt stack 19
  6587  001AF8  6BD1               	clrf	EditSchedule@Data& (0+255),b
  6588  001AFA  6BD2               	clrf	(EditSchedule@Data+1)& (0+255),b
  6589  001AFC  6BD3               	clrf	(EditSchedule@Data+2)& (0+255),b
  6590  001AFE  6BD4               	clrf	(EditSchedule@Data+3)& (0+255),b
  6591  001B00  0012               	return	
  6592  001B02                     __end_ofPL152:
  6593                           	opt stack 0
  6594  001B02                     PL160:
  6595                           	opt stack 19
  6596  001B02  0EB6               	movlw	low EditSchedule@TimeData
  6597  001B04  6E24               	movwf	TimesToTimeData@TimeData,c
  6598  001B06  0ECC               	movlw	EditSchedule@Times& (0+255)
  6599  001B08  0012               	return	
  6600  001B0A                     __end_ofPL160:
  6601                           	opt stack 0
  6602                           tblptru	equ	0xFF8
  6603                           tblptrh	equ	0xFF7
  6604                           tblptrl	equ	0xFF6
  6605                           tablat	equ	0xFF5
  6606                           prodh	equ	0xFF4
  6607                           prodl	equ	0xFF3
  6608                           intcon	equ	0xFF2
  6609                           intcon2	equ	0xFF1
  6610                           intcon3	equ	0xFF0
  6611                           postinc0	equ	0xFEE
  6612                           wreg	equ	0xFE8
  6613                           indf1	equ	0xFE7
  6614                           postdec1	equ	0xFE5
  6615                           plusw1	equ	0xFE3
  6616                           fsr1h	equ	0xFE2
  6617                           fsr1l	equ	0xFE1
  6618                           indf2	equ	0xFDF
  6619                           postinc2	equ	0xFDE
  6620                           postdec2	equ	0xFDD
  6621                           plusw2	equ	0xFDB
  6622                           fsr2h	equ	0xFDA
  6623                           fsr2l	equ	0xFD9
  6624                           status	equ	0xFD8
  6625                           
  6626 ;; *************** function _outputString *****************
  6627 ;; Defined at:
  6628 ;;		line 1734 in file "prog.c"
  6629 ;; Parameters:    Size  Location     Type
  6630 ;;  stringData      2   44[COMRAM] PTR unsigned char 
  6631 ;;		 -> drowText@cutedString(17), EditSchedule@string2(12), EditSchedule@string(12), STR_14(6), 
  6632 ;;		 -> STR_13(5), STR_12(11), STR_11(4), RefreshSchedulerIndicator@num(3), 
  6633 ;;		 -> STR_10(17), TimeToInd@DataArrayOfLine2(13), TimeToInd@DataArray(17), STR_9(17), 
  6634 ;;		 -> TimeToInd@TimeData(9), TimeToInd@D(4), STR_8(3), STR_7(3), 
  6635 ;;		 -> STR_6(3), STR_5(3), STR_4(3), STR_3(3), 
  6636 ;;		 -> STR_2(3), STR_1(3), 
  6637 ;;  line            1   46[COMRAM] unsigned char 
  6638 ;;  position        1   47[COMRAM] unsigned char 
  6639 ;; Auto vars:     Size  Location     Type
  6640 ;;  s               1   50[COMRAM] unsigned char 
  6641 ;;  l               1   53[COMRAM] unsigned char 
  6642 ;;  i               2   51[COMRAM] unsigned int 
  6643 ;; Return value:  Size  Location     Type
  6644 ;;                  1    wreg      void 
  6645 ;; Registers used:
  6646 ;;		wreg, fsr1l, fsr1h, fsr2l, fsr2h, status,2, status,0, tblptrl, tblptrh, tblptru, prodl, prodh, cstack
  6647 ;; Tracked objects:
  6648 ;;		On entry : 0/1
  6649 ;;		On exit  : 0/0
  6650 ;;		Unchanged: 0/0
  6651 ;; Data sizes:     COMRAM   BANK0   BANK1   BANK2   BANK3   BANK4   BANK5   BANK6   BANK7   BANK8   BANK9  BANK10  BANK1
      +1  BANK12  BANK13  BANK14  BANK15
  6652 ;;      Params:         4       0       0       0       0       0       0       0       0       0       0       0       
      +0       0       0       0       0
  6653 ;;      Locals:         4       0       0       0       0       0       0       0       0       0       0       0       
      +0       0       0       0       0
  6654 ;;      Temps:          2       0       0       0       0       0       0       0       0       0       0       0       
      +0       0       0       0       0
  6655 ;;      Totals:        10       0       0       0       0       0       0       0       0       0       0       0       
      +0       0       0       0       0
  6656 ;;Total ram usage:       10 bytes
  6657 ;; Hardware stack levels used:    1
  6658 ;; Hardware stack levels required when called:    5
  6659 ;; This function calls:
  6660 ;;		_setDigit
  6661 ;; This function is called by:
  6662 ;;		_TimeToInd
  6663 ;;		_RefreshSchedulerIndicator
  6664 ;;		_EditSchedule
  6665 ;; This function uses a non-reentrant model
  6666 ;;
  6667                           
  6668                           	psect	text16
  6669  002F5A                     __ptext16:
  6670                           	opt stack 0
  6671  002F5A                     _outputString:
  6672                           	opt stack 23
  6673                           
  6674                           ;prog.c: 1735: unsigned int i = 0;
  6675                           
  6676                           ; BSR set to: 1
  6677                           ;incstack = 0
  6678  002F5A  6A34               	clrf	outputString@i,c
  6679  002F5C  6A35               	clrf	outputString@i+1,c
  6680                           
  6681                           ;prog.c: 1736: while(stringData[i] != '\0'){
  6682  002F5E  D029               	goto	l4917
  6683  002F60                     l993:
  6684                           
  6685                           ;prog.c: 1737: unsigned char l = line;
  6686  002F60  C02F  F036         	movff	outputString@line,outputString@l
  6687                           
  6688                           ;prog.c: 1738: for(line = 0; l < 2; l++) {
  6689  002F64  6A2F               	clrf	outputString@line,c
  6690  002F66                     l4899:
  6691  002F66  0E01               	movlw	1
  6692  002F68  6436               	cpfsgt	outputString@l,c
  6693  002F6A  D001               	goto	l994
  6694  002F6C  D022               	goto	l4917
  6695  002F6E                     l994:
  6696                           
  6697                           ;prog.c: 1739: unsigned char s = position;
  6698  002F6E  C030  F033         	movff	outputString@position,outputString@s
  6699                           
  6700                           ;prog.c: 1740: for (position = 0; (s < 16) && (stringData[i] != '\0'); s++) {
  6701  002F72  6A30               	clrf	outputString@position,c
  6702  002F74  D010               	goto	l4909
  6703  002F76                     l4903:
  6704                           
  6705                           ;prog.c: 1741: setDigit(l, s, stringData[i]);
  6706  002F76  C033  F024         	movff	outputString@s,setDigit@symbol
  6707  002F7A  D825               	call	PL16	;call to abstracted procedure
  6708  002F7C  64F7               	cpfsgt	tblptrh,c
  6709  002F7E  D003               	bra	u3227
  6710  002F80  0008               	tblrd		*
  6711  002F82  50F5               	movf	tablat,w,c
  6712  002F84  D001               	bra	u3220
  6713  002F86                     u3227:
  6714  002F86  D82D               	call	PL70	;call to abstracted procedure
  6715  002F88                     u3220:
  6716  002F88  6E25               	movwf	setDigit@data,c
  6717  002F8A  5036               	movf	outputString@l,w,c
  6718  002F8C  EC85  F018         	call	_setDigit
  6719                           
  6720                           ;prog.c: 1742: i++;
  6721  002F90  4A34               	infsnz	outputString@i,f,c
  6722  002F92  2A35               	incf	outputString@i+1,f,c
  6723  002F94  2A33               	incf	outputString@s,f,c
  6724  002F96                     l4909:
  6725  002F96  0E10               	movlw	16
  6726  002F98  6033               	cpfslt	outputString@s,c
  6727  002F9A  D009               	goto	l4913
  6728  002F9C  D814               	call	PL16	;call to abstracted procedure
  6729  002F9E  64F7               	cpfsgt	tblptrh,c
  6730  002FA0  D003               	bra	u3247
  6731  002FA2  0008               	tblrd		*
  6732  002FA4  50F5               	movf	tablat,w,c
  6733  002FA6  D001               	bra	u3240
  6734  002FA8                     u3247:
  6735  002FA8  D81C               	call	PL70	;call to abstracted procedure
  6736  002FAA                     u3240:
  6737  002FAA  0900               	iorlw	0
  6738  002FAC  E1E4               	bnz	l4903
  6739  002FAE                     l4913:
  6740  002FAE  2A36               	incf	outputString@l,f,c
  6741  002FB0  D7DA               	goto	l4899
  6742  002FB2                     l4917:
  6743  002FB2  D809               	call	PL16	;call to abstracted procedure
  6744  002FB4  64F7               	cpfsgt	tblptrh,c
  6745  002FB6  D003               	bra	u3267
  6746  002FB8  0008               	tblrd		*
  6747  002FBA  50F5               	movf	tablat,w,c
  6748  002FBC  D001               	bra	u3260
  6749  002FBE                     u3267:
  6750  002FBE  D811               	call	PL70	;call to abstracted procedure
  6751  002FC0                     u3260:
  6752  002FC0  0900               	iorlw	0
  6753  002FC2  E1CE               	bnz	l993
  6754  002FC4  0012               	return		;funcret
  6755  002FC6                     __end_of_outputString:
  6756                           	opt stack 0
  6757  002FC6                     PL16:
  6758                           	opt stack 23
  6759  002FC6  5034               	movf	outputString@i,w,c
  6760  002FC8  242D               	addwf	outputString@stringData,w,c
  6761  002FCA  6E31               	movwf	??_outputString& (0+255),c
  6762  002FCC  5035               	movf	outputString@i+1,w,c
  6763  002FCE  202E               	addwfc	outputString@stringData+1,w,c
  6764  002FD0  6E32               	movwf	(??_outputString+1)& (0+255),c
  6765  002FD2  C031  FFF6         	movff	??_outputString,tblptrl
  6766  002FD6  C032  FFF7         	movff	??_outputString+1,tblptrh
  6767  002FDA  0E00               	movlw	low (__smallconst shr (0+16))
  6768  002FDC  6EF8               	movwf	tblptru,c
  6769  002FDE  0E0F               	movlw	(high __ramtop+-1)
  6770  002FE0  0012               	return	
  6771  002FE2                     __end_ofPL16:
  6772                           	opt stack 0
  6773  002FE2                     PL70:
  6774                           	opt stack 23
  6775  002FE2  CFF6 FFE1          	movff	tblptrl,fsr1l
  6776  002FE6  CFF7 FFE2          	movff	tblptrh,fsr1h
  6777  002FEA  50E7               	movf	indf1,w,c
  6778  002FEC  0012               	return	
  6779  002FEE                     __end_ofPL70:
  6780                           	opt stack 0
  6781                           tblptru	equ	0xFF8
  6782                           tblptrh	equ	0xFF7
  6783                           tblptrl	equ	0xFF6
  6784                           tablat	equ	0xFF5
  6785                           prodh	equ	0xFF4
  6786                           prodl	equ	0xFF3
  6787                           intcon	equ	0xFF2
  6788                           intcon2	equ	0xFF1
  6789                           intcon3	equ	0xFF0
  6790                           postinc0	equ	0xFEE
  6791                           wreg	equ	0xFE8
  6792                           indf1	equ	0xFE7
  6793                           postdec1	equ	0xFE5
  6794                           plusw1	equ	0xFE3
  6795                           fsr1h	equ	0xFE2
  6796                           fsr1l	equ	0xFE1
  6797                           indf2	equ	0xFDF
  6798                           postinc2	equ	0xFDE
  6799                           postdec2	equ	0xFDD
  6800                           plusw2	equ	0xFDB
  6801                           fsr2h	equ	0xFDA
  6802                           fsr2l	equ	0xFD9
  6803                           status	equ	0xFD8
  6804                           
  6805 ;; *************** function _getBorderUp *****************
  6806 ;; Defined at:
  6807 ;;		line 1133 in file "prog.c"
  6808 ;; Parameters:    Size  Location     Type
  6809 ;;  n               1    wreg     unsigned char 
  6810 ;; Auto vars:     Size  Location     Type
  6811 ;;  n               1   32[COMRAM] unsigned char 
  6812 ;;  BorderUp        1   33[COMRAM] unsigned char 
  6813 ;; Return value:  Size  Location     Type
  6814 ;;                  1    wreg      unsigned char 
  6815 ;; Registers used:
  6816 ;;		wreg, fsr2l, fsr2h, status,2, status,0, prodl, prodh, cstack
  6817 ;; Tracked objects:
  6818 ;;		On entry : F/0
  6819 ;;		On exit  : 0/0
  6820 ;;		Unchanged: 0/0
  6821 ;; Data sizes:     COMRAM   BANK0   BANK1   BANK2   BANK3   BANK4   BANK5   BANK6   BANK7   BANK8   BANK9  BANK10  BANK1
      +1  BANK12  BANK13  BANK14  BANK15
  6822 ;;      Params:         0       0       0       0       0       0       0       0       0       0       0       0       
      +0       0       0       0       0
  6823 ;;      Locals:         2       0       0       0       0       0       0       0       0       0       0       0       
      +0       0       0       0       0
  6824 ;;      Temps:          0       0       0       0       0       0       0       0       0       0       0       0       
      +0       0       0       0       0
  6825 ;;      Totals:         2       0       0       0       0       0       0       0       0       0       0       0       
      +0       0       0       0       0
  6826 ;;Total ram usage:        2 bytes
  6827 ;; Hardware stack levels used:    1
  6828 ;; Hardware stack levels required when called:    5
  6829 ;; This function calls:
  6830 ;;		_getDigit
  6831 ;; This function is called by:
  6832 ;;		_EditSchedule
  6833 ;; This function uses a non-reentrant model
  6834 ;;
  6835                           
  6836                           	psect	text17
  6837  0036D4                     __ptext17:
  6838                           	opt stack 0
  6839  0036D4                     _getBorderUp:
  6840                           	opt stack 20
  6841                           
  6842                           ;incstack = 0
  6843                           ;getBorderUp@n stored from wreg
  6844  0036D4  6E21               	movwf	getBorderUp@n,c
  6845                           
  6846                           ;prog.c: 1134: unsigned char BorderUp;
  6847                           ;prog.c: 1135: switch (n) {
  6848  0036D6  D010               	goto	l5047
  6849  0036D8                     l5033:
  6850  0036D8  0E02               	movlw	2
  6851  0036DA  D00C               	goto	L18
  6852  0036DC                     l5035:
  6853  0036DC  2821               	incf	getBorderUp@n,w,c
  6854  0036DE  6E1D               	movwf	getDigit@symbol,c
  6855  0036E0  0E00               	movlw	0
  6856  0036E2  EC50  F01D         	call	_getDigit
  6857  0036E6  0A02               	xorlw	2
  6858  0036E8  E102               	bnz	l5039
  6859  0036EA  0E03               	movlw	3
  6860  0036EC  D003               	goto	L18
  6861  0036EE                     l5039:
  6862  0036EE  0E09               	movlw	9
  6863  0036F0  D001               	goto	L18
  6864  0036F2                     l5041:
  6865  0036F2  0E05               	movlw	5
  6866  0036F4                     L18:
  6867  0036F4  6E22               	movwf	getBorderUp@BorderUp,c
  6868                           
  6869                           ;prog.c: 1141: break;
  6870  0036F6  D011               	goto	l5049
  6871  0036F8                     l5047:
  6872  0036F8  5021               	movf	getBorderUp@n,w,c
  6873                           
  6874                           ; Switch size 1, requested type "space"
  6875                           ; Number of cases is 8, Range of values is 1 to 11
  6876                           ; switch strategies available:
  6877                           ; Name         Instructions Cycles
  6878                           ; simple_byte           25    13 (average)
  6879                           ;	Chosen strategy is simple_byte
  6880  0036FA  0A01               	xorlw	1	; case 1
  6881  0036FC  E0F8               	bz	l5039
  6882  0036FE  0A03               	xorlw	3	; case 2
  6883  003700  E0F8               	bz	l5041
  6884  003702  0A06               	xorlw	6	; case 4
  6885  003704  E0EB               	bz	l5035
  6886  003706  0A01               	xorlw	1	; case 5
  6887  003708  E0E7               	bz	l5033
  6888  00370A  0A02               	xorlw	2	; case 7
  6889  00370C  E0F0               	bz	l5039
  6890  00370E  0A0F               	xorlw	15	; case 8
  6891  003710  E0F0               	bz	l5041
  6892  003712  0A02               	xorlw	2	; case 10
  6893  003714  E0E3               	bz	l5035
  6894  003716  0A01               	xorlw	1	; case 11
  6895  003718  E0DF               	bz	l5033
  6896  00371A                     l5049:
  6897                           
  6898                           ;prog.c: 1145: return BorderUp;
  6899  00371A  5022               	movf	getBorderUp@BorderUp,w,c
  6900  00371C  0012               	return		;funcret
  6901  00371E                     __end_of_getBorderUp:
  6902                           	opt stack 0
  6903                           tblptru	equ	0xFF8
  6904                           tblptrh	equ	0xFF7
  6905                           tblptrl	equ	0xFF6
  6906                           tablat	equ	0xFF5
  6907                           prodh	equ	0xFF4
  6908                           prodl	equ	0xFF3
  6909                           intcon	equ	0xFF2
  6910                           intcon2	equ	0xFF1
  6911                           intcon3	equ	0xFF0
  6912                           postinc0	equ	0xFEE
  6913                           wreg	equ	0xFE8
  6914                           indf1	equ	0xFE7
  6915                           postdec1	equ	0xFE5
  6916                           plusw1	equ	0xFE3
  6917                           fsr1h	equ	0xFE2
  6918                           fsr1l	equ	0xFE1
  6919                           indf2	equ	0xFDF
  6920                           postinc2	equ	0xFDE
  6921                           postdec2	equ	0xFDD
  6922                           plusw2	equ	0xFDB
  6923                           fsr2h	equ	0xFDA
  6924                           fsr2l	equ	0xFD9
  6925                           status	equ	0xFD8
  6926                           
  6927 ;; *************** function _getDigit *****************
  6928 ;; Defined at:
  6929 ;;		line 203 in file "prog.c"
  6930 ;; Parameters:    Size  Location     Type
  6931 ;;  line            1    wreg     unsigned char 
  6932 ;;  symbol          1   28[COMRAM] unsigned char 
  6933 ;; Auto vars:     Size  Location     Type
  6934 ;;  line            1   31[COMRAM] unsigned char 
  6935 ;; Return value:  Size  Location     Type
  6936 ;;                  1    wreg      unsigned char 
  6937 ;; Registers used:
  6938 ;;		wreg, fsr2l, fsr2h, status,2, status,0, prodl, prodh
  6939 ;; Tracked objects:
  6940 ;;		On entry : 0/0
  6941 ;;		On exit  : 0/0
  6942 ;;		Unchanged: 0/0
  6943 ;; Data sizes:     COMRAM   BANK0   BANK1   BANK2   BANK3   BANK4   BANK5   BANK6   BANK7   BANK8   BANK9  BANK10  BANK1
      +1  BANK12  BANK13  BANK14  BANK15
  6944 ;;      Params:         1       0       0       0       0       0       0       0       0       0       0       0       
      +0       0       0       0       0
  6945 ;;      Locals:         1       0       0       0       0       0       0       0       0       0       0       0       
      +0       0       0       0       0
  6946 ;;      Temps:          2       0       0       0       0       0       0       0       0       0       0       0       
      +0       0       0       0       0
  6947 ;;      Totals:         4       0       0       0       0       0       0       0       0       0       0       0       
      +0       0       0       0       0
  6948 ;;Total ram usage:        4 bytes
  6949 ;; Hardware stack levels used:    1
  6950 ;; Hardware stack levels required when called:    4
  6951 ;; This function calls:
  6952 ;;		Nothing
  6953 ;; This function is called by:
  6954 ;;		_getBorderUp
  6955 ;; This function uses a non-reentrant model
  6956 ;;
  6957                           
  6958                           	psect	text18
  6959  003AA0                     __ptext18:
  6960                           	opt stack 0
  6961  003AA0                     _getDigit:
  6962                           	opt stack 20
  6963                           
  6964                           ;incstack = 0
  6965                           ;getDigit@line stored from wreg
  6966  003AA0  6E20               	movwf	getDigit@line,c
  6967                           
  6968                           ;prog.c: 204: return digits[line][symbol];
  6969  003AA2  5020               	movf	getDigit@line,w,c
  6970  003AA4  0D10               	mullw	16
  6971  003AA6  0E54               	movlw	low _digits
  6972  003AA8  6E1E               	movwf	??_getDigit& (0+255),c
  6973  003AAA  0E01               	movlw	high _digits
  6974  003AAC  6E1F               	movwf	(??_getDigit+1)& (0+255),c
  6975  003AAE  50F3               	movf	prodl,w,c
  6976  003AB0  261E               	addwf	??_getDigit,f,c
  6977  003AB2  50F4               	movf	prodh,w,c
  6978  003AB4  221F               	addwfc	??_getDigit+1,f,c
  6979  003AB6  501D               	movf	getDigit@symbol,w,c
  6980  003AB8  241E               	addwf	??_getDigit,w,c
  6981  003ABA  6ED9               	movwf	fsr2l,c
  6982  003ABC  0E00               	movlw	0
  6983  003ABE  201F               	addwfc	??_getDigit+1,w,c
  6984  003AC0  6EDA               	movwf	fsr2h,c
  6985  003AC2  50DF               	movf	indf2,w,c
  6986  003AC4  0012               	return		;funcret
  6987  003AC6                     __end_of_getDigit:
  6988                           	opt stack 0
  6989                           tblptru	equ	0xFF8
  6990                           tblptrh	equ	0xFF7
  6991                           tblptrl	equ	0xFF6
  6992                           tablat	equ	0xFF5
  6993                           prodh	equ	0xFF4
  6994                           prodl	equ	0xFF3
  6995                           intcon	equ	0xFF2
  6996                           intcon2	equ	0xFF1
  6997                           intcon3	equ	0xFF0
  6998                           postinc0	equ	0xFEE
  6999                           wreg	equ	0xFE8
  7000                           indf1	equ	0xFE7
  7001                           postdec1	equ	0xFE5
  7002                           plusw1	equ	0xFE3
  7003                           fsr1h	equ	0xFE2
  7004                           fsr1l	equ	0xFE1
  7005                           indf2	equ	0xFDF
  7006                           postinc2	equ	0xFDE
  7007                           postdec2	equ	0xFDD
  7008                           plusw2	equ	0xFDB
  7009                           fsr2h	equ	0xFDA
  7010                           fsr2l	equ	0xFD9
  7011                           status	equ	0xFD8
  7012                           
  7013 ;; *************** function ___wmul *****************
  7014 ;; Defined at:
  7015 ;;		line 15 in file "/opt/microchip/xc8/v1.37/sources/common/Umul16.c"
  7016 ;; Parameters:    Size  Location     Type
  7017 ;;  multiplier      2   28[COMRAM] unsigned int 
  7018 ;;  multiplicand    2   30[COMRAM] unsigned int 
  7019 ;; Auto vars:     Size  Location     Type
  7020 ;;  product         2   32[COMRAM] unsigned int 
  7021 ;; Return value:  Size  Location     Type
  7022 ;;                  2   28[COMRAM] unsigned int 
  7023 ;; Registers used:
  7024 ;;		wreg, status,2, status,0, prodl, prodh
  7025 ;; Tracked objects:
  7026 ;;		On entry : F/0
  7027 ;;		On exit  : F/0
  7028 ;;		Unchanged: F/0
  7029 ;; Data sizes:     COMRAM   BANK0   BANK1   BANK2   BANK3   BANK4   BANK5   BANK6   BANK7   BANK8   BANK9  BANK10  BANK1
      +1  BANK12  BANK13  BANK14  BANK15
  7030 ;;      Params:         4       0       0       0       0       0       0       0       0       0       0       0       
      +0       0       0       0       0
  7031 ;;      Locals:         2       0       0       0       0       0       0       0       0       0       0       0       
      +0       0       0       0       0
  7032 ;;      Temps:          0       0       0       0       0       0       0       0       0       0       0       0       
      +0       0       0       0       0
  7033 ;;      Totals:         6       0       0       0       0       0       0       0       0       0       0       0       
      +0       0       0       0       0
  7034 ;;Total ram usage:        6 bytes
  7035 ;; Hardware stack levels used:    1
  7036 ;; Hardware stack levels required when called:    4
  7037 ;; This function calls:
  7038 ;;		Nothing
  7039 ;; This function is called by:
  7040 ;;		_EditSchedule
  7041 ;; This function uses a non-reentrant model
  7042 ;;
  7043                           
  7044                           	psect	text19
  7045  003AC6                     __ptext19:
  7046                           	opt stack 0
  7047  003AC6                     ___wmul:
  7048                           	opt stack 21
  7049                           
  7050                           ; BSR set to: 0
  7051                           
  7052                           ;incstack = 0
  7053  003AC6  501D               	movf	___wmul@multiplier,w,c
  7054  003AC8  021F               	mulwf	___wmul@multiplicand,c
  7055  003ACA  CFF3 F021          	movff	prodl,___wmul@product
  7056  003ACE  CFF4 F022          	movff	prodh,___wmul@product+1
  7057  003AD2  501D               	movf	___wmul@multiplier,w,c
  7058  003AD4  0220               	mulwf	___wmul@multiplicand+1,c
  7059  003AD6  50F3               	movf	prodl,w,c
  7060  003AD8  2622               	addwf	___wmul@product+1,f,c
  7061  003ADA  501E               	movf	___wmul@multiplier+1,w,c
  7062  003ADC  021F               	mulwf	___wmul@multiplicand,c
  7063  003ADE  50F3               	movf	prodl,w,c
  7064  003AE0  2622               	addwf	___wmul@product+1,f,c
  7065                           
  7066                           ; BSR set to: 0
  7067  003AE2  C021  F01D         	movff	___wmul@product,?___wmul
  7068  003AE6  C022  F01E         	movff	___wmul@product+1,?___wmul+1
  7069                           
  7070                           ; BSR set to: 0
  7071  003AEA  0012               	return		;funcret
  7072  003AEC                     __end_of___wmul:
  7073                           	opt stack 0
  7074                           tblptru	equ	0xFF8
  7075                           tblptrh	equ	0xFF7
  7076                           tblptrl	equ	0xFF6
  7077                           tablat	equ	0xFF5
  7078                           prodh	equ	0xFF4
  7079                           prodl	equ	0xFF3
  7080                           intcon	equ	0xFF2
  7081                           intcon2	equ	0xFF1
  7082                           intcon3	equ	0xFF0
  7083                           postinc0	equ	0xFEE
  7084                           wreg	equ	0xFE8
  7085                           indf1	equ	0xFE7
  7086                           postdec1	equ	0xFE5
  7087                           plusw1	equ	0xFE3
  7088                           fsr1h	equ	0xFE2
  7089                           fsr1l	equ	0xFE1
  7090                           indf2	equ	0xFDF
  7091                           postinc2	equ	0xFDE
  7092                           postdec2	equ	0xFDD
  7093                           plusw2	equ	0xFDB
  7094                           fsr2h	equ	0xFDA
  7095                           fsr2l	equ	0xFD9
  7096                           status	equ	0xFD8
  7097                           
  7098 ;; *************** function _WriteDataOfCell *****************
  7099 ;; Defined at:
  7100 ;;		line 1175 in file "prog.c"
  7101 ;; Parameters:    Size  Location     Type
  7102 ;;  CellsData       1    wreg     PTR unsigned char 
  7103 ;;		 -> EditSchedule@CellsData(8), 
  7104 ;;  Data            1   40[COMRAM] PTR unsigned long 
  7105 ;;		 -> EditSchedule@Data(4), 
  7106 ;;  TargetAdress    2   41[COMRAM] unsigned int 
  7107 ;; Auto vars:     Size  Location     Type
  7108 ;;  CellsData       1   44[COMRAM] PTR unsigned char 
  7109 ;;		 -> EditSchedule@CellsData(8), 
  7110 ;;  i               1   45[COMRAM] unsigned char 
  7111 ;; Return value:  Size  Location     Type
  7112 ;;                  1    wreg      void 
  7113 ;; Registers used:
  7114 ;;		wreg, fsr1l, fsr1h, fsr2l, fsr2h, status,2, status,0, cstack
  7115 ;; Tracked objects:
  7116 ;;		On entry : F/0
  7117 ;;		On exit  : 0/0
  7118 ;;		Unchanged: 0/0
  7119 ;; Data sizes:     COMRAM   BANK0   BANK1   BANK2   BANK3   BANK4   BANK5   BANK6   BANK7   BANK8   BANK9  BANK10  BANK1
      +1  BANK12  BANK13  BANK14  BANK15
  7120 ;;      Params:         3       0       0       0       0       0       0       0       0       0       0       0       
      +0       0       0       0       0
  7121 ;;      Locals:         2       0       0       0       0       0       0       0       0       0       0       0       
      +0       0       0       0       0
  7122 ;;      Temps:          1       0       0       0       0       0       0       0       0       0       0       0       
      +0       0       0       0       0
  7123 ;;      Totals:         6       0       0       0       0       0       0       0       0       0       0       0       
      +0       0       0       0       0
  7124 ;;Total ram usage:        6 bytes
  7125 ;; Hardware stack levels used:    1
  7126 ;; Hardware stack levels required when called:    6
  7127 ;; This function calls:
  7128 ;;		_WriteArrayToEEPROM
  7129 ;; This function is called by:
  7130 ;;		_EditSchedule
  7131 ;; This function uses a non-reentrant model
  7132 ;;
  7133                           
  7134                           	psect	text20
  7135  0035E0                     __ptext20:
  7136                           	opt stack 0
  7137  0035E0                     _WriteDataOfCell:
  7138                           	opt stack 19
  7139                           
  7140                           ; BSR set to: 0
  7141                           ;incstack = 0
  7142                           ;WriteDataOfCell@CellsData stored from wreg
  7143  0035E0  6E2D               	movwf	WriteDataOfCell@CellsData,c
  7144                           
  7145                           ;prog.c: 1176: for(unsigned char i = 0; i < 4; i++){
  7146  0035E2  6A2E               	clrf	WriteDataOfCell@i,c
  7147  0035E4                     l5097:
  7148                           
  7149                           ;prog.c: 1177: CellsData[i] = (unsigned char)(*Data % 256);
  7150  0035E4  5029               	movf	WriteDataOfCell@Data,w,c
  7151  0035E6  6ED9               	movwf	fsr2l,c
  7152  0035E8  6ADA               	clrf	fsr2h,c
  7153  0035EA  502D               	movf	WriteDataOfCell@CellsData,w,c
  7154  0035EC  242E               	addwf	WriteDataOfCell@i,w,c
  7155  0035EE  6EE1               	movwf	fsr1l,c
  7156  0035F0  6AE2               	clrf	fsr1h,c
  7157  0035F2  CFDF FFE7          	movff	indf2,indf1
  7158                           
  7159                           ;prog.c: 1178: *Data /= 256;
  7160  0035F6  0E08               	movlw	8
  7161  0035F8  6E2C               	movwf	??_WriteDataOfCell& (0+255),c
  7162  0035FA  5029               	movf	WriteDataOfCell@Data,w,c
  7163  0035FC  6ED9               	movwf	fsr2l,c
  7164  0035FE  6ADA               	clrf	fsr2h,c
  7165  003600  282C               	incf	??_WriteDataOfCell,w,c
  7166  003602  2AD9               	incf	fsr2l,f,c
  7167  003604  D007               	goto	u3500
  7168  003606                     u3505:
  7169  003606  2AD9               	incf	fsr2l,f,c
  7170  003608  2AD9               	incf	fsr2l,f,c
  7171  00360A  90D8               	bcf	status,0,c
  7172  00360C  32DD               	rrcf	postdec2,f,c
  7173  00360E  32DD               	rrcf	postdec2,f,c
  7174  003610  32DD               	rrcf	postdec2,f,c
  7175  003612  32DE               	rrcf	postinc2,f,c
  7176  003614                     u3500:
  7177  003614  2EE8               	decfsz	wreg,f,c
  7178  003616  D7F7               	goto	u3505
  7179  003618  2A2E               	incf	WriteDataOfCell@i,f,c
  7180  00361A  0E03               	movlw	3
  7181  00361C  642E               	cpfsgt	WriteDataOfCell@i,c
  7182  00361E  D7E2               	goto	l5097
  7183                           
  7184                           ;prog.c: 1179: }
  7185                           ;prog.c: 1180: WriteArrayToEEPROM(CellsData, TargetAdress, 8);
  7186  003620  C02A  F021         	movff	WriteDataOfCell@TargetAdress,WriteArrayToEEPROM@adress_start
  7187  003624  C02B  F022         	movff	WriteDataOfCell@TargetAdress+1,WriteArrayToEEPROM@adress_start+1
  7188  003628  6A24               	clrf	WriteArrayToEEPROM@quantity+1,c
  7189  00362A  0E08               	movlw	8
  7190  00362C  6E23               	movwf	WriteArrayToEEPROM@quantity,c
  7191  00362E  502D               	movf	WriteDataOfCell@CellsData,w,c
  7192  003630  EF78  F01C         	goto	_WriteArrayToEEPROM
  7193  003634                     __end_of_WriteDataOfCell:
  7194                           	opt stack 0
  7195                           tblptru	equ	0xFF8
  7196                           tblptrh	equ	0xFF7
  7197                           tblptrl	equ	0xFF6
  7198                           tablat	equ	0xFF5
  7199                           prodh	equ	0xFF4
  7200                           prodl	equ	0xFF3
  7201                           intcon	equ	0xFF2
  7202                           intcon2	equ	0xFF1
  7203                           intcon3	equ	0xFF0
  7204                           postinc0	equ	0xFEE
  7205                           wreg	equ	0xFE8
  7206                           indf1	equ	0xFE7
  7207                           postdec1	equ	0xFE5
  7208                           plusw1	equ	0xFE3
  7209                           fsr1h	equ	0xFE2
  7210                           fsr1l	equ	0xFE1
  7211                           indf2	equ	0xFDF
  7212                           postinc2	equ	0xFDE
  7213                           postdec2	equ	0xFDD
  7214                           plusw2	equ	0xFDB
  7215                           fsr2h	equ	0xFDA
  7216                           fsr2l	equ	0xFD9
  7217                           status	equ	0xFD8
  7218                           
  7219 ;; *************** function _TimesToTimeData *****************
  7220 ;; Defined at:
  7221 ;;		line 1102 in file "prog.c"
  7222 ;; Parameters:    Size  Location     Type
  7223 ;;  Times           1    wreg     PTR unsigned int 
  7224 ;;		 -> EditSchedule@Times(4), 
  7225 ;;  TimeData        1   35[COMRAM] PTR unsigned char 
  7226 ;;		 -> EditSchedule@TimeData(8), 
  7227 ;; Auto vars:     Size  Location     Type
  7228 ;;  Times           1   36[COMRAM] PTR unsigned int 
  7229 ;;		 -> EditSchedule@Times(4), 
  7230 ;;  d               1   37[COMRAM] unsigned char 
  7231 ;;  j               1   38[COMRAM] unsigned char 
  7232 ;;  temp            2   39[COMRAM] unsigned int 
  7233 ;; Return value:  Size  Location     Type
  7234 ;;                  1    wreg      void 
  7235 ;; Registers used:
  7236 ;;		wreg, fsr2l, fsr2h, status,2, status,0, prodl, prodh, cstack
  7237 ;; Tracked objects:
  7238 ;;		On entry : 0/0
  7239 ;;		On exit  : 0/0
  7240 ;;		Unchanged: 0/0
  7241 ;; Data sizes:     COMRAM   BANK0   BANK1   BANK2   BANK3   BANK4   BANK5   BANK6   BANK7   BANK8   BANK9  BANK10  BANK1
      +1  BANK12  BANK13  BANK14  BANK15
  7242 ;;      Params:         1       0       0       0       0       0       0       0       0       0       0       0       
      +0       0       0       0       0
  7243 ;;      Locals:         5       0       0       0       0       0       0       0       0       0       0       0       
      +0       0       0       0       0
  7244 ;;      Temps:          0       0       0       0       0       0       0       0       0       0       0       0       
      +0       0       0       0       0
  7245 ;;      Totals:         6       0       0       0       0       0       0       0       0       0       0       0       
      +0       0       0       0       0
  7246 ;;Total ram usage:        6 bytes
  7247 ;; Hardware stack levels used:    1
  7248 ;; Hardware stack levels required when called:    5
  7249 ;; This function calls:
  7250 ;;		___lwdiv
  7251 ;;		___lwmod
  7252 ;; This function is called by:
  7253 ;;		_EditSchedule
  7254 ;; This function uses a non-reentrant model
  7255 ;;
  7256                           
  7257                           	psect	text21
  7258  002B3C                     __ptext21:
  7259                           	opt stack 0
  7260  002B3C                     _TimesToTimeData:
  7261                           	opt stack 20
  7262                           
  7263                           ;incstack = 0
  7264                           ;TimesToTimeData@Times stored from wreg
  7265  002B3C  6E25               	movwf	TimesToTimeData@Times,c
  7266                           
  7267                           ;prog.c: 1103: unsigned int temp;
  7268                           ;prog.c: 1104: for (char j = 0; j < 2; j++) {
  7269  002B3E  6A27               	clrf	TimesToTimeData@j,c
  7270  002B40                     l4983:
  7271  002B40  0E01               	movlw	1
  7272  002B42  6427               	cpfsgt	TimesToTimeData@j,c
  7273  002B44  D001               	goto	l4987
  7274  002B46  0C01               	retlw	1
  7275  002B48                     l4987:
  7276                           
  7277                           ;prog.c: 1105: temp = Times[j];
  7278  002B48  5027               	movf	TimesToTimeData@j,w,c
  7279  002B4A  0D02               	mullw	2
  7280  002B4C  5025               	movf	TimesToTimeData@Times,w,c
  7281  002B4E  24F3               	addwf	prodl,w,c
  7282  002B50  6ED9               	movwf	fsr2l,c
  7283  002B52  6ADA               	clrf	fsr2h,c
  7284  002B54  CFDE F028          	movff	postinc2,TimesToTimeData@temp
  7285  002B58  CFDD F029          	movff	postdec2,TimesToTimeData@temp+1
  7286                           
  7287                           ;prog.c: 1106: char d = 4 * j;
  7288  002B5C  5027               	movf	TimesToTimeData@j,w,c
  7289  002B5E  0D04               	mullw	4
  7290  002B60  CFF3 F026          	movff	prodl,TimesToTimeData@d
  7291                           
  7292                           ;prog.c: 1107: TimeData[3 + d] = temp % 10;
  7293  002B64  D845               	call	PL98	;call to abstracted procedure
  7294  002B66  0E03               	movlw	3
  7295  002B68  26D9               	addwf	fsr2l,f,c
  7296  002B6A  D83C               	call	PL86	;call to abstracted procedure
  7297  002B6C  0E0A               	movlw	10
  7298  002B6E  6E1F               	movwf	___lwmod@divisor,c
  7299  002B70  EC1C  F01C         	call	___lwmod	;wreg free
  7300  002B74  501D               	movf	?___lwmod,w,c
  7301  002B76  6EDF               	movwf	indf2,c
  7302                           
  7303                           ;prog.c: 1108: temp /= 10;
  7304  002B78  D82F               	call	PL82	;call to abstracted procedure
  7305  002B7A  0E0A               	movlw	10
  7306  002B7C  6E1F               	movwf	___lwdiv@divisor,c
  7307  002B7E  EC8F  F01B         	call	___lwdiv	;wreg free
  7308                           
  7309                           ;prog.c: 1109: TimeData[2 + d] = temp % 6;
  7310  002B82  D821               	call	PL68	;call to abstracted procedure
  7311  002B84  0E02               	movlw	2
  7312  002B86  26D9               	addwf	fsr2l,f,c
  7313  002B88  D82D               	call	PL86	;call to abstracted procedure
  7314  002B8A  0E06               	movlw	6
  7315  002B8C  6E1F               	movwf	___lwmod@divisor,c
  7316  002B8E  EC1C  F01C         	call	___lwmod	;wreg free
  7317  002B92  501D               	movf	?___lwmod,w,c
  7318  002B94  6EDF               	movwf	indf2,c
  7319                           
  7320                           ;prog.c: 1110: temp = temp / 6;
  7321  002B96  D820               	call	PL82	;call to abstracted procedure
  7322  002B98  0E06               	movlw	6
  7323  002B9A  6E1F               	movwf	___lwdiv@divisor,c
  7324  002B9C  EC8F  F01B         	call	___lwdiv	;wreg free
  7325                           
  7326                           ;prog.c: 1111: TimeData[1 + d] = temp % 10;
  7327  002BA0  D812               	call	PL68	;call to abstracted procedure
  7328  002BA2  2AD9               	incf	fsr2l,f,c
  7329  002BA4  D81F               	call	PL86	;call to abstracted procedure
  7330  002BA6  0E0A               	movlw	10
  7331  002BA8  6E1F               	movwf	___lwmod@divisor,c
  7332  002BAA  EC1C  F01C         	call	___lwmod	;wreg free
  7333  002BAE  501D               	movf	?___lwmod,w,c
  7334  002BB0  6EDF               	movwf	indf2,c
  7335                           
  7336                           ;prog.c: 1112: TimeData[0 + d] = temp / 10;
  7337  002BB2  D81E               	call	PL98	;call to abstracted procedure
  7338  002BB4  D811               	call	PL82	;call to abstracted procedure
  7339  002BB6  0E0A               	movlw	10
  7340  002BB8  6E1F               	movwf	___lwdiv@divisor,c
  7341  002BBA  EC8F  F01B         	call	___lwdiv	;wreg free
  7342  002BBE  501D               	movf	?___lwdiv,w,c
  7343  002BC0  6EDF               	movwf	indf2,c
  7344  002BC2  2A27               	incf	TimesToTimeData@j,f,c
  7345  002BC4  D7BD               	goto	l4983
  7346  002BC6                     __end_of_TimesToTimeData:
  7347                           	opt stack 0
  7348  002BC6                     PL68:
  7349                           	opt stack 20
  7350  002BC6  C01D  F028         	movff	?___lwdiv,TimesToTimeData@temp
  7351  002BCA  C01E  F029         	movff	?___lwdiv+1,TimesToTimeData@temp+1
  7352  002BCE  5024               	movf	TimesToTimeData@TimeData,w,c
  7353  002BD0  2426               	addwf	TimesToTimeData@d,w,c
  7354  002BD2  6ED9               	movwf	fsr2l,c
  7355  002BD4  6ADA               	clrf	fsr2h,c
  7356  002BD6  0012               	return	
  7357  002BD8                     __end_ofPL68:
  7358                           	opt stack 0
  7359  002BD8                     PL82:
  7360                           	opt stack 20
  7361  002BD8  C028  F01D         	movff	TimesToTimeData@temp,___lwdiv@dividend
  7362  002BDC  C029  F01E         	movff	TimesToTimeData@temp+1,___lwdiv@dividend+1
  7363  002BE0  6A20               	clrf	___lwdiv@divisor+1,c
  7364  002BE2  0012               	return	
  7365  002BE4                     __end_ofPL82:
  7366                           	opt stack 0
  7367  002BE4                     PL86:
  7368                           	opt stack 20
  7369  002BE4  C028  F01D         	movff	TimesToTimeData@temp,___lwmod@dividend
  7370  002BE8  C029  F01E         	movff	TimesToTimeData@temp+1,___lwmod@dividend+1
  7371  002BEC  6A20               	clrf	___lwmod@divisor+1,c
  7372  002BEE  0012               	return	
  7373  002BF0                     __end_ofPL86:
  7374                           	opt stack 0
  7375  002BF0                     PL98:
  7376                           	opt stack 20
  7377  002BF0  5024               	movf	TimesToTimeData@TimeData,w,c
  7378  002BF2  2426               	addwf	TimesToTimeData@d,w,c
  7379  002BF4  6ED9               	movwf	fsr2l,c
  7380  002BF6  6ADA               	clrf	fsr2h,c
  7381  002BF8  0012               	return	
  7382  002BFA                     __end_ofPL98:
  7383                           	opt stack 0
  7384                           tblptru	equ	0xFF8
  7385                           tblptrh	equ	0xFF7
  7386                           tblptrl	equ	0xFF6
  7387                           tablat	equ	0xFF5
  7388                           prodh	equ	0xFF4
  7389                           prodl	equ	0xFF3
  7390                           intcon	equ	0xFF2
  7391                           intcon2	equ	0xFF1
  7392                           intcon3	equ	0xFF0
  7393                           postinc0	equ	0xFEE
  7394                           wreg	equ	0xFE8
  7395                           indf1	equ	0xFE7
  7396                           postdec1	equ	0xFE5
  7397                           plusw1	equ	0xFE3
  7398                           fsr1h	equ	0xFE2
  7399                           fsr1l	equ	0xFE1
  7400                           indf2	equ	0xFDF
  7401                           postinc2	equ	0xFDE
  7402                           postdec2	equ	0xFDD
  7403                           plusw2	equ	0xFDB
  7404                           fsr2h	equ	0xFDA
  7405                           fsr2l	equ	0xFD9
  7406                           status	equ	0xFD8
  7407                           
  7408 ;; *************** function _TimeDataToString *****************
  7409 ;; Defined at:
  7410 ;;		line 1116 in file "prog.c"
  7411 ;; Parameters:    Size  Location     Type
  7412 ;;  TimeData        1    wreg     PTR unsigned char 
  7413 ;;		 -> EditSchedule@TimeData(8), 
  7414 ;;  string          1   29[COMRAM] PTR unsigned char 
  7415 ;;		 -> EditSchedule@string2(12), EditSchedule@string(12), 
  7416 ;; Auto vars:     Size  Location     Type
  7417 ;;  TimeData        1   32[COMRAM] PTR unsigned char 
  7418 ;;		 -> EditSchedule@TimeData(8), 
  7419 ;;  i               1   33[COMRAM] unsigned char 
  7420 ;;  j               1   31[COMRAM] unsigned char 
  7421 ;; Return value:  Size  Location     Type
  7422 ;;                  1    wreg      void 
  7423 ;; Registers used:
  7424 ;;		wreg, fsr1l, fsr1h, fsr2l, fsr2h, status,2, status,0, cstack
  7425 ;; Tracked objects:
  7426 ;;		On entry : 0/0
  7427 ;;		On exit  : 0/0
  7428 ;;		Unchanged: 0/0
  7429 ;; Data sizes:     COMRAM   BANK0   BANK1   BANK2   BANK3   BANK4   BANK5   BANK6   BANK7   BANK8   BANK9  BANK10  BANK1
      +1  BANK12  BANK13  BANK14  BANK15
  7430 ;;      Params:         1       0       0       0       0       0       0       0       0       0       0       0       
      +0       0       0       0       0
  7431 ;;      Locals:         3       0       0       0       0       0       0       0       0       0       0       0       
      +0       0       0       0       0
  7432 ;;      Temps:          1       0       0       0       0       0       0       0       0       0       0       0       
      +0       0       0       0       0
  7433 ;;      Totals:         5       0       0       0       0       0       0       0       0       0       0       0       
      +0       0       0       0       0
  7434 ;;Total ram usage:        5 bytes
  7435 ;; Hardware stack levels used:    1
  7436 ;; Hardware stack levels required when called:    5
  7437 ;; This function calls:
  7438 ;;		_getNumChar
  7439 ;; This function is called by:
  7440 ;;		_EditSchedule
  7441 ;; This function uses a non-reentrant model
  7442 ;;
  7443                           
  7444                           	psect	text22
  7445  00395C                     __ptext22:
  7446                           	opt stack 0
  7447  00395C                     _TimeDataToString:
  7448                           	opt stack 20
  7449                           
  7450                           ;incstack = 0
  7451                           ;TimeDataToString@TimeData stored from wreg
  7452  00395C  6E21               	movwf	TimeDataToString@TimeData,c
  7453                           
  7454                           ;prog.c: 1117: unsigned char j = 0;
  7455  00395E  6A20               	clrf	TimeDataToString@j,c
  7456                           
  7457                           ;prog.c: 1118: for (unsigned char i = 0; i < 12; i++) {
  7458  003960  6A22               	clrf	TimeDataToString@i,c
  7459  003962                     l5007:
  7460                           
  7461                           ;prog.c: 1119: if(string[i] == '*'){
  7462  003962  D811               	call	PL144	;call to abstracted procedure
  7463  003964  0E2A               	movlw	42
  7464  003966  18DE               	xorwf	postinc2,w,c
  7465  003968  E109               	bnz	l5013
  7466                           
  7467                           ;prog.c: 1120: string[i] = getNumChar(TimeData[j]);
  7468  00396A  D80D               	call	PL144	;call to abstracted procedure
  7469  00396C  5021               	movf	TimeDataToString@TimeData,w,c
  7470  00396E  2420               	addwf	TimeDataToString@j,w,c
  7471  003970  ECC9  F00F         	call	PL156	;call to abstracted procedure
  7472  003974  EC2E  F01A         	call	_getNumChar
  7473  003978  6EDF               	movwf	indf2,c
  7474                           
  7475                           ;prog.c: 1121: j++;
  7476  00397A  2A20               	incf	TimeDataToString@j,f,c
  7477  00397C                     l5013:
  7478  00397C  2A22               	incf	TimeDataToString@i,f,c
  7479  00397E  0E0B               	movlw	11
  7480  003980  6422               	cpfsgt	TimeDataToString@i,c
  7481  003982  D7EF               	goto	l5007
  7482  003984  0C0B               	retlw	11
  7483  003986                     __end_of_TimeDataToString:
  7484                           	opt stack 0
  7485  003986                     PL144:
  7486                           	opt stack 20
  7487  003986  501E               	movf	TimeDataToString@string,w,c
  7488  003988  2422               	addwf	TimeDataToString@i,w,c
  7489  00398A  6ED9               	movwf	fsr2l,c
  7490  00398C  6ADA               	clrf	fsr2h,c
  7491  00398E  0012               	return	
  7492  003990                     __end_ofPL144:
  7493                           	opt stack 0
  7494                           tblptru	equ	0xFF8
  7495                           tblptrh	equ	0xFF7
  7496                           tblptrl	equ	0xFF6
  7497                           tablat	equ	0xFF5
  7498                           prodh	equ	0xFF4
  7499                           prodl	equ	0xFF3
  7500                           intcon	equ	0xFF2
  7501                           intcon2	equ	0xFF1
  7502                           intcon3	equ	0xFF0
  7503                           postinc0	equ	0xFEE
  7504                           wreg	equ	0xFE8
  7505                           indf1	equ	0xFE7
  7506                           postdec1	equ	0xFE5
  7507                           plusw1	equ	0xFE3
  7508                           fsr1h	equ	0xFE2
  7509                           fsr1l	equ	0xFE1
  7510                           indf2	equ	0xFDF
  7511                           postinc2	equ	0xFDE
  7512                           postdec2	equ	0xFDD
  7513                           plusw2	equ	0xFDB
  7514                           fsr2h	equ	0xFDA
  7515                           fsr2l	equ	0xFD9
  7516                           status	equ	0xFD8
  7517                           
  7518 ;; *************** function _ItemsToIndicator *****************
  7519 ;; Defined at:
  7520 ;;		line 1126 in file "prog.c"
  7521 ;; Parameters:    Size  Location     Type
  7522 ;;  items           1    wreg     unsigned char 
  7523 ;;  max_i           1   44[COMRAM] unsigned char 
  7524 ;;  firstDigit      1   45[COMRAM] unsigned char 
  7525 ;; Auto vars:     Size  Location     Type
  7526 ;;  items           1   46[COMRAM] unsigned char 
  7527 ;;  i               1   47[COMRAM] unsigned char 
  7528 ;; Return value:  Size  Location     Type
  7529 ;;                  1    wreg      void 
  7530 ;; Registers used:
  7531 ;;		wreg, fsr2l, fsr2h, status,2, status,0, prodl, prodh, cstack
  7532 ;; Tracked objects:
  7533 ;;		On entry : F/0
  7534 ;;		On exit  : 0/0
  7535 ;;		Unchanged: 0/0
  7536 ;; Data sizes:     COMRAM   BANK0   BANK1   BANK2   BANK3   BANK4   BANK5   BANK6   BANK7   BANK8   BANK9  BANK10  BANK1
      +1  BANK12  BANK13  BANK14  BANK15
  7537 ;;      Params:         2       0       0       0       0       0       0       0       0       0       0       0       
      +0       0       0       0       0
  7538 ;;      Locals:         2       0       0       0       0       0       0       0       0       0       0       0       
      +0       0       0       0       0
  7539 ;;      Temps:          0       0       0       0       0       0       0       0       0       0       0       0       
      +0       0       0       0       0
  7540 ;;      Totals:         4       0       0       0       0       0       0       0       0       0       0       0       
      +0       0       0       0       0
  7541 ;;Total ram usage:        4 bytes
  7542 ;; Hardware stack levels used:    1
  7543 ;; Hardware stack levels required when called:    5
  7544 ;; This function calls:
  7545 ;;		_getNumChar
  7546 ;;		_setDigit
  7547 ;; This function is called by:
  7548 ;;		_EditSchedule
  7549 ;; This function uses a non-reentrant model
  7550 ;;
  7551                           
  7552                           	psect	text23
  7553  0037F8                     __ptext23:
  7554                           	opt stack 0
  7555  0037F8                     _ItemsToIndicator:
  7556                           	opt stack 20
  7557                           
  7558                           ;incstack = 0
  7559                           ;ItemsToIndicator@items stored from wreg
  7560  0037F8  6E2F               	movwf	ItemsToIndicator@items,c
  7561                           
  7562                           ;prog.c: 1127: for (char i = 1; i < max_i; i++) {
  7563  0037FA  0E01               	movlw	1
  7564  0037FC  6E30               	movwf	ItemsToIndicator@i,c
  7565  0037FE  D014               	goto	l5029
  7566  003800                     l5019:
  7567                           
  7568                           ;prog.c: 1128: items % 2 == 1 ? setDigit(0, 16 -(firstDigit - i), getNumChar(i)) : setDi
      +                          git(0, 16 - (firstDigit - i), '-');
  7569  003800  A02F               	btfss	ItemsToIndicator@items,0,c
  7570  003802  D00A               	goto	l5023
  7571  003804  D815               	call	PL150	;call to abstracted procedure
  7572  003806  6E24               	movwf	setDigit@symbol,c
  7573  003808  5030               	movf	ItemsToIndicator@i,w,c
  7574  00380A  EC2E  F01A         	call	_getNumChar
  7575  00380E  6E25               	movwf	setDigit@data,c
  7576  003810  0E00               	movlw	0
  7577  003812  EC85  F018         	call	_setDigit
  7578  003816  D005               	goto	l5025
  7579  003818                     l5023:
  7580  003818  D80B               	call	PL150	;call to abstracted procedure
  7581  00381A  EC9D  F012         	call	PL116	;call to abstracted procedure
  7582  00381E  EC85  F018         	call	_setDigit
  7583  003822                     l5025:
  7584                           
  7585                           ;prog.c: 1129: items /= 2;
  7586  003822  90D8               	bcf	status,0,c
  7587  003824  322F               	rrcf	ItemsToIndicator@items,f,c
  7588  003826  2A30               	incf	ItemsToIndicator@i,f,c
  7589  003828                     l5029:
  7590  003828  502D               	movf	ItemsToIndicator@max_i,w,c
  7591  00382A  5C30               	subwf	ItemsToIndicator@i,w,c
  7592  00382C  E3E9               	bnc	l5019
  7593  00382E  0012               	return		;funcret
  7594  003830                     __end_of_ItemsToIndicator:
  7595                           	opt stack 0
  7596  003830                     PL150:
  7597                           	opt stack 20
  7598  003830  502E               	movf	ItemsToIndicator@firstDigit,w,c
  7599  003832  5C30               	subwf	ItemsToIndicator@i,w,c
  7600  003834  0F10               	addlw	16
  7601  003836  0012               	return	
  7602  003838                     __end_ofPL150:
  7603                           	opt stack 0
  7604                           tblptru	equ	0xFF8
  7605                           tblptrh	equ	0xFF7
  7606                           tblptrl	equ	0xFF6
  7607                           tablat	equ	0xFF5
  7608                           prodh	equ	0xFF4
  7609                           prodl	equ	0xFF3
  7610                           intcon	equ	0xFF2
  7611                           intcon2	equ	0xFF1
  7612                           intcon3	equ	0xFF0
  7613                           postinc0	equ	0xFEE
  7614                           wreg	equ	0xFE8
  7615                           indf1	equ	0xFE7
  7616                           postdec1	equ	0xFE5
  7617                           plusw1	equ	0xFE3
  7618                           fsr1h	equ	0xFE2
  7619                           fsr1l	equ	0xFE1
  7620                           indf2	equ	0xFDF
  7621                           postinc2	equ	0xFDE
  7622                           postdec2	equ	0xFDD
  7623                           plusw2	equ	0xFDB
  7624                           fsr2h	equ	0xFDA
  7625                           fsr2l	equ	0xFD9
  7626                           status	equ	0xFD8
  7627                           
  7628 ;; *************** function _ConvertDayToBit *****************
  7629 ;; Defined at:
  7630 ;;		line 1148 in file "prog.c"
  7631 ;; Parameters:    Size  Location     Type
  7632 ;;  DayNumber       1    wreg     unsigned char 
  7633 ;; Auto vars:     Size  Location     Type
  7634 ;;  DayNumber       1   28[COMRAM] unsigned char 
  7635 ;; Return value:  Size  Location     Type
  7636 ;;                  1    wreg      unsigned char 
  7637 ;; Registers used:
  7638 ;;		wreg, status,2, status,0
  7639 ;; Tracked objects:
  7640 ;;		On entry : F/0
  7641 ;;		On exit  : 0/0
  7642 ;;		Unchanged: 0/0
  7643 ;; Data sizes:     COMRAM   BANK0   BANK1   BANK2   BANK3   BANK4   BANK5   BANK6   BANK7   BANK8   BANK9  BANK10  BANK1
      +1  BANK12  BANK13  BANK14  BANK15
  7644 ;;      Params:         0       0       0       0       0       0       0       0       0       0       0       0       
      +0       0       0       0       0
  7645 ;;      Locals:         1       0       0       0       0       0       0       0       0       0       0       0       
      +0       0       0       0       0
  7646 ;;      Temps:          0       0       0       0       0       0       0       0       0       0       0       0       
      +0       0       0       0       0
  7647 ;;      Totals:         1       0       0       0       0       0       0       0       0       0       0       0       
      +0       0       0       0       0
  7648 ;;Total ram usage:        1 bytes
  7649 ;; Hardware stack levels used:    1
  7650 ;; Hardware stack levels required when called:    4
  7651 ;; This function calls:
  7652 ;;		Nothing
  7653 ;; This function is called by:
  7654 ;;		_EditSchedule
  7655 ;; This function uses a non-reentrant model
  7656 ;;
  7657                           
  7658                           	psect	text24
  7659  0039F8                     __ptext24:
  7660                           	opt stack 0
  7661  0039F8                     _ConvertDayToBit:
  7662                           	opt stack 21
  7663                           
  7664                           ;incstack = 0
  7665                           ;ConvertDayToBit@DayNumber stored from wreg
  7666  0039F8  6E1D               	movwf	ConvertDayToBit@DayNumber,c
  7667                           
  7668                           ;prog.c: 1149: switch (DayNumber) {
  7669  0039FA  501D               	movf	ConvertDayToBit@DayNumber,w,c
  7670                           
  7671                           ; Switch size 1, requested type "space"
  7672                           ; Number of cases is 7, Range of values is 1 to 7
  7673                           ; switch strategies available:
  7674                           ; Name         Instructions Cycles
  7675                           ; simple_byte           22    12 (average)
  7676                           ;	Chosen strategy is simple_byte
  7677  0039FC  0A01               	xorlw	1	; case 1
  7678  0039FE  B4D8               	btfsc	status,2,c
  7679  003A00  0C01               	retlw	1
  7680  003A02  0A03               	xorlw	3	; case 2
  7681  003A04  B4D8               	btfsc	status,2,c
  7682  003A06  0C02               	retlw	2
  7683  003A08  0A01               	xorlw	1	; case 3
  7684  003A0A  B4D8               	btfsc	status,2,c
  7685  003A0C  0C04               	retlw	4
  7686  003A0E  0A07               	xorlw	7	; case 4
  7687  003A10  B4D8               	btfsc	status,2,c
  7688  003A12  0C08               	retlw	8
  7689  003A14  0A01               	xorlw	1	; case 5
  7690  003A16  B4D8               	btfsc	status,2,c
  7691  003A18  0C10               	retlw	16
  7692  003A1A  0A03               	xorlw	3	; case 6
  7693  003A1C  B4D8               	btfsc	status,2,c
  7694  003A1E  0C20               	retlw	32
  7695  003A20  0A01               	xorlw	1	; case 7
  7696  003A22  B4D8               	btfsc	status,2,c
  7697  003A24  0C40               	retlw	64
  7698  003A26  0C00               	retlw	0
  7699  003A28                     __end_of_ConvertDayToBit:
  7700                           	opt stack 0
  7701                           tblptru	equ	0xFF8
  7702                           tblptrh	equ	0xFF7
  7703                           tblptrl	equ	0xFF6
  7704                           tablat	equ	0xFF5
  7705                           prodh	equ	0xFF4
  7706                           prodl	equ	0xFF3
  7707                           intcon	equ	0xFF2
  7708                           intcon2	equ	0xFF1
  7709                           intcon3	equ	0xFF0
  7710                           postinc0	equ	0xFEE
  7711                           wreg	equ	0xFE8
  7712                           indf1	equ	0xFE7
  7713                           postdec1	equ	0xFE5
  7714                           plusw1	equ	0xFE3
  7715                           fsr1h	equ	0xFE2
  7716                           fsr1l	equ	0xFE1
  7717                           indf2	equ	0xFDF
  7718                           postinc2	equ	0xFDE
  7719                           postdec2	equ	0xFDD
  7720                           plusw2	equ	0xFDB
  7721                           fsr2h	equ	0xFDA
  7722                           fsr2l	equ	0xFD9
  7723                           status	equ	0xFD8
  7724                           
  7725 ;; *************** function _DeleteDataOfCell *****************
  7726 ;; Defined at:
  7727 ;;		line 1183 in file "prog.c"
  7728 ;; Parameters:    Size  Location     Type
  7729 ;;  TargetAdress    2   40[COMRAM] unsigned int 
  7730 ;; Auto vars:     Size  Location     Type
  7731 ;;  i               1   50[COMRAM] unsigned char 
  7732 ;;  CellsData       8   42[COMRAM] unsigned char [8]
  7733 ;; Return value:  Size  Location     Type
  7734 ;;                  1    wreg      void 
  7735 ;; Registers used:
  7736 ;;		wreg, fsr2l, fsr2h, status,2, status,0, cstack
  7737 ;; Tracked objects:
  7738 ;;		On entry : 0/1
  7739 ;;		On exit  : 0/0
  7740 ;;		Unchanged: 0/0
  7741 ;; Data sizes:     COMRAM   BANK0   BANK1   BANK2   BANK3   BANK4   BANK5   BANK6   BANK7   BANK8   BANK9  BANK10  BANK1
      +1  BANK12  BANK13  BANK14  BANK15
  7742 ;;      Params:         2       0       0       0       0       0       0       0       0       0       0       0       
      +0       0       0       0       0
  7743 ;;      Locals:         9       0       0       0       0       0       0       0       0       0       0       0       
      +0       0       0       0       0
  7744 ;;      Temps:          0       0       0       0       0       0       0       0       0       0       0       0       
      +0       0       0       0       0
  7745 ;;      Totals:        11       0       0       0       0       0       0       0       0       0       0       0       
      +0       0       0       0       0
  7746 ;;Total ram usage:       11 bytes
  7747 ;; Hardware stack levels used:    1
  7748 ;; Hardware stack levels required when called:    6
  7749 ;; This function calls:
  7750 ;;		_WriteArrayToEEPROM
  7751 ;; This function is called by:
  7752 ;;		_Scheduler
  7753 ;; This function uses a non-reentrant model
  7754 ;;
  7755                           
  7756                           	psect	text25
  7757  003A50                     __ptext25:
  7758                           	opt stack 0
  7759  003A50                     _DeleteDataOfCell:
  7760                           	opt stack 21
  7761                           
  7762                           ;prog.c: 1184: unsigned char CellsData [8];
  7763                           ;prog.c: 1185: for(unsigned char i = 0; i < 8; i++){
  7764                           
  7765                           ;incstack = 0
  7766  003A50  6A33               	clrf	DeleteDataOfCell@i,c
  7767  003A52                     l5481:
  7768                           
  7769                           ;prog.c: 1186: CellsData[i] = 0xFF;
  7770  003A52  5033               	movf	DeleteDataOfCell@i,w,c
  7771  003A54  0F2B               	addlw	low DeleteDataOfCell@CellsData
  7772  003A56  6ED9               	movwf	fsr2l,c
  7773  003A58  6ADA               	clrf	fsr2h,c
  7774  003A5A  68DF               	setf	indf2,c
  7775  003A5C  2A33               	incf	DeleteDataOfCell@i,f,c
  7776  003A5E  0E07               	movlw	7
  7777  003A60  6433               	cpfsgt	DeleteDataOfCell@i,c
  7778  003A62  D7F7               	goto	l5481
  7779                           
  7780                           ;prog.c: 1187: }
  7781                           ;prog.c: 1188: WriteArrayToEEPROM(CellsData, TargetAdress, 8);
  7782  003A64  C029  F021         	movff	DeleteDataOfCell@TargetAdress,WriteArrayToEEPROM@adress_start
  7783  003A68  C02A  F022         	movff	DeleteDataOfCell@TargetAdress+1,WriteArrayToEEPROM@adress_start+1
  7784  003A6C  6A24               	clrf	WriteArrayToEEPROM@quantity+1,c
  7785  003A6E  0E08               	movlw	8
  7786  003A70  6E23               	movwf	WriteArrayToEEPROM@quantity,c
  7787  003A72  0E2B               	movlw	DeleteDataOfCell@CellsData& (0+255)
  7788  003A74  EF78  F01C         	goto	_WriteArrayToEEPROM
  7789  003A78                     __end_of_DeleteDataOfCell:
  7790                           	opt stack 0
  7791                           tblptru	equ	0xFF8
  7792                           tblptrh	equ	0xFF7
  7793                           tblptrl	equ	0xFF6
  7794                           tablat	equ	0xFF5
  7795                           prodh	equ	0xFF4
  7796                           prodl	equ	0xFF3
  7797                           intcon	equ	0xFF2
  7798                           intcon2	equ	0xFF1
  7799                           intcon3	equ	0xFF0
  7800                           postinc0	equ	0xFEE
  7801                           wreg	equ	0xFE8
  7802                           indf1	equ	0xFE7
  7803                           postdec1	equ	0xFE5
  7804                           plusw1	equ	0xFE3
  7805                           fsr1h	equ	0xFE2
  7806                           fsr1l	equ	0xFE1
  7807                           indf2	equ	0xFDF
  7808                           postinc2	equ	0xFDE
  7809                           postdec2	equ	0xFDD
  7810                           plusw2	equ	0xFDB
  7811                           fsr2h	equ	0xFDA
  7812                           fsr2l	equ	0xFD9
  7813                           status	equ	0xFD8
  7814                           
  7815 ;; *************** function _WriteArrayToEEPROM *****************
  7816 ;; Defined at:
  7817 ;;		line 875 in file "prog.c"
  7818 ;; Parameters:    Size  Location     Type
  7819 ;;  container       1    wreg     PTR unsigned char 
  7820 ;;		 -> EditSchedule@CellsData(8), DeleteDataOfCell@CellsData(8), 
  7821 ;;  adress_start    2   32[COMRAM] unsigned int 
  7822 ;;  quantity        2   34[COMRAM] unsigned int 
  7823 ;; Auto vars:     Size  Location     Type
  7824 ;;  container       1   38[COMRAM] PTR unsigned char 
  7825 ;;		 -> EditSchedule@CellsData(8), DeleteDataOfCell@CellsData(8), 
  7826 ;;  i               1   39[COMRAM] unsigned char 
  7827 ;; Return value:  Size  Location     Type
  7828 ;;                  1    wreg      void 
  7829 ;; Registers used:
  7830 ;;		wreg, fsr2l, fsr2h, status,2, status,0, cstack
  7831 ;; Tracked objects:
  7832 ;;		On entry : 0/0
  7833 ;;		On exit  : 0/0
  7834 ;;		Unchanged: 0/0
  7835 ;; Data sizes:     COMRAM   BANK0   BANK1   BANK2   BANK3   BANK4   BANK5   BANK6   BANK7   BANK8   BANK9  BANK10  BANK1
      +1  BANK12  BANK13  BANK14  BANK15
  7836 ;;      Params:         4       0       0       0       0       0       0       0       0       0       0       0       
      +0       0       0       0       0
  7837 ;;      Locals:         2       0       0       0       0       0       0       0       0       0       0       0       
      +0       0       0       0       0
  7838 ;;      Temps:          2       0       0       0       0       0       0       0       0       0       0       0       
      +0       0       0       0       0
  7839 ;;      Totals:         8       0       0       0       0       0       0       0       0       0       0       0       
      +0       0       0       0       0
  7840 ;;Total ram usage:        8 bytes
  7841 ;; Hardware stack levels used:    1
  7842 ;; Hardware stack levels required when called:    5
  7843 ;; This function calls:
  7844 ;;		_EEWR
  7845 ;; This function is called by:
  7846 ;;		_WriteDataOfCell
  7847 ;;		_DeleteDataOfCell
  7848 ;; This function uses a non-reentrant model
  7849 ;;
  7850                           
  7851                           	psect	text26
  7852  0038F0                     __ptext26:
  7853                           	opt stack 0
  7854  0038F0                     _WriteArrayToEEPROM:
  7855                           	opt stack 19
  7856                           
  7857                           ;incstack = 0
  7858                           ;WriteArrayToEEPROM@container stored from wreg
  7859  0038F0  6E27               	movwf	WriteArrayToEEPROM@container,c
  7860                           
  7861                           ;prog.c: 876: for (unsigned char i = 0; i < quantity; i++) {
  7862  0038F2  6A28               	clrf	WriteArrayToEEPROM@i,c
  7863  0038F4  D00F               	goto	l4755
  7864  0038F6                     l4751:
  7865                           
  7866                           ;prog.c: 877: EEWR(adress_start + i, container[i]);
  7867  0038F6  5028               	movf	WriteArrayToEEPROM@i,w,c
  7868  0038F8  2421               	addwf	WriteArrayToEEPROM@adress_start,w,c
  7869  0038FA  6E1D               	movwf	EEWR@adress,c
  7870  0038FC  0E00               	movlw	0
  7871  0038FE  2022               	addwfc	WriteArrayToEEPROM@adress_start+1,w,c
  7872  003900  6E1E               	movwf	EEWR@adress+1,c
  7873  003902  5027               	movf	WriteArrayToEEPROM@container,w,c
  7874  003904  2428               	addwf	WriteArrayToEEPROM@i,w,c
  7875  003906  6ED9               	movwf	fsr2l,c
  7876  003908  6ADA               	clrf	fsr2h,c
  7877  00390A  50DF               	movf	indf2,w,c
  7878  00390C  6E1F               	movwf	EEWR@data,c
  7879  00390E  ECC8  F01C         	call	_EEWR	;wreg free
  7880  003912  2A28               	incf	WriteArrayToEEPROM@i,f,c
  7881  003914                     l4755:
  7882  003914  5028               	movf	WriteArrayToEEPROM@i,w,c
  7883  003916  6E25               	movwf	??_WriteArrayToEEPROM& (0+255),c
  7884  003918  6A26               	clrf	(??_WriteArrayToEEPROM+1)& (0+255),c
  7885  00391A  5023               	movf	WriteArrayToEEPROM@quantity,w,c
  7886  00391C  5C25               	subwf	??_WriteArrayToEEPROM,w,c
  7887  00391E  5024               	movf	WriteArrayToEEPROM@quantity+1,w,c
  7888  003920  5826               	subwfb	??_WriteArrayToEEPROM+1,w,c
  7889  003922  E3E9               	bnc	l4751
  7890  003924  0012               	return		;funcret
  7891  003926                     __end_of_WriteArrayToEEPROM:
  7892                           	opt stack 0
  7893                           tblptru	equ	0xFF8
  7894                           tblptrh	equ	0xFF7
  7895                           tblptrl	equ	0xFF6
  7896                           tablat	equ	0xFF5
  7897                           prodh	equ	0xFF4
  7898                           prodl	equ	0xFF3
  7899                           intcon	equ	0xFF2
  7900                           intcon2	equ	0xFF1
  7901                           intcon3	equ	0xFF0
  7902                           postinc0	equ	0xFEE
  7903                           wreg	equ	0xFE8
  7904                           indf1	equ	0xFE7
  7905                           postdec1	equ	0xFE5
  7906                           plusw1	equ	0xFE3
  7907                           fsr1h	equ	0xFE2
  7908                           fsr1l	equ	0xFE1
  7909                           indf2	equ	0xFDF
  7910                           postinc2	equ	0xFDE
  7911                           postdec2	equ	0xFDD
  7912                           plusw2	equ	0xFDB
  7913                           fsr2h	equ	0xFDA
  7914                           fsr2l	equ	0xFD9
  7915                           status	equ	0xFD8
  7916                           
  7917 ;; *************** function _EEWR *****************
  7918 ;; Defined at:
  7919 ;;		line 597 in file "prog.c"
  7920 ;; Parameters:    Size  Location     Type
  7921 ;;  adress          2   28[COMRAM] unsigned int 
  7922 ;;  data            1   30[COMRAM] unsigned char 
  7923 ;; Auto vars:     Size  Location     Type
  7924 ;;  INTCON_BUP      1   31[COMRAM] volatile unsigned char 
  7925 ;; Return value:  Size  Location     Type
  7926 ;;                  1    wreg      void 
  7927 ;; Registers used:
  7928 ;;		wreg, status,2
  7929 ;; Tracked objects:
  7930 ;;		On entry : 0/1
  7931 ;;		On exit  : 0/0
  7932 ;;		Unchanged: 0/0
  7933 ;; Data sizes:     COMRAM   BANK0   BANK1   BANK2   BANK3   BANK4   BANK5   BANK6   BANK7   BANK8   BANK9  BANK10  BANK1
      +1  BANK12  BANK13  BANK14  BANK15
  7934 ;;      Params:         3       0       0       0       0       0       0       0       0       0       0       0       
      +0       0       0       0       0
  7935 ;;      Locals:         1       0       0       0       0       0       0       0       0       0       0       0       
      +0       0       0       0       0
  7936 ;;      Temps:          0       0       0       0       0       0       0       0       0       0       0       0       
      +0       0       0       0       0
  7937 ;;      Totals:         4       0       0       0       0       0       0       0       0       0       0       0       
      +0       0       0       0       0
  7938 ;;Total ram usage:        4 bytes
  7939 ;; Hardware stack levels used:    1
  7940 ;; Hardware stack levels required when called:    4
  7941 ;; This function calls:
  7942 ;;		Nothing
  7943 ;; This function is called by:
  7944 ;;		_WriteArrayToEEPROM
  7945 ;;		_main2
  7946 ;; This function uses a non-reentrant model
  7947 ;;
  7948                           
  7949                           	psect	text27
  7950  003990                     __ptext27:
  7951                           	opt stack 0
  7952  003990                     _EEWR:
  7953                           	opt stack 19
  7954                           
  7955                           ;prog.c: 598: volatile unsigned char INTCON_BUP = INTCON;
  7956                           
  7957                           ;incstack = 0
  7958  003990  CFF2 F020          	movff	intcon,EEWR@INTCON_BUP	;volatile
  7959                           
  7960                           ;prog.c: 599: INTCONbits.GIEH = 0;
  7961  003994  9EF2               	bcf	intcon,7,c	;volatile
  7962                           
  7963                           ;prog.c: 600: INTCONbits.GIEL = 0;
  7964  003996  9CF2               	bcf	intcon,6,c	;volatile
  7965  003998  0004               	clrwdt		;# 
  7966                           
  7967                           ;prog.c: 602: EEADRH = adress >> 8;
  7968  00399A  C01E  FFAA         	movff	EEWR@adress+1,4010	;volatile
  7969                           
  7970                           ;prog.c: 603: EEADR = adress % 256;
  7971  00399E  C01D  FFA9         	movff	EEWR@adress,4009	;volatile
  7972                           
  7973                           ;prog.c: 604: EEDATA = data;
  7974  0039A2  C01F  FFA8         	movff	EEWR@data,4008	;volatile
  7975                           
  7976                           ;prog.c: 605: EECON1bits.EEPGD = 0;
  7977  0039A6  9EA6               	bcf	4006,7,c	;volatile
  7978                           
  7979                           ;prog.c: 606: EECON1bits.CFGS = 0;
  7980  0039A8  9CA6               	bcf	4006,6,c	;volatile
  7981                           
  7982                           ;prog.c: 607: EECON1bits.WREN = 1;
  7983  0039AA  84A6               	bsf	4006,2,c	;volatile
  7984                           
  7985                           ;prog.c: 608: EECON2 = 0x55;
  7986  0039AC  0E55               	movlw	85
  7987  0039AE  6EA7               	movwf	4007,c	;volatile
  7988                           
  7989                           ;prog.c: 609: EECON2 = 0xAA;
  7990  0039B0  0EAA               	movlw	170
  7991  0039B2  6EA7               	movwf	4007,c	;volatile
  7992                           
  7993                           ;prog.c: 610: EECON1bits.WR = 1;
  7994  0039B4  82A6               	bsf	4006,1,c	;volatile
  7995                           
  7996                           ;prog.c: 611: EECON1bits.WREN = 0;
  7997  0039B6  94A6               	bcf	4006,2,c	;volatile
  7998  0039B8                     l463:
  7999  0039B8  B2A6               	btfsc	4006,1,c	;volatile
  8000  0039BA  D7FE               	goto	l463
  8001                           
  8002                           ;prog.c: 613: }
  8003                           ;prog.c: 614: PIR2bits.EEIF = 0;
  8004  0039BC  98A1               	bcf	4001,4,c	;volatile
  8005                           
  8006                           ;prog.c: 615: INTCON = INTCON_BUP;
  8007  0039BE  C020  FFF2         	movff	EEWR@INTCON_BUP,intcon	;volatile
  8008  0039C2  0012               	return		;funcret
  8009  0039C4                     __end_of_EEWR:
  8010                           	opt stack 0
  8011                           tblptru	equ	0xFF8
  8012                           tblptrh	equ	0xFF7
  8013                           tblptrl	equ	0xFF6
  8014                           tablat	equ	0xFF5
  8015                           prodh	equ	0xFF4
  8016                           prodl	equ	0xFF3
  8017                           intcon	equ	0xFF2
  8018                           intcon2	equ	0xFF1
  8019                           intcon3	equ	0xFF0
  8020                           postinc0	equ	0xFEE
  8021                           wreg	equ	0xFE8
  8022                           indf1	equ	0xFE7
  8023                           postdec1	equ	0xFE5
  8024                           plusw1	equ	0xFE3
  8025                           fsr1h	equ	0xFE2
  8026                           fsr1l	equ	0xFE1
  8027                           indf2	equ	0xFDF
  8028                           postinc2	equ	0xFDE
  8029                           postdec2	equ	0xFDD
  8030                           plusw2	equ	0xFDB
  8031                           fsr2h	equ	0xFDA
  8032                           fsr2l	equ	0xFD9
  8033                           status	equ	0xFD8
  8034                           
  8035 ;; *************** function _ParseTime *****************
  8036 ;; Defined at:
  8037 ;;		line 1458 in file "prog.c"
  8038 ;; Parameters:    Size  Location     Type
  8039 ;;  TimeValue       4   42[COMRAM] long 
  8040 ;;  Time            2   46[COMRAM] PTR unsigned int 
  8041 ;;		 -> TimeToInd@Time(2), 
  8042 ;;  Day             2   48[COMRAM] PTR unsigned char 
  8043 ;;		 -> TimeToInd@Day(1), 
  8044 ;; Auto vars:     Size  Location     Type
  8045 ;;  DayTime         2   50[COMRAM] unsigned int 
  8046 ;; Return value:  Size  Location     Type
  8047 ;;                  1    wreg      void 
  8048 ;; Registers used:
  8049 ;;		wreg, fsr2l, fsr2h, status,2, status,0, cstack
  8050 ;; Tracked objects:
  8051 ;;		On entry : 0/1
  8052 ;;		On exit  : 0/0
  8053 ;;		Unchanged: 0/0
  8054 ;; Data sizes:     COMRAM   BANK0   BANK1   BANK2   BANK3   BANK4   BANK5   BANK6   BANK7   BANK8   BANK9  BANK10  BANK1
      +1  BANK12  BANK13  BANK14  BANK15
  8055 ;;      Params:         8       0       0       0       0       0       0       0       0       0       0       0       
      +0       0       0       0       0
  8056 ;;      Locals:         2       0       0       0       0       0       0       0       0       0       0       0       
      +0       0       0       0       0
  8057 ;;      Temps:          0       0       0       0       0       0       0       0       0       0       0       0       
      +0       0       0       0       0
  8058 ;;      Totals:        10       0       0       0       0       0       0       0       0       0       0       0       
      +0       0       0       0       0
  8059 ;;Total ram usage:       10 bytes
  8060 ;; Hardware stack levels used:    1
  8061 ;; Hardware stack levels required when called:    5
  8062 ;; This function calls:
  8063 ;;		___aldiv
  8064 ;;		___lwdiv
  8065 ;;		___lwmod
  8066 ;; This function is called by:
  8067 ;;		_TimeToInd
  8068 ;; This function uses a non-reentrant model
  8069 ;;
  8070                           
  8071                           	psect	text28
  8072  0033F6                     __ptext28:
  8073                           	opt stack 0
  8074  0033F6                     _ParseTime:
  8075                           	opt stack 23
  8076                           
  8077                           ;prog.c: 1459: unsigned int DayTime = (unsigned int) (TimeValue / 6000);
  8078                           
  8079                           ;incstack = 0
  8080  0033F6  C02B  F01D         	movff	ParseTime@TimeValue,___aldiv@dividend
  8081  0033FA  C02C  F01E         	movff	ParseTime@TimeValue+1,___aldiv@dividend+1
  8082  0033FE  C02D  F01F         	movff	ParseTime@TimeValue+2,___aldiv@dividend+2
  8083  003402  C02E  F020         	movff	ParseTime@TimeValue+3,___aldiv@dividend+3
  8084  003406  ECBE  F00F         	call	PL110	;call to abstracted procedure
  8085  00340A  EC5B  F016         	call	___aldiv	;wreg free
  8086  00340E  C01D  F033         	movff	?___aldiv,ParseTime@DayTime
  8087  003412  C01E  F034         	movff	?___aldiv+1,ParseTime@DayTime+1
  8088                           
  8089                           ;prog.c: 1460: *Time = DayTime % 1440;
  8090  003416  C033  F01D         	movff	ParseTime@DayTime,___lwmod@dividend
  8091  00341A  C034  F01E         	movff	ParseTime@DayTime+1,___lwmod@dividend+1
  8092  00341E  0E05               	movlw	5
  8093  003420  6E20               	movwf	___lwmod@divisor+1,c
  8094  003422  0EA0               	movlw	160
  8095  003424  6E1F               	movwf	___lwmod@divisor,c
  8096  003426  EC1C  F01C         	call	___lwmod	;wreg free
  8097  00342A  C02F  FFD9         	movff	ParseTime@Time,fsr2l
  8098  00342E  C030  FFDA         	movff	ParseTime@Time+1,fsr2h
  8099  003432  C01D  FFDE         	movff	?___lwmod,postinc2
  8100  003436  C01E  FFDD         	movff	?___lwmod+1,postdec2
  8101                           
  8102                           ;prog.c: 1461: *Day = DayTime / 1440 + 1;
  8103  00343A  C033  F01D         	movff	ParseTime@DayTime,___lwdiv@dividend
  8104  00343E  C034  F01E         	movff	ParseTime@DayTime+1,___lwdiv@dividend+1
  8105  003442  0E05               	movlw	5
  8106  003444  6E20               	movwf	___lwdiv@divisor+1,c
  8107  003446  0EA0               	movlw	160
  8108  003448  6E1F               	movwf	___lwdiv@divisor,c
  8109  00344A  EC8F  F01B         	call	___lwdiv	;wreg free
  8110  00344E  281D               	incf	?___lwdiv,w,c
  8111  003450  C031  FFD9         	movff	ParseTime@Day,fsr2l
  8112  003454  C032  FFDA         	movff	ParseTime@Day+1,fsr2h
  8113  003458  6EDF               	movwf	indf2,c
  8114  00345A  0012               	return		;funcret
  8115  00345C                     __end_of_ParseTime:
  8116                           	opt stack 0
  8117                           tblptru	equ	0xFF8
  8118                           tblptrh	equ	0xFF7
  8119                           tblptrl	equ	0xFF6
  8120                           tablat	equ	0xFF5
  8121                           prodh	equ	0xFF4
  8122                           prodl	equ	0xFF3
  8123                           intcon	equ	0xFF2
  8124                           intcon2	equ	0xFF1
  8125                           intcon3	equ	0xFF0
  8126                           postinc0	equ	0xFEE
  8127                           wreg	equ	0xFE8
  8128                           indf1	equ	0xFE7
  8129                           postdec1	equ	0xFE5
  8130                           plusw1	equ	0xFE3
  8131                           fsr1h	equ	0xFE2
  8132                           fsr1l	equ	0xFE1
  8133                           indf2	equ	0xFDF
  8134                           postinc2	equ	0xFDE
  8135                           postdec2	equ	0xFDD
  8136                           plusw2	equ	0xFDB
  8137                           fsr2h	equ	0xFDA
  8138                           fsr2l	equ	0xFD9
  8139                           status	equ	0xFD8
  8140                           
  8141 ;; *************** function ___lwmod *****************
  8142 ;; Defined at:
  8143 ;;		line 8 in file "/opt/microchip/xc8/v1.37/sources/common/lwmod.c"
  8144 ;; Parameters:    Size  Location     Type
  8145 ;;  dividend        2   28[COMRAM] unsigned int 
  8146 ;;  divisor         2   30[COMRAM] unsigned int 
  8147 ;; Auto vars:     Size  Location     Type
  8148 ;;  counter         1   32[COMRAM] unsigned char 
  8149 ;; Return value:  Size  Location     Type
  8150 ;;                  2   28[COMRAM] unsigned int 
  8151 ;; Registers used:
  8152 ;;		wreg, status,2, status,0
  8153 ;; Tracked objects:
  8154 ;;		On entry : 0/1
  8155 ;;		On exit  : 0/0
  8156 ;;		Unchanged: 0/0
  8157 ;; Data sizes:     COMRAM   BANK0   BANK1   BANK2   BANK3   BANK4   BANK5   BANK6   BANK7   BANK8   BANK9  BANK10  BANK1
      +1  BANK12  BANK13  BANK14  BANK15
  8158 ;;      Params:         4       0       0       0       0       0       0       0       0       0       0       0       
      +0       0       0       0       0
  8159 ;;      Locals:         1       0       0       0       0       0       0       0       0       0       0       0       
      +0       0       0       0       0
  8160 ;;      Temps:          0       0       0       0       0       0       0       0       0       0       0       0       
      +0       0       0       0       0
  8161 ;;      Totals:         5       0       0       0       0       0       0       0       0       0       0       0       
      +0       0       0       0       0
  8162 ;;Total ram usage:        5 bytes
  8163 ;; Hardware stack levels used:    1
  8164 ;; Hardware stack levels required when called:    4
  8165 ;; This function calls:
  8166 ;;		Nothing
  8167 ;; This function is called by:
  8168 ;;		_TimeToInd
  8169 ;;		_RefreshSchedulerIndicator
  8170 ;;		_TimesToTimeData
  8171 ;;		_ParseTime
  8172 ;; This function uses a non-reentrant model
  8173 ;;
  8174                           
  8175                           	psect	text29
  8176  003838                     __ptext29:
  8177                           	opt stack 0
  8178  003838                     ___lwmod:
  8179                           	opt stack 24
  8180                           
  8181                           ;incstack = 0
  8182  003838  501F               	movf	___lwmod@divisor,w,c
  8183  00383A  1020               	iorwf	___lwmod@divisor+1,w,c
  8184  00383C  E017               	bz	l1534
  8185  00383E  0E01               	movlw	1
  8186  003840  6E21               	movwf	___lwmod@counter,c
  8187  003842  D004               	goto	l4823
  8188  003844                     l4821:
  8189  003844  90D8               	bcf	status,0,c
  8190  003846  361F               	rlcf	___lwmod@divisor,f,c
  8191  003848  3620               	rlcf	___lwmod@divisor+1,f,c
  8192  00384A  2A21               	incf	___lwmod@counter,f,c
  8193  00384C                     l4823:
  8194  00384C  AE20               	btfss	___lwmod@divisor+1,7,c
  8195  00384E  D7FA               	goto	l4821
  8196  003850                     l4825:
  8197  003850  501F               	movf	___lwmod@divisor,w,c
  8198  003852  5C1D               	subwf	___lwmod@dividend,w,c
  8199  003854  5020               	movf	___lwmod@divisor+1,w,c
  8200  003856  581E               	subwfb	___lwmod@dividend+1,w,c
  8201  003858  E304               	bnc	l4829
  8202  00385A  501F               	movf	___lwmod@divisor,w,c
  8203  00385C  5E1D               	subwf	___lwmod@dividend,f,c
  8204  00385E  5020               	movf	___lwmod@divisor+1,w,c
  8205  003860  5A1E               	subwfb	___lwmod@dividend+1,f,c
  8206  003862                     l4829:
  8207  003862  90D8               	bcf	status,0,c
  8208  003864  3220               	rrcf	___lwmod@divisor+1,f,c
  8209  003866  321F               	rrcf	___lwmod@divisor,f,c
  8210  003868  2E21               	decfsz	___lwmod@counter,f,c
  8211  00386A  D7F2               	goto	l4825
  8212  00386C                     l1534:
  8213  00386C  C01D  F01D         	movff	___lwmod@dividend,?___lwmod
  8214  003870  C01E  F01E         	movff	___lwmod@dividend+1,?___lwmod+1
  8215  003874  0012               	return		;funcret
  8216  003876                     __end_of___lwmod:
  8217                           	opt stack 0
  8218                           tblptru	equ	0xFF8
  8219                           tblptrh	equ	0xFF7
  8220                           tblptrl	equ	0xFF6
  8221                           tablat	equ	0xFF5
  8222                           prodh	equ	0xFF4
  8223                           prodl	equ	0xFF3
  8224                           intcon	equ	0xFF2
  8225                           intcon2	equ	0xFF1
  8226                           intcon3	equ	0xFF0
  8227                           postinc0	equ	0xFEE
  8228                           wreg	equ	0xFE8
  8229                           indf1	equ	0xFE7
  8230                           postdec1	equ	0xFE5
  8231                           plusw1	equ	0xFE3
  8232                           fsr1h	equ	0xFE2
  8233                           fsr1l	equ	0xFE1
  8234                           indf2	equ	0xFDF
  8235                           postinc2	equ	0xFDE
  8236                           postdec2	equ	0xFDD
  8237                           plusw2	equ	0xFDB
  8238                           fsr2h	equ	0xFDA
  8239                           fsr2l	equ	0xFD9
  8240                           status	equ	0xFD8
  8241                           
  8242 ;; *************** function ___lwdiv *****************
  8243 ;; Defined at:
  8244 ;;		line 8 in file "/opt/microchip/xc8/v1.37/sources/common/lwdiv.c"
  8245 ;; Parameters:    Size  Location     Type
  8246 ;;  dividend        2   28[COMRAM] unsigned int 
  8247 ;;  divisor         2   30[COMRAM] unsigned int 
  8248 ;; Auto vars:     Size  Location     Type
  8249 ;;  quotient        2   32[COMRAM] unsigned int 
  8250 ;;  counter         1   34[COMRAM] unsigned char 
  8251 ;; Return value:  Size  Location     Type
  8252 ;;                  2   28[COMRAM] unsigned int 
  8253 ;; Registers used:
  8254 ;;		wreg, status,2, status,0
  8255 ;; Tracked objects:
  8256 ;;		On entry : 0/1
  8257 ;;		On exit  : 0/0
  8258 ;;		Unchanged: 0/0
  8259 ;; Data sizes:     COMRAM   BANK0   BANK1   BANK2   BANK3   BANK4   BANK5   BANK6   BANK7   BANK8   BANK9  BANK10  BANK1
      +1  BANK12  BANK13  BANK14  BANK15
  8260 ;;      Params:         4       0       0       0       0       0       0       0       0       0       0       0       
      +0       0       0       0       0
  8261 ;;      Locals:         3       0       0       0       0       0       0       0       0       0       0       0       
      +0       0       0       0       0
  8262 ;;      Temps:          0       0       0       0       0       0       0       0       0       0       0       0       
      +0       0       0       0       0
  8263 ;;      Totals:         7       0       0       0       0       0       0       0       0       0       0       0       
      +0       0       0       0       0
  8264 ;;Total ram usage:        7 bytes
  8265 ;; Hardware stack levels used:    1
  8266 ;; Hardware stack levels required when called:    4
  8267 ;; This function calls:
  8268 ;;		Nothing
  8269 ;; This function is called by:
  8270 ;;		_TimeToInd
  8271 ;;		_RefreshSchedulerIndicator
  8272 ;;		_TimesToTimeData
  8273 ;;		_ParseTime
  8274 ;; This function uses a non-reentrant model
  8275 ;;
  8276                           
  8277                           	psect	text30
  8278  00371E                     __ptext30:
  8279                           	opt stack 0
  8280  00371E                     ___lwdiv:
  8281                           	opt stack 24
  8282                           
  8283                           ;incstack = 0
  8284  00371E  6A21               	clrf	___lwdiv@quotient,c
  8285  003720  6A22               	clrf	___lwdiv@quotient+1,c
  8286  003722  501F               	movf	___lwdiv@divisor,w,c
  8287  003724  1020               	iorwf	___lwdiv@divisor+1,w,c
  8288  003726  E01B               	bz	l1524
  8289  003728  0E01               	movlw	1
  8290  00372A  6E23               	movwf	___lwdiv@counter,c
  8291  00372C  D004               	goto	l4803
  8292  00372E                     l4801:
  8293  00372E  90D8               	bcf	status,0,c
  8294  003730  361F               	rlcf	___lwdiv@divisor,f,c
  8295  003732  3620               	rlcf	___lwdiv@divisor+1,f,c
  8296  003734  2A23               	incf	___lwdiv@counter,f,c
  8297  003736                     l4803:
  8298  003736  AE20               	btfss	___lwdiv@divisor+1,7,c
  8299  003738  D7FA               	goto	l4801
  8300  00373A                     l4805:
  8301  00373A  90D8               	bcf	status,0,c
  8302  00373C  3621               	rlcf	___lwdiv@quotient,f,c
  8303  00373E  3622               	rlcf	___lwdiv@quotient+1,f,c
  8304  003740  501F               	movf	___lwdiv@divisor,w,c
  8305  003742  5C1D               	subwf	___lwdiv@dividend,w,c
  8306  003744  5020               	movf	___lwdiv@divisor+1,w,c
  8307  003746  581E               	subwfb	___lwdiv@dividend+1,w,c
  8308  003748  E305               	bnc	l4813
  8309  00374A  501F               	movf	___lwdiv@divisor,w,c
  8310  00374C  5E1D               	subwf	___lwdiv@dividend,f,c
  8311  00374E  5020               	movf	___lwdiv@divisor+1,w,c
  8312  003750  5A1E               	subwfb	___lwdiv@dividend+1,f,c
  8313  003752  8021               	bsf	___lwdiv@quotient,0,c
  8314  003754                     l4813:
  8315  003754  90D8               	bcf	status,0,c
  8316  003756  3220               	rrcf	___lwdiv@divisor+1,f,c
  8317  003758  321F               	rrcf	___lwdiv@divisor,f,c
  8318  00375A  2E23               	decfsz	___lwdiv@counter,f,c
  8319  00375C  D7EE               	goto	l4805
  8320  00375E                     l1524:
  8321  00375E  C021  F01D         	movff	___lwdiv@quotient,?___lwdiv
  8322  003762  C022  F01E         	movff	___lwdiv@quotient+1,?___lwdiv+1
  8323  003766  0012               	return		;funcret
  8324  003768                     __end_of___lwdiv:
  8325                           	opt stack 0
  8326                           tblptru	equ	0xFF8
  8327                           tblptrh	equ	0xFF7
  8328                           tblptrl	equ	0xFF6
  8329                           tablat	equ	0xFF5
  8330                           prodh	equ	0xFF4
  8331                           prodl	equ	0xFF3
  8332                           intcon	equ	0xFF2
  8333                           intcon2	equ	0xFF1
  8334                           intcon3	equ	0xFF0
  8335                           postinc0	equ	0xFEE
  8336                           wreg	equ	0xFE8
  8337                           indf1	equ	0xFE7
  8338                           postdec1	equ	0xFE5
  8339                           plusw1	equ	0xFE3
  8340                           fsr1h	equ	0xFE2
  8341                           fsr1l	equ	0xFE1
  8342                           indf2	equ	0xFDF
  8343                           postinc2	equ	0xFDE
  8344                           postdec2	equ	0xFDD
  8345                           plusw2	equ	0xFDB
  8346                           fsr2h	equ	0xFDA
  8347                           fsr2l	equ	0xFD9
  8348                           status	equ	0xFD8
  8349                           
  8350 ;; *************** function _GetDayOfWeek *****************
  8351 ;; Defined at:
  8352 ;;		line 426 in file "prog.c"
  8353 ;; Parameters:    Size  Location     Type
  8354 ;;  day             1    wreg     unsigned char 
  8355 ;; Auto vars:     Size  Location     Type
  8356 ;;  day             1   30[COMRAM] unsigned char 
  8357 ;; Return value:  Size  Location     Type
  8358 ;;                  1    wreg      PTR unsigned char 
  8359 ;; Registers used:
  8360 ;;		wreg, status,2, status,0
  8361 ;; Tracked objects:
  8362 ;;		On entry : F/1
  8363 ;;		On exit  : 0/0
  8364 ;;		Unchanged: 0/0
  8365 ;; Data sizes:     COMRAM   BANK0   BANK1   BANK2   BANK3   BANK4   BANK5   BANK6   BANK7   BANK8   BANK9  BANK10  BANK1
      +1  BANK12  BANK13  BANK14  BANK15
  8366 ;;      Params:         2       0       0       0       0       0       0       0       0       0       0       0       
      +0       0       0       0       0
  8367 ;;      Locals:         1       0       0       0       0       0       0       0       0       0       0       0       
      +0       0       0       0       0
  8368 ;;      Temps:          0       0       0       0       0       0       0       0       0       0       0       0       
      +0       0       0       0       0
  8369 ;;      Totals:         3       0       0       0       0       0       0       0       0       0       0       0       
      +0       0       0       0       0
  8370 ;;Total ram usage:        3 bytes
  8371 ;; Hardware stack levels used:    1
  8372 ;; Hardware stack levels required when called:    4
  8373 ;; This function calls:
  8374 ;;		Nothing
  8375 ;; This function is called by:
  8376 ;;		_TimeToInd
  8377 ;; This function uses a non-reentrant model
  8378 ;;
  8379                           
  8380                           	psect	text31
  8381  003768                     __ptext31:
  8382                           	opt stack 0
  8383  003768                     _GetDayOfWeek:
  8384                           	opt stack 24
  8385                           
  8386                           ;incstack = 0
  8387                           ;GetDayOfWeek@day stored from wreg
  8388  003768  6E1F               	movwf	GetDayOfWeek@day,c
  8389                           
  8390                           ;prog.c: 427: if (day == 1) {
  8391  00376A  041F               	decf	GetDayOfWeek@day,w,c
  8392  00376C  E102               	bnz	l5597
  8393                           
  8394                           ;prog.c: 428: return "";
  8395  00376E  0E40               	movlw	STR_1& (0+255)
  8396  003770  0012               	return	
  8397  003772                     l5597:
  8398                           
  8399                           ;prog.c: 430: else if (day == 2) {
  8400  003772  0E02               	movlw	2
  8401  003774  181F               	xorwf	GetDayOfWeek@day,w,c
  8402  003776  E102               	bnz	l5605
  8403                           
  8404                           ;prog.c: 431: return "";
  8405  003778  0E49               	movlw	STR_2& (0+255)
  8406  00377A  0012               	return	
  8407  00377C                     l5605:
  8408                           
  8409                           ;prog.c: 433: else if (day == 3) {
  8410  00377C  0E03               	movlw	3
  8411  00377E  181F               	xorwf	GetDayOfWeek@day,w,c
  8412  003780  E102               	bnz	l5613
  8413                           
  8414                           ;prog.c: 434: return "";
  8415  003782  0E43               	movlw	STR_3& (0+255)
  8416  003784  0012               	return	
  8417  003786                     l5613:
  8418                           
  8419                           ;prog.c: 436: else if (day == 4) {
  8420  003786  0E04               	movlw	4
  8421  003788  181F               	xorwf	GetDayOfWeek@day,w,c
  8422  00378A  E102               	bnz	l5621
  8423                           
  8424                           ;prog.c: 437: return "";
  8425  00378C  0E4F               	movlw	STR_4& (0+255)
  8426  00378E  0012               	return	
  8427  003790                     l5621:
  8428                           
  8429                           ;prog.c: 439: else if (day == 5) {
  8430  003790  0E05               	movlw	5
  8431  003792  181F               	xorwf	GetDayOfWeek@day,w,c
  8432  003794  E102               	bnz	l5629
  8433                           
  8434                           ;prog.c: 440: return "";
  8435  003796  0E4C               	movlw	STR_5& (0+255)
  8436  003798  0012               	return	
  8437  00379A                     l5629:
  8438                           
  8439                           ;prog.c: 442: else if (day == 6) {
  8440  00379A  0E06               	movlw	6
  8441  00379C  181F               	xorwf	GetDayOfWeek@day,w,c
  8442  00379E  E102               	bnz	l5637
  8443                           
  8444                           ;prog.c: 443: return "";
  8445  0037A0  0E3D               	movlw	STR_6& (0+255)
  8446  0037A2  0012               	return	
  8447  0037A4                     l5637:
  8448                           
  8449                           ;prog.c: 445: else if (day == 7) {
  8450  0037A4  0E07               	movlw	7
  8451  0037A6  181F               	xorwf	GetDayOfWeek@day,w,c
  8452  0037A8  E102               	bnz	l5643
  8453                           
  8454                           ;prog.c: 446: return "";
  8455  0037AA  0E46               	movlw	STR_7& (0+255)
  8456  0037AC  0012               	return	
  8457  0037AE                     l5643:
  8458                           
  8459                           ;prog.c: 447: }
  8460                           ;prog.c: 448: return "??";
  8461  0037AE  0E52               	movlw	STR_8& (0+255)
  8462  0037B0  0012               	return		;funcret
  8463  0037B2                     __end_of_GetDayOfWeek:
  8464                           	opt stack 0
  8465                           tblptru	equ	0xFF8
  8466                           tblptrh	equ	0xFF7
  8467                           tblptrl	equ	0xFF6
  8468                           tablat	equ	0xFF5
  8469                           prodh	equ	0xFF4
  8470                           prodl	equ	0xFF3
  8471                           intcon	equ	0xFF2
  8472                           intcon2	equ	0xFF1
  8473                           intcon3	equ	0xFF0
  8474                           postinc0	equ	0xFEE
  8475                           wreg	equ	0xFE8
  8476                           indf1	equ	0xFE7
  8477                           postdec1	equ	0xFE5
  8478                           plusw1	equ	0xFE3
  8479                           fsr1h	equ	0xFE2
  8480                           fsr1l	equ	0xFE1
  8481                           indf2	equ	0xFDF
  8482                           postinc2	equ	0xFDE
  8483                           postdec2	equ	0xFDD
  8484                           plusw2	equ	0xFDB
  8485                           fsr2h	equ	0xFDA
  8486                           fsr2l	equ	0xFD9
  8487                           status	equ	0xFD8
  8488                           
  8489 ;; *************** function _FindNextTimeStart *****************
  8490 ;; Defined at:
  8491 ;;		line 1476 in file "prog.c"
  8492 ;; Parameters:    Size  Location     Type
  8493 ;;  TimeFrom        2   57[COMRAM] PTR unsigned long 
  8494 ;;		 -> NearTimeStart(4), 
  8495 ;; Auto vars:     Size  Location     Type
  8496 ;;  TimeOfSignal    4   26[BANK0 ] unsigned long 
  8497 ;;  DayOn           1   14[BANK0 ] unsigned char 
  8498 ;;  DayIndex        1   32[BANK0 ] unsigned char 
  8499 ;;  CellsData       8    0[BANK0 ] unsigned char [8]
  8500 ;;  Data            4   33[BANK0 ] unsigned long 
  8501 ;;  TimeStart       2   21[BANK0 ] unsigned int 
  8502 ;;  TimeStop        2   12[BANK0 ] unsigned int 
  8503 ;;  Days            1   25[BANK0 ] unsigned char 
  8504 ;;  Signals         1   23[BANK0 ] unsigned char 
  8505 ;;  LastFoundTim    4   17[BANK0 ] unsigned long 
  8506 ;;  adress          2   30[BANK0 ] unsigned int 
  8507 ;;  adressStart     2   15[BANK0 ] unsigned int 
  8508 ;;  TimeIsFound     1   24[BANK0 ] unsigned char 
  8509 ;; Return value:  Size  Location     Type
  8510 ;;                  2   57[COMRAM] unsigned int 
  8511 ;; Registers used:
  8512 ;;		wreg, fsr2l, fsr2h, status,2, status,0, cstack
  8513 ;; Tracked objects:
  8514 ;;		On entry : 0/1
  8515 ;;		On exit  : F/0
  8516 ;;		Unchanged: 0/0
  8517 ;; Data sizes:     COMRAM   BANK0   BANK1   BANK2   BANK3   BANK4   BANK5   BANK6   BANK7   BANK8   BANK9  BANK10  BANK1
      +1  BANK12  BANK13  BANK14  BANK15
  8518 ;;      Params:         2       0       0       0       0       0       0       0       0       0       0       0       
      +0       0       0       0       0
  8519 ;;      Locals:         0      37       0       0       0       0       0       0       0       0       0       0       
      +0       0       0       0       0
  8520 ;;      Temps:          4       0       0       0       0       0       0       0       0       0       0       0       
      +0       0       0       0       0
  8521 ;;      Totals:         6      37       0       0       0       0       0       0       0       0       0       0       
      +0       0       0       0       0
  8522 ;;Total ram usage:       43 bytes
  8523 ;; Hardware stack levels used:    1
  8524 ;; Hardware stack levels required when called:    7
  8525 ;; This function calls:
  8526 ;;		_ParseDataRecord
  8527 ;;		_ReadDataOfCell
  8528 ;;		___lmul
  8529 ;; This function is called by:
  8530 ;;		_TimeToInd
  8531 ;;		_main2
  8532 ;; This function uses a non-reentrant model
  8533 ;;
  8534                           
  8535                           	psect	text32
  8536  00255C                     __ptext32:
  8537                           	opt stack 0
  8538  00255C                     _FindNextTimeStart:
  8539                           	opt stack 21
  8540                           
  8541                           ;prog.c: 1478: unsigned int adress = 0;
  8542                           
  8543                           ;incstack = 0
  8544  00255C  0100               	movlb	0	; () banked
  8545  00255E  6B9E               	clrf	FindNextTimeStart@adress& (0+255),b
  8546  002560  6B9F               	clrf	(FindNextTimeStart@adress+1)& (0+255),b
  8547                           
  8548                           ; BSR set to: 0
  8549                           ;prog.c: 1479: unsigned int adressStart = (8 * 48);
  8550  002562  0E01               	movlw	1
  8551  002564  6F90               	movwf	(FindNextTimeStart@adressStart+1)& (0+255),b
  8552  002566  0E80               	movlw	128
  8553  002568  6F8F               	movwf	FindNextTimeStart@adressStart& (0+255),b
  8554                           
  8555                           ; BSR set to: 0
  8556                           ;prog.c: 1480: unsigned char TimeIsFound = 0;
  8557  00256A  6B98               	clrf	FindNextTimeStart@TimeIsFound& (0+255),b
  8558  00256C                     l8013:
  8559                           
  8560                           ; BSR set to: 0
  8561                           ;prog.c: 1484: unsigned long int Data = 0;
  8562  00256C  6BA1               	clrf	FindNextTimeStart@Data& (0+255),b
  8563  00256E  6BA2               	clrf	(FindNextTimeStart@Data+1)& (0+255),b
  8564  002570  6BA3               	clrf	(FindNextTimeStart@Data+2)& (0+255),b
  8565  002572  6BA4               	clrf	(FindNextTimeStart@Data+3)& (0+255),b
  8566                           
  8567                           ; BSR set to: 0
  8568                           ;prog.c: 1485: unsigned char CellsData [8];
  8569                           ;prog.c: 1486: ReadDataOfCell(&CellsData, &Data, adress);
  8570  002574  0E80               	movlw	low FindNextTimeStart@CellsData
  8571  002576  6E2A               	movwf	ReadDataOfCell@CellsData,c
  8572  002578  6A2B               	clrf	ReadDataOfCell@CellsData+1,c
  8573  00257A  0EA1               	movlw	low FindNextTimeStart@Data
  8574  00257C  6E2C               	movwf	ReadDataOfCell@Data,c
  8575  00257E  6A2D               	clrf	ReadDataOfCell@Data+1,c
  8576  002580  C09E  F02E         	movff	FindNextTimeStart@adress,ReadDataOfCell@TargetAdress
  8577  002584  C09F  F02F         	movff	FindNextTimeStart@adress+1,ReadDataOfCell@TargetAdress+1
  8578  002588  EC3F  F018         	call	_ReadDataOfCell	;wreg free
  8579                           
  8580                           ;prog.c: 1488: adress += 8;
  8581  00258C  0E08               	movlw	8
  8582  00258E  0100               	movlb	0	; () banked
  8583  002590  279E               	addwf	FindNextTimeStart@adress& (0+255),f,b
  8584  002592  0E00               	movlw	0
  8585  002594  239F               	addwfc	(FindNextTimeStart@adress+1)& (0+255),f,b
  8586                           
  8587                           ; BSR set to: 0
  8588                           ;prog.c: 1489: if (Data == 0xFFFFFFFF) {
  8589  002596  29A1               	incf	FindNextTimeStart@Data& (0+255),w,b
  8590  002598  E107               	bnz	l8023
  8591  00259A  29A2               	incf	(FindNextTimeStart@Data+1)& (0+255),w,b
  8592  00259C  E105               	bnz	l8023
  8593  00259E  29A3               	incf	(FindNextTimeStart@Data+2)& (0+255),w,b
  8594  0025A0  E103               	bnz	l8023
  8595  0025A2  29A4               	incf	(FindNextTimeStart@Data+3)& (0+255),w,b
  8596  0025A4  E101 D089          	bz	l8055
  8597  0025A8                     l8023:
  8598                           
  8599                           ; BSR set to: 0
  8600                           ;prog.c: 1491: }
  8601                           ;prog.c: 1492: unsigned int TimeStart;
  8602                           ;prog.c: 1493: unsigned int TimeStop;
  8603                           ;prog.c: 1494: unsigned char Days;
  8604                           ;prog.c: 1495: unsigned char Signals;
  8605                           ;prog.c: 1496: ParseDataRecord(Data, &TimeStart, &TimeStop, &Days, &Signals);
  8606  0025A8  C0A1  F01D         	movff	FindNextTimeStart@Data,ParseDataRecord@Data
  8607  0025AC  C0A2  F01E         	movff	FindNextTimeStart@Data+1,ParseDataRecord@Data+1
  8608  0025B0  C0A3  F01F         	movff	FindNextTimeStart@Data+2,ParseDataRecord@Data+2
  8609  0025B4  C0A4  F020         	movff	FindNextTimeStart@Data+3,ParseDataRecord@Data+3
  8610  0025B8  0E95               	movlw	low FindNextTimeStart@TimeStart
  8611  0025BA  6E21               	movwf	ParseDataRecord@TimeStart,c
  8612  0025BC  6A22               	clrf	ParseDataRecord@TimeStart+1,c
  8613  0025BE  0E8C               	movlw	low FindNextTimeStart@TimeStop
  8614  0025C0  6E23               	movwf	ParseDataRecord@TimeStop,c
  8615  0025C2  6A24               	clrf	ParseDataRecord@TimeStop+1,c
  8616  0025C4  0E99               	movlw	low FindNextTimeStart@Days
  8617  0025C6  6E25               	movwf	ParseDataRecord@Days,c
  8618  0025C8  6A26               	clrf	ParseDataRecord@Days+1,c
  8619  0025CA  0E97               	movlw	low FindNextTimeStart@Signals
  8620  0025CC  6E27               	movwf	ParseDataRecord@Signals,c
  8621  0025CE  6A28               	clrf	ParseDataRecord@Signals+1,c
  8622  0025D0  EC0C  F019         	call	_ParseDataRecord	;wreg free
  8623                           
  8624                           ;prog.c: 1498: if (Signals == 0) {
  8625  0025D4  0100               	movlb	0	; () banked
  8626  0025D6  5197               	movf	FindNextTimeStart@Signals& (0+255),w,b
  8627  0025D8  E070               	bz	l8055
  8628                           
  8629                           ; BSR set to: 0
  8630                           ;prog.c: 1500: }
  8631                           ;prog.c: 1501: for (char DayIndex = 0; DayIndex < 7; DayIndex++) {
  8632  0025DA  6BA0               	clrf	FindNextTimeStart@DayIndex& (0+255),b
  8633  0025DC                     l8033:
  8634                           
  8635                           ; BSR set to: 0
  8636                           ;prog.c: 1502: unsigned char DayOn = Days % 2;
  8637  0025DC  5199               	movf	FindNextTimeStart@Days& (0+255),w,b
  8638  0025DE  0B01               	andlw	1
  8639  0025E0  6F8E               	movwf	FindNextTimeStart@DayOn& (0+255),b
  8640                           
  8641                           ;prog.c: 1503: Days /= 2;
  8642  0025E2  90D8               	bcf	status,0,c
  8643  0025E4  3399               	rrcf	FindNextTimeStart@Days& (0+255),f,b
  8644                           
  8645                           ;prog.c: 1504: if (DayOn != 1) {
  8646  0025E6  058E               	decf	FindNextTimeStart@DayOn& (0+255),w,b
  8647  0025E8  E164               	bnz	l8051
  8648                           
  8649                           ; BSR set to: 0
  8650                           ;prog.c: 1506: }
  8651                           ;prog.c: 1507: unsigned long int TimeOfSignals = ((unsigned long int) DayIndex * 86400 +
      +                           (unsigned long int) TimeStart * 60) * 100;
  8652  0025EA  51A0               	movf	FindNextTimeStart@DayIndex& (0+255),w,b
  8653  0025EC  6E1D               	movwf	___lmul@multiplier,c
  8654  0025EE  6A1E               	clrf	___lmul@multiplier+1,c
  8655  0025F0  6A1F               	clrf	___lmul@multiplier+2,c
  8656  0025F2  6A20               	clrf	___lmul@multiplier+3,c
  8657  0025F4  ECA9  F00F         	call	PL88	;call to abstracted procedure
  8658  0025F8  EC44  F01B         	call	___lmul	;wreg free
  8659  0025FC  C01D  F03C         	movff	?___lmul,??_FindNextTimeStart
  8660  002600  C01E  F03D         	movff	?___lmul+1,??_FindNextTimeStart+1
  8661  002604  C01F  F03E         	movff	?___lmul+2,??_FindNextTimeStart+2
  8662  002608  C020  F03F         	movff	?___lmul+3,??_FindNextTimeStart+3
  8663  00260C  C095  F01D         	movff	FindNextTimeStart@TimeStart,___lmul@multiplier
  8664  002610  C096  F01E         	movff	FindNextTimeStart@TimeStart+1,___lmul@multiplier+1
  8665  002614  6A1F               	clrf	___lmul@multiplier+2,c
  8666  002616  6A20               	clrf	___lmul@multiplier+3,c
  8667  002618  0E3C               	movlw	60
  8668  00261A  ECB1  F00F         	call	PL90	;call to abstracted procedure
  8669  00261E  EC44  F01B         	call	___lmul	;wreg free
  8670  002622  501D               	movf	?___lmul,w,c
  8671  002624  243C               	addwf	??_FindNextTimeStart,w,c
  8672  002626  0100               	movlb	0	; () banked
  8673  002628  6F88               	movwf	_FindNextTimeStart$1985& (0+255),b
  8674  00262A  501E               	movf	?___lmul+1,w,c
  8675  00262C  203D               	addwfc	??_FindNextTimeStart+1,w,c
  8676  00262E  6F89               	movwf	(_FindNextTimeStart$1985+1)& (0+255),b
  8677  002630  501F               	movf	?___lmul+2,w,c
  8678  002632  203E               	addwfc	??_FindNextTimeStart+2,w,c
  8679  002634  6F8A               	movwf	(_FindNextTimeStart$1985+2)& (0+255),b
  8680  002636  5020               	movf	?___lmul+3,w,c
  8681  002638  203F               	addwfc	??_FindNextTimeStart+3,w,c
  8682  00263A  6F8B               	movwf	(_FindNextTimeStart$1985+3)& (0+255),b
  8683                           
  8684                           ;prog.c: 1506: }
  8685                           ;prog.c: 1507: unsigned long int TimeOfSignals = ((unsigned long int) DayIndex * 86400 +
      +                           (unsigned long int) TimeStart * 60) * 100;
  8686  00263C  C088  F01D         	movff	_FindNextTimeStart$1985,___lmul@multiplier
  8687  002640  C089  F01E         	movff	_FindNextTimeStart$1985+1,___lmul@multiplier+1
  8688  002644  C08A  F01F         	movff	_FindNextTimeStart$1985+2,___lmul@multiplier+2
  8689  002648  C08B  F020         	movff	_FindNextTimeStart$1985+3,___lmul@multiplier+3
  8690  00264C  0E64               	movlw	100
  8691  00264E  ECB1  F00F         	call	PL90	;call to abstracted procedure
  8692  002652  EC44  F01B         	call	___lmul	;wreg free
  8693  002656  C01D  F09A         	movff	?___lmul,FindNextTimeStart@TimeOfSignals
  8694  00265A  C01E  F09B         	movff	?___lmul+1,FindNextTimeStart@TimeOfSignals+1
  8695  00265E  C01F  F09C         	movff	?___lmul+2,FindNextTimeStart@TimeOfSignals+2
  8696  002662  C020  F09D         	movff	?___lmul+3,FindNextTimeStart@TimeOfSignals+3
  8697                           
  8698                           ;prog.c: 1509: if ((TimeOfSignals < LastFoundTimeStart || TimeIsFound == 0) && TimeOfSig
      +                          nals > *TimeFrom) {
  8699  002666  0100               	movlb	0	; () banked
  8700  002668  5191               	movf	FindNextTimeStart@LastFoundTimeStart& (0+255),w,b
  8701  00266A  5D9A               	subwf	FindNextTimeStart@TimeOfSignals& (0+255),w,b
  8702  00266C  5192               	movf	(FindNextTimeStart@LastFoundTimeStart+1)& (0+255),w,b
  8703  00266E  599B               	subwfb	(FindNextTimeStart@TimeOfSignals+1)& (0+255),w,b
  8704  002670  5193               	movf	(FindNextTimeStart@LastFoundTimeStart+2)& (0+255),w,b
  8705  002672  599C               	subwfb	(FindNextTimeStart@TimeOfSignals+2)& (0+255),w,b
  8706  002674  5194               	movf	(FindNextTimeStart@LastFoundTimeStart+3)& (0+255),w,b
  8707  002676  599D               	subwfb	(FindNextTimeStart@TimeOfSignals+3)& (0+255),w,b
  8708  002678  E302               	bnc	l8043
  8709                           
  8710                           ; BSR set to: 0
  8711  00267A  5198               	movf	FindNextTimeStart@TimeIsFound& (0+255),w,b
  8712  00267C  E11A               	bnz	l8051
  8713  00267E                     l8043:
  8714                           
  8715                           ; BSR set to: 0
  8716  00267E  D839               	call	PL120	;call to abstracted procedure
  8717  002680  519A               	movf	FindNextTimeStart@TimeOfSignals& (0+255),w,b
  8718  002682  5CDE               	subwf	postinc2,w,c
  8719  002684  519B               	movf	(FindNextTimeStart@TimeOfSignals+1)& (0+255),w,b
  8720  002686  58DE               	subwfb	postinc2,w,c
  8721  002688  519C               	movf	(FindNextTimeStart@TimeOfSignals+2)& (0+255),w,b
  8722  00268A  58DE               	subwfb	postinc2,w,c
  8723  00268C  519D               	movf	(FindNextTimeStart@TimeOfSignals+3)& (0+255),w,b
  8724  00268E  58DE               	subwfb	postinc2,w,c
  8725  002690  E210               	bc	l8051
  8726                           
  8727                           ; BSR set to: 0
  8728                           ;prog.c: 1510: TimeIsFound = 1;
  8729  002692  0E01               	movlw	1
  8730  002694  6F98               	movwf	FindNextTimeStart@TimeIsFound& (0+255),b
  8731                           
  8732                           ; BSR set to: 0
  8733                           ;prog.c: 1511: LastFoundTimeStart = TimeOfSignals;
  8734  002696  C09A  F091         	movff	FindNextTimeStart@TimeOfSignals,FindNextTimeStart@LastFoundTimeStart
  8735  00269A  C09B  F092         	movff	FindNextTimeStart@TimeOfSignals+1,FindNextTimeStart@LastFoundTimeStart+1
  8736  00269E  C09C  F093         	movff	FindNextTimeStart@TimeOfSignals+2,FindNextTimeStart@LastFoundTimeStart+2
  8737  0026A2  C09D  F094         	movff	FindNextTimeStart@TimeOfSignals+3,FindNextTimeStart@LastFoundTimeStart+3
  8738                           
  8739                           ; BSR set to: 0
  8740                           ;prog.c: 1512: adressStart = adress - 8;
  8741  0026A6  0EF8               	movlw	248
  8742  0026A8  259E               	addwf	FindNextTimeStart@adress& (0+255),w,b
  8743  0026AA  6F8F               	movwf	FindNextTimeStart@adressStart& (0+255),b
  8744  0026AC  0EFF               	movlw	255
  8745  0026AE  219F               	addwfc	(FindNextTimeStart@adress+1)& (0+255),w,b
  8746  0026B0  6F90               	movwf	(FindNextTimeStart@adressStart+1)& (0+255),b
  8747  0026B2                     l8051:
  8748                           
  8749                           ; BSR set to: 0
  8750  0026B2  2BA0               	incf	FindNextTimeStart@DayIndex& (0+255),f,b
  8751                           
  8752                           ; BSR set to: 0
  8753  0026B4  0E06               	movlw	6
  8754  0026B6  65A0               	cpfsgt	FindNextTimeStart@DayIndex& (0+255),b
  8755  0026B8  D791               	goto	l8033
  8756  0026BA                     l8055:
  8757                           
  8758                           ; BSR set to: 0
  8759                           ;prog.c: 1513: }
  8760                           ;prog.c: 1514: }
  8761                           ;prog.c: 1515: } while (adress < (8 * 48));
  8762  0026BA  0E80               	movlw	128
  8763  0026BC  5D9E               	subwf	FindNextTimeStart@adress& (0+255),w,b
  8764  0026BE  0E01               	movlw	1
  8765  0026C0  599F               	subwfb	(FindNextTimeStart@adress+1)& (0+255),w,b
  8766  0026C2  E201 D753          	bnc	l8013
  8767                           
  8768                           ; BSR set to: 0
  8769                           ;prog.c: 1517: if (TimeIsFound == 1) {
  8770  0026C6  0598               	decf	FindNextTimeStart@TimeIsFound& (0+255),w,b
  8771  0026C8  E10A               	bnz	l8061
  8772                           
  8773                           ; BSR set to: 0
  8774                           ;prog.c: 1518: *TimeFrom = LastFoundTimeStart;
  8775  0026CA  D813               	call	PL120	;call to abstracted procedure
  8776  0026CC  C091  FFDE         	movff	FindNextTimeStart@LastFoundTimeStart,postinc2
  8777  0026D0  C092  FFDE         	movff	FindNextTimeStart@LastFoundTimeStart+1,postinc2
  8778  0026D4  C093  FFDE         	movff	FindNextTimeStart@LastFoundTimeStart+2,postinc2
  8779  0026D8  C094  FFDE         	movff	FindNextTimeStart@LastFoundTimeStart+3,postinc2
  8780                           
  8781                           ;prog.c: 1519: } else {
  8782  0026DC  D005               	goto	l8063
  8783  0026DE                     l8061:
  8784                           
  8785                           ; BSR set to: 0
  8786                           ;prog.c: 1520: *TimeFrom = 0;
  8787  0026DE  D809               	call	PL120	;call to abstracted procedure
  8788  0026E0  6ADE               	clrf	postinc2,c
  8789  0026E2  6ADE               	clrf	postinc2,c
  8790  0026E4  6ADE               	clrf	postinc2,c
  8791  0026E6  6ADD               	clrf	postdec2,c
  8792  0026E8                     l8063:
  8793                           
  8794                           ; BSR set to: 0
  8795                           ;prog.c: 1521: }
  8796                           ;prog.c: 1522: return adressStart;
  8797  0026E8  C08F  F03A         	movff	FindNextTimeStart@adressStart,?_FindNextTimeStart
  8798  0026EC  C090  F03B         	movff	FindNextTimeStart@adressStart+1,?_FindNextTimeStart+1
  8799                           
  8800                           ; BSR set to: 0
  8801  0026F0  0012               	return		;funcret
  8802  0026F2                     __end_of_FindNextTimeStart:
  8803                           	opt stack 0
  8804  0026F2                     PL120:
  8805                           	opt stack 21
  8806  0026F2  C03A  FFD9         	movff	FindNextTimeStart@TimeFrom,fsr2l
  8807  0026F6  C03B  FFDA         	movff	FindNextTimeStart@TimeFrom+1,fsr2h
  8808  0026FA  0012               	return	
  8809  0026FC                     __end_ofPL120:
  8810                           	opt stack 0
  8811                           tblptru	equ	0xFF8
  8812                           tblptrh	equ	0xFF7
  8813                           tblptrl	equ	0xFF6
  8814                           tablat	equ	0xFF5
  8815                           prodh	equ	0xFF4
  8816                           prodl	equ	0xFF3
  8817                           intcon	equ	0xFF2
  8818                           intcon2	equ	0xFF1
  8819                           intcon3	equ	0xFF0
  8820                           postinc0	equ	0xFEE
  8821                           wreg	equ	0xFE8
  8822                           indf1	equ	0xFE7
  8823                           postdec1	equ	0xFE5
  8824                           plusw1	equ	0xFE3
  8825                           fsr1h	equ	0xFE2
  8826                           fsr1l	equ	0xFE1
  8827                           indf2	equ	0xFDF
  8828                           postinc2	equ	0xFDE
  8829                           postdec2	equ	0xFDD
  8830                           plusw2	equ	0xFDB
  8831                           fsr2h	equ	0xFDA
  8832                           fsr2l	equ	0xFD9
  8833                           status	equ	0xFD8
  8834                           
  8835 ;; *************** function _ReadDataOfCell *****************
  8836 ;; Defined at:
  8837 ;;		line 1161 in file "prog.c"
  8838 ;; Parameters:    Size  Location     Type
  8839 ;;  CellsData       2   41[COMRAM] PTR unsigned char 
  8840 ;;		 -> FindNextTimeStart@CellsData(8), EditSchedule@CellsData(8), RefreshSchedulerIndicator@CellsData(8), FindCell@Cell
      +sData(8), 
  8841 ;;		 -> TimeToInd@CellsData(8), 
  8842 ;;  Data            2   43[COMRAM] PTR unsigned long 
  8843 ;;		 -> FindNextTimeStart@Data(4), EditSchedule@Data(4), RefreshSchedulerIndicator@Data(4), FindCell@Data(4), 
  8844 ;;		 -> TimeToInd@Data(4), 
  8845 ;;  TargetAdress    2   45[COMRAM] unsigned int 
  8846 ;; Auto vars:     Size  Location     Type
  8847 ;;  i               2   55[COMRAM] int 
  8848 ;; Return value:  Size  Location     Type
  8849 ;;                  1    wreg      void 
  8850 ;; Registers used:
  8851 ;;		wreg, fsr2l, fsr2h, status,2, status,0, cstack
  8852 ;; Tracked objects:
  8853 ;;		On entry : E/1
  8854 ;;		On exit  : 0/0
  8855 ;;		Unchanged: 0/0
  8856 ;; Data sizes:     COMRAM   BANK0   BANK1   BANK2   BANK3   BANK4   BANK5   BANK6   BANK7   BANK8   BANK9  BANK10  BANK1
      +1  BANK12  BANK13  BANK14  BANK15
  8857 ;;      Params:         6       0       0       0       0       0       0       0       0       0       0       0       
      +0       0       0       0       0
  8858 ;;      Locals:         2       0       0       0       0       0       0       0       0       0       0       0       
      +0       0       0       0       0
  8859 ;;      Temps:          8       0       0       0       0       0       0       0       0       0       0       0       
      +0       0       0       0       0
  8860 ;;      Totals:        16       0       0       0       0       0       0       0       0       0       0       0       
      +0       0       0       0       0
  8861 ;;Total ram usage:       16 bytes
  8862 ;; Hardware stack levels used:    1
  8863 ;; Hardware stack levels required when called:    6
  8864 ;; This function calls:
  8865 ;;		_FillArrayFromEEPROM
  8866 ;; This function is called by:
  8867 ;;		_TimeToInd
  8868 ;;		_FindCell
  8869 ;;		_RefreshSchedulerIndicator
  8870 ;;		_EditSchedule
  8871 ;;		_FindNextTimeStart
  8872 ;; This function uses a non-reentrant model
  8873 ;;
  8874                           
  8875                           	psect	text33
  8876  00307E                     __ptext33:
  8877                           	opt stack 0
  8878  00307E                     _ReadDataOfCell:
  8879                           	opt stack 19
  8880                           
  8881                           ;prog.c: 1162: FillArrayFromEEPROM(CellsData, TargetAdress, 8);
  8882                           
  8883                           ; BSR set to: 0
  8884                           ;incstack = 0
  8885  00307E  C02A  F021         	movff	ReadDataOfCell@CellsData,FillArrayFromEEPROM@container
  8886  003082  C02B  F022         	movff	ReadDataOfCell@CellsData+1,FillArrayFromEEPROM@container+1
  8887  003086  C02E  F023         	movff	ReadDataOfCell@TargetAdress,FillArrayFromEEPROM@adress_start
  8888  00308A  C02F  F024         	movff	ReadDataOfCell@TargetAdress+1,FillArrayFromEEPROM@adress_start+1
  8889  00308E  6A26               	clrf	FillArrayFromEEPROM@quantity+1,c
  8890  003090  0E08               	movlw	8
  8891  003092  6E25               	movwf	FillArrayFromEEPROM@quantity,c
  8892  003094  EC93  F01C         	call	_FillArrayFromEEPROM	;wreg free
  8893                           
  8894                           ;prog.c: 1163: for(int i = 3; i >= 0; i--){
  8895  003098  6A39               	clrf	ReadDataOfCell@i+1,c
  8896  00309A  0E03               	movlw	3
  8897  00309C  6E38               	movwf	ReadDataOfCell@i,c
  8898  00309E                     l7493:
  8899                           
  8900                           ;prog.c: 1164: *Data = *Data * 256 + CellsData[i];
  8901  00309E  5038               	movf	ReadDataOfCell@i,w,c
  8902  0030A0  242A               	addwf	ReadDataOfCell@CellsData,w,c
  8903  0030A2  6ED9               	movwf	fsr2l,c
  8904  0030A4  5039               	movf	ReadDataOfCell@i+1,w,c
  8905  0030A6  202B               	addwfc	ReadDataOfCell@CellsData+1,w,c
  8906  0030A8  6EDA               	movwf	fsr2h,c
  8907  0030AA  50DF               	movf	indf2,w,c
  8908  0030AC  D829               	call	PL146	;call to abstracted procedure
  8909  0030AE  CFDE F030          	movff	postinc2,??_ReadDataOfCell
  8910  0030B2  CFDE F031          	movff	postinc2,??_ReadDataOfCell+1
  8911  0030B6  CFDE F032          	movff	postinc2,??_ReadDataOfCell+2
  8912  0030BA  CFDE F033          	movff	postinc2,??_ReadDataOfCell+3
  8913  0030BE  C032  F033         	movff	??_ReadDataOfCell+2,??_ReadDataOfCell+3
  8914  0030C2  C031  F032         	movff	??_ReadDataOfCell+1,??_ReadDataOfCell+2
  8915  0030C6  C030  F031         	movff	??_ReadDataOfCell,??_ReadDataOfCell+1
  8916  0030CA  6A30               	clrf	??_ReadDataOfCell,c
  8917  0030CC  2430               	addwf	??_ReadDataOfCell,w,c
  8918  0030CE  6E34               	movwf	(??_ReadDataOfCell+4)& (0+255),c
  8919  0030D0  0E00               	movlw	0
  8920  0030D2  2031               	addwfc	??_ReadDataOfCell+1,w,c
  8921  0030D4  6E35               	movwf	(??_ReadDataOfCell+5)& (0+255),c
  8922  0030D6  0E00               	movlw	0
  8923  0030D8  2032               	addwfc	??_ReadDataOfCell+2,w,c
  8924  0030DA  6E36               	movwf	(??_ReadDataOfCell+6)& (0+255),c
  8925  0030DC  0E00               	movlw	0
  8926  0030DE  2033               	addwfc	??_ReadDataOfCell+3,w,c
  8927  0030E0  6E37               	movwf	(??_ReadDataOfCell+7)& (0+255),c
  8928  0030E2  D80E               	call	PL146	;call to abstracted procedure
  8929  0030E4  C034  FFDE         	movff	??_ReadDataOfCell+4,postinc2
  8930  0030E8  C035  FFDE         	movff	??_ReadDataOfCell+5,postinc2
  8931  0030EC  C036  FFDE         	movff	??_ReadDataOfCell+6,postinc2
  8932  0030F0  C037  FFDE         	movff	??_ReadDataOfCell+7,postinc2
  8933  0030F4  0638               	decf	ReadDataOfCell@i,f,c
  8934  0030F6  A0D8               	btfss	status,0,c
  8935  0030F8  0639               	decf	ReadDataOfCell@i+1,f,c
  8936  0030FA  BE39               	btfsc	ReadDataOfCell@i+1,7,c
  8937  0030FC  0012               	return		;funcret
  8938  0030FE  D7CF               	goto	l7493
  8939  003100                     __end_of_ReadDataOfCell:
  8940                           	opt stack 0
  8941  003100                     PL146:
  8942                           	opt stack 19
  8943  003100  C02C  FFD9         	movff	ReadDataOfCell@Data,fsr2l
  8944  003104  C02D  FFDA         	movff	ReadDataOfCell@Data+1,fsr2h
  8945  003108  0012               	return	
  8946  00310A                     __end_ofPL146:
  8947                           	opt stack 0
  8948                           tblptru	equ	0xFF8
  8949                           tblptrh	equ	0xFF7
  8950                           tblptrl	equ	0xFF6
  8951                           tablat	equ	0xFF5
  8952                           prodh	equ	0xFF4
  8953                           prodl	equ	0xFF3
  8954                           intcon	equ	0xFF2
  8955                           intcon2	equ	0xFF1
  8956                           intcon3	equ	0xFF0
  8957                           postinc0	equ	0xFEE
  8958                           wreg	equ	0xFE8
  8959                           indf1	equ	0xFE7
  8960                           postdec1	equ	0xFE5
  8961                           plusw1	equ	0xFE3
  8962                           fsr1h	equ	0xFE2
  8963                           fsr1l	equ	0xFE1
  8964                           indf2	equ	0xFDF
  8965                           postinc2	equ	0xFDE
  8966                           postdec2	equ	0xFDD
  8967                           plusw2	equ	0xFDB
  8968                           fsr2h	equ	0xFDA
  8969                           fsr2l	equ	0xFD9
  8970                           status	equ	0xFD8
  8971                           
  8972 ;; *************** function _FillArrayFromEEPROM *****************
  8973 ;; Defined at:
  8974 ;;		line 856 in file "prog.c"
  8975 ;; Parameters:    Size  Location     Type
  8976 ;;  container       2   32[COMRAM] PTR unsigned char 
  8977 ;;		 -> FindNextTimeStart@CellsData(8), EditSchedule@CellsData(8), RefreshSchedulerIndicator@CellsData(8), FindCell@Cell
      +sData(8), 
  8978 ;;		 -> TimeToInd@CellsData(8), 
  8979 ;;  adress_start    2   34[COMRAM] unsigned int 
  8980 ;;  quantity        2   36[COMRAM] unsigned int 
  8981 ;; Auto vars:     Size  Location     Type
  8982 ;;  i               1   40[COMRAM] unsigned char 
  8983 ;; Return value:  Size  Location     Type
  8984 ;;                  1    wreg      void 
  8985 ;; Registers used:
  8986 ;;		wreg, fsr2l, fsr2h, status,2, status,0, cstack
  8987 ;; Tracked objects:
  8988 ;;		On entry : E/1
  8989 ;;		On exit  : 0/0
  8990 ;;		Unchanged: 0/0
  8991 ;; Data sizes:     COMRAM   BANK0   BANK1   BANK2   BANK3   BANK4   BANK5   BANK6   BANK7   BANK8   BANK9  BANK10  BANK1
      +1  BANK12  BANK13  BANK14  BANK15
  8992 ;;      Params:         6       0       0       0       0       0       0       0       0       0       0       0       
      +0       0       0       0       0
  8993 ;;      Locals:         1       0       0       0       0       0       0       0       0       0       0       0       
      +0       0       0       0       0
  8994 ;;      Temps:          2       0       0       0       0       0       0       0       0       0       0       0       
      +0       0       0       0       0
  8995 ;;      Totals:         9       0       0       0       0       0       0       0       0       0       0       0       
      +0       0       0       0       0
  8996 ;;Total ram usage:        9 bytes
  8997 ;; Hardware stack levels used:    1
  8998 ;; Hardware stack levels required when called:    5
  8999 ;; This function calls:
  9000 ;;		_EERD
  9001 ;; This function is called by:
  9002 ;;		_ReadDataOfCell
  9003 ;; This function uses a non-reentrant model
  9004 ;;
  9005                           
  9006                           	psect	text34
  9007  003926                     __ptext34:
  9008                           	opt stack 0
  9009  003926                     _FillArrayFromEEPROM:
  9010                           	opt stack 19
  9011                           
  9012                           ;prog.c: 857: for (unsigned char i = 0; i < quantity; i++) {
  9013                           
  9014                           ;incstack = 0
  9015  003926  6A29               	clrf	FillArrayFromEEPROM@i,c
  9016  003928  D010               	goto	l7483
  9017  00392A                     l7479:
  9018                           
  9019                           ;prog.c: 858: container[i] = EERD(adress_start + i);
  9020  00392A  5029               	movf	FillArrayFromEEPROM@i,w,c
  9021  00392C  2421               	addwf	FillArrayFromEEPROM@container,w,c
  9022  00392E  6ED9               	movwf	fsr2l,c
  9023  003930  0E00               	movlw	0
  9024  003932  2022               	addwfc	FillArrayFromEEPROM@container+1,w,c
  9025  003934  6EDA               	movwf	fsr2h,c
  9026  003936  5029               	movf	FillArrayFromEEPROM@i,w,c
  9027  003938  2423               	addwf	FillArrayFromEEPROM@adress_start,w,c
  9028  00393A  6E1D               	movwf	EERD@adress,c
  9029  00393C  0E00               	movlw	0
  9030  00393E  2024               	addwfc	FillArrayFromEEPROM@adress_start+1,w,c
  9031  003940  6E1E               	movwf	EERD@adress+1,c
  9032  003942  EC9B  F01D         	call	_EERD	;wreg free
  9033  003946  6EDF               	movwf	indf2,c
  9034  003948  2A29               	incf	FillArrayFromEEPROM@i,f,c
  9035  00394A                     l7483:
  9036  00394A  5029               	movf	FillArrayFromEEPROM@i,w,c
  9037  00394C  6E27               	movwf	??_FillArrayFromEEPROM& (0+255),c
  9038  00394E  6A28               	clrf	(??_FillArrayFromEEPROM+1)& (0+255),c
  9039  003950  5025               	movf	FillArrayFromEEPROM@quantity,w,c
  9040  003952  5C27               	subwf	??_FillArrayFromEEPROM,w,c
  9041  003954  5026               	movf	FillArrayFromEEPROM@quantity+1,w,c
  9042  003956  5828               	subwfb	??_FillArrayFromEEPROM+1,w,c
  9043  003958  E3E8               	bnc	l7479
  9044  00395A  0012               	return		;funcret
  9045  00395C                     __end_of_FillArrayFromEEPROM:
  9046                           	opt stack 0
  9047                           tblptru	equ	0xFF8
  9048                           tblptrh	equ	0xFF7
  9049                           tblptrl	equ	0xFF6
  9050                           tablat	equ	0xFF5
  9051                           prodh	equ	0xFF4
  9052                           prodl	equ	0xFF3
  9053                           intcon	equ	0xFF2
  9054                           intcon2	equ	0xFF1
  9055                           intcon3	equ	0xFF0
  9056                           postinc0	equ	0xFEE
  9057                           wreg	equ	0xFE8
  9058                           indf1	equ	0xFE7
  9059                           postdec1	equ	0xFE5
  9060                           plusw1	equ	0xFE3
  9061                           fsr1h	equ	0xFE2
  9062                           fsr1l	equ	0xFE1
  9063                           indf2	equ	0xFDF
  9064                           postinc2	equ	0xFDE
  9065                           postdec2	equ	0xFDD
  9066                           plusw2	equ	0xFDB
  9067                           fsr2h	equ	0xFDA
  9068                           fsr2l	equ	0xFD9
  9069                           status	equ	0xFD8
  9070                           
  9071 ;; *************** function _EERD *****************
  9072 ;; Defined at:
  9073 ;;		line 618 in file "prog.c"
  9074 ;; Parameters:    Size  Location     Type
  9075 ;;  adress          2   28[COMRAM] unsigned int 
  9076 ;; Auto vars:     Size  Location     Type
  9077 ;;  EEDATA_BUP      1   31[COMRAM] volatile unsigned char 
  9078 ;;  INTCON_BUP      1   30[COMRAM] volatile unsigned char 
  9079 ;; Return value:  Size  Location     Type
  9080 ;;                  1    wreg      unsigned char 
  9081 ;; Registers used:
  9082 ;;		wreg, status,2
  9083 ;; Tracked objects:
  9084 ;;		On entry : 0/1
  9085 ;;		On exit  : 0/0
  9086 ;;		Unchanged: 0/0
  9087 ;; Data sizes:     COMRAM   BANK0   BANK1   BANK2   BANK3   BANK4   BANK5   BANK6   BANK7   BANK8   BANK9  BANK10  BANK1
      +1  BANK12  BANK13  BANK14  BANK15
  9088 ;;      Params:         2       0       0       0       0       0       0       0       0       0       0       0       
      +0       0       0       0       0
  9089 ;;      Locals:         2       0       0       0       0       0       0       0       0       0       0       0       
      +0       0       0       0       0
  9090 ;;      Temps:          0       0       0       0       0       0       0       0       0       0       0       0       
      +0       0       0       0       0
  9091 ;;      Totals:         4       0       0       0       0       0       0       0       0       0       0       0       
      +0       0       0       0       0
  9092 ;;Total ram usage:        4 bytes
  9093 ;; Hardware stack levels used:    1
  9094 ;; Hardware stack levels required when called:    4
  9095 ;; This function calls:
  9096 ;;		Nothing
  9097 ;; This function is called by:
  9098 ;;		_FillArrayFromEEPROM
  9099 ;;		_main
  9100 ;; This function uses a non-reentrant model
  9101 ;;
  9102                           
  9103                           	psect	text35
  9104  003B36                     __ptext35:
  9105                           	opt stack 0
  9106  003B36                     _EERD:
  9107                           	opt stack 19
  9108                           
  9109                           ;prog.c: 619: volatile unsigned char INTCON_BUP = INTCON;
  9110                           
  9111                           ;incstack = 0
  9112  003B36  CFF2 F01F          	movff	intcon,EERD@INTCON_BUP	;volatile
  9113                           
  9114                           ;prog.c: 620: volatile unsigned char EEDATA_BUP;
  9115                           ;prog.c: 621: INTCONbits.GIEH = 0;
  9116  003B3A  9EF2               	bcf	intcon,7,c	;volatile
  9117                           
  9118                           ;prog.c: 622: INTCONbits.GIEL = 0;
  9119  003B3C  9CF2               	bcf	intcon,6,c	;volatile
  9120  003B3E  0004               	clrwdt		;# 
  9121                           
  9122                           ;prog.c: 624: EEADRH = adress >> 8;
  9123  003B40  C01E  FFAA         	movff	EERD@adress+1,4010	;volatile
  9124                           
  9125                           ;prog.c: 625: EEADR = adress % 256;
  9126  003B44  C01D  FFA9         	movff	EERD@adress,4009	;volatile
  9127                           
  9128                           ;prog.c: 626: EECON1bits.EEPGD = 0;
  9129  003B48  9EA6               	bcf	4006,7,c	;volatile
  9130                           
  9131                           ;prog.c: 627: EECON1bits.CFGS = 0;
  9132  003B4A  9CA6               	bcf	4006,6,c	;volatile
  9133                           
  9134                           ;prog.c: 628: EECON1bits.RD = 1;
  9135  003B4C  80A6               	bsf	4006,0,c	;volatile
  9136                           
  9137                           ;prog.c: 629: EEDATA_BUP = EEDATA;
  9138  003B4E  CFA8 F020          	movff	4008,EERD@EEDATA_BUP	;volatile
  9139                           
  9140                           ;prog.c: 630: INTCON = INTCON_BUP;
  9141  003B52  C01F  FFF2         	movff	EERD@INTCON_BUP,intcon	;volatile
  9142                           
  9143                           ;prog.c: 631: return EEDATA_BUP;
  9144  003B56  5020               	movf	EERD@EEDATA_BUP,w,c	;volatile
  9145  003B58  0012               	return		;funcret
  9146  003B5A                     __end_of_EERD:
  9147                           	opt stack 0
  9148                           tblptru	equ	0xFF8
  9149                           tblptrh	equ	0xFF7
  9150                           tblptrl	equ	0xFF6
  9151                           tablat	equ	0xFF5
  9152                           prodh	equ	0xFF4
  9153                           prodl	equ	0xFF3
  9154                           intcon	equ	0xFF2
  9155                           intcon2	equ	0xFF1
  9156                           intcon3	equ	0xFF0
  9157                           postinc0	equ	0xFEE
  9158                           wreg	equ	0xFE8
  9159                           indf1	equ	0xFE7
  9160                           postdec1	equ	0xFE5
  9161                           plusw1	equ	0xFE3
  9162                           fsr1h	equ	0xFE2
  9163                           fsr1l	equ	0xFE1
  9164                           indf2	equ	0xFDF
  9165                           postinc2	equ	0xFDE
  9166                           postdec2	equ	0xFDD
  9167                           plusw2	equ	0xFDB
  9168                           fsr2h	equ	0xFDA
  9169                           fsr2l	equ	0xFD9
  9170                           status	equ	0xFD8
  9171                           
  9172 ;; *************** function _ParseDataRecord *****************
  9173 ;; Defined at:
  9174 ;;		line 1464 in file "prog.c"
  9175 ;; Parameters:    Size  Location     Type
  9176 ;;  Data            4   28[COMRAM] unsigned long 
  9177 ;;  TimeStart       2   32[COMRAM] PTR unsigned int 
  9178 ;;		 -> FindNextTimeStart@TimeStart(2), EditSchedule@TimeStart(2), TimeToInd@TimeStart(2), 
  9179 ;;  TimeStop        2   34[COMRAM] PTR unsigned int 
  9180 ;;		 -> FindNextTimeStart@TimeStop(2), EditSchedule@TimeStop(2), TimeToInd@TimeStop(2), 
  9181 ;;  Days            2   36[COMRAM] PTR unsigned char 
  9182 ;;		 -> FindNextTimeStart@Days(1), EditSchedule@Days(1), TimeToInd@Days(1), 
  9183 ;;  Signals         2   38[COMRAM] PTR unsigned char 
  9184 ;;		 -> FindNextTimeStart@Signals(1), EditSchedule@Signals(1), TimeToInd@Signals(1), 
  9185 ;; Auto vars:     Size  Location     Type
  9186 ;;		None
  9187 ;; Return value:  Size  Location     Type
  9188 ;;                  1    wreg      void 
  9189 ;; Registers used:
  9190 ;;		wreg, fsr2l, fsr2h, status,2, status,0
  9191 ;; Tracked objects:
  9192 ;;		On entry : 0/1
  9193 ;;		On exit  : 0/0
  9194 ;;		Unchanged: 0/0
  9195 ;; Data sizes:     COMRAM   BANK0   BANK1   BANK2   BANK3   BANK4   BANK5   BANK6   BANK7   BANK8   BANK9  BANK10  BANK1
      +1  BANK12  BANK13  BANK14  BANK15
  9196 ;;      Params:        12       0       0       0       0       0       0       0       0       0       0       0       
      +0       0       0       0       0
  9197 ;;      Locals:         0       0       0       0       0       0       0       0       0       0       0       0       
      +0       0       0       0       0
  9198 ;;      Temps:          4       0       0       0       0       0       0       0       0       0       0       0       
      +0       0       0       0       0
  9199 ;;      Totals:        16       0       0       0       0       0       0       0       0       0       0       0       
      +0       0       0       0       0
  9200 ;;Total ram usage:       16 bytes
  9201 ;; Hardware stack levels used:    1
  9202 ;; Hardware stack levels required when called:    4
  9203 ;; This function calls:
  9204 ;;		Nothing
  9205 ;; This function is called by:
  9206 ;;		_TimeToInd
  9207 ;;		_EditSchedule
  9208 ;;		_FindNextTimeStart
  9209 ;; This function uses a non-reentrant model
  9210 ;;
  9211                           
  9212                           	psect	text36
  9213  003218                     __ptext36:
  9214                           	opt stack 0
  9215  003218                     _ParseDataRecord:
  9216                           	opt stack 0
  9217                           
  9218                           ;prog.c: 1466: *TimeStart = (unsigned int) (Data % (unsigned long int) 2048);
  9219                           
  9220                           ;incstack = 0
  9221  003218  D825               	call	PL48	;call to abstracted procedure
  9222  00321A  C021  FFD9         	movff	ParseDataRecord@TimeStart,fsr2l
  9223  00321E  C022  FFDA         	movff	ParseDataRecord@TimeStart+1,fsr2h
  9224                           
  9225                           ;prog.c: 1467: Data /= 2048;
  9226  003222  D832               	call	PL102	;call to abstracted procedure
  9227  003224                     u3285:
  9228  003224  D82B               	call	PL84	;call to abstracted procedure
  9229  003226  2E29               	decfsz	??_ParseDataRecord& (0+255),f,c
  9230  003228  D7FD               	goto	u3285
  9231                           
  9232                           ;prog.c: 1468: *TimeStop = (unsigned int) (Data % (unsigned long int) 2048);
  9233  00322A  D81C               	call	PL48	;call to abstracted procedure
  9234  00322C  C023  FFD9         	movff	ParseDataRecord@TimeStop,fsr2l
  9235  003230  C024  FFDA         	movff	ParseDataRecord@TimeStop+1,fsr2h
  9236                           
  9237                           ;prog.c: 1469: Data /= 2048;
  9238  003234  D829               	call	PL102	;call to abstracted procedure
  9239  003236                     u3295:
  9240  003236  D822               	call	PL84	;call to abstracted procedure
  9241  003238  2E29               	decfsz	??_ParseDataRecord& (0+255),f,c
  9242  00323A  D7FD               	goto	u3295
  9243                           
  9244                           ;prog.c: 1470: *Days = (unsigned char) (Data % (unsigned long int) 128);
  9245  00323C  501D               	movf	ParseDataRecord@Data,w,c
  9246  00323E  0B7F               	andlw	127
  9247  003240  C025  FFD9         	movff	ParseDataRecord@Days,fsr2l
  9248  003244  C026  FFDA         	movff	ParseDataRecord@Days+1,fsr2h
  9249  003248  6EDF               	movwf	indf2,c
  9250                           
  9251                           ;prog.c: 1471: Data /= 128;
  9252  00324A  0E07               	movlw	7
  9253  00324C  6E29               	movwf	??_ParseDataRecord& (0+255),c
  9254  00324E                     u3305:
  9255  00324E  D816               	call	PL84	;call to abstracted procedure
  9256  003250  2E29               	decfsz	??_ParseDataRecord& (0+255),f,c
  9257  003252  D7FD               	goto	u3305
  9258                           
  9259                           ;prog.c: 1472: *Signals = (unsigned char) (Data % (unsigned long int) 8);
  9260  003254  501D               	movf	ParseDataRecord@Data,w,c
  9261  003256  0B07               	andlw	7
  9262  003258  C027  FFD9         	movff	ParseDataRecord@Signals,fsr2l
  9263  00325C  C028  FFDA         	movff	ParseDataRecord@Signals+1,fsr2h
  9264  003260  6EDF               	movwf	indf2,c
  9265  003262  0012               	return		;funcret
  9266  003264                     __end_of_ParseDataRecord:
  9267                           	opt stack 0
  9268  003264                     PL48:
  9269                           	opt stack 21
  9270  003264  6829               	setf	??_ParseDataRecord& (0+255),c
  9271  003266  0E07               	movlw	7
  9272  003268  6E2A               	movwf	(??_ParseDataRecord+1)& (0+255),c
  9273  00326A  C01D  F02B         	movff	ParseDataRecord@Data,??_ParseDataRecord+2
  9274  00326E  C01E  F02C         	movff	ParseDataRecord@Data+1,??_ParseDataRecord+3
  9275  003272  5029               	movf	??_ParseDataRecord,w,c
  9276  003274  162B               	andwf	??_ParseDataRecord+2,f,c
  9277  003276  502A               	movf	??_ParseDataRecord+1,w,c
  9278  003278  162C               	andwf	??_ParseDataRecord+3,f,c
  9279  00327A  0012               	return	
  9280  00327C                     __end_ofPL48:
  9281                           	opt stack 0
  9282  00327C                     PL84:
  9283                           	opt stack 21
  9284  00327C  90D8               	bcf	status,0,c
  9285  00327E  3220               	rrcf	ParseDataRecord@Data+3,f,c
  9286  003280  321F               	rrcf	ParseDataRecord@Data+2,f,c
  9287  003282  321E               	rrcf	ParseDataRecord@Data+1,f,c
  9288  003284  321D               	rrcf	ParseDataRecord@Data,f,c
  9289  003286  0012               	return	
  9290  003288                     __end_ofPL84:
  9291                           	opt stack 0
  9292  003288                     PL102:
  9293                           	opt stack 21
  9294  003288  C02B  FFDE         	movff	??_ParseDataRecord+2,postinc2
  9295  00328C  C02C  FFDD         	movff	??_ParseDataRecord+3,postdec2
  9296  003290  0E0B               	movlw	11
  9297  003292  6E29               	movwf	??_ParseDataRecord& (0+255),c
  9298  003294  0C0B               	retlw	11
  9299  003296                     __end_ofPL102:
  9300                           	opt stack 0
  9301                           tblptru	equ	0xFF8
  9302                           tblptrh	equ	0xFF7
  9303                           tblptrl	equ	0xFF6
  9304                           tablat	equ	0xFF5
  9305                           prodh	equ	0xFF4
  9306                           prodl	equ	0xFF3
  9307                           intcon	equ	0xFF2
  9308                           intcon2	equ	0xFF1
  9309                           intcon3	equ	0xFF0
  9310                           postinc0	equ	0xFEE
  9311                           wreg	equ	0xFE8
  9312                           indf1	equ	0xFE7
  9313                           postdec1	equ	0xFE5
  9314                           plusw1	equ	0xFE3
  9315                           fsr1h	equ	0xFE2
  9316                           fsr1l	equ	0xFE1
  9317                           indf2	equ	0xFDF
  9318                           postinc2	equ	0xFDE
  9319                           postdec2	equ	0xFDD
  9320                           plusw2	equ	0xFDB
  9321                           fsr2h	equ	0xFDA
  9322                           fsr2l	equ	0xFD9
  9323                           status	equ	0xFD8
  9324                           
  9325 ;; *************** function _TimeEdit *****************
  9326 ;; Defined at:
  9327 ;;		line 694 in file "prog.c"
  9328 ;; Parameters:    Size  Location     Type
  9329 ;;		None
  9330 ;; Auto vars:     Size  Location     Type
  9331 ;;  MonthDays      12    0[BANK0 ] unsigned char [12]
  9332 ;;  month           1   21[BANK0 ] unsigned char 
  9333 ;;  t               1   38[BANK0 ] unsigned char 
  9334 ;;  TimeData       64   39[BANK0 ] struct .
  9335 ;;  symb_array     11   22[BANK0 ] PTR struct .[11]
  9336 ;;		 -> TimeData.Date(40), TimeData.WeekDay(4), TimeData.Time(20), TimeEdit@TimeData(64), 
  9337 ;;  temp            4   34[BANK0 ] long 
  9338 ;;  n               4   12[BANK0 ] long 
  9339 ;;  blinking        1   33[BANK0 ] unsigned char 
  9340 ;;  input           1   20[BANK0 ] unsigned char 
  9341 ;; Return value:  Size  Location     Type
  9342 ;;                  1    wreg      void 
  9343 ;; Registers used:
  9344 ;;		wreg, fsr1l, fsr1h, fsr2l, fsr2h, status,2, status,0, prodl, prodh, cstack
  9345 ;; Tracked objects:
  9346 ;;		On entry : 0/0
  9347 ;;		On exit  : F/1
  9348 ;;		Unchanged: 0/0
  9349 ;; Data sizes:     COMRAM   BANK0   BANK1   BANK2   BANK3   BANK4   BANK5   BANK6   BANK7   BANK8   BANK9  BANK10  BANK1
      +1  BANK12  BANK13  BANK14  BANK15
  9350 ;;      Params:         0       0       0       0       0       0       0       0       0       0       0       0       
      +0       0       0       0       0
  9351 ;;      Locals:         0     103       0       0       0       0       0       0       0       0       0       0       
      +0       0       0       0       0
  9352 ;;      Temps:         12       0       0       0       0       0       0       0       0       0       0       0       
      +0       0       0       0       0
  9353 ;;      Totals:        12     103       0       0       0       0       0       0       0       0       0       0       
      +0       0       0       0       0
  9354 ;;Total ram usage:      115 bytes
  9355 ;; Hardware stack levels used:    1
  9356 ;; Hardware stack levels required when called:    7
  9357 ;; This function calls:
  9358 ;;		_ReIndTimeEdit
  9359 ;;		_TimeData_BlinkOFF
  9360 ;;		_TimeData_INIT
  9361 ;;		___aldiv
  9362 ;;		___almod
  9363 ;;		___lbdiv
  9364 ;;		___lbmod
  9365 ;;		___lmul
  9366 ;;		_clrInd
  9367 ;;		_entNum
  9368 ;; This function is called by:
  9369 ;;		_main2
  9370 ;; This function uses a non-reentrant model
  9371 ;;
  9372                           
  9373                           	psect	text37
  9374  001B0A                     __ptext37:
  9375                           	opt stack 0
  9376  001B0A                     _TimeEdit:
  9377                           	opt stack 22
  9378                           
  9379                           ;prog.c: 696: clrInd();
  9380                           
  9381                           ;incstack = 0
  9382  001B0A  ECC3  F01A         	call	_clrInd	;wreg free
  9383                           
  9384                           ; BSR set to: 1
  9385                           ;prog.c: 697: flags.isTimeSetting = 1;
  9386  001B0E  8857               	bsf	_flags,4,c
  9387                           
  9388                           ; BSR set to: 1
  9389                           ;prog.c: 699: long int temp = Clock / 6000;
  9390  001B10  ECDA  F00A         	call	PL66	;call to abstracted procedure
  9391  001B14  DA33               	call	PL110	;call to abstracted procedure
  9392  001B16  EC5B  F016         	call	___aldiv	;wreg free
  9393  001B1A  D9FB               	call	PL40	;call to abstracted procedure
  9394                           
  9395                           ;prog.c: 700: long int n = temp;
  9396  001B1C  C0A2  F08C         	movff	TimeEdit@temp,TimeEdit@n
  9397  001B20  C0A3  F08D         	movff	TimeEdit@temp+1,TimeEdit@n+1
  9398  001B24  C0A4  F08E         	movff	TimeEdit@temp+2,TimeEdit@n+2
  9399  001B28  C0A5  F08F         	movff	TimeEdit@temp+3,TimeEdit@n+3
  9400                           
  9401                           ;prog.c: 702: TimeEditData TimeData;
  9402                           ;prog.c: 704: TimeData_INIT(&TimeData);
  9403  001B2C  0EA7               	movlw	TimeEdit@TimeData& (0+255)
  9404  001B2E  EC11  F017         	call	_TimeData_INIT
  9405                           
  9406                           ;prog.c: 707: TimeData.Time[4].number = temp % 10;
  9407  001B32  D9DD               	call	PL22	;call to abstracted procedure
  9408  001B34  0E0A               	movlw	10
  9409  001B36  ECD5  F00A         	call	PL32	;call to abstracted procedure
  9410  001B3A  EC60  F017         	call	___almod	;wreg free
  9411  001B3E  501D               	movf	?___almod,w,c
  9412  001B40  0100               	movlb	0	; () banked
  9413  001B42  6FB8               	movwf	(TimeEdit@TimeData+17)& (0+255),b
  9414                           
  9415                           ;prog.c: 708: temp /= 10;
  9416  001B44  D9DD               	call	PL36	;call to abstracted procedure
  9417  001B46  0E0A               	movlw	10
  9418  001B48  ECD0  F00A         	call	PL28	;call to abstracted procedure
  9419  001B4C  EC5B  F016         	call	___aldiv	;wreg free
  9420  001B50  D9E0               	call	PL40	;call to abstracted procedure
  9421                           
  9422                           ;prog.c: 709: TimeData.Time[3].number = temp % 6;
  9423  001B52  D9CD               	call	PL22	;call to abstracted procedure
  9424  001B54  0E06               	movlw	6
  9425  001B56  ECD5  F00A         	call	PL32	;call to abstracted procedure
  9426  001B5A  EC60  F017         	call	___almod	;wreg free
  9427  001B5E  501D               	movf	?___almod,w,c
  9428  001B60  0100               	movlb	0	; () banked
  9429  001B62  6FB4               	movwf	(TimeEdit@TimeData+13)& (0+255),b
  9430                           
  9431                           ;prog.c: 711: temp /= 6;
  9432  001B64  D9CD               	call	PL36	;call to abstracted procedure
  9433  001B66  0E06               	movlw	6
  9434  001B68  ECD0  F00A         	call	PL28	;call to abstracted procedure
  9435  001B6C  EC5B  F016         	call	___aldiv	;wreg free
  9436  001B70  D9D0               	call	PL40	;call to abstracted procedure
  9437                           
  9438                           ;prog.c: 712: temp %= 24;
  9439  001B72  D9BD               	call	PL22	;call to abstracted procedure
  9440  001B74  0E18               	movlw	24
  9441  001B76  ECD5  F00A         	call	PL32	;call to abstracted procedure
  9442  001B7A  EC60  F017         	call	___almod	;wreg free
  9443  001B7E  C01D  F0A2         	movff	?___almod,TimeEdit@temp
  9444  001B82  C01E  F0A3         	movff	?___almod+1,TimeEdit@temp+1
  9445  001B86  C01F  F0A4         	movff	?___almod+2,TimeEdit@temp+2
  9446  001B8A  C020  F0A5         	movff	?___almod+3,TimeEdit@temp+3
  9447                           
  9448                           ;prog.c: 714: TimeData.Time[1].number = temp % 10;
  9449  001B8E  D9AF               	call	PL22	;call to abstracted procedure
  9450  001B90  0E0A               	movlw	10
  9451  001B92  ECD5  F00A         	call	PL32	;call to abstracted procedure
  9452  001B96  EC60  F017         	call	___almod	;wreg free
  9453  001B9A  501D               	movf	?___almod,w,c
  9454  001B9C  0100               	movlb	0	; () banked
  9455  001B9E  6FAC               	movwf	(TimeEdit@TimeData+5)& (0+255),b
  9456                           
  9457                           ;prog.c: 715: TimeData.Time[0].number = temp / 10;
  9458  001BA0  D9AF               	call	PL36	;call to abstracted procedure
  9459  001BA2  0E0A               	movlw	10
  9460  001BA4  ECD0  F00A         	call	PL28	;call to abstracted procedure
  9461  001BA8  EC5B  F016         	call	___aldiv	;wreg free
  9462  001BAC  501D               	movf	?___aldiv,w,c
  9463  001BAE  0100               	movlb	0	; () banked
  9464  001BB0  6FA8               	movwf	(TimeEdit@TimeData+1)& (0+255),b
  9465                           
  9466                           ;prog.c: 717: TimeData.WeekDay[0].number = 1 + n / 1440;
  9467  001BB2  C08C  F01D         	movff	TimeEdit@n,___aldiv@dividend
  9468  001BB6  C08D  F01E         	movff	TimeEdit@n+1,___aldiv@dividend+1
  9469  001BBA  C08E  F01F         	movff	TimeEdit@n+2,___aldiv@dividend+2
  9470  001BBE  C08F  F020         	movff	TimeEdit@n+3,___aldiv@dividend+3
  9471  001BC2  0EA0               	movlw	160
  9472  001BC4  6E21               	movwf	___aldiv@divisor,c
  9473  001BC6  0E05               	movlw	5
  9474  001BC8  6E22               	movwf	___aldiv@divisor+1,c
  9475  001BCA  6A23               	clrf	___aldiv@divisor+2,c
  9476  001BCC  6A24               	clrf	___aldiv@divisor+3,c
  9477  001BCE  EC5B  F016         	call	___aldiv	;wreg free
  9478  001BD2  281D               	incf	?___aldiv,w,c
  9479  001BD4  0100               	movlb	0	; () banked
  9480  001BD6  6FBC               	movwf	(TimeEdit@TimeData+21)& (0+255),b
  9481                           
  9482                           ;prog.c: 719: TimeData.Date[9].number = cYears % 10;
  9483  001BD8  0E0A               	movlw	10
  9484  001BDA  6E1D               	movwf	___lbmod@divisor,c
  9485  001BDC  51F5               	movf	_cYears& (0+255),w,b
  9486  001BDE  EC76  F01D         	call	___lbmod
  9487  001BE2  0100               	movlb	0	; () banked
  9488  001BE4  6FE4               	movwf	(TimeEdit@TimeData+61)& (0+255),b
  9489                           
  9490                           ;prog.c: 720: TimeData.Date[8].number = cYears / 10;
  9491  001BE6  0E0A               	movlw	10
  9492  001BE8  6E1D               	movwf	___lbdiv@divisor,c
  9493  001BEA  51F5               	movf	_cYears& (0+255),w,b
  9494  001BEC  ECE2  F01C         	call	___lbdiv
  9495  001BF0  0100               	movlb	0	; () banked
  9496  001BF2  6FE0               	movwf	(TimeEdit@TimeData+57)& (0+255),b
  9497                           
  9498                           ; BSR set to: 0
  9499                           ;prog.c: 721: TimeData.Date[7].symbol = '0';
  9500  001BF4  0E30               	movlw	48
  9501  001BF6  6FDD               	movwf	(TimeEdit@TimeData+54)& (0+255),b
  9502                           
  9503                           ; BSR set to: 0
  9504                           ;prog.c: 722: TimeData.Date[7].props.const_symbol = 1;
  9505  001BF8  83DB               	bsf	(TimeEdit@TimeData+52)& (0+255),1,b
  9506                           
  9507                           ; BSR set to: 0
  9508                           ;prog.c: 723: TimeData.Date[6].symbol = '2';
  9509  001BFA  0E32               	movlw	50
  9510  001BFC  6FD9               	movwf	(TimeEdit@TimeData+50)& (0+255),b
  9511                           
  9512                           ; BSR set to: 0
  9513                           ;prog.c: 724: TimeData.Date[6].props.const_symbol = 1;
  9514  001BFE  83D7               	bsf	(TimeEdit@TimeData+48)& (0+255),1,b
  9515                           
  9516                           ;prog.c: 726: TimeData.Date[4].number = cMonths % 10;
  9517  001C00  0E0A               	movlw	10
  9518  001C02  6E1D               	movwf	___lbmod@divisor,c
  9519  001C04  51F4               	movf	_cMonths& (0+255),w,b
  9520  001C06  EC76  F01D         	call	___lbmod
  9521  001C0A  0100               	movlb	0	; () banked
  9522  001C0C  6FD0               	movwf	(TimeEdit@TimeData+41)& (0+255),b
  9523                           
  9524                           ;prog.c: 727: TimeData.Date[3].number = cMonths / 10;
  9525  001C0E  0E0A               	movlw	10
  9526  001C10  6E1D               	movwf	___lbdiv@divisor,c
  9527  001C12  51F4               	movf	_cMonths& (0+255),w,b
  9528  001C14  ECE2  F01C         	call	___lbdiv
  9529  001C18  0100               	movlb	0	; () banked
  9530  001C1A  6FCC               	movwf	(TimeEdit@TimeData+37)& (0+255),b
  9531                           
  9532                           ;prog.c: 729: TimeData.Date[1].number = cDays % 10;
  9533  001C1C  0E0A               	movlw	10
  9534  001C1E  6E1D               	movwf	___lbmod@divisor,c
  9535  001C20  51F3               	movf	_cDays& (0+255),w,b
  9536  001C22  EC76  F01D         	call	___lbmod
  9537  001C26  0100               	movlb	0	; () banked
  9538  001C28  6FC4               	movwf	(TimeEdit@TimeData+29)& (0+255),b
  9539                           
  9540                           ;prog.c: 730: TimeData.Date[0].number = cDays / 10;
  9541  001C2A  0E0A               	movlw	10
  9542  001C2C  6E1D               	movwf	___lbdiv@divisor,c
  9543  001C2E  51F3               	movf	_cDays& (0+255),w,b
  9544  001C30  ECE2  F01C         	call	___lbdiv
  9545  001C34  0100               	movlb	0	; () banked
  9546  001C36  6FC0               	movwf	(TimeEdit@TimeData+25)& (0+255),b
  9547                           
  9548                           ; BSR set to: 0
  9549                           ;prog.c: 733: SymbolData *symb_array [11];
  9550                           ;prog.c: 735: symb_array[0] = &TimeData.Date[0];
  9551  001C38  0EBF               	movlw	low (TimeEdit@TimeData+24)
  9552  001C3A  6F96               	movwf	TimeEdit@symb_array& (0+255),b
  9553                           
  9554                           ; BSR set to: 0
  9555                           ;prog.c: 736: symb_array[1] = &TimeData.Date[1];
  9556  001C3C  0EC3               	movlw	low (TimeEdit@TimeData+28)
  9557  001C3E  6F97               	movwf	(TimeEdit@symb_array+1)& (0+255),b
  9558                           
  9559                           ; BSR set to: 0
  9560                           ;prog.c: 737: symb_array[2] = &TimeData.Date[3];
  9561  001C40  0ECB               	movlw	low (TimeEdit@TimeData+36)
  9562  001C42  6F98               	movwf	(TimeEdit@symb_array+2)& (0+255),b
  9563                           
  9564                           ; BSR set to: 0
  9565                           ;prog.c: 738: symb_array[3] = &TimeData.Date[4];
  9566  001C44  0ECF               	movlw	low (TimeEdit@TimeData+40)
  9567  001C46  6F99               	movwf	(TimeEdit@symb_array+3)& (0+255),b
  9568                           
  9569                           ; BSR set to: 0
  9570                           ;prog.c: 739: symb_array[4] = &TimeData.Date[8];
  9571  001C48  0EDF               	movlw	low (TimeEdit@TimeData+56)
  9572  001C4A  6F9A               	movwf	(TimeEdit@symb_array+4)& (0+255),b
  9573                           
  9574                           ; BSR set to: 0
  9575                           ;prog.c: 740: symb_array[5] = &TimeData.Date[9];
  9576  001C4C  0EE3               	movlw	low (TimeEdit@TimeData+60)
  9577  001C4E  6F9B               	movwf	(TimeEdit@symb_array+5)& (0+255),b
  9578                           
  9579                           ; BSR set to: 0
  9580                           ;prog.c: 742: symb_array[6] = &TimeData.WeekDay[0];
  9581  001C50  0EBB               	movlw	low (TimeEdit@TimeData+20)
  9582  001C52  6F9C               	movwf	(TimeEdit@symb_array+6)& (0+255),b
  9583                           
  9584                           ; BSR set to: 0
  9585                           ;prog.c: 744: symb_array[7] = &TimeData.Time[0];
  9586  001C54  0EA7               	movlw	low TimeEdit@TimeData
  9587  001C56  6F9D               	movwf	(TimeEdit@symb_array+7)& (0+255),b
  9588                           
  9589                           ; BSR set to: 0
  9590                           ;prog.c: 745: symb_array[8] = &TimeData.Time[1];
  9591  001C58  0EAB               	movlw	low (TimeEdit@TimeData+4)
  9592  001C5A  6F9E               	movwf	(TimeEdit@symb_array+8)& (0+255),b
  9593                           
  9594                           ; BSR set to: 0
  9595                           ;prog.c: 746: symb_array[9] = &TimeData.Time[3];
  9596  001C5C  0EB3               	movlw	low (TimeEdit@TimeData+12)
  9597  001C5E  6F9F               	movwf	(TimeEdit@symb_array+9)& (0+255),b
  9598                           
  9599                           ; BSR set to: 0
  9600                           ;prog.c: 747: symb_array[10] = &TimeData.Time[4];
  9601  001C60  0EB7               	movlw	low (TimeEdit@TimeData+16)
  9602  001C62  6FA0               	movwf	(TimeEdit@symb_array+10)& (0+255),b
  9603                           
  9604                           ; BSR set to: 0
  9605                           ;prog.c: 750: char blinking = 7;
  9606  001C64  0E07               	movlw	7
  9607  001C66  6FA1               	movwf	TimeEdit@blinking& (0+255),b
  9608  001C68                     l6255:
  9609                           
  9610                           ; BSR set to: 0
  9611                           ;prog.c: 753: (*symb_array[blinking]).props.blink = 1;
  9612  001C68  D981               	call	PL92	;call to abstracted procedure
  9613  001C6A  80DF               	bsf	indf2,0,c
  9614                           
  9615                           ; BSR set to: 0
  9616                           ;prog.c: 755: ReIndTimeEdit(&TimeData);
  9617  001C6C  0EA7               	movlw	TimeEdit@TimeData& (0+255)
  9618  001C6E  ECC0  F014         	call	_ReIndTimeEdit
  9619                           
  9620                           ;prog.c: 757: input = entNum(0, 9);
  9621  001C72  0E09               	movlw	9
  9622  001C74  6E1D               	movwf	entNum@borderUp,c
  9623  001C76  0E00               	movlw	0
  9624  001C78  EC3C  F01D         	call	_entNum
  9625  001C7C  0100               	movlb	0	; () banked
  9626  001C7E  6F94               	movwf	TimeEdit@input& (0+255),b
  9627                           
  9628                           ; BSR set to: 0
  9629                           ;prog.c: 759: if(input != 255){
  9630  001C80  2994               	incf	TimeEdit@input& (0+255),w,b
  9631  001C82  E00E               	bz	l6273
  9632                           
  9633                           ; BSR set to: 0
  9634                           ;prog.c: 760: (*symb_array[blinking]).number = input;
  9635  001C84  D973               	call	PL92	;call to abstracted procedure
  9636  001C86  2AD9               	incf	fsr2l,f,c
  9637  001C88  C094  FFDF         	movff	TimeEdit@input,indf2
  9638                           
  9639                           ; BSR set to: 0
  9640                           ;prog.c: 761: TimeData_BlinkOFF(&TimeData);
  9641  001C8C  0EA7               	movlw	TimeEdit@TimeData& (0+255)
  9642  001C8E  EC5A  F01C         	call	_TimeData_BlinkOFF
  9643                           
  9644                           ;prog.c: 762: blinking == 10 ? blinking = 0 : blinking++;
  9645  001C92  0E0A               	movlw	10
  9646  001C94  0100               	movlb	0	; () banked
  9647  001C96  19A1               	xorwf	TimeEdit@blinking& (0+255),w,b
  9648  001C98  E102               	bnz	l6271
  9649                           
  9650                           ; BSR set to: 0
  9651  001C9A  6BA1               	clrf	TimeEdit@blinking& (0+255),b
  9652  001C9C  D001               	goto	l6273
  9653  001C9E                     l6271:
  9654                           
  9655                           ; BSR set to: 0
  9656  001C9E  2BA1               	incf	TimeEdit@blinking& (0+255),f,b
  9657  001CA0                     l6273:
  9658                           
  9659                           ; BSR set to: 0
  9660                           ;prog.c: 763: }
  9661                           ;prog.c: 765: if(KeyCode == 40){
  9662  001CA0  0E28               	movlw	40
  9663  001CA2  185B               	xorwf	_KeyCode,w,c	;volatile
  9664  001CA4  E10C               	bnz	l6285
  9665                           
  9666                           ; BSR set to: 0
  9667                           ;prog.c: 766: KeyCode = 0;
  9668  001CA6  6A5B               	clrf	_KeyCode,c	;volatile
  9669                           
  9670                           ; BSR set to: 0
  9671                           ;prog.c: 767: TimeData_BlinkOFF(&TimeData);
  9672  001CA8  0EA7               	movlw	TimeEdit@TimeData& (0+255)
  9673  001CAA  EC5A  F01C         	call	_TimeData_BlinkOFF
  9674                           
  9675                           ;prog.c: 768: blinking == 10 ? blinking = 0 : blinking++;
  9676  001CAE  0E0A               	movlw	10
  9677  001CB0  0100               	movlb	0	; () banked
  9678  001CB2  19A1               	xorwf	TimeEdit@blinking& (0+255),w,b
  9679  001CB4  E102               	bnz	l6283
  9680                           
  9681                           ; BSR set to: 0
  9682  001CB6  6BA1               	clrf	TimeEdit@blinking& (0+255),b
  9683  001CB8  D7D7               	goto	l6255
  9684  001CBA                     l6283:
  9685                           
  9686                           ; BSR set to: 0
  9687  001CBA  2BA1               	incf	TimeEdit@blinking& (0+255),f,b
  9688  001CBC  D7D5               	goto	l6255
  9689  001CBE                     l6285:
  9690                           
  9691                           ; BSR set to: 0
  9692  001CBE  0E29               	movlw	41
  9693  001CC0  185B               	xorwf	_KeyCode,w,c	;volatile
  9694  001CC2  E10B               	bnz	l6297
  9695                           
  9696                           ; BSR set to: 0
  9697                           ;prog.c: 770: KeyCode = 0;
  9698  001CC4  6A5B               	clrf	_KeyCode,c	;volatile
  9699                           
  9700                           ; BSR set to: 0
  9701                           ;prog.c: 771: TimeData_BlinkOFF(&TimeData);
  9702  001CC6  0EA7               	movlw	TimeEdit@TimeData& (0+255)
  9703  001CC8  EC5A  F01C         	call	_TimeData_BlinkOFF
  9704                           
  9705                           ;prog.c: 772: blinking == 0 ? blinking = 10 : blinking--;
  9706  001CCC  0100               	movlb	0	; () banked
  9707  001CCE  51A1               	movf	TimeEdit@blinking& (0+255),w,b
  9708  001CD0  E102               	bnz	l6295
  9709                           
  9710                           ; BSR set to: 0
  9711  001CD2  0E0A               	movlw	10
  9712  001CD4  D7C8               	goto	L26
  9713  001CD6                     l6295:
  9714                           
  9715                           ; BSR set to: 0
  9716  001CD6  07A1               	decf	TimeEdit@blinking& (0+255),f,b
  9717  001CD8  D7C7               	goto	l6255
  9718  001CDA                     l6297:
  9719                           
  9720                           ; BSR set to: 0
  9721  001CDA  0E2A               	movlw	42
  9722  001CDC  185B               	xorwf	_KeyCode,w,c	;volatile
  9723  001CDE  E001 D0FA          	bnz	l6365
  9724                           
  9725                           ; BSR set to: 0
  9726                           ;prog.c: 774: KeyCode = 0;
  9727  001CE2  6A5B               	clrf	_KeyCode,c	;volatile
  9728                           
  9729                           ; BSR set to: 0
  9730                           ;prog.c: 777: t = (*symb_array[2]).number * 10 + (*symb_array[3]).number;
  9731  001CE4  5199               	movf	(TimeEdit@symb_array+3)& (0+255),w,b
  9732  001CE6  D8FE               	call	PL4	;call to abstracted procedure
  9733  001CE8  6E36               	movwf	??_TimeEdit& (0+255),c
  9734  001CEA  5198               	movf	(TimeEdit@symb_array+2)& (0+255),w,b
  9735  001CEC  D8FB               	call	PL4	;call to abstracted procedure
  9736  001CEE  D926               	call	PL58	;call to abstracted procedure
  9737                           
  9738                           ; BSR set to: 0
  9739                           ;prog.c: 778: if(t > 12){
  9740  001CF0  0E0C               	movlw	12
  9741  001CF2  65A6               	cpfsgt	TimeEdit@t& (0+255),b
  9742  001CF4  D005               	goto	l521
  9743                           
  9744                           ; BSR set to: 0
  9745                           ;prog.c: 779: TimeData_BlinkOFF(&TimeData);
  9746  001CF6  0EA7               	movlw	TimeEdit@TimeData& (0+255)
  9747  001CF8  EC5A  F01C         	call	_TimeData_BlinkOFF
  9748                           
  9749                           ;prog.c: 780: blinking = 2;
  9750  001CFC  0E02               	movlw	2
  9751  001CFE  D061               	goto	L21
  9752  001D00                     l521:
  9753                           
  9754                           ; BSR set to: 0
  9755                           ;prog.c: 782: }
  9756                           ;prog.c: 784: unsigned char month = t;
  9757  001D00  C0A6  F095         	movff	TimeEdit@t,TimeEdit@month
  9758                           
  9759                           ; BSR set to: 0
  9760                           ;prog.c: 786: unsigned char MonthDays [] = {31, 28, 31, 30, 31, 30, 31, 31, 30, 31, 30, 
      +                          31};
  9761  001D04  EE20  F0E7         	lfsr	2,TimeEdit@F2989
  9762  001D08  EE10  F080         	lfsr	1,TimeEdit@MonthDays
  9763  001D0C  0E0B               	movlw	11
  9764  001D0E                     u5141:
  9765  001D0E  CFDB FFE3          	movff	plusw2,plusw1
  9766  001D12  06E8               	decf	wreg,f,c
  9767  001D14  E2FC               	bc	u5141
  9768                           
  9769                           ; BSR set to: 0
  9770                           ;prog.c: 787: t = (*symb_array[4]).number * 10 + (*symb_array[5]).number;
  9771  001D16  519B               	movf	(TimeEdit@symb_array+5)& (0+255),w,b
  9772  001D18  D8E5               	call	PL4	;call to abstracted procedure
  9773  001D1A  6E36               	movwf	??_TimeEdit& (0+255),c
  9774  001D1C  519A               	movf	(TimeEdit@symb_array+4)& (0+255),w,b
  9775  001D1E  D8E2               	call	PL4	;call to abstracted procedure
  9776  001D20  D90D               	call	PL58	;call to abstracted procedure
  9777                           
  9778                           ; BSR set to: 0
  9779                           ;prog.c: 788: if(t % 4 == 0){
  9780  001D22  C0A6  F036         	movff	TimeEdit@t,??_TimeEdit
  9781  001D26  0E03               	movlw	3
  9782  001D28  1636               	andwf	??_TimeEdit,f,c
  9783  001D2A  E102               	bnz	l6317
  9784                           
  9785                           ; BSR set to: 0
  9786                           ;prog.c: 789: MonthDays[1] = 29;
  9787  001D2C  0E1D               	movlw	29
  9788  001D2E  6F81               	movwf	(TimeEdit@MonthDays+1)& (0+255),b
  9789  001D30                     l6317:
  9790                           
  9791                           ; BSR set to: 0
  9792                           ;prog.c: 790: }
  9793                           ;prog.c: 791: t = (*symb_array[0]).number * 10 + (*symb_array[1]).number;
  9794  001D30  5197               	movf	(TimeEdit@symb_array+1)& (0+255),w,b
  9795  001D32  D8D8               	call	PL4	;call to abstracted procedure
  9796  001D34  6E36               	movwf	??_TimeEdit& (0+255),c
  9797  001D36  5196               	movf	TimeEdit@symb_array& (0+255),w,b
  9798  001D38  D8D5               	call	PL4	;call to abstracted procedure
  9799  001D3A  D900               	call	PL58	;call to abstracted procedure
  9800                           
  9801                           ; BSR set to: 0
  9802                           ;prog.c: 792: if(MonthDays[month-1] < t){
  9803  001D3C  D904               	call	PL80	;call to abstracted procedure
  9804  001D3E  6ED9               	movwf	fsr2l,c
  9805  001D40  6ADA               	clrf	fsr2h,c
  9806  001D42  51A6               	movf	TimeEdit@t& (0+255),w,b
  9807  001D44  5CDE               	subwf	postinc2,w,c
  9808  001D46  E217               	bc	l6327
  9809                           
  9810                           ; BSR set to: 0
  9811                           ;prog.c: 793: (*symb_array[0]).number = MonthDays[month-1] / 10;
  9812  001D48  5196               	movf	TimeEdit@symb_array& (0+255),w,b
  9813  001D4A  D91F               	call	PL142	;call to abstracted procedure
  9814  001D4C  6E1D               	movwf	___lbdiv@divisor,c
  9815  001D4E  D8FB               	call	PL80	;call to abstracted procedure
  9816  001D50  D920               	call	PL156	;call to abstracted procedure
  9817  001D52  ECE2  F01C         	call	___lbdiv
  9818  001D56  6EDF               	movwf	indf2,c
  9819                           
  9820                           ;prog.c: 794: (*symb_array[1]).number = MonthDays[month-1] % 10;
  9821  001D58  0100               	movlb	0	; () banked
  9822  001D5A  5197               	movf	(TimeEdit@symb_array+1)& (0+255),w,b
  9823  001D5C  D916               	call	PL142	;call to abstracted procedure
  9824  001D5E  6E1D               	movwf	___lbmod@divisor,c
  9825  001D60  D8F2               	call	PL80	;call to abstracted procedure
  9826  001D62  D917               	call	PL156	;call to abstracted procedure
  9827  001D64  EC76  F01D         	call	___lbmod
  9828  001D68  6EDF               	movwf	indf2,c
  9829                           
  9830                           ;prog.c: 795: TimeData_BlinkOFF(&TimeData);
  9831  001D6A  0EA7               	movlw	TimeEdit@TimeData& (0+255)
  9832  001D6C  EC5A  F01C         	call	_TimeData_BlinkOFF
  9833                           
  9834                           ;prog.c: 796: blinking = 0;
  9835  001D70  0100               	movlb	0	; () banked
  9836  001D72  6BA1               	clrf	TimeEdit@blinking& (0+255),b
  9837                           
  9838                           ;prog.c: 797: break;
  9839  001D74  D0AB               	goto	l6361
  9840  001D76                     l6327:
  9841                           
  9842                           ; BSR set to: 0
  9843                           ;prog.c: 798: }
  9844                           ;prog.c: 800: t = (*symb_array[6]).number;
  9845  001D76  519C               	movf	(TimeEdit@symb_array+6)& (0+255),w,b
  9846  001D78  D8B5               	call	PL4	;call to abstracted procedure
  9847  001D7A  6FA6               	movwf	TimeEdit@t& (0+255),b
  9848                           
  9849                           ; BSR set to: 0
  9850                           ;prog.c: 801: if(t > 7){
  9851  001D7C  0E07               	movlw	7
  9852  001D7E  65A6               	cpfsgt	TimeEdit@t& (0+255),b
  9853  001D80  D005               	goto	l6335
  9854                           
  9855                           ; BSR set to: 0
  9856                           ;prog.c: 802: TimeData_BlinkOFF(&TimeData);
  9857  001D82  0EA7               	movlw	TimeEdit@TimeData& (0+255)
  9858  001D84  EC5A  F01C         	call	_TimeData_BlinkOFF
  9859                           
  9860                           ;prog.c: 803: blinking = 6;
  9861  001D88  0E06               	movlw	6
  9862  001D8A  D01B               	goto	L21
  9863  001D8C                     l6335:
  9864                           
  9865                           ; BSR set to: 0
  9866                           ;prog.c: 805: }
  9867                           ;prog.c: 807: t = (*symb_array[7]).number * 10 + (*symb_array[8]).number;
  9868  001D8C  519E               	movf	(TimeEdit@symb_array+8)& (0+255),w,b
  9869  001D8E  D8AA               	call	PL4	;call to abstracted procedure
  9870  001D90  6E36               	movwf	??_TimeEdit& (0+255),c
  9871  001D92  519D               	movf	(TimeEdit@symb_array+7)& (0+255),w,b
  9872  001D94  D8A7               	call	PL4	;call to abstracted procedure
  9873  001D96  D8D2               	call	PL58	;call to abstracted procedure
  9874                           
  9875                           ; BSR set to: 0
  9876                           ;prog.c: 808: if(t > 23){
  9877  001D98  0E17               	movlw	23
  9878  001D9A  65A6               	cpfsgt	TimeEdit@t& (0+255),b
  9879  001D9C  D005               	goto	l6343
  9880                           
  9881                           ; BSR set to: 0
  9882                           ;prog.c: 809: TimeData_BlinkOFF(&TimeData);
  9883  001D9E  0EA7               	movlw	TimeEdit@TimeData& (0+255)
  9884  001DA0  EC5A  F01C         	call	_TimeData_BlinkOFF
  9885                           
  9886                           ;prog.c: 810: blinking = 7;
  9887  001DA4  0E07               	movlw	7
  9888  001DA6  D00D               	goto	L21
  9889  001DA8                     l6343:
  9890                           
  9891                           ; BSR set to: 0
  9892                           ;prog.c: 812: }
  9893                           ;prog.c: 814: t = (*symb_array[9]).number * 10 + (*symb_array[10]).number;
  9894  001DA8  51A0               	movf	(TimeEdit@symb_array+10)& (0+255),w,b
  9895  001DAA  D89C               	call	PL4	;call to abstracted procedure
  9896  001DAC  6E36               	movwf	??_TimeEdit& (0+255),c
  9897  001DAE  519F               	movf	(TimeEdit@symb_array+9)& (0+255),w,b
  9898  001DB0  D899               	call	PL4	;call to abstracted procedure
  9899  001DB2  D8C4               	call	PL58	;call to abstracted procedure
  9900                           
  9901                           ; BSR set to: 0
  9902                           ;prog.c: 815: if(t > 59){
  9903  001DB4  0E3B               	movlw	59
  9904  001DB6  65A6               	cpfsgt	TimeEdit@t& (0+255),b
  9905  001DB8  D007               	goto	l529
  9906                           
  9907                           ; BSR set to: 0
  9908                           ;prog.c: 816: TimeData_BlinkOFF(&TimeData);
  9909  001DBA  0EA7               	movlw	TimeEdit@TimeData& (0+255)
  9910  001DBC  EC5A  F01C         	call	_TimeData_BlinkOFF
  9911                           
  9912                           ;prog.c: 817: blinking = 9;
  9913  001DC0  0E09               	movlw	9
  9914  001DC2                     L21:
  9915  001DC2  0100               	movlb	0	; () banked
  9916  001DC4  6FA1               	movwf	TimeEdit@blinking& (0+255),b
  9917                           
  9918                           ;prog.c: 818: break;
  9919  001DC6  D082               	goto	l6361
  9920  001DC8                     l529:
  9921                           
  9922                           ; BSR set to: 0
  9923                           ;prog.c: 819: }
  9924                           ;prog.c: 821: t = 0;
  9925  001DC8  6BA6               	clrf	TimeEdit@t& (0+255),b
  9926                           
  9927                           ; BSR set to: 0
  9928                           ;prog.c: 823: Clock = ((long int)((*symb_array[6]).number - 1) * 86400
  9929                           ;prog.c: 824: + (long int)((*symb_array[7]).number * 10 + (*symb_array[8]).number) * 360
      +                          0
  9930                           ;prog.c: 825: + (long int)((*symb_array[9]).number * 10 + (*symb_array[10]).number) * 60
      +                          ) * 100;
  9931  001DCA  6836               	setf	??_TimeEdit& (0+255),c
  9932  001DCC  6837               	setf	(??_TimeEdit+1)& (0+255),c
  9933  001DCE  519C               	movf	(TimeEdit@symb_array+6)& (0+255),w,b
  9934  001DD0  D889               	call	PL4	;call to abstracted procedure
  9935  001DD2  6E38               	movwf	(??_TimeEdit+2)& (0+255),c
  9936  001DD4  6A39               	clrf	(??_TimeEdit+3)& (0+255),c
  9937  001DD6  5036               	movf	??_TimeEdit,w,c
  9938  001DD8  2638               	addwf	??_TimeEdit+2,f,c
  9939  001DDA  5037               	movf	??_TimeEdit+1,w,c
  9940  001DDC  2239               	addwfc	??_TimeEdit+3,f,c
  9941  001DDE  C038  F01D         	movff	??_TimeEdit+2,___lmul@multiplier
  9942  001DE2  C039  F01E         	movff	??_TimeEdit+3,___lmul@multiplier+1
  9943  001DE6  0E00               	movlw	0
  9944  001DE8  BE1E               	btfsc	___lmul@multiplier+1,7,c
  9945  001DEA  0EFF               	movlw	-1
  9946  001DEC  6E1F               	movwf	___lmul@multiplier+2,c
  9947  001DEE  6E20               	movwf	___lmul@multiplier+3,c
  9948  001DF0  D8B0               	call	PL88	;call to abstracted procedure
  9949  001DF2  EC44  F01B         	call	___lmul	;wreg free
  9950  001DF6  C01D  F03A         	movff	?___lmul,??_TimeEdit+4
  9951  001DFA  C01E  F03B         	movff	?___lmul+1,??_TimeEdit+5
  9952  001DFE  C01F  F03C         	movff	?___lmul+2,??_TimeEdit+6
  9953  001E02  C020  F03D         	movff	?___lmul+3,??_TimeEdit+7
  9954  001E06  0100               	movlb	0	; () banked
  9955  001E08  519D               	movf	(TimeEdit@symb_array+7)& (0+255),w,b
  9956  001E0A  D86C               	call	PL4	;call to abstracted procedure
  9957  001E0C  0D0A               	mullw	10
  9958  001E0E  519E               	movf	(TimeEdit@symb_array+8)& (0+255),w,b
  9959  001E10  D869               	call	PL4	;call to abstracted procedure
  9960  001E12  D888               	call	PL46	;call to abstracted procedure
  9961  001E14  0E10               	movlw	16
  9962  001E16  6E21               	movwf	___lmul@multiplicand,c
  9963  001E18  0E0E               	movlw	14
  9964  001E1A  6E22               	movwf	___lmul@multiplicand+1,c
  9965  001E1C  6A23               	clrf	___lmul@multiplicand+2,c
  9966  001E1E  6A24               	clrf	___lmul@multiplicand+3,c
  9967  001E20  EC44  F01B         	call	___lmul	;wreg free
  9968  001E24  501D               	movf	?___lmul,w,c
  9969  001E26  243A               	addwf	??_TimeEdit+4,w,c
  9970  001E28  6E3E               	movwf	(??_TimeEdit+8)& (0+255),c
  9971  001E2A  501E               	movf	?___lmul+1,w,c
  9972  001E2C  203B               	addwfc	??_TimeEdit+5,w,c
  9973  001E2E  6E3F               	movwf	(??_TimeEdit+9)& (0+255),c
  9974  001E30  501F               	movf	?___lmul+2,w,c
  9975  001E32  203C               	addwfc	??_TimeEdit+6,w,c
  9976  001E34  6E40               	movwf	(??_TimeEdit+10)& (0+255),c
  9977  001E36  5020               	movf	?___lmul+3,w,c
  9978  001E38  203D               	addwfc	??_TimeEdit+7,w,c
  9979  001E3A  6E41               	movwf	(??_TimeEdit+11)& (0+255),c
  9980  001E3C  0100               	movlb	0	; () banked
  9981  001E3E  519F               	movf	(TimeEdit@symb_array+9)& (0+255),w,b
  9982  001E40  D851               	call	PL4	;call to abstracted procedure
  9983  001E42  0D0A               	mullw	10
  9984  001E44  51A0               	movf	(TimeEdit@symb_array+10)& (0+255),w,b
  9985  001E46  D84E               	call	PL4	;call to abstracted procedure
  9986  001E48  D86D               	call	PL46	;call to abstracted procedure
  9987  001E4A  0E3C               	movlw	60
  9988  001E4C  D88A               	call	PL90	;call to abstracted procedure
  9989  001E4E  EC44  F01B         	call	___lmul	;wreg free
  9990  001E52  501D               	movf	?___lmul,w,c
  9991  001E54  243E               	addwf	??_TimeEdit+8,w,c
  9992  001E56  0100               	movlb	0	; () banked
  9993  001E58  6F90               	movwf	_TimeEdit$1984& (0+255),b
  9994  001E5A  501E               	movf	?___lmul+1,w,c
  9995  001E5C  203F               	addwfc	??_TimeEdit+9,w,c
  9996  001E5E  6F91               	movwf	(_TimeEdit$1984+1)& (0+255),b
  9997  001E60  501F               	movf	?___lmul+2,w,c
  9998  001E62  2040               	addwfc	??_TimeEdit+10,w,c
  9999  001E64  6F92               	movwf	(_TimeEdit$1984+2)& (0+255),b
 10000  001E66  5020               	movf	?___lmul+3,w,c
 10001  001E68  2041               	addwfc	??_TimeEdit+11,w,c
 10002  001E6A  6F93               	movwf	(_TimeEdit$1984+3)& (0+255),b
 10003                           
 10004                           ; BSR set to: 0
 10005                           ;prog.c: 823: Clock = ((long int)((*symb_array[6]).number - 1) * 86400
 10006                           ;prog.c: 824: + (long int)((*symb_array[7]).number * 10 + (*symb_array[8]).number) * 360
      +                          0
 10007                           ;prog.c: 825: + (long int)((*symb_array[9]).number * 10 + (*symb_array[10]).number) * 60
      +                          ) * 100;
 10008  001E6C  C090  F01D         	movff	_TimeEdit$1984,___lmul@multiplier
 10009  001E70  C091  F01E         	movff	_TimeEdit$1984+1,___lmul@multiplier+1
 10010  001E74  C092  F01F         	movff	_TimeEdit$1984+2,___lmul@multiplier+2
 10011  001E78  C093  F020         	movff	_TimeEdit$1984+3,___lmul@multiplier+3
 10012  001E7C  0E64               	movlw	100
 10013  001E7E  D871               	call	PL90	;call to abstracted procedure
 10014  001E80  EC44  F01B         	call	___lmul	;wreg free
 10015  001E84  C01D  F194         	movff	?___lmul,_Clock
 10016  001E88  C01E  F195         	movff	?___lmul+1,_Clock+1
 10017  001E8C  C01F  F196         	movff	?___lmul+2,_Clock+2
 10018  001E90  C020  F197         	movff	?___lmul+3,_Clock+3
 10019                           
 10020                           ;prog.c: 827: cDays = (*symb_array[0]).number * 10 + (*symb_array[1]).number;
 10021  001E94  0100               	movlb	0	; () banked
 10022  001E96  5197               	movf	(TimeEdit@symb_array+1)& (0+255),w,b
 10023  001E98  D825               	call	PL4	;call to abstracted procedure
 10024  001E9A  6E36               	movwf	??_TimeEdit& (0+255),c
 10025  001E9C  5196               	movf	TimeEdit@symb_array& (0+255),w,b
 10026  001E9E  D822               	call	PL4	;call to abstracted procedure
 10027  001EA0  0D0A               	mullw	10
 10028  001EA2  50F3               	movf	prodl,w,c
 10029  001EA4  2436               	addwf	??_TimeEdit,w,c
 10030  001EA6  6FF3               	movwf	_cDays& (0+255),b
 10031                           
 10032                           ; BSR set to: 0
 10033                           ;prog.c: 828: cMonths = (*symb_array[2]).number * 10 + (*symb_array[3]).number;
 10034  001EA8  5199               	movf	(TimeEdit@symb_array+3)& (0+255),w,b
 10035  001EAA  D81C               	call	PL4	;call to abstracted procedure
 10036  001EAC  6E36               	movwf	??_TimeEdit& (0+255),c
 10037  001EAE  5198               	movf	(TimeEdit@symb_array+2)& (0+255),w,b
 10038  001EB0  D819               	call	PL4	;call to abstracted procedure
 10039  001EB2  0D0A               	mullw	10
 10040  001EB4  50F3               	movf	prodl,w,c
 10041  001EB6  2436               	addwf	??_TimeEdit,w,c
 10042  001EB8  6FF4               	movwf	_cMonths& (0+255),b
 10043                           
 10044                           ; BSR set to: 0
 10045                           ;prog.c: 829: cYears = (*symb_array[4]).number * 10 + (*symb_array[5]).number;
 10046  001EBA  519B               	movf	(TimeEdit@symb_array+5)& (0+255),w,b
 10047  001EBC  D813               	call	PL4	;call to abstracted procedure
 10048  001EBE  6E36               	movwf	??_TimeEdit& (0+255),c
 10049  001EC0  519A               	movf	(TimeEdit@symb_array+4)& (0+255),w,b
 10050  001EC2  D810               	call	PL4	;call to abstracted procedure
 10051  001EC4  0D0A               	mullw	10
 10052  001EC6  50F3               	movf	prodl,w,c
 10053  001EC8  2436               	addwf	??_TimeEdit,w,c
 10054  001ECA  6FF5               	movwf	_cYears& (0+255),b
 10055  001ECC                     l6361:
 10056                           
 10057                           ; BSR set to: 0
 10058                           ;prog.c: 834: }while(0);
 10059                           ;prog.c: 836: if(t == 0){
 10060  001ECC  51A6               	movf	TimeEdit@t& (0+255),w,b
 10061  001ECE  E001 D6CB          	bnz	l6255
 10062                           
 10063                           ; BSR set to: 0
 10064                           ;prog.c: 837: clrInd();
 10065  001ED2  EFC3  F01A         	goto	_clrInd	;wreg free
 10066  001ED6                     l6365:
 10067                           
 10068                           ; BSR set to: 0
 10069  001ED6  0E2B               	movlw	43
 10070  001ED8  185B               	xorwf	_KeyCode,w,c	;volatile
 10071  001EDA  E001 D6C5          	bnz	l6255
 10072                           
 10073                           ; BSR set to: 0
 10074                           ;prog.c: 841: KeyCode = 0;
 10075  001EDE  6A5B               	clrf	_KeyCode,c	;volatile
 10076  001EE0  EFC3  F01A         	goto	_clrInd
 10077  001EE4                     __end_of_TimeEdit:
 10078                           	opt stack 0
 10079  001EE4                     PL4:
 10080                           	opt stack 22
 10081  001EE4  6ED9               	movwf	fsr2l,c
 10082  001EE6  6ADA               	clrf	fsr2h,c
 10083  001EE8  2AD9               	incf	fsr2l,f,c
 10084  001EEA  50DF               	movf	indf2,w,c
 10085  001EEC  0012               	return	
 10086  001EEE                     __end_ofPL4:
 10087                           	opt stack 0
 10088  001EEE                     PL22:
 10089                           	opt stack 22
 10090  001EEE  C0A2  F01D         	movff	TimeEdit@temp,___almod@dividend
 10091  001EF2  C0A3  F01E         	movff	TimeEdit@temp+1,___almod@dividend+1
 10092  001EF6  C0A4  F01F         	movff	TimeEdit@temp+2,___almod@dividend+2
 10093  001EFA  C0A5  F020         	movff	TimeEdit@temp+3,___almod@dividend+3
 10094  001EFE  0012               	return	
 10095  001F00                     __end_ofPL22:
 10096                           	opt stack 0
 10097  001F00                     PL36:
 10098                           	opt stack 22
 10099  001F00  C0A2  F01D         	movff	TimeEdit@temp,___aldiv@dividend
 10100  001F04  C0A3  F01E         	movff	TimeEdit@temp+1,___aldiv@dividend+1
 10101  001F08  C0A4  F01F         	movff	TimeEdit@temp+2,___aldiv@dividend+2
 10102  001F0C  C0A5  F020         	movff	TimeEdit@temp+3,___aldiv@dividend+3
 10103  001F10  0012               	return	
 10104  001F12                     __end_ofPL36:
 10105                           	opt stack 0
 10106  001F12                     PL40:
 10107                           	opt stack 22
 10108  001F12  C01D  F0A2         	movff	?___aldiv,TimeEdit@temp
 10109  001F16  C01E  F0A3         	movff	?___aldiv+1,TimeEdit@temp+1
 10110  001F1A  C01F  F0A4         	movff	?___aldiv+2,TimeEdit@temp+2
 10111  001F1E  C020  F0A5         	movff	?___aldiv+3,TimeEdit@temp+3
 10112  001F22  0012               	return	
 10113  001F24                     __end_ofPL40:
 10114                           	opt stack 0
 10115  001F24                     PL46:
 10116                           	opt stack 22
 10117  001F24  26F3               	addwf	prodl,f,c
 10118  001F26  0E00               	movlw	0
 10119  001F28  22F4               	addwfc	prodh,f,c
 10120  001F2A  CFF3 F01D          	movff	prodl,___lmul@multiplier
 10121  001F2E  CFF4 F01E          	movff	prodh,___lmul@multiplier+1
 10122  001F32  BE1E               	btfsc	___lmul@multiplier+1,7,c
 10123  001F34  0EFF               	movlw	-1
 10124  001F36  6E1F               	movwf	___lmul@multiplier+2,c
 10125  001F38  6E20               	movwf	___lmul@multiplier+3,c
 10126  001F3A  0012               	return	
 10127  001F3C                     __end_ofPL46:
 10128                           	opt stack 0
 10129  001F3C                     PL58:
 10130                           	opt stack 22
 10131  001F3C  0D0A               	mullw	10
 10132  001F3E  50F3               	movf	prodl,w,c
 10133  001F40  2436               	addwf	??_TimeEdit,w,c
 10134  001F42  6FA6               	movwf	TimeEdit@t& (0+255),b
 10135  001F44  0012               	return	
 10136  001F46                     __end_ofPL58:
 10137                           	opt stack 0
 10138  001F46                     PL80:
 10139                           	opt stack 22
 10140  001F46  C095  F036         	movff	TimeEdit@month,??_TimeEdit
 10141  001F4A  0636               	decf	??_TimeEdit,f,c
 10142  001F4C  5036               	movf	??_TimeEdit,w,c
 10143  001F4E  0F80               	addlw	low TimeEdit@MonthDays
 10144  001F50  0012               	return	
 10145  001F52                     __end_ofPL80:
 10146                           	opt stack 0
 10147  001F52                     PL88:
 10148                           	opt stack 21
 10149  001F52  0E80               	movlw	128
 10150  001F54  6E21               	movwf	___lmul@multiplicand,c
 10151  001F56  0E51               	movlw	81
 10152  001F58  6E22               	movwf	___lmul@multiplicand+1,c
 10153  001F5A  0E01               	movlw	1
 10154  001F5C  6E23               	movwf	___lmul@multiplicand+2,c
 10155  001F5E  6A24               	clrf	___lmul@multiplicand+3,c
 10156  001F60  0C01               	retlw	1
 10157  001F62                     __end_ofPL88:
 10158                           	opt stack 0
 10159  001F62                     PL90:
 10160                           	opt stack 21
 10161  001F62  6E21               	movwf	___lmul@multiplicand,c
 10162  001F64  6A22               	clrf	___lmul@multiplicand+1,c
 10163  001F66  6A23               	clrf	___lmul@multiplicand+2,c
 10164  001F68  6A24               	clrf	___lmul@multiplicand+3,c
 10165  001F6A  0012               	return	
 10166  001F6C                     __end_ofPL90:
 10167                           	opt stack 0
 10168  001F6C                     PL92:
 10169                           	opt stack 22
 10170  001F6C  51A1               	movf	TimeEdit@blinking& (0+255),w,b
 10171  001F6E  0F96               	addlw	low TimeEdit@symb_array
 10172  001F70  6ED9               	movwf	fsr2l,c
 10173  001F72  6ADA               	clrf	fsr2h,c
 10174  001F74  50DF               	movf	indf2,w,c
 10175  001F76  6ED9               	movwf	fsr2l,c
 10176  001F78  6ADA               	clrf	fsr2h,c
 10177  001F7A  0012               	return	
 10178  001F7C                     __end_ofPL92:
 10179                           	opt stack 0
 10180  001F7C                     PL110:
 10181                           	opt stack 23
 10182  001F7C  0E70               	movlw	112
 10183  001F7E  6E21               	movwf	___aldiv@divisor,c
 10184  001F80  0E17               	movlw	23
 10185  001F82  6E22               	movwf	___aldiv@divisor+1,c
 10186  001F84  6A23               	clrf	___aldiv@divisor+2,c
 10187  001F86  6A24               	clrf	___aldiv@divisor+3,c
 10188  001F88  0C17               	retlw	23
 10189  001F8A                     __end_ofPL110:
 10190                           	opt stack 0
 10191  001F8A                     PL142:
 10192                           	opt stack 22
 10193  001F8A  6ED9               	movwf	fsr2l,c
 10194  001F8C  6ADA               	clrf	fsr2h,c
 10195  001F8E  2AD9               	incf	fsr2l,f,c
 10196  001F90  0C0A               	retlw	10
 10197  001F92                     __end_ofPL142:
 10198                           	opt stack 0
 10199  001F92                     PL156:
 10200                           	opt stack 22
 10201  001F92  6EE1               	movwf	fsr1l,c
 10202  001F94  6AE2               	clrf	fsr1h,c
 10203  001F96  50E7               	movf	indf1,w,c
 10204  001F98  0012               	return	
 10205  001F9A                     __end_ofPL156:
 10206                           	opt stack 0
 10207                           tblptru	equ	0xFF8
 10208                           tblptrh	equ	0xFF7
 10209                           tblptrl	equ	0xFF6
 10210                           tablat	equ	0xFF5
 10211                           prodh	equ	0xFF4
 10212                           prodl	equ	0xFF3
 10213                           intcon	equ	0xFF2
 10214                           intcon2	equ	0xFF1
 10215                           intcon3	equ	0xFF0
 10216                           postinc0	equ	0xFEE
 10217                           wreg	equ	0xFE8
 10218                           indf1	equ	0xFE7
 10219                           postdec1	equ	0xFE5
 10220                           plusw1	equ	0xFE3
 10221                           fsr1h	equ	0xFE2
 10222                           fsr1l	equ	0xFE1
 10223                           indf2	equ	0xFDF
 10224                           postinc2	equ	0xFDE
 10225                           postdec2	equ	0xFDD
 10226                           plusw2	equ	0xFDB
 10227                           fsr2h	equ	0xFDA
 10228                           fsr2l	equ	0xFD9
 10229                           status	equ	0xFD8
 10230                           
 10231 ;; *************** function _entNum *****************
 10232 ;; Defined at:
 10233 ;;		line 407 in file "prog.c"
 10234 ;; Parameters:    Size  Location     Type
 10235 ;;  borderDown      1    wreg     unsigned char 
 10236 ;;  borderUp        1   28[COMRAM] unsigned char 
 10237 ;; Auto vars:     Size  Location     Type
 10238 ;;  borderDown      1   29[COMRAM] unsigned char 
 10239 ;;  KeyValue        1   30[COMRAM] unsigned char 
 10240 ;; Return value:  Size  Location     Type
 10241 ;;                  1    wreg      unsigned char 
 10242 ;; Registers used:
 10243 ;;		wreg, status,2, status,0
 10244 ;; Tracked objects:
 10245 ;;		On entry : 0/0
 10246 ;;		On exit  : 0/0
 10247 ;;		Unchanged: 0/0
 10248 ;; Data sizes:     COMRAM   BANK0   BANK1   BANK2   BANK3   BANK4   BANK5   BANK6   BANK7   BANK8   BANK9  BANK10  BANK1
      +1  BANK12  BANK13  BANK14  BANK15
 10249 ;;      Params:         1       0       0       0       0       0       0       0       0       0       0       0       
      +0       0       0       0       0
 10250 ;;      Locals:         2       0       0       0       0       0       0       0       0       0       0       0       
      +0       0       0       0       0
 10251 ;;      Temps:          0       0       0       0       0       0       0       0       0       0       0       0       
      +0       0       0       0       0
 10252 ;;      Totals:         3       0       0       0       0       0       0       0       0       0       0       0       
      +0       0       0       0       0
 10253 ;;Total ram usage:        3 bytes
 10254 ;; Hardware stack levels used:    1
 10255 ;; Hardware stack levels required when called:    4
 10256 ;; This function calls:
 10257 ;;		Nothing
 10258 ;; This function is called by:
 10259 ;;		_TimeEdit
 10260 ;;		_EditSchedule
 10261 ;; This function uses a non-reentrant model
 10262 ;;
 10263                           
 10264                           	psect	text38
 10265  003A78                     __ptext38:
 10266                           	opt stack 0
 10267  003A78                     _entNum:
 10268                           	opt stack 21
 10269                           
 10270                           ; BSR set to: 1
 10271                           ;incstack = 0
 10272                           ;entNum@borderDown stored from wreg
 10273  003A78  6E1E               	movwf	entNum@borderDown,c
 10274                           
 10275                           ;prog.c: 408: if (KeyCode >= 30 && KeyCode <= 39) {
 10276  003A7A  0E1D               	movlw	29
 10277  003A7C  645B               	cpfsgt	_KeyCode,c	;volatile
 10278  003A7E  0CFF               	retlw	255
 10279  003A80  0E28               	movlw	40
 10280  003A82  605B               	cpfslt	_KeyCode,c	;volatile
 10281  003A84  0CFF               	retlw	255
 10282                           
 10283                           ;prog.c: 409: char KeyValue = KeyCode - 30;
 10284  003A86  505B               	movf	_KeyCode,w,c	;volatile
 10285  003A88  0FE2               	addlw	226
 10286  003A8A  6E1F               	movwf	entNum@KeyValue,c
 10287                           
 10288                           ;prog.c: 410: if (borderDown <= KeyValue && borderUp >= KeyValue) {
 10289  003A8C  501E               	movf	entNum@borderDown,w,c
 10290  003A8E  5C1F               	subwf	entNum@KeyValue,w,c
 10291  003A90  E306               	bnc	l4877
 10292  003A92  501F               	movf	entNum@KeyValue,w,c
 10293  003A94  5C1D               	subwf	entNum@borderUp,w,c
 10294  003A96  E303               	bnc	l4877
 10295                           
 10296                           ;prog.c: 411: KeyCode = 0;
 10297  003A98  6A5B               	clrf	_KeyCode,c	;volatile
 10298                           
 10299                           ;prog.c: 412: return (unsigned char) KeyValue;
 10300  003A9A  501F               	movf	entNum@KeyValue,w,c
 10301  003A9C  0012               	return	
 10302  003A9E                     l4877:
 10303  003A9E  0CFF               	retlw	255	;funcret
 10304  003AA0                     __end_of_entNum:
 10305                           	opt stack 0
 10306                           tblptru	equ	0xFF8
 10307                           tblptrh	equ	0xFF7
 10308                           tblptrl	equ	0xFF6
 10309                           tablat	equ	0xFF5
 10310                           prodh	equ	0xFF4
 10311                           prodl	equ	0xFF3
 10312                           intcon	equ	0xFF2
 10313                           intcon2	equ	0xFF1
 10314                           intcon3	equ	0xFF0
 10315                           postinc0	equ	0xFEE
 10316                           wreg	equ	0xFE8
 10317                           indf1	equ	0xFE7
 10318                           postdec1	equ	0xFE5
 10319                           plusw1	equ	0xFE3
 10320                           fsr1h	equ	0xFE2
 10321                           fsr1l	equ	0xFE1
 10322                           indf2	equ	0xFDF
 10323                           postinc2	equ	0xFDE
 10324                           postdec2	equ	0xFDD
 10325                           plusw2	equ	0xFDB
 10326                           fsr2h	equ	0xFDA
 10327                           fsr2l	equ	0xFD9
 10328                           status	equ	0xFD8
 10329                           
 10330 ;; *************** function _clrInd *****************
 10331 ;; Defined at:
 10332 ;;		line 225 in file "prog.c"
 10333 ;; Parameters:    Size  Location     Type
 10334 ;;		None
 10335 ;; Auto vars:     Size  Location     Type
 10336 ;;  symb            1   31[COMRAM] unsigned char 
 10337 ;;  line            1   30[COMRAM] unsigned char 
 10338 ;; Return value:  Size  Location     Type
 10339 ;;                  1    wreg      void 
 10340 ;; Registers used:
 10341 ;;		wreg, fsr2l, fsr2h, status,2, status,0, prodl, prodh
 10342 ;; Tracked objects:
 10343 ;;		On entry : 0/0
 10344 ;;		On exit  : F/1
 10345 ;;		Unchanged: 0/0
 10346 ;; Data sizes:     COMRAM   BANK0   BANK1   BANK2   BANK3   BANK4   BANK5   BANK6   BANK7   BANK8   BANK9  BANK10  BANK1
      +1  BANK12  BANK13  BANK14  BANK15
 10347 ;;      Params:         0       0       0       0       0       0       0       0       0       0       0       0       
      +0       0       0       0       0
 10348 ;;      Locals:         2       0       0       0       0       0       0       0       0       0       0       0       
      +0       0       0       0       0
 10349 ;;      Temps:          2       0       0       0       0       0       0       0       0       0       0       0       
      +0       0       0       0       0
 10350 ;;      Totals:         4       0       0       0       0       0       0       0       0       0       0       0       
      +0       0       0       0       0
 10351 ;;Total ram usage:        4 bytes
 10352 ;; Hardware stack levels used:    1
 10353 ;; Hardware stack levels required when called:    4
 10354 ;; This function calls:
 10355 ;;		Nothing
 10356 ;; This function is called by:
 10357 ;;		_TimeToInd
 10358 ;;		_TimeEdit
 10359 ;;		_EditSchedule
 10360 ;;		_Scheduler
 10361 ;;		_SchedulerNew
 10362 ;;		_main
 10363 ;;		_main2
 10364 ;; This function uses a non-reentrant model
 10365 ;;
 10366                           
 10367                           	psect	text39
 10368  003586                     __ptext39:
 10369                           	opt stack 0
 10370  003586                     _clrInd:
 10371                           	opt stack 25
 10372                           
 10373                           ;prog.c: 226: for (char line = 0; line < 2; line++) {
 10374                           
 10375                           ;incstack = 0
 10376  003586  6A1F               	clrf	clrInd@line,c
 10377  003588                     l212:
 10378                           
 10379                           ;prog.c: 227: for (char symb = 0; symb < 16; symb++) {
 10380  003588  6A20               	clrf	clrInd@symb,c
 10381  00358A                     l4851:
 10382                           
 10383                           ;prog.c: 228: digits[line][symb] = ' ';
 10384  00358A  501F               	movf	clrInd@line,w,c
 10385  00358C  0D10               	mullw	16
 10386  00358E  0E54               	movlw	low _digits
 10387  003590  6E1D               	movwf	??_clrInd& (0+255),c
 10388  003592  0E01               	movlw	high _digits
 10389  003594  D813               	call	PL20	;call to abstracted procedure
 10390  003596  0E20               	movlw	32
 10391  003598  6EDF               	movwf	indf2,c
 10392                           
 10393                           ;prog.c: 229: digitsAtrib[line][symb].blink = 0;
 10394  00359A  D81C               	call	PL26	;call to abstracted procedure
 10395  00359C  D80F               	call	PL20	;call to abstracted procedure
 10396  00359E  0101               	movlb	1	; () banked
 10397  0035A0  90DF               	bcf	indf2,0,c
 10398                           
 10399                           ;prog.c: 230: digitsAtrib[line][symb].modifided = 1;
 10400  0035A2  D818               	call	PL26	;call to abstracted procedure
 10401  0035A4  D80B               	call	PL20	;call to abstracted procedure
 10402  0035A6  82DF               	bsf	indf2,1,c
 10403                           
 10404                           ; BSR set to: 1
 10405  0035A8  2A20               	incf	clrInd@symb,f,c
 10406                           
 10407                           ; BSR set to: 1
 10408  0035AA  0E0F               	movlw	15
 10409  0035AC  6420               	cpfsgt	clrInd@symb,c
 10410  0035AE  D7ED               	goto	l4851
 10411                           
 10412                           ; BSR set to: 1
 10413  0035B0  2A1F               	incf	clrInd@line,f,c
 10414                           
 10415                           ; BSR set to: 1
 10416  0035B2  0E01               	movlw	1
 10417  0035B4  641F               	cpfsgt	clrInd@line,c
 10418  0035B6  D7E8               	goto	l212
 10419                           
 10420                           ; BSR set to: 1
 10421                           ;prog.c: 231: }
 10422                           ;prog.c: 232: }
 10423                           ;prog.c: 233: flags.IsLCDModified = 1;
 10424  0035B8  8058               	bsf	_flags+1,0,c
 10425                           
 10426                           ; BSR set to: 1
 10427  0035BA  0C01               	retlw	1	;funcret
 10428  0035BC                     __end_of_clrInd:
 10429                           	opt stack 0
 10430  0035BC                     PL20:
 10431                           	opt stack 25
 10432  0035BC  6E1E               	movwf	(??_clrInd+1)& (0+255),c
 10433  0035BE  50F3               	movf	prodl,w,c
 10434  0035C0  261D               	addwf	??_clrInd,f,c
 10435  0035C2  50F4               	movf	prodh,w,c
 10436  0035C4  221E               	addwfc	??_clrInd+1,f,c
 10437  0035C6  5020               	movf	clrInd@symb,w,c
 10438  0035C8  241D               	addwf	??_clrInd,w,c
 10439  0035CA  6ED9               	movwf	fsr2l,c
 10440  0035CC  0E00               	movlw	0
 10441  0035CE  201E               	addwfc	??_clrInd+1,w,c
 10442  0035D0  6EDA               	movwf	fsr2h,c
 10443  0035D2  0012               	return	
 10444  0035D4                     __end_ofPL20:
 10445                           	opt stack 0
 10446  0035D4                     PL26:
 10447                           	opt stack 25
 10448  0035D4  501F               	movf	clrInd@line,w,c
 10449  0035D6  0D10               	mullw	16
 10450  0035D8  0E74               	movlw	low _digitsAtrib
 10451  0035DA  6E1D               	movwf	??_clrInd& (0+255),c
 10452  0035DC  0E01               	movlw	high _digitsAtrib
 10453  0035DE  0012               	return	
 10454  0035E0                     __end_ofPL26:
 10455                           	opt stack 0
 10456                           tblptru	equ	0xFF8
 10457                           tblptrh	equ	0xFF7
 10458                           tblptrl	equ	0xFF6
 10459                           tablat	equ	0xFF5
 10460                           prodh	equ	0xFF4
 10461                           prodl	equ	0xFF3
 10462                           intcon	equ	0xFF2
 10463                           intcon2	equ	0xFF1
 10464                           intcon3	equ	0xFF0
 10465                           postinc0	equ	0xFEE
 10466                           wreg	equ	0xFE8
 10467                           indf1	equ	0xFE7
 10468                           postdec1	equ	0xFE5
 10469                           plusw1	equ	0xFE3
 10470                           fsr1h	equ	0xFE2
 10471                           fsr1l	equ	0xFE1
 10472                           indf2	equ	0xFDF
 10473                           postinc2	equ	0xFDE
 10474                           postdec2	equ	0xFDD
 10475                           plusw2	equ	0xFDB
 10476                           fsr2h	equ	0xFDA
 10477                           fsr2l	equ	0xFD9
 10478                           status	equ	0xFD8
 10479                           
 10480 ;; *************** function ___lmul *****************
 10481 ;; Defined at:
 10482 ;;		line 15 in file "/opt/microchip/xc8/v1.37/sources/common/Umul32.c"
 10483 ;; Parameters:    Size  Location     Type
 10484 ;;  multiplier      4   28[COMRAM] unsigned long 
 10485 ;;  multiplicand    4   32[COMRAM] unsigned long 
 10486 ;; Auto vars:     Size  Location     Type
 10487 ;;  product         4   36[COMRAM] unsigned long 
 10488 ;; Return value:  Size  Location     Type
 10489 ;;                  4   28[COMRAM] unsigned long 
 10490 ;; Registers used:
 10491 ;;		wreg, status,2, status,0
 10492 ;; Tracked objects:
 10493 ;;		On entry : 0/0
 10494 ;;		On exit  : 0/0
 10495 ;;		Unchanged: 0/0
 10496 ;; Data sizes:     COMRAM   BANK0   BANK1   BANK2   BANK3   BANK4   BANK5   BANK6   BANK7   BANK8   BANK9  BANK10  BANK1
      +1  BANK12  BANK13  BANK14  BANK15
 10497 ;;      Params:         8       0       0       0       0       0       0       0       0       0       0       0       
      +0       0       0       0       0
 10498 ;;      Locals:         4       0       0       0       0       0       0       0       0       0       0       0       
      +0       0       0       0       0
 10499 ;;      Temps:          0       0       0       0       0       0       0       0       0       0       0       0       
      +0       0       0       0       0
 10500 ;;      Totals:        12       0       0       0       0       0       0       0       0       0       0       0       
      +0       0       0       0       0
 10501 ;;Total ram usage:       12 bytes
 10502 ;; Hardware stack levels used:    1
 10503 ;; Hardware stack levels required when called:    4
 10504 ;; This function calls:
 10505 ;;		Nothing
 10506 ;; This function is called by:
 10507 ;;		_TimeEdit
 10508 ;;		_FindNextTimeStart
 10509 ;;		_main
 10510 ;; This function uses a non-reentrant model
 10511 ;;
 10512                           
 10513                           	psect	text40
 10514  003688                     __ptext40:
 10515                           	opt stack 0
 10516  003688                     ___lmul:
 10517                           	opt stack 23
 10518                           
 10519                           ; BSR set to: 1
 10520                           ;incstack = 0
 10521  003688  6A25               	clrf	___lmul@product,c
 10522  00368A  6A26               	clrf	___lmul@product+1,c
 10523  00368C  6A27               	clrf	___lmul@product+2,c
 10524  00368E  6A28               	clrf	___lmul@product+3,c
 10525  003690                     l1133:
 10526  003690  A01D               	btfss	___lmul@multiplier,0,c
 10527  003692  D008               	goto	l5541
 10528  003694  5021               	movf	___lmul@multiplicand,w,c
 10529  003696  2625               	addwf	___lmul@product,f,c
 10530  003698  5022               	movf	___lmul@multiplicand+1,w,c
 10531  00369A  2226               	addwfc	___lmul@product+1,f,c
 10532  00369C  5023               	movf	___lmul@multiplicand+2,w,c
 10533  00369E  2227               	addwfc	___lmul@product+2,f,c
 10534  0036A0  5024               	movf	___lmul@multiplicand+3,w,c
 10535  0036A2  2228               	addwfc	___lmul@product+3,f,c
 10536  0036A4                     l5541:
 10537  0036A4  90D8               	bcf	status,0,c
 10538  0036A6  3621               	rlcf	___lmul@multiplicand,f,c
 10539  0036A8  3622               	rlcf	___lmul@multiplicand+1,f,c
 10540  0036AA  3623               	rlcf	___lmul@multiplicand+2,f,c
 10541  0036AC  3624               	rlcf	___lmul@multiplicand+3,f,c
 10542  0036AE  90D8               	bcf	status,0,c
 10543  0036B0  3220               	rrcf	___lmul@multiplier+3,f,c
 10544  0036B2  321F               	rrcf	___lmul@multiplier+2,f,c
 10545  0036B4  321E               	rrcf	___lmul@multiplier+1,f,c
 10546  0036B6  321D               	rrcf	___lmul@multiplier,f,c
 10547  0036B8  501D               	movf	___lmul@multiplier,w,c
 10548  0036BA  101E               	iorwf	___lmul@multiplier+1,w,c
 10549  0036BC  101F               	iorwf	___lmul@multiplier+2,w,c
 10550  0036BE  1020               	iorwf	___lmul@multiplier+3,w,c
 10551  0036C0  E1E7               	bnz	l1133
 10552  0036C2  C025  F01D         	movff	___lmul@product,?___lmul
 10553  0036C6  C026  F01E         	movff	___lmul@product+1,?___lmul+1
 10554  0036CA  C027  F01F         	movff	___lmul@product+2,?___lmul+2
 10555  0036CE  C028  F020         	movff	___lmul@product+3,?___lmul+3
 10556  0036D2  0012               	return		;funcret
 10557  0036D4                     __end_of___lmul:
 10558                           	opt stack 0
 10559                           tblptru	equ	0xFF8
 10560                           tblptrh	equ	0xFF7
 10561                           tblptrl	equ	0xFF6
 10562                           tablat	equ	0xFF5
 10563                           prodh	equ	0xFF4
 10564                           prodl	equ	0xFF3
 10565                           intcon	equ	0xFF2
 10566                           intcon2	equ	0xFF1
 10567                           intcon3	equ	0xFF0
 10568                           postinc0	equ	0xFEE
 10569                           wreg	equ	0xFE8
 10570                           indf1	equ	0xFE7
 10571                           postdec1	equ	0xFE5
 10572                           plusw1	equ	0xFE3
 10573                           fsr1h	equ	0xFE2
 10574                           fsr1l	equ	0xFE1
 10575                           indf2	equ	0xFDF
 10576                           postinc2	equ	0xFDE
 10577                           postdec2	equ	0xFDD
 10578                           plusw2	equ	0xFDB
 10579                           fsr2h	equ	0xFDA
 10580                           fsr2l	equ	0xFD9
 10581                           status	equ	0xFD8
 10582                           
 10583 ;; *************** function ___lbmod *****************
 10584 ;; Defined at:
 10585 ;;		line 4 in file "/opt/microchip/xc8/v1.37/sources/common/lbmod.c"
 10586 ;; Parameters:    Size  Location     Type
 10587 ;;  dividend        1    wreg     unsigned char 
 10588 ;;  divisor         1   28[COMRAM] unsigned char 
 10589 ;; Auto vars:     Size  Location     Type
 10590 ;;  dividend        1   29[COMRAM] unsigned char 
 10591 ;;  rem             1   31[COMRAM] unsigned char 
 10592 ;;  counter         1   30[COMRAM] unsigned char 
 10593 ;; Return value:  Size  Location     Type
 10594 ;;                  1    wreg      unsigned char 
 10595 ;; Registers used:
 10596 ;;		wreg, status,2, status,0
 10597 ;; Tracked objects:
 10598 ;;		On entry : E/1
 10599 ;;		On exit  : 0/0
 10600 ;;		Unchanged: 0/0
 10601 ;; Data sizes:     COMRAM   BANK0   BANK1   BANK2   BANK3   BANK4   BANK5   BANK6   BANK7   BANK8   BANK9  BANK10  BANK1
      +1  BANK12  BANK13  BANK14  BANK15
 10602 ;;      Params:         1       0       0       0       0       0       0       0       0       0       0       0       
      +0       0       0       0       0
 10603 ;;      Locals:         3       0       0       0       0       0       0       0       0       0       0       0       
      +0       0       0       0       0
 10604 ;;      Temps:          0       0       0       0       0       0       0       0       0       0       0       0       
      +0       0       0       0       0
 10605 ;;      Totals:         4       0       0       0       0       0       0       0       0       0       0       0       
      +0       0       0       0       0
 10606 ;;Total ram usage:        4 bytes
 10607 ;; Hardware stack levels used:    1
 10608 ;; Hardware stack levels required when called:    4
 10609 ;; This function calls:
 10610 ;;		Nothing
 10611 ;; This function is called by:
 10612 ;;		_TimeToInd
 10613 ;;		_TimeEdit
 10614 ;; This function uses a non-reentrant model
 10615 ;;
 10616                           
 10617                           	psect	text41
 10618  003AEC                     __ptext41:
 10619                           	opt stack 0
 10620  003AEC                     ___lbmod:
 10621                           	opt stack 24
 10622                           
 10623                           ;incstack = 0
 10624                           ;___lbmod@dividend stored from wreg
 10625  003AEC  6E1E               	movwf	___lbmod@dividend,c
 10626  003AEE  0E08               	movlw	8
 10627  003AF0  6E1F               	movwf	___lbmod@counter,c
 10628  003AF2  6A20               	clrf	___lbmod@rem,c
 10629  003AF4                     l5975:
 10630  003AF4  90D8               	bcf	status,0,c
 10631  003AF6  341E               	rlcf	___lbmod@dividend,w,c
 10632  003AF8  3420               	rlcf	___lbmod@rem,w,c
 10633  003AFA  6E20               	movwf	___lbmod@rem,c
 10634  003AFC  90D8               	bcf	status,0,c
 10635  003AFE  361E               	rlcf	___lbmod@dividend,f,c
 10636  003B00  501D               	movf	___lbmod@divisor,w,c
 10637  003B02  5C20               	subwf	___lbmod@rem,w,c
 10638  003B04  E302               	bnc	l5983
 10639  003B06  501D               	movf	___lbmod@divisor,w,c
 10640  003B08  5E20               	subwf	___lbmod@rem,f,c
 10641  003B0A                     l5983:
 10642  003B0A  2E1F               	decfsz	___lbmod@counter,f,c
 10643  003B0C  D7F3               	goto	l5975
 10644  003B0E  5020               	movf	___lbmod@rem,w,c
 10645  003B10  0012               	return		;funcret
 10646  003B12                     __end_of___lbmod:
 10647                           	opt stack 0
 10648                           tblptru	equ	0xFF8
 10649                           tblptrh	equ	0xFF7
 10650                           tblptrl	equ	0xFF6
 10651                           tablat	equ	0xFF5
 10652                           prodh	equ	0xFF4
 10653                           prodl	equ	0xFF3
 10654                           intcon	equ	0xFF2
 10655                           intcon2	equ	0xFF1
 10656                           intcon3	equ	0xFF0
 10657                           postinc0	equ	0xFEE
 10658                           wreg	equ	0xFE8
 10659                           indf1	equ	0xFE7
 10660                           postdec1	equ	0xFE5
 10661                           plusw1	equ	0xFE3
 10662                           fsr1h	equ	0xFE2
 10663                           fsr1l	equ	0xFE1
 10664                           indf2	equ	0xFDF
 10665                           postinc2	equ	0xFDE
 10666                           postdec2	equ	0xFDD
 10667                           plusw2	equ	0xFDB
 10668                           fsr2h	equ	0xFDA
 10669                           fsr2l	equ	0xFD9
 10670                           status	equ	0xFD8
 10671                           
 10672 ;; *************** function ___lbdiv *****************
 10673 ;; Defined at:
 10674 ;;		line 4 in file "/opt/microchip/xc8/v1.37/sources/common/lbdiv.c"
 10675 ;; Parameters:    Size  Location     Type
 10676 ;;  dividend        1    wreg     unsigned char 
 10677 ;;  divisor         1   28[COMRAM] unsigned char 
 10678 ;; Auto vars:     Size  Location     Type
 10679 ;;  dividend        1   29[COMRAM] unsigned char 
 10680 ;;  quotient        1   31[COMRAM] unsigned char 
 10681 ;;  counter         1   30[COMRAM] unsigned char 
 10682 ;; Return value:  Size  Location     Type
 10683 ;;                  1    wreg      unsigned char 
 10684 ;; Registers used:
 10685 ;;		wreg, status,2, status,0
 10686 ;; Tracked objects:
 10687 ;;		On entry : E/1
 10688 ;;		On exit  : 0/0
 10689 ;;		Unchanged: 0/0
 10690 ;; Data sizes:     COMRAM   BANK0   BANK1   BANK2   BANK3   BANK4   BANK5   BANK6   BANK7   BANK8   BANK9  BANK10  BANK1
      +1  BANK12  BANK13  BANK14  BANK15
 10691 ;;      Params:         1       0       0       0       0       0       0       0       0       0       0       0       
      +0       0       0       0       0
 10692 ;;      Locals:         3       0       0       0       0       0       0       0       0       0       0       0       
      +0       0       0       0       0
 10693 ;;      Temps:          0       0       0       0       0       0       0       0       0       0       0       0       
      +0       0       0       0       0
 10694 ;;      Totals:         4       0       0       0       0       0       0       0       0       0       0       0       
      +0       0       0       0       0
 10695 ;;Total ram usage:        4 bytes
 10696 ;; Hardware stack levels used:    1
 10697 ;; Hardware stack levels required when called:    4
 10698 ;; This function calls:
 10699 ;;		Nothing
 10700 ;; This function is called by:
 10701 ;;		_TimeToInd
 10702 ;;		_TimeEdit
 10703 ;; This function uses a non-reentrant model
 10704 ;;
 10705                           
 10706                           	psect	text42
 10707  0039C4                     __ptext42:
 10708                           	opt stack 0
 10709  0039C4                     ___lbdiv:
 10710                           	opt stack 24
 10711                           
 10712                           ;incstack = 0
 10713                           ;___lbdiv@dividend stored from wreg
 10714  0039C4  6E1E               	movwf	___lbdiv@dividend,c
 10715  0039C6  6A20               	clrf	___lbdiv@quotient,c
 10716  0039C8  501D               	movf	___lbdiv@divisor,w,c
 10717  0039CA  E014               	bz	l5967
 10718  0039CC  0E01               	movlw	1
 10719  0039CE  6E1F               	movwf	___lbdiv@counter,c
 10720  0039D0  D003               	goto	l5955
 10721  0039D2                     l5951:
 10722  0039D2  90D8               	bcf	status,0,c
 10723  0039D4  361D               	rlcf	___lbdiv@divisor,f,c
 10724  0039D6  2A1F               	incf	___lbdiv@counter,f,c
 10725  0039D8                     l5955:
 10726  0039D8  AE1D               	btfss	___lbdiv@divisor,7,c
 10727  0039DA  D7FB               	goto	l5951
 10728  0039DC                     l5957:
 10729  0039DC  90D8               	bcf	status,0,c
 10730  0039DE  3620               	rlcf	___lbdiv@quotient,f,c
 10731  0039E0  501D               	movf	___lbdiv@divisor,w,c
 10732  0039E2  5C1E               	subwf	___lbdiv@dividend,w,c
 10733  0039E4  E303               	bnc	l5963
 10734  0039E6  501D               	movf	___lbdiv@divisor,w,c
 10735  0039E8  5E1E               	subwf	___lbdiv@dividend,f,c
 10736  0039EA  8020               	bsf	___lbdiv@quotient,0,c
 10737  0039EC                     l5963:
 10738  0039EC  90D8               	bcf	status,0,c
 10739  0039EE  321D               	rrcf	___lbdiv@divisor,f,c
 10740  0039F0  2E1F               	decfsz	___lbdiv@counter,f,c
 10741  0039F2  D7F4               	goto	l5957
 10742  0039F4                     l5967:
 10743  0039F4  5020               	movf	___lbdiv@quotient,w,c
 10744  0039F6  0012               	return		;funcret
 10745  0039F8                     __end_of___lbdiv:
 10746                           	opt stack 0
 10747                           tblptru	equ	0xFF8
 10748                           tblptrh	equ	0xFF7
 10749                           tblptrl	equ	0xFF6
 10750                           tablat	equ	0xFF5
 10751                           prodh	equ	0xFF4
 10752                           prodl	equ	0xFF3
 10753                           intcon	equ	0xFF2
 10754                           intcon2	equ	0xFF1
 10755                           intcon3	equ	0xFF0
 10756                           postinc0	equ	0xFEE
 10757                           wreg	equ	0xFE8
 10758                           indf1	equ	0xFE7
 10759                           postdec1	equ	0xFE5
 10760                           plusw1	equ	0xFE3
 10761                           fsr1h	equ	0xFE2
 10762                           fsr1l	equ	0xFE1
 10763                           indf2	equ	0xFDF
 10764                           postinc2	equ	0xFDE
 10765                           postdec2	equ	0xFDD
 10766                           plusw2	equ	0xFDB
 10767                           fsr2h	equ	0xFDA
 10768                           fsr2l	equ	0xFD9
 10769                           status	equ	0xFD8
 10770                           
 10771 ;; *************** function ___almod *****************
 10772 ;; Defined at:
 10773 ;;		line 8 in file "/opt/microchip/xc8/v1.37/sources/common/almod.c"
 10774 ;; Parameters:    Size  Location     Type
 10775 ;;  dividend        4   28[COMRAM] long 
 10776 ;;  divisor         4   32[COMRAM] long 
 10777 ;; Auto vars:     Size  Location     Type
 10778 ;;  sign            1   37[COMRAM] unsigned char 
 10779 ;;  counter         1   36[COMRAM] unsigned char 
 10780 ;; Return value:  Size  Location     Type
 10781 ;;                  4   28[COMRAM] long 
 10782 ;; Registers used:
 10783 ;;		wreg, status,2, status,0
 10784 ;; Tracked objects:
 10785 ;;		On entry : 0/1
 10786 ;;		On exit  : 0/0
 10787 ;;		Unchanged: 0/0
 10788 ;; Data sizes:     COMRAM   BANK0   BANK1   BANK2   BANK3   BANK4   BANK5   BANK6   BANK7   BANK8   BANK9  BANK10  BANK1
      +1  BANK12  BANK13  BANK14  BANK15
 10789 ;;      Params:         8       0       0       0       0       0       0       0       0       0       0       0       
      +0       0       0       0       0
 10790 ;;      Locals:         2       0       0       0       0       0       0       0       0       0       0       0       
      +0       0       0       0       0
 10791 ;;      Temps:          0       0       0       0       0       0       0       0       0       0       0       0       
      +0       0       0       0       0
 10792 ;;      Totals:        10       0       0       0       0       0       0       0       0       0       0       0       
      +0       0       0       0       0
 10793 ;;Total ram usage:       10 bytes
 10794 ;; Hardware stack levels used:    1
 10795 ;; Hardware stack levels required when called:    4
 10796 ;; This function calls:
 10797 ;;		Nothing
 10798 ;; This function is called by:
 10799 ;;		_TimeToInd
 10800 ;;		_TimeEdit
 10801 ;; This function uses a non-reentrant model
 10802 ;;
 10803                           
 10804                           	psect	text43
 10805  002EC0                     __ptext43:
 10806                           	opt stack 0
 10807  002EC0                     ___almod:
 10808                           	opt stack 24
 10809                           
 10810                           ;incstack = 0
 10811  002EC0  6A26               	clrf	___almod@sign,c
 10812  002EC2  AE20               	btfss	___almod@dividend+3,7,c
 10813  002EC4  D003               	goto	l5917
 10814  002EC6  D840               	call	PL60	;call to abstracted procedure
 10815  002EC8  0E01               	movlw	1
 10816  002ECA  6E26               	movwf	___almod@sign,c
 10817  002ECC                     l5917:
 10818  002ECC  AE24               	btfss	___almod@divisor+3,7,c
 10819  002ECE  D008               	goto	l5921
 10820  002ED0  1E24               	comf	___almod@divisor+3,f,c
 10821  002ED2  1E23               	comf	___almod@divisor+2,f,c
 10822  002ED4  1E22               	comf	___almod@divisor+1,f,c
 10823  002ED6  6C21               	negf	___almod@divisor,c
 10824  002ED8  0E00               	movlw	0
 10825  002EDA  2222               	addwfc	___almod@divisor+1,f,c
 10826  002EDC  2223               	addwfc	___almod@divisor+2,f,c
 10827  002EDE  2224               	addwfc	___almod@divisor+3,f,c
 10828  002EE0                     l5921:
 10829  002EE0  5021               	movf	___almod@divisor,w,c
 10830  002EE2  1022               	iorwf	___almod@divisor+1,w,c
 10831  002EE4  1023               	iorwf	___almod@divisor+2,w,c
 10832  002EE6  1024               	iorwf	___almod@divisor+3,w,c
 10833  002EE8  E023               	bz	l5937
 10834  002EEA  0E01               	movlw	1
 10835  002EEC  6E25               	movwf	___almod@counter,c
 10836  002EEE  D006               	goto	l5927
 10837  002EF0                     l5925:
 10838  002EF0  90D8               	bcf	status,0,c
 10839  002EF2  3621               	rlcf	___almod@divisor,f,c
 10840  002EF4  3622               	rlcf	___almod@divisor+1,f,c
 10841  002EF6  3623               	rlcf	___almod@divisor+2,f,c
 10842  002EF8  3624               	rlcf	___almod@divisor+3,f,c
 10843  002EFA  2A25               	incf	___almod@counter,f,c
 10844  002EFC                     l5927:
 10845  002EFC  AE24               	btfss	___almod@divisor+3,7,c
 10846  002EFE  D7F8               	goto	l5925
 10847  002F00                     l5929:
 10848  002F00  5021               	movf	___almod@divisor,w,c
 10849  002F02  5C1D               	subwf	___almod@dividend,w,c
 10850  002F04  5022               	movf	___almod@divisor+1,w,c
 10851  002F06  581E               	subwfb	___almod@dividend+1,w,c
 10852  002F08  5023               	movf	___almod@divisor+2,w,c
 10853  002F0A  581F               	subwfb	___almod@dividend+2,w,c
 10854  002F0C  5024               	movf	___almod@divisor+3,w,c
 10855  002F0E  5820               	subwfb	___almod@dividend+3,w,c
 10856  002F10  E308               	bnc	l5933
 10857  002F12  5021               	movf	___almod@divisor,w,c
 10858  002F14  5E1D               	subwf	___almod@dividend,f,c
 10859  002F16  5022               	movf	___almod@divisor+1,w,c
 10860  002F18  5A1E               	subwfb	___almod@dividend+1,f,c
 10861  002F1A  5023               	movf	___almod@divisor+2,w,c
 10862  002F1C  5A1F               	subwfb	___almod@dividend+2,f,c
 10863  002F1E  5024               	movf	___almod@divisor+3,w,c
 10864  002F20  5A20               	subwfb	___almod@dividend+3,f,c
 10865  002F22                     l5933:
 10866  002F22  90D8               	bcf	status,0,c
 10867  002F24  3224               	rrcf	___almod@divisor+3,f,c
 10868  002F26  3223               	rrcf	___almod@divisor+2,f,c
 10869  002F28  3222               	rrcf	___almod@divisor+1,f,c
 10870  002F2A  3221               	rrcf	___almod@divisor,f,c
 10871  002F2C  2E25               	decfsz	___almod@counter,f,c
 10872  002F2E  D7E8               	goto	l5929
 10873  002F30                     l5937:
 10874  002F30  5026               	movf	___almod@sign,w,c
 10875  002F32  E001               	bz	l5941
 10876  002F34  D809               	call	PL60	;call to abstracted procedure
 10877  002F36                     l5941:
 10878  002F36  C01D  F01D         	movff	___almod@dividend,?___almod
 10879  002F3A  C01E  F01E         	movff	___almod@dividend+1,?___almod+1
 10880  002F3E  C01F  F01F         	movff	___almod@dividend+2,?___almod+2
 10881  002F42  C020  F020         	movff	___almod@dividend+3,?___almod+3
 10882  002F46  0012               	return		;funcret
 10883  002F48                     __end_of___almod:
 10884                           	opt stack 0
 10885  002F48                     PL60:
 10886                           	opt stack 24
 10887  002F48  1E20               	comf	___almod@dividend+3,f,c
 10888  002F4A  1E1F               	comf	___almod@dividend+2,f,c
 10889  002F4C  1E1E               	comf	___almod@dividend+1,f,c
 10890  002F4E  6C1D               	negf	___almod@dividend,c
 10891  002F50  0E00               	movlw	0
 10892  002F52  221E               	addwfc	___almod@dividend+1,f,c
 10893  002F54  221F               	addwfc	___almod@dividend+2,f,c
 10894  002F56  2220               	addwfc	___almod@dividend+3,f,c
 10895  002F58  0C00               	retlw	0
 10896  002F5A                     __end_ofPL60:
 10897                           	opt stack 0
 10898                           tblptru	equ	0xFF8
 10899                           tblptrh	equ	0xFF7
 10900                           tblptrl	equ	0xFF6
 10901                           tablat	equ	0xFF5
 10902                           prodh	equ	0xFF4
 10903                           prodl	equ	0xFF3
 10904                           intcon	equ	0xFF2
 10905                           intcon2	equ	0xFF1
 10906                           intcon3	equ	0xFF0
 10907                           postinc0	equ	0xFEE
 10908                           wreg	equ	0xFE8
 10909                           indf1	equ	0xFE7
 10910                           postdec1	equ	0xFE5
 10911                           plusw1	equ	0xFE3
 10912                           fsr1h	equ	0xFE2
 10913                           fsr1l	equ	0xFE1
 10914                           indf2	equ	0xFDF
 10915                           postinc2	equ	0xFDE
 10916                           postdec2	equ	0xFDD
 10917                           plusw2	equ	0xFDB
 10918                           fsr2h	equ	0xFDA
 10919                           fsr2l	equ	0xFD9
 10920                           status	equ	0xFD8
 10921                           
 10922 ;; *************** function ___aldiv *****************
 10923 ;; Defined at:
 10924 ;;		line 8 in file "/opt/microchip/xc8/v1.37/sources/common/aldiv.c"
 10925 ;; Parameters:    Size  Location     Type
 10926 ;;  dividend        4   28[COMRAM] long 
 10927 ;;  divisor         4   32[COMRAM] long 
 10928 ;; Auto vars:     Size  Location     Type
 10929 ;;  quotient        4   38[COMRAM] long 
 10930 ;;  sign            1   37[COMRAM] unsigned char 
 10931 ;;  counter         1   36[COMRAM] unsigned char 
 10932 ;; Return value:  Size  Location     Type
 10933 ;;                  4   28[COMRAM] long 
 10934 ;; Registers used:
 10935 ;;		wreg, status,2, status,0
 10936 ;; Tracked objects:
 10937 ;;		On entry : 0/1
 10938 ;;		On exit  : 0/0
 10939 ;;		Unchanged: 0/0
 10940 ;; Data sizes:     COMRAM   BANK0   BANK1   BANK2   BANK3   BANK4   BANK5   BANK6   BANK7   BANK8   BANK9  BANK10  BANK1
      +1  BANK12  BANK13  BANK14  BANK15
 10941 ;;      Params:         8       0       0       0       0       0       0       0       0       0       0       0       
      +0       0       0       0       0
 10942 ;;      Locals:         6       0       0       0       0       0       0       0       0       0       0       0       
      +0       0       0       0       0
 10943 ;;      Temps:          0       0       0       0       0       0       0       0       0       0       0       0       
      +0       0       0       0       0
 10944 ;;      Totals:        14       0       0       0       0       0       0       0       0       0       0       0       
      +0       0       0       0       0
 10945 ;;Total ram usage:       14 bytes
 10946 ;; Hardware stack levels used:    1
 10947 ;; Hardware stack levels required when called:    4
 10948 ;; This function calls:
 10949 ;;		Nothing
 10950 ;; This function is called by:
 10951 ;;		_TimeToInd
 10952 ;;		_TimeEdit
 10953 ;;		_ParseTime
 10954 ;; This function uses a non-reentrant model
 10955 ;;
 10956                           
 10957                           	psect	text44
 10958  002CB6                     __ptext44:
 10959                           	opt stack 0
 10960  002CB6                     ___aldiv:
 10961                           	opt stack 24
 10962                           
 10963                           ;incstack = 0
 10964  002CB6  6A26               	clrf	___aldiv@sign,c
 10965  002CB8  AE24               	btfss	___aldiv@divisor+3,7,c
 10966  002CBA  D00A               	goto	l5553
 10967  002CBC  1E24               	comf	___aldiv@divisor+3,f,c
 10968  002CBE  1E23               	comf	___aldiv@divisor+2,f,c
 10969  002CC0  1E22               	comf	___aldiv@divisor+1,f,c
 10970  002CC2  6C21               	negf	___aldiv@divisor,c
 10971  002CC4  0E00               	movlw	0
 10972  002CC6  2222               	addwfc	___aldiv@divisor+1,f,c
 10973  002CC8  2223               	addwfc	___aldiv@divisor+2,f,c
 10974  002CCA  2224               	addwfc	___aldiv@divisor+3,f,c
 10975  002CCC  0E01               	movlw	1
 10976  002CCE  6E26               	movwf	___aldiv@sign,c
 10977  002CD0                     l5553:
 10978  002CD0  AE20               	btfss	___aldiv@dividend+3,7,c
 10979  002CD2  D00A               	goto	l5559
 10980  002CD4  1E20               	comf	___aldiv@dividend+3,f,c
 10981  002CD6  1E1F               	comf	___aldiv@dividend+2,f,c
 10982  002CD8  1E1E               	comf	___aldiv@dividend+1,f,c
 10983  002CDA  6C1D               	negf	___aldiv@dividend,c
 10984  002CDC  0E00               	movlw	0
 10985  002CDE  221E               	addwfc	___aldiv@dividend+1,f,c
 10986  002CE0  221F               	addwfc	___aldiv@dividend+2,f,c
 10987  002CE2  2220               	addwfc	___aldiv@dividend+3,f,c
 10988  002CE4  0E01               	movlw	1
 10989  002CE6  1A26               	xorwf	___aldiv@sign,f,c
 10990  002CE8                     l5559:
 10991  002CE8  6A27               	clrf	___aldiv@quotient,c
 10992  002CEA  6A28               	clrf	___aldiv@quotient+1,c
 10993  002CEC  6A29               	clrf	___aldiv@quotient+2,c
 10994  002CEE  6A2A               	clrf	___aldiv@quotient+3,c
 10995  002CF0  5021               	movf	___aldiv@divisor,w,c
 10996  002CF2  1022               	iorwf	___aldiv@divisor+1,w,c
 10997  002CF4  1023               	iorwf	___aldiv@divisor+2,w,c
 10998  002CF6  1024               	iorwf	___aldiv@divisor+3,w,c
 10999  002CF8  E029               	bz	l5581
 11000  002CFA  0E01               	movlw	1
 11001  002CFC  6E25               	movwf	___aldiv@counter,c
 11002  002CFE  D006               	goto	l5567
 11003  002D00                     l5565:
 11004  002D00  90D8               	bcf	status,0,c
 11005  002D02  3621               	rlcf	___aldiv@divisor,f,c
 11006  002D04  3622               	rlcf	___aldiv@divisor+1,f,c
 11007  002D06  3623               	rlcf	___aldiv@divisor+2,f,c
 11008  002D08  3624               	rlcf	___aldiv@divisor+3,f,c
 11009  002D0A  2A25               	incf	___aldiv@counter,f,c
 11010  002D0C                     l5567:
 11011  002D0C  AE24               	btfss	___aldiv@divisor+3,7,c
 11012  002D0E  D7F8               	goto	l5565
 11013  002D10                     l5569:
 11014  002D10  90D8               	bcf	status,0,c
 11015  002D12  3627               	rlcf	___aldiv@quotient,f,c
 11016  002D14  3628               	rlcf	___aldiv@quotient+1,f,c
 11017  002D16  3629               	rlcf	___aldiv@quotient+2,f,c
 11018  002D18  362A               	rlcf	___aldiv@quotient+3,f,c
 11019  002D1A  5021               	movf	___aldiv@divisor,w,c
 11020  002D1C  5C1D               	subwf	___aldiv@dividend,w,c
 11021  002D1E  5022               	movf	___aldiv@divisor+1,w,c
 11022  002D20  581E               	subwfb	___aldiv@dividend+1,w,c
 11023  002D22  5023               	movf	___aldiv@divisor+2,w,c
 11024  002D24  581F               	subwfb	___aldiv@dividend+2,w,c
 11025  002D26  5024               	movf	___aldiv@divisor+3,w,c
 11026  002D28  5820               	subwfb	___aldiv@dividend+3,w,c
 11027  002D2A  E309               	bnc	l5577
 11028  002D2C  5021               	movf	___aldiv@divisor,w,c
 11029  002D2E  5E1D               	subwf	___aldiv@dividend,f,c
 11030  002D30  5022               	movf	___aldiv@divisor+1,w,c
 11031  002D32  5A1E               	subwfb	___aldiv@dividend+1,f,c
 11032  002D34  5023               	movf	___aldiv@divisor+2,w,c
 11033  002D36  5A1F               	subwfb	___aldiv@dividend+2,f,c
 11034  002D38  5024               	movf	___aldiv@divisor+3,w,c
 11035  002D3A  5A20               	subwfb	___aldiv@dividend+3,f,c
 11036  002D3C  8027               	bsf	___aldiv@quotient,0,c
 11037  002D3E                     l5577:
 11038  002D3E  90D8               	bcf	status,0,c
 11039  002D40  3224               	rrcf	___aldiv@divisor+3,f,c
 11040  002D42  3223               	rrcf	___aldiv@divisor+2,f,c
 11041  002D44  3222               	rrcf	___aldiv@divisor+1,f,c
 11042  002D46  3221               	rrcf	___aldiv@divisor,f,c
 11043  002D48  2E25               	decfsz	___aldiv@counter,f,c
 11044  002D4A  D7E2               	goto	l5569
 11045  002D4C                     l5581:
 11046  002D4C  5026               	movf	___aldiv@sign,w,c
 11047  002D4E  E008               	bz	l5585
 11048  002D50  1E2A               	comf	___aldiv@quotient+3,f,c
 11049  002D52  1E29               	comf	___aldiv@quotient+2,f,c
 11050  002D54  1E28               	comf	___aldiv@quotient+1,f,c
 11051  002D56  6C27               	negf	___aldiv@quotient,c
 11052  002D58  0E00               	movlw	0
 11053  002D5A  2228               	addwfc	___aldiv@quotient+1,f,c
 11054  002D5C  2229               	addwfc	___aldiv@quotient+2,f,c
 11055  002D5E  222A               	addwfc	___aldiv@quotient+3,f,c
 11056  002D60                     l5585:
 11057  002D60  C027  F01D         	movff	___aldiv@quotient,?___aldiv
 11058  002D64  C028  F01E         	movff	___aldiv@quotient+1,?___aldiv+1
 11059  002D68  C029  F01F         	movff	___aldiv@quotient+2,?___aldiv+2
 11060  002D6C  C02A  F020         	movff	___aldiv@quotient+3,?___aldiv+3
 11061  002D70  0012               	return		;funcret
 11062  002D72                     __end_of___aldiv:
 11063                           	opt stack 0
 11064                           tblptru	equ	0xFF8
 11065                           tblptrh	equ	0xFF7
 11066                           tblptrl	equ	0xFF6
 11067                           tablat	equ	0xFF5
 11068                           prodh	equ	0xFF4
 11069                           prodl	equ	0xFF3
 11070                           intcon	equ	0xFF2
 11071                           intcon2	equ	0xFF1
 11072                           intcon3	equ	0xFF0
 11073                           postinc0	equ	0xFEE
 11074                           wreg	equ	0xFE8
 11075                           indf1	equ	0xFE7
 11076                           postdec1	equ	0xFE5
 11077                           plusw1	equ	0xFE3
 11078                           fsr1h	equ	0xFE2
 11079                           fsr1l	equ	0xFE1
 11080                           indf2	equ	0xFDF
 11081                           postinc2	equ	0xFDE
 11082                           postdec2	equ	0xFDD
 11083                           plusw2	equ	0xFDB
 11084                           fsr2h	equ	0xFDA
 11085                           fsr2l	equ	0xFD9
 11086                           status	equ	0xFD8
 11087                           
 11088 ;; *************** function _TimeData_INIT *****************
 11089 ;; Defined at:
 11090 ;;		line 674 in file "prog.c"
 11091 ;; Parameters:    Size  Location     Type
 11092 ;;  TimeData        1    wreg     PTR struct .
 11093 ;;		 -> TimeEdit@TimeData(64), 
 11094 ;; Auto vars:     Size  Location     Type
 11095 ;;  TimeData        1   30[COMRAM] PTR struct .
 11096 ;;		 -> TimeEdit@TimeData(64), 
 11097 ;;  i               1   29[COMRAM] unsigned char 
 11098 ;;  i               1   28[COMRAM] unsigned char 
 11099 ;; Return value:  Size  Location     Type
 11100 ;;                  1    wreg      void 
 11101 ;; Registers used:
 11102 ;;		wreg, fsr2l, fsr2h, status,2, status,0, prodl, prodh
 11103 ;; Tracked objects:
 11104 ;;		On entry : 0/1
 11105 ;;		On exit  : 0/0
 11106 ;;		Unchanged: 0/0
 11107 ;; Data sizes:     COMRAM   BANK0   BANK1   BANK2   BANK3   BANK4   BANK5   BANK6   BANK7   BANK8   BANK9  BANK10  BANK1
      +1  BANK12  BANK13  BANK14  BANK15
 11108 ;;      Params:         0       0       0       0       0       0       0       0       0       0       0       0       
      +0       0       0       0       0
 11109 ;;      Locals:         3       0       0       0       0       0       0       0       0       0       0       0       
      +0       0       0       0       0
 11110 ;;      Temps:          0       0       0       0       0       0       0       0       0       0       0       0       
      +0       0       0       0       0
 11111 ;;      Totals:         3       0       0       0       0       0       0       0       0       0       0       0       
      +0       0       0       0       0
 11112 ;;Total ram usage:        3 bytes
 11113 ;; Hardware stack levels used:    1
 11114 ;; Hardware stack levels required when called:    4
 11115 ;; This function calls:
 11116 ;;		Nothing
 11117 ;; This function is called by:
 11118 ;;		_TimeEdit
 11119 ;; This function uses a non-reentrant model
 11120 ;;
 11121                           
 11122                           	psect	text45
 11123  002E22                     __ptext45:
 11124                           	opt stack 0
 11125  002E22                     _TimeData_INIT:
 11126                           	opt stack 24
 11127                           
 11128                           ;incstack = 0
 11129                           ;TimeData_INIT@TimeData stored from wreg
 11130  002E22  6E1F               	movwf	TimeData_INIT@TimeData,c
 11131                           
 11132                           ;prog.c: 675: for(char i = 0; i < 10; i++){
 11133  002E24  6A1D               	clrf	TimeData_INIT@i,c
 11134  002E26                     l5857:
 11135                           
 11136                           ;prog.c: 676: (*TimeData).Date[i].props.blink = 0;
 11137  002E26  501D               	movf	TimeData_INIT@i,w,c
 11138  002E28  D833               	call	PL52	;call to abstracted procedure
 11139  002E2A  0E18               	movlw	24
 11140  002E2C  26D9               	addwf	fsr2l,f,c
 11141  002E2E  90DF               	bcf	indf2,0,c
 11142                           
 11143                           ;prog.c: 677: (*TimeData).Date[i].props.const_symbol = 0;
 11144  002E30  501D               	movf	TimeData_INIT@i,w,c
 11145  002E32  D82E               	call	PL52	;call to abstracted procedure
 11146  002E34  0E18               	movlw	24
 11147  002E36  26D9               	addwf	fsr2l,f,c
 11148  002E38  92DF               	bcf	indf2,1,c
 11149  002E3A  2A1D               	incf	TimeData_INIT@i,f,c
 11150  002E3C  0E09               	movlw	9
 11151  002E3E  641D               	cpfsgt	TimeData_INIT@i,c
 11152  002E40  D7F2               	goto	l5857
 11153                           
 11154                           ;prog.c: 678: }
 11155                           ;prog.c: 679: for(char i = 0; i < 5; i++){
 11156  002E42  6A1E               	clrf	TimeData_INIT@i_963,c
 11157  002E44                     l5867:
 11158                           
 11159                           ;prog.c: 680: (*TimeData).Time[i].props.blink = 0;
 11160  002E44  501E               	movf	TimeData_INIT@i_963,w,c
 11161  002E46  D824               	call	PL52	;call to abstracted procedure
 11162  002E48  90DF               	bcf	indf2,0,c
 11163                           
 11164                           ;prog.c: 681: (*TimeData).Time[i].props.const_symbol = 0;
 11165  002E4A  501E               	movf	TimeData_INIT@i_963,w,c
 11166  002E4C  D821               	call	PL52	;call to abstracted procedure
 11167  002E4E  92DF               	bcf	indf2,1,c
 11168  002E50  2A1E               	incf	TimeData_INIT@i_963,f,c
 11169  002E52  0E04               	movlw	4
 11170  002E54  641E               	cpfsgt	TimeData_INIT@i_963,c
 11171  002E56  D7F6               	goto	l5867
 11172                           
 11173                           ;prog.c: 682: }
 11174                           ;prog.c: 683: (*TimeData).WeekDay[0].props.blink = 0;
 11175  002E58  501F               	movf	TimeData_INIT@TimeData,w,c
 11176  002E5A  D827               	call	PL114	;call to abstracted procedure
 11177  002E5C  90DF               	bcf	indf2,0,c
 11178                           
 11179                           ;prog.c: 684: (*TimeData).WeekDay[0].props.const_symbol = 0;
 11180  002E5E  501F               	movf	TimeData_INIT@TimeData,w,c
 11181  002E60  D824               	call	PL114	;call to abstracted procedure
 11182  002E62  92DF               	bcf	indf2,1,c
 11183                           
 11184                           ;prog.c: 686: (*TimeData).Time[2].symbol = ':';
 11185  002E64  501F               	movf	TimeData_INIT@TimeData,w,c
 11186  002E66  6ED9               	movwf	fsr2l,c
 11187  002E68  6ADA               	clrf	fsr2h,c
 11188  002E6A  0E0A               	movlw	10
 11189  002E6C  26D9               	addwf	fsr2l,f,c
 11190  002E6E  0E3A               	movlw	58
 11191  002E70  6EDF               	movwf	indf2,c
 11192                           
 11193                           ;prog.c: 687: (*TimeData).Time[2].props.const_symbol = 1;
 11194  002E72  501F               	movf	TimeData_INIT@TimeData,w,c
 11195  002E74  6ED9               	movwf	fsr2l,c
 11196  002E76  6ADA               	clrf	fsr2h,c
 11197  002E78  0E08               	movlw	8
 11198                           
 11199                           ;prog.c: 688: (*TimeData).Date[5].symbol = '/';
 11200  002E7A  D81C               	call	PL122	;call to abstracted procedure
 11201  002E7C  0E2E               	movlw	46
 11202                           
 11203                           ;prog.c: 689: (*TimeData).Date[5].props.const_symbol = 1;
 11204  002E7E  D80E               	call	PL104	;call to abstracted procedure
 11205  002E80  0E2C               	movlw	44
 11206                           
 11207                           ;prog.c: 690: (*TimeData).Date[2].symbol = '/';
 11208  002E82  D818               	call	PL122	;call to abstracted procedure
 11209  002E84  0E22               	movlw	34
 11210                           
 11211                           ;prog.c: 691: (*TimeData).Date[2].props.const_symbol = 1;
 11212  002E86  D80A               	call	PL104	;call to abstracted procedure
 11213  002E88  0E20               	movlw	32
 11214  002E8A  26D9               	addwf	fsr2l,f,c
 11215  002E8C  82DF               	bsf	indf2,1,c
 11216  002E8E  0C20               	retlw	32	;funcret
 11217  002E90                     __end_of_TimeData_INIT:
 11218                           	opt stack 0
 11219  002E90                     PL52:
 11220                           	opt stack 24
 11221  002E90  0D04               	mullw	4
 11222  002E92  501F               	movf	TimeData_INIT@TimeData,w,c
 11223  002E94  24F3               	addwf	prodl,w,c
 11224  002E96  6ED9               	movwf	fsr2l,c
 11225  002E98  6ADA               	clrf	fsr2h,c
 11226  002E9A  0012               	return	
 11227  002E9C                     __end_ofPL52:
 11228                           	opt stack 0
 11229  002E9C                     PL104:
 11230                           	opt stack 24
 11231  002E9C  26D9               	addwf	fsr2l,f,c
 11232  002E9E  0E2F               	movlw	47
 11233  002EA0  6EDF               	movwf	indf2,c
 11234  002EA2  501F               	movf	TimeData_INIT@TimeData,w,c
 11235  002EA4  6ED9               	movwf	fsr2l,c
 11236  002EA6  6ADA               	clrf	fsr2h,c
 11237  002EA8  0012               	return	
 11238  002EAA                     __end_ofPL104:
 11239                           	opt stack 0
 11240  002EAA                     PL114:
 11241                           	opt stack 24
 11242  002EAA  6ED9               	movwf	fsr2l,c
 11243  002EAC  6ADA               	clrf	fsr2h,c
 11244  002EAE  0E14               	movlw	20
 11245  002EB0  26D9               	addwf	fsr2l,f,c
 11246  002EB2  0C14               	retlw	20
 11247  002EB4                     __end_ofPL114:
 11248                           	opt stack 0
 11249  002EB4                     PL122:
 11250                           	opt stack 24
 11251  002EB4  26D9               	addwf	fsr2l,f,c
 11252  002EB6  82DF               	bsf	indf2,1,c
 11253  002EB8  501F               	movf	TimeData_INIT@TimeData,w,c
 11254  002EBA  6ED9               	movwf	fsr2l,c
 11255  002EBC  6ADA               	clrf	fsr2h,c
 11256  002EBE  0012               	return	
 11257  002EC0                     __end_ofPL122:
 11258                           	opt stack 0
 11259                           tblptru	equ	0xFF8
 11260                           tblptrh	equ	0xFF7
 11261                           tblptrl	equ	0xFF6
 11262                           tablat	equ	0xFF5
 11263                           prodh	equ	0xFF4
 11264                           prodl	equ	0xFF3
 11265                           intcon	equ	0xFF2
 11266                           intcon2	equ	0xFF1
 11267                           intcon3	equ	0xFF0
 11268                           postinc0	equ	0xFEE
 11269                           wreg	equ	0xFE8
 11270                           indf1	equ	0xFE7
 11271                           postdec1	equ	0xFE5
 11272                           plusw1	equ	0xFE3
 11273                           fsr1h	equ	0xFE2
 11274                           fsr1l	equ	0xFE1
 11275                           indf2	equ	0xFDF
 11276                           postinc2	equ	0xFDE
 11277                           postdec2	equ	0xFDD
 11278                           plusw2	equ	0xFDB
 11279                           fsr2h	equ	0xFDA
 11280                           fsr2l	equ	0xFD9
 11281                           status	equ	0xFD8
 11282                           
 11283 ;; *************** function _TimeData_BlinkOFF *****************
 11284 ;; Defined at:
 11285 ;;		line 664 in file "prog.c"
 11286 ;; Parameters:    Size  Location     Type
 11287 ;;  TimeData        1    wreg     PTR struct .
 11288 ;;		 -> TimeEdit@TimeData(64), 
 11289 ;; Auto vars:     Size  Location     Type
 11290 ;;  TimeData        1   30[COMRAM] PTR struct .
 11291 ;;		 -> TimeEdit@TimeData(64), 
 11292 ;;  i               1   29[COMRAM] unsigned char 
 11293 ;;  i               1   28[COMRAM] unsigned char 
 11294 ;; Return value:  Size  Location     Type
 11295 ;;                  1    wreg      void 
 11296 ;; Registers used:
 11297 ;;		wreg, fsr2l, fsr2h, status,2, status,0, prodl, prodh
 11298 ;; Tracked objects:
 11299 ;;		On entry : 0/0
 11300 ;;		On exit  : 0/0
 11301 ;;		Unchanged: 0/0
 11302 ;; Data sizes:     COMRAM   BANK0   BANK1   BANK2   BANK3   BANK4   BANK5   BANK6   BANK7   BANK8   BANK9  BANK10  BANK1
      +1  BANK12  BANK13  BANK14  BANK15
 11303 ;;      Params:         0       0       0       0       0       0       0       0       0       0       0       0       
      +0       0       0       0       0
 11304 ;;      Locals:         3       0       0       0       0       0       0       0       0       0       0       0       
      +0       0       0       0       0
 11305 ;;      Temps:          0       0       0       0       0       0       0       0       0       0       0       0       
      +0       0       0       0       0
 11306 ;;      Totals:         3       0       0       0       0       0       0       0       0       0       0       0       
      +0       0       0       0       0
 11307 ;;Total ram usage:        3 bytes
 11308 ;; Hardware stack levels used:    1
 11309 ;; Hardware stack levels required when called:    4
 11310 ;; This function calls:
 11311 ;;		Nothing
 11312 ;; This function is called by:
 11313 ;;		_TimeEdit
 11314 ;; This function uses a non-reentrant model
 11315 ;;
 11316                           
 11317                           	psect	text46
 11318  0038B4                     __ptext46:
 11319                           	opt stack 0
 11320  0038B4                     _TimeData_BlinkOFF:
 11321                           	opt stack 24
 11322                           
 11323                           ;incstack = 0
 11324                           ;TimeData_BlinkOFF@TimeData stored from wreg
 11325  0038B4  6E1F               	movwf	TimeData_BlinkOFF@TimeData,c
 11326                           
 11327                           ;prog.c: 665: for(char i = 0; i < 10; i++){
 11328  0038B6  6A1D               	clrf	TimeData_BlinkOFF@i,c
 11329  0038B8                     l5833:
 11330                           
 11331                           ;prog.c: 666: (*TimeData).Date[i].props.blink = 0;
 11332  0038B8  501D               	movf	TimeData_BlinkOFF@i,w,c
 11333  0038BA  D814               	call	PL126	;call to abstracted procedure
 11334  0038BC  0E18               	movlw	24
 11335  0038BE  26D9               	addwf	fsr2l,f,c
 11336  0038C0  90DF               	bcf	indf2,0,c
 11337  0038C2  2A1D               	incf	TimeData_BlinkOFF@i,f,c
 11338  0038C4  0E09               	movlw	9
 11339  0038C6  641D               	cpfsgt	TimeData_BlinkOFF@i,c
 11340  0038C8  D7F7               	goto	l5833
 11341                           
 11342                           ;prog.c: 667: }
 11343                           ;prog.c: 668: for(char i = 0; i < 5; i++){
 11344  0038CA  6A1E               	clrf	TimeData_BlinkOFF@i_938,c
 11345  0038CC                     l5843:
 11346                           
 11347                           ;prog.c: 669: (*TimeData).Time[i].props.blink = 0;
 11348  0038CC  501E               	movf	TimeData_BlinkOFF@i_938,w,c
 11349  0038CE  D80A               	call	PL126	;call to abstracted procedure
 11350  0038D0  90DF               	bcf	indf2,0,c
 11351  0038D2  2A1E               	incf	TimeData_BlinkOFF@i_938,f,c
 11352  0038D4  0E04               	movlw	4
 11353  0038D6  641E               	cpfsgt	TimeData_BlinkOFF@i_938,c
 11354  0038D8  D7F9               	goto	l5843
 11355                           
 11356                           ;prog.c: 670: }
 11357                           ;prog.c: 671: (*TimeData).WeekDay[0].props.blink = 0;
 11358  0038DA  501F               	movf	TimeData_BlinkOFF@TimeData,w,c
 11359  0038DC  EC55  F017         	call	PL114	;call to abstracted procedure
 11360  0038E0  90DF               	bcf	indf2,0,c
 11361  0038E2  0C14               	retlw	20	;funcret
 11362  0038E4                     __end_of_TimeData_BlinkOFF:
 11363                           	opt stack 0
 11364  0038E4                     PL126:
 11365                           	opt stack 24
 11366  0038E4  0D04               	mullw	4
 11367  0038E6  501F               	movf	TimeData_BlinkOFF@TimeData,w,c
 11368  0038E8  24F3               	addwf	prodl,w,c
 11369  0038EA  6ED9               	movwf	fsr2l,c
 11370  0038EC  6ADA               	clrf	fsr2h,c
 11371  0038EE  0012               	return	
 11372  0038F0                     __end_ofPL126:
 11373                           	opt stack 0
 11374                           tblptru	equ	0xFF8
 11375                           tblptrh	equ	0xFF7
 11376                           tblptrl	equ	0xFF6
 11377                           tablat	equ	0xFF5
 11378                           prodh	equ	0xFF4
 11379                           prodl	equ	0xFF3
 11380                           intcon	equ	0xFF2
 11381                           intcon2	equ	0xFF1
 11382                           intcon3	equ	0xFF0
 11383                           postinc0	equ	0xFEE
 11384                           wreg	equ	0xFE8
 11385                           indf1	equ	0xFE7
 11386                           postdec1	equ	0xFE5
 11387                           plusw1	equ	0xFE3
 11388                           fsr1h	equ	0xFE2
 11389                           fsr1l	equ	0xFE1
 11390                           indf2	equ	0xFDF
 11391                           postinc2	equ	0xFDE
 11392                           postdec2	equ	0xFDD
 11393                           plusw2	equ	0xFDB
 11394                           fsr2h	equ	0xFDA
 11395                           fsr2l	equ	0xFD9
 11396                           status	equ	0xFD8
 11397                           
 11398 ;; *************** function _ReIndTimeEdit *****************
 11399 ;; Defined at:
 11400 ;;		line 641 in file "prog.c"
 11401 ;; Parameters:    Size  Location     Type
 11402 ;;  TimeData        1    wreg     PTR struct .
 11403 ;;		 -> TimeEdit@TimeData(64), 
 11404 ;; Auto vars:     Size  Location     Type
 11405 ;;  TimeData        1   52[COMRAM] PTR struct .
 11406 ;;		 -> TimeEdit@TimeData(64), 
 11407 ;;  i               1   51[COMRAM] unsigned char 
 11408 ;;  i               1   50[COMRAM] unsigned char 
 11409 ;;  n               1    0        unsigned char 
 11410 ;; Return value:  Size  Location     Type
 11411 ;;                  1    wreg      void 
 11412 ;; Registers used:
 11413 ;;		wreg, fsr1l, fsr1h, fsr2l, fsr2h, status,2, status,0, prodl, prodh, cstack
 11414 ;; Tracked objects:
 11415 ;;		On entry : F/0
 11416 ;;		On exit  : 0/0
 11417 ;;		Unchanged: 0/0
 11418 ;; Data sizes:     COMRAM   BANK0   BANK1   BANK2   BANK3   BANK4   BANK5   BANK6   BANK7   BANK8   BANK9  BANK10  BANK1
      +1  BANK12  BANK13  BANK14  BANK15
 11419 ;;      Params:         0       0       0       0       0       0       0       0       0       0       0       0       
      +0       0       0       0       0
 11420 ;;      Locals:         4       0       0       0       0       0       0       0       0       0       0       0       
      +0       0       0       0       0
 11421 ;;      Temps:          0       0       0       0       0       0       0       0       0       0       0       0       
      +0       0       0       0       0
 11422 ;;      Totals:         4       0       0       0       0       0       0       0       0       0       0       0       
      +0       0       0       0       0
 11423 ;;Total ram usage:        4 bytes
 11424 ;; Hardware stack levels used:    1
 11425 ;; Hardware stack levels required when called:    6
 11426 ;; This function calls:
 11427 ;;		_getNumChar
 11428 ;;		_outputDateData
 11429 ;; This function is called by:
 11430 ;;		_TimeEdit
 11431 ;; This function uses a non-reentrant model
 11432 ;;
 11433                           
 11434                           	psect	text47
 11435  002980                     __ptext47:
 11436                           	opt stack 0
 11437  002980                     _ReIndTimeEdit:
 11438                           	opt stack 22
 11439                           
 11440                           ;incstack = 0
 11441                           ;ReIndTimeEdit@TimeData stored from wreg
 11442  002980  6E35               	movwf	ReIndTimeEdit@TimeData,c
 11443                           
 11444                           ;prog.c: 642: for(char i = 0; i < 10; i++){
 11445  002982  6A33               	clrf	ReIndTimeEdit@i,c
 11446  002984                     l5791:
 11447                           
 11448                           ;prog.c: 643: if((*TimeData).Date[i].props.const_symbol == 0){
 11449  002984  5033               	movf	ReIndTimeEdit@i,w,c
 11450  002986  D863               	call	PL34	;call to abstracted procedure
 11451  002988  0E18               	movlw	24
 11452  00298A  26D9               	addwf	fsr2l,f,c
 11453  00298C  B2DF               	btfsc	indf2,1,c
 11454  00298E  D00C               	goto	l5795
 11455                           
 11456                           ;prog.c: 644: (*TimeData).Date[i].symbol = getNumChar((*TimeData).Date[i].number);
 11457  002990  5033               	movf	ReIndTimeEdit@i,w,c
 11458  002992  D85D               	call	PL34	;call to abstracted procedure
 11459  002994  0E1A               	movlw	26
 11460  002996  26D9               	addwf	fsr2l,f,c
 11461  002998  5033               	movf	ReIndTimeEdit@i,w,c
 11462  00299A  D85F               	call	PL128	;call to abstracted procedure
 11463  00299C  0E19               	movlw	25
 11464  00299E  26E1               	addwf	fsr1l,f,c
 11465  0029A0  50E7               	movf	indf1,w,c
 11466  0029A2  EC2E  F01A         	call	_getNumChar
 11467  0029A6  6EDF               	movwf	indf2,c
 11468  0029A8                     l5795:
 11469                           
 11470                           ;prog.c: 645: }
 11471                           ;prog.c: 646: (*TimeData).Date[i].index = i;
 11472  0029A8  5033               	movf	ReIndTimeEdit@i,w,c
 11473  0029AA  D851               	call	PL34	;call to abstracted procedure
 11474  0029AC  0E1B               	movlw	27
 11475  0029AE  26D9               	addwf	fsr2l,f,c
 11476  0029B0  C033  FFDF         	movff	ReIndTimeEdit@i,indf2
 11477  0029B4  2A33               	incf	ReIndTimeEdit@i,f,c
 11478  0029B6  0E09               	movlw	9
 11479  0029B8  6433               	cpfsgt	ReIndTimeEdit@i,c
 11480  0029BA  D7E4               	goto	l5791
 11481                           
 11482                           ;prog.c: 647: }
 11483                           ;prog.c: 648: for(char i = 0; i < 5; i++){
 11484  0029BC  6A34               	clrf	ReIndTimeEdit@i_911,c
 11485  0029BE                     l5805:
 11486                           
 11487                           ;prog.c: 649: if((*TimeData).Time[i].props.const_symbol == 0){
 11488  0029BE  5034               	movf	ReIndTimeEdit@i_911,w,c
 11489  0029C0  D846               	call	PL34	;call to abstracted procedure
 11490  0029C2  B2DF               	btfsc	indf2,1,c
 11491  0029C4  D00B               	goto	l5809
 11492                           
 11493                           ;prog.c: 650: (*TimeData).Time[i].symbol = getNumChar((*TimeData).Time[i].number);
 11494  0029C6  5034               	movf	ReIndTimeEdit@i_911,w,c
 11495  0029C8  D842               	call	PL34	;call to abstracted procedure
 11496  0029CA  0E02               	movlw	2
 11497  0029CC  26D9               	addwf	fsr2l,f,c
 11498  0029CE  5034               	movf	ReIndTimeEdit@i_911,w,c
 11499  0029D0  D844               	call	PL128	;call to abstracted procedure
 11500  0029D2  2AE1               	incf	fsr1l,f,c
 11501  0029D4  50E7               	movf	indf1,w,c
 11502  0029D6  EC2E  F01A         	call	_getNumChar
 11503  0029DA  6EDF               	movwf	indf2,c
 11504  0029DC                     l5809:
 11505                           
 11506                           ;prog.c: 651: }
 11507                           ;prog.c: 652: (*TimeData).Time[i].index = i;
 11508  0029DC  5034               	movf	ReIndTimeEdit@i_911,w,c
 11509  0029DE  D837               	call	PL34	;call to abstracted procedure
 11510  0029E0  0E03               	movlw	3
 11511  0029E2  26D9               	addwf	fsr2l,f,c
 11512  0029E4  C034  FFDF         	movff	ReIndTimeEdit@i_911,indf2
 11513  0029E8  2A34               	incf	ReIndTimeEdit@i_911,f,c
 11514  0029EA  0E04               	movlw	4
 11515  0029EC  6434               	cpfsgt	ReIndTimeEdit@i_911,c
 11516  0029EE  D7E7               	goto	l5805
 11517                           
 11518                           ;prog.c: 653: }
 11519                           ;prog.c: 654: (*TimeData).WeekDay[0].symbol = getNumChar((*TimeData).WeekDay[0].number);
 11520  0029F0  5035               	movf	ReIndTimeEdit@TimeData,w,c
 11521  0029F2  6ED9               	movwf	fsr2l,c
 11522  0029F4  6ADA               	clrf	fsr2h,c
 11523  0029F6  0E16               	movlw	22
 11524  0029F8  26D9               	addwf	fsr2l,f,c
 11525  0029FA  5035               	movf	ReIndTimeEdit@TimeData,w,c
 11526  0029FC  6EE1               	movwf	fsr1l,c
 11527  0029FE  6AE2               	clrf	fsr1h,c
 11528  002A00  0E15               	movlw	21
 11529  002A02  26E1               	addwf	fsr1l,f,c
 11530  002A04  50E7               	movf	indf1,w,c
 11531  002A06  EC2E  F01A         	call	_getNumChar
 11532  002A0A  6EDF               	movwf	indf2,c
 11533                           
 11534                           ;prog.c: 655: (*TimeData).WeekDay[0].index = 0;
 11535  002A0C  5035               	movf	ReIndTimeEdit@TimeData,w,c
 11536  002A0E  6ED9               	movwf	fsr2l,c
 11537  002A10  6ADA               	clrf	fsr2h,c
 11538  002A12  0E17               	movlw	23
 11539  002A14  26D9               	addwf	fsr2l,f,c
 11540  002A16  6ADF               	clrf	indf2,c
 11541                           
 11542                           ;prog.c: 658: outputDateData((*TimeData).Date, 10, 0, n);
 11543  002A18  0E0A               	movlw	10
 11544  002A1A  6E2D               	movwf	outputDateData@length,c
 11545  002A1C  6A2E               	clrf	outputDateData@line,c
 11546  002A1E  0E01               	movlw	1
 11547  002A20  6E2F               	movwf	outputDateData@start_symbol,c
 11548  002A22  5035               	movf	ReIndTimeEdit@TimeData,w,c
 11549  002A24  0F18               	addlw	24
 11550  002A26  EC1A  F01B         	call	_outputDateData
 11551                           
 11552                           ;prog.c: 659: outputDateData((*TimeData).Time, 5, 1, n+4);
 11553  002A2A  0E05               	movlw	5
 11554  002A2C  6E2D               	movwf	outputDateData@length,c
 11555  002A2E  0E01               	movlw	1
 11556  002A30  6E2E               	movwf	outputDateData@line,c
 11557  002A32  0E05               	movlw	5
 11558  002A34  6E2F               	movwf	outputDateData@start_symbol,c
 11559  002A36  5035               	movf	ReIndTimeEdit@TimeData,w,c
 11560  002A38  EC1A  F01B         	call	_outputDateData
 11561                           
 11562                           ;prog.c: 660: outputDateData((*TimeData).WeekDay, 1, 1, n+1);
 11563  002A3C  0E01               	movlw	1
 11564  002A3E  6E2D               	movwf	outputDateData@length,c
 11565  002A40  6E2E               	movwf	outputDateData@line,c
 11566  002A42  0E02               	movlw	2
 11567  002A44  6E2F               	movwf	outputDateData@start_symbol,c
 11568  002A46  5035               	movf	ReIndTimeEdit@TimeData,w,c
 11569  002A48  0F14               	addlw	20
 11570  002A4A  EF1A  F01B         	goto	_outputDateData
 11571  002A4E                     __end_of_ReIndTimeEdit:
 11572                           	opt stack 0
 11573  002A4E                     PL34:
 11574                           	opt stack 22
 11575  002A4E  0D04               	mullw	4
 11576  002A50  5035               	movf	ReIndTimeEdit@TimeData,w,c
 11577  002A52  24F3               	addwf	prodl,w,c
 11578  002A54  6ED9               	movwf	fsr2l,c
 11579  002A56  6ADA               	clrf	fsr2h,c
 11580  002A58  0012               	return	
 11581  002A5A                     __end_ofPL34:
 11582                           	opt stack 0
 11583  002A5A                     PL128:
 11584                           	opt stack 22
 11585  002A5A  0D04               	mullw	4
 11586  002A5C  5035               	movf	ReIndTimeEdit@TimeData,w,c
 11587  002A5E  24F3               	addwf	prodl,w,c
 11588  002A60  6EE1               	movwf	fsr1l,c
 11589  002A62  6AE2               	clrf	fsr1h,c
 11590  002A64  0012               	return	
 11591  002A66                     __end_ofPL128:
 11592                           	opt stack 0
 11593                           tblptru	equ	0xFF8
 11594                           tblptrh	equ	0xFF7
 11595                           tblptrl	equ	0xFF6
 11596                           tablat	equ	0xFF5
 11597                           prodh	equ	0xFF4
 11598                           prodl	equ	0xFF3
 11599                           intcon	equ	0xFF2
 11600                           intcon2	equ	0xFF1
 11601                           intcon3	equ	0xFF0
 11602                           postinc0	equ	0xFEE
 11603                           wreg	equ	0xFE8
 11604                           indf1	equ	0xFE7
 11605                           postdec1	equ	0xFE5
 11606                           plusw1	equ	0xFE3
 11607                           fsr1h	equ	0xFE2
 11608                           fsr1l	equ	0xFE1
 11609                           indf2	equ	0xFDF
 11610                           postinc2	equ	0xFDE
 11611                           postdec2	equ	0xFDD
 11612                           plusw2	equ	0xFDB
 11613                           fsr2h	equ	0xFDA
 11614                           fsr2l	equ	0xFD9
 11615                           status	equ	0xFD8
 11616                           
 11617 ;; *************** function _outputDateData *****************
 11618 ;; Defined at:
 11619 ;;		line 634 in file "prog.c"
 11620 ;; Parameters:    Size  Location     Type
 11621 ;;  data            1    wreg     PTR struct .
 11622 ;;		 -> TimeEdit@TimeData(64), 
 11623 ;;  length          1   44[COMRAM] unsigned char 
 11624 ;;  line            1   45[COMRAM] unsigned char 
 11625 ;;  start_symbol    1   46[COMRAM] unsigned char 
 11626 ;; Auto vars:     Size  Location     Type
 11627 ;;  data            1   47[COMRAM] PTR struct .
 11628 ;;		 -> TimeEdit@TimeData(64), 
 11629 ;;  i               1   48[COMRAM] unsigned char 
 11630 ;; Return value:  Size  Location     Type
 11631 ;;                  1    wreg      void 
 11632 ;; Registers used:
 11633 ;;		wreg, fsr2l, fsr2h, status,2, status,0, prodl, prodh, cstack
 11634 ;; Tracked objects:
 11635 ;;		On entry : 0/0
 11636 ;;		On exit  : 0/0
 11637 ;;		Unchanged: 0/0
 11638 ;; Data sizes:     COMRAM   BANK0   BANK1   BANK2   BANK3   BANK4   BANK5   BANK6   BANK7   BANK8   BANK9  BANK10  BANK1
      +1  BANK12  BANK13  BANK14  BANK15
 11639 ;;      Params:         3       0       0       0       0       0       0       0       0       0       0       0       
      +0       0       0       0       0
 11640 ;;      Locals:         2       0       0       0       0       0       0       0       0       0       0       0       
      +0       0       0       0       0
 11641 ;;      Temps:          0       0       0       0       0       0       0       0       0       0       0       0       
      +0       0       0       0       0
 11642 ;;      Totals:         5       0       0       0       0       0       0       0       0       0       0       0       
      +0       0       0       0       0
 11643 ;;Total ram usage:        5 bytes
 11644 ;; Hardware stack levels used:    1
 11645 ;; Hardware stack levels required when called:    5
 11646 ;; This function calls:
 11647 ;;		_setBlink
 11648 ;;		_setDigit
 11649 ;; This function is called by:
 11650 ;;		_ReIndTimeEdit
 11651 ;; This function uses a non-reentrant model
 11652 ;;
 11653                           
 11654                           	psect	text48
 11655  003634                     __ptext48:
 11656                           	opt stack 0
 11657  003634                     _outputDateData:
 11658                           	opt stack 22
 11659                           
 11660                           ;incstack = 0
 11661                           ;outputDateData@data stored from wreg
 11662  003634  6E30               	movwf	outputDateData@data,c
 11663                           
 11664                           ;prog.c: 635: for(unsigned char i = 0; i < length; i++){
 11665  003636  6A31               	clrf	outputDateData@i,c
 11666  003638  D017               	goto	l5467
 11667  00363A                     l5463:
 11668                           
 11669                           ;prog.c: 636: setDigit(line, start_symbol + data[i].index, data[i].symbol);
 11670  00363A  D81A               	call	PL42	;call to abstracted procedure
 11671  00363C  D820               	call	PL138	;call to abstracted procedure
 11672  00363E  6E24               	movwf	setDigit@symbol,c
 11673  003640  D817               	call	PL42	;call to abstracted procedure
 11674  003642  0E02               	movlw	2
 11675  003644  26D9               	addwf	fsr2l,f,c
 11676  003646  50DF               	movf	indf2,w,c
 11677  003648  6E25               	movwf	setDigit@data,c
 11678  00364A  502E               	movf	outputDateData@line,w,c
 11679  00364C  EC85  F018         	call	_setDigit
 11680                           
 11681                           ;prog.c: 637: setBlink(line, start_symbol + data[i].index, data[i].props.blink);
 11682  003650  D80F               	call	PL42	;call to abstracted procedure
 11683  003652  D815               	call	PL138	;call to abstracted procedure
 11684  003654  6E1D               	movwf	setBlink@symbol,c
 11685  003656  D80C               	call	PL42	;call to abstracted procedure
 11686  003658  0E00               	movlw	0
 11687  00365A  B0DF               	btfsc	indf2,0,c
 11688  00365C  0E01               	movlw	1
 11689  00365E  6E1E               	movwf	setBlink@value,c
 11690  003660  502E               	movf	outputDateData@line,w,c
 11691  003662  EC3B  F01C         	call	_setBlink
 11692                           
 11693                           ; BSR set to: 1
 11694  003666  2A31               	incf	outputDateData@i,f,c
 11695  003668                     l5467:
 11696  003668  502D               	movf	outputDateData@length,w,c
 11697  00366A  5C31               	subwf	outputDateData@i,w,c
 11698  00366C  E3E6               	bnc	l5463
 11699  00366E  0012               	return		;funcret
 11700  003670                     __end_of_outputDateData:
 11701                           	opt stack 0
 11702  003670                     PL42:
 11703                           	opt stack 22
 11704  003670  5031               	movf	outputDateData@i,w,c
 11705  003672  0D04               	mullw	4
 11706  003674  5030               	movf	outputDateData@data,w,c
 11707  003676  24F3               	addwf	prodl,w,c
 11708  003678  6ED9               	movwf	fsr2l,c
 11709  00367A  6ADA               	clrf	fsr2h,c
 11710  00367C  0012               	return	
 11711  00367E                     __end_ofPL42:
 11712                           	opt stack 0
 11713  00367E                     PL138:
 11714                           	opt stack 22
 11715  00367E  0E03               	movlw	3
 11716  003680  26D9               	addwf	fsr2l,f,c
 11717  003682  50DF               	movf	indf2,w,c
 11718  003684  242F               	addwf	outputDateData@start_symbol,w,c
 11719  003686  0012               	return	
 11720  003688                     __end_ofPL138:
 11721                           	opt stack 0
 11722                           tblptru	equ	0xFF8
 11723                           tblptrh	equ	0xFF7
 11724                           tblptrl	equ	0xFF6
 11725                           tablat	equ	0xFF5
 11726                           prodh	equ	0xFF4
 11727                           prodl	equ	0xFF3
 11728                           intcon	equ	0xFF2
 11729                           intcon2	equ	0xFF1
 11730                           intcon3	equ	0xFF0
 11731                           postinc0	equ	0xFEE
 11732                           wreg	equ	0xFE8
 11733                           indf1	equ	0xFE7
 11734                           postdec1	equ	0xFE5
 11735                           plusw1	equ	0xFE3
 11736                           fsr1h	equ	0xFE2
 11737                           fsr1l	equ	0xFE1
 11738                           indf2	equ	0xFDF
 11739                           postinc2	equ	0xFDE
 11740                           postdec2	equ	0xFDD
 11741                           plusw2	equ	0xFDB
 11742                           fsr2h	equ	0xFDA
 11743                           fsr2l	equ	0xFD9
 11744                           status	equ	0xFD8
 11745                           
 11746 ;; *************** function _setDigit *****************
 11747 ;; Defined at:
 11748 ;;		line 207 in file "prog.c"
 11749 ;; Parameters:    Size  Location     Type
 11750 ;;  line            1    wreg     unsigned char 
 11751 ;;  symbol          1   35[COMRAM] unsigned char 
 11752 ;;  data            1   36[COMRAM] unsigned char 
 11753 ;; Auto vars:     Size  Location     Type
 11754 ;;  line            1   43[COMRAM] unsigned char 
 11755 ;;  value           1   42[COMRAM] unsigned char 
 11756 ;;  value0          1   41[COMRAM] unsigned char 
 11757 ;; Return value:  Size  Location     Type
 11758 ;;                  1    wreg      void 
 11759 ;; Registers used:
 11760 ;;		wreg, fsr2l, fsr2h, status,2, status,0, prodl, prodh
 11761 ;; Tracked objects:
 11762 ;;		On entry : 0/0
 11763 ;;		On exit  : 0/0
 11764 ;;		Unchanged: 0/0
 11765 ;; Data sizes:     COMRAM   BANK0   BANK1   BANK2   BANK3   BANK4   BANK5   BANK6   BANK7   BANK8   BANK9  BANK10  BANK1
      +1  BANK12  BANK13  BANK14  BANK15
 11766 ;;      Params:         2       0       0       0       0       0       0       0       0       0       0       0       
      +0       0       0       0       0
 11767 ;;      Locals:         5       0       0       0       0       0       0       0       0       0       0       0       
      +0       0       0       0       0
 11768 ;;      Temps:          2       0       0       0       0       0       0       0       0       0       0       0       
      +0       0       0       0       0
 11769 ;;      Totals:         9       0       0       0       0       0       0       0       0       0       0       0       
      +0       0       0       0       0
 11770 ;;Total ram usage:        9 bytes
 11771 ;; Hardware stack levels used:    1
 11772 ;; Hardware stack levels required when called:    4
 11773 ;; This function calls:
 11774 ;;		Nothing
 11775 ;; This function is called by:
 11776 ;;		_outputDateData
 11777 ;;		_RefreshSchedulerIndicator
 11778 ;;		_ItemsToIndicator
 11779 ;;		_outputString
 11780 ;; This function uses a non-reentrant model
 11781 ;;
 11782                           
 11783                           	psect	text49
 11784  00310A                     __ptext49:
 11785                           	opt stack 0
 11786  00310A                     _setDigit:
 11787                           	opt stack 23
 11788                           
 11789                           ;incstack = 0
 11790                           ;setDigit@line stored from wreg
 11791  00310A  6E2C               	movwf	setDigit@line,c
 11792                           
 11793                           ;prog.c: 208: unsigned char value = data;
 11794  00310C  C025  F02B         	movff	setDigit@data,setDigit@value
 11795                           
 11796                           ;prog.c: 209: unsigned char value0 = digits[line][symbol];
 11797  003110  D83A               	call	PL30	;call to abstracted procedure
 11798  003112  D827               	call	PL14	;call to abstracted procedure
 11799  003114  50DF               	movf	indf2,w,c
 11800  003116  6E2A               	movwf	setDigit@value0,c
 11801                           
 11802                           ;prog.c: 210: digitsAtrib[line][symbol].modifided = digitsAtrib[line][symbol].modifided 
      +                          > 0 || (value != value0);
 11803  003118  0E01               	movlw	1
 11804  00311A  6E28               	movwf	_setDigit$793,c
 11805  00311C  D82E               	call	PL24	;call to abstracted procedure
 11806  00311E  D821               	call	PL14	;call to abstracted procedure
 11807  003120  0101               	movlb	1	; () banked
 11808  003122  B2DF               	btfsc	indf2,1,c
 11809  003124  D004               	goto	l4649
 11810                           
 11811                           ; BSR set to: 1
 11812  003126  502A               	movf	setDigit@value0,w,c
 11813  003128  182B               	xorwf	setDigit@value,w,c
 11814  00312A  E101               	bnz	l4649
 11815                           
 11816                           ; BSR set to: 1
 11817  00312C  6A28               	clrf	_setDigit$793,c
 11818  00312E                     l4649:
 11819                           
 11820                           ; BSR set to: 1
 11821  00312E  D825               	call	PL24	;call to abstracted procedure
 11822  003130  D818               	call	PL14	;call to abstracted procedure
 11823  003132  B028               	btfsc	_setDigit$793,0,c
 11824  003134  D002               	bra	u2945
 11825  003136  92DF               	bcf	indf2,1,c
 11826  003138  D002               	bra	u2946
 11827  00313A                     u2945:
 11828  00313A  0101               	movlb	1	; () banked
 11829  00313C  82DF               	bsf	indf2,1,c
 11830  00313E                     u2946:
 11831                           
 11832                           ; BSR set to: 1
 11833                           ;prog.c: 211: flags.IsLCDModified = flags.IsLCDModified || (value != value0);
 11834  00313E  0E01               	movlw	1
 11835  003140  6E29               	movwf	_setDigit$794,c
 11836                           
 11837                           ; BSR set to: 1
 11838  003142  B058               	btfsc	_flags+1,0,c
 11839  003144  D004               	goto	l203
 11840                           
 11841                           ; BSR set to: 1
 11842  003146  502A               	movf	setDigit@value0,w,c
 11843  003148  182B               	xorwf	setDigit@value,w,c
 11844  00314A  E101               	bnz	l203
 11845                           
 11846                           ; BSR set to: 1
 11847  00314C  6A29               	clrf	_setDigit$794,c
 11848  00314E                     l203:
 11849                           
 11850                           ; BSR set to: 1
 11851  00314E  B029               	btfsc	_setDigit$794,0,c
 11852  003150  D002               	bra	u2975
 11853  003152  9058               	bcf	_flags+1,0,c
 11854  003154  D001               	bra	u2976
 11855  003156                     u2975:
 11856  003156  8058               	bsf	_flags+1,0,c
 11857  003158                     u2976:
 11858                           
 11859                           ;prog.c: 212: digits[line][symbol] = value;
 11860  003158  D816               	call	PL30	;call to abstracted procedure
 11861  00315A  D803               	call	PL14	;call to abstracted procedure
 11862  00315C  C02B  FFDF         	movff	setDigit@value,indf2
 11863  003160  0012               	return		;funcret
 11864  003162                     __end_of_setDigit:
 11865                           	opt stack 0
 11866  003162                     PL14:
 11867                           	opt stack 23
 11868  003162  6E27               	movwf	(??_setDigit+1)& (0+255),c
 11869  003164  50F3               	movf	prodl,w,c
 11870  003166  2626               	addwf	??_setDigit,f,c
 11871  003168  50F4               	movf	prodh,w,c
 11872  00316A  2227               	addwfc	??_setDigit+1,f,c
 11873  00316C  5024               	movf	setDigit@symbol,w,c
 11874  00316E  2426               	addwf	??_setDigit,w,c
 11875  003170  6ED9               	movwf	fsr2l,c
 11876  003172  0E00               	movlw	0
 11877  003174  2027               	addwfc	??_setDigit+1,w,c
 11878  003176  6EDA               	movwf	fsr2h,c
 11879  003178  0012               	return	
 11880  00317A                     __end_ofPL14:
 11881                           	opt stack 0
 11882  00317A                     PL24:
 11883                           	opt stack 23
 11884  00317A  502C               	movf	setDigit@line,w,c
 11885  00317C  0D10               	mullw	16
 11886  00317E  0E74               	movlw	low _digitsAtrib
 11887  003180  6E26               	movwf	??_setDigit& (0+255),c
 11888  003182  0E01               	movlw	high _digitsAtrib
 11889  003184  0012               	return	
 11890  003186                     __end_ofPL24:
 11891                           	opt stack 0
 11892  003186                     PL30:
 11893                           	opt stack 23
 11894  003186  502C               	movf	setDigit@line,w,c
 11895  003188  0D10               	mullw	16
 11896  00318A  0E54               	movlw	low _digits
 11897  00318C  6E26               	movwf	??_setDigit& (0+255),c
 11898  00318E  0E01               	movlw	high _digits
 11899  003190  0012               	return	
 11900  003192                     __end_ofPL30:
 11901                           	opt stack 0
 11902                           tblptru	equ	0xFF8
 11903                           tblptrh	equ	0xFF7
 11904                           tblptrl	equ	0xFF6
 11905                           tablat	equ	0xFF5
 11906                           prodh	equ	0xFF4
 11907                           prodl	equ	0xFF3
 11908                           intcon	equ	0xFF2
 11909                           intcon2	equ	0xFF1
 11910                           intcon3	equ	0xFF0
 11911                           postinc0	equ	0xFEE
 11912                           wreg	equ	0xFE8
 11913                           indf1	equ	0xFE7
 11914                           postdec1	equ	0xFE5
 11915                           plusw1	equ	0xFE3
 11916                           fsr1h	equ	0xFE2
 11917                           fsr1l	equ	0xFE1
 11918                           indf2	equ	0xFDF
 11919                           postinc2	equ	0xFDE
 11920                           postdec2	equ	0xFDD
 11921                           plusw2	equ	0xFDB
 11922                           fsr2h	equ	0xFDA
 11923                           fsr2l	equ	0xFD9
 11924                           status	equ	0xFD8
 11925                           
 11926 ;; *************** function _setBlink *****************
 11927 ;; Defined at:
 11928 ;;		line 215 in file "prog.c"
 11929 ;; Parameters:    Size  Location     Type
 11930 ;;  line            1    wreg     unsigned char 
 11931 ;;  symbol          1   28[COMRAM] unsigned char 
 11932 ;;  value           1   29[COMRAM] unsigned char 
 11933 ;; Auto vars:     Size  Location     Type
 11934 ;;  line            1   32[COMRAM] unsigned char 
 11935 ;; Return value:  Size  Location     Type
 11936 ;;                  1    wreg      void 
 11937 ;; Registers used:
 11938 ;;		wreg, fsr2l, fsr2h, status,2, status,0, prodl, prodh
 11939 ;; Tracked objects:
 11940 ;;		On entry : 0/0
 11941 ;;		On exit  : F/1
 11942 ;;		Unchanged: 0/0
 11943 ;; Data sizes:     COMRAM   BANK0   BANK1   BANK2   BANK3   BANK4   BANK5   BANK6   BANK7   BANK8   BANK9  BANK10  BANK1
      +1  BANK12  BANK13  BANK14  BANK15
 11944 ;;      Params:         2       0       0       0       0       0       0       0       0       0       0       0       
      +0       0       0       0       0
 11945 ;;      Locals:         1       0       0       0       0       0       0       0       0       0       0       0       
      +0       0       0       0       0
 11946 ;;      Temps:          2       0       0       0       0       0       0       0       0       0       0       0       
      +0       0       0       0       0
 11947 ;;      Totals:         5       0       0       0       0       0       0       0       0       0       0       0       
      +0       0       0       0       0
 11948 ;;Total ram usage:        5 bytes
 11949 ;; Hardware stack levels used:    1
 11950 ;; Hardware stack levels required when called:    4
 11951 ;; This function calls:
 11952 ;;		Nothing
 11953 ;; This function is called by:
 11954 ;;		_outputDateData
 11955 ;;		_EditSchedule
 11956 ;; This function uses a non-reentrant model
 11957 ;;
 11958                           
 11959                           	psect	text50
 11960  003876                     __ptext50:
 11961                           	opt stack 0
 11962  003876                     _setBlink:
 11963                           	opt stack 21
 11964                           
 11965                           ;incstack = 0
 11966                           ;setBlink@line stored from wreg
 11967  003876  6E21               	movwf	setBlink@line,c
 11968                           
 11969                           ;prog.c: 216: if (value != 0) {
 11970  003878  501E               	movf	setBlink@value,w,c
 11971  00387A  E004               	bz	l4837
 11972                           
 11973                           ;prog.c: 217: digitsAtrib[line][symbol].blink = 1;
 11974  00387C  D80A               	call	PL10	;call to abstracted procedure
 11975  00387E  0101               	movlb	1	; () banked
 11976  003880  80DF               	bsf	indf2,0,c
 11977                           
 11978                           ;prog.c: 218: } else {
 11979  003882  D003               	goto	l208
 11980  003884                     l4837:
 11981                           
 11982                           ;prog.c: 219: digitsAtrib[line][symbol].blink = 0;
 11983  003884  D806               	call	PL10	;call to abstracted procedure
 11984  003886  0101               	movlb	1	; () banked
 11985  003888  90DF               	bcf	indf2,0,c
 11986  00388A                     l208:
 11987                           
 11988                           ; BSR set to: 1
 11989                           ;prog.c: 220: }
 11990                           ;prog.c: 221: digitsAtrib[line][symbol].modifided = 1;
 11991  00388A  D803               	call	PL10	;call to abstracted procedure
 11992  00388C  82DF               	bsf	indf2,1,c
 11993                           
 11994                           ; BSR set to: 1
 11995                           ;prog.c: 222: flags.IsLCDModified = 1;
 11996  00388E  8058               	bsf	_flags+1,0,c
 11997                           
 11998                           ; BSR set to: 1
 11999  003890  0012               	return		;funcret
 12000  003892                     __end_of_setBlink:
 12001                           	opt stack 0
 12002  003892                     PL10:
 12003                           	opt stack 21
 12004  003892  5021               	movf	setBlink@line,w,c
 12005  003894  0D10               	mullw	16
 12006  003896  0E74               	movlw	low _digitsAtrib
 12007  003898  6E1F               	movwf	??_setBlink& (0+255),c
 12008  00389A  0E01               	movlw	high _digitsAtrib
 12009  00389C  6E20               	movwf	(??_setBlink+1)& (0+255),c
 12010  00389E  50F3               	movf	prodl,w,c
 12011  0038A0  261F               	addwf	??_setBlink,f,c
 12012  0038A2  50F4               	movf	prodh,w,c
 12013  0038A4  2220               	addwfc	??_setBlink+1,f,c
 12014  0038A6  501D               	movf	setBlink@symbol,w,c
 12015  0038A8  241F               	addwf	??_setBlink,w,c
 12016  0038AA  6ED9               	movwf	fsr2l,c
 12017  0038AC  0E00               	movlw	0
 12018  0038AE  2020               	addwfc	??_setBlink+1,w,c
 12019  0038B0  6EDA               	movwf	fsr2h,c
 12020  0038B2  0012               	return	
 12021  0038B4                     __end_ofPL10:
 12022                           	opt stack 0
 12023                           tblptru	equ	0xFF8
 12024                           tblptrh	equ	0xFF7
 12025                           tblptrl	equ	0xFF6
 12026                           tablat	equ	0xFF5
 12027                           prodh	equ	0xFF4
 12028                           prodl	equ	0xFF3
 12029                           intcon	equ	0xFF2
 12030                           intcon2	equ	0xFF1
 12031                           intcon3	equ	0xFF0
 12032                           postinc0	equ	0xFEE
 12033                           wreg	equ	0xFE8
 12034                           indf1	equ	0xFE7
 12035                           postdec1	equ	0xFE5
 12036                           plusw1	equ	0xFE3
 12037                           fsr1h	equ	0xFE2
 12038                           fsr1l	equ	0xFE1
 12039                           indf2	equ	0xFDF
 12040                           postinc2	equ	0xFDE
 12041                           postdec2	equ	0xFDD
 12042                           plusw2	equ	0xFDB
 12043                           fsr2h	equ	0xFDA
 12044                           fsr2l	equ	0xFD9
 12045                           status	equ	0xFD8
 12046                           
 12047 ;; *************** function _getNumChar *****************
 12048 ;; Defined at:
 12049 ;;		line 1712 in file "prog.c"
 12050 ;; Parameters:    Size  Location     Type
 12051 ;;  num             1    wreg     unsigned char 
 12052 ;; Auto vars:     Size  Location     Type
 12053 ;;  num             1   28[COMRAM] unsigned char 
 12054 ;; Return value:  Size  Location     Type
 12055 ;;                  1    wreg      unsigned char 
 12056 ;; Registers used:
 12057 ;;		wreg, status,2, status,0
 12058 ;; Tracked objects:
 12059 ;;		On entry : 0/1
 12060 ;;		On exit  : 0/0
 12061 ;;		Unchanged: 0/0
 12062 ;; Data sizes:     COMRAM   BANK0   BANK1   BANK2   BANK3   BANK4   BANK5   BANK6   BANK7   BANK8   BANK9  BANK10  BANK1
      +1  BANK12  BANK13  BANK14  BANK15
 12063 ;;      Params:         0       0       0       0       0       0       0       0       0       0       0       0       
      +0       0       0       0       0
 12064 ;;      Locals:         1       0       0       0       0       0       0       0       0       0       0       0       
      +0       0       0       0       0
 12065 ;;      Temps:          0       0       0       0       0       0       0       0       0       0       0       0       
      +0       0       0       0       0
 12066 ;;      Totals:         1       0       0       0       0       0       0       0       0       0       0       0       
      +0       0       0       0       0
 12067 ;;Total ram usage:        1 bytes
 12068 ;; Hardware stack levels used:    1
 12069 ;; Hardware stack levels required when called:    4
 12070 ;; This function calls:
 12071 ;;		Nothing
 12072 ;; This function is called by:
 12073 ;;		_NumericToString
 12074 ;;		_TimeToInd
 12075 ;;		_ReIndTimeEdit
 12076 ;;		_RefreshSchedulerIndicator
 12077 ;;		_TimeDataToString
 12078 ;;		_ItemsToIndicator
 12079 ;; This function uses a non-reentrant model
 12080 ;;
 12081                           
 12082                           	psect	text51
 12083  00345C                     __ptext51:
 12084                           	opt stack 0
 12085  00345C                     _getNumChar:
 12086                           	opt stack 24
 12087                           
 12088                           ; BSR set to: 1
 12089                           ;incstack = 0
 12090                           ;getNumChar@num stored from wreg
 12091  00345C  6E1D               	movwf	getNumChar@num,c
 12092                           
 12093                           ;prog.c: 1713: switch (num) {
 12094  00345E  501D               	movf	getNumChar@num,w,c
 12095                           
 12096                           ; Switch size 1, requested type "space"
 12097                           ; Number of cases is 16, Range of values is 0 to 15
 12098                           ; switch strategies available:
 12099                           ; Name         Instructions Cycles
 12100                           ; simple_byte           49    25 (average)
 12101                           ;	Chosen strategy is simple_byte
 12102  003460  B4D8               	btfsc	status,2,c
 12103  003462  0C30               	retlw	48
 12104  003464  0A01               	xorlw	1	; case 1
 12105  003466  B4D8               	btfsc	status,2,c
 12106  003468  0C31               	retlw	49
 12107  00346A  0A03               	xorlw	3	; case 2
 12108  00346C  B4D8               	btfsc	status,2,c
 12109  00346E  0C32               	retlw	50
 12110  003470  0A01               	xorlw	1	; case 3
 12111  003472  B4D8               	btfsc	status,2,c
 12112  003474  0C33               	retlw	51
 12113  003476  0A07               	xorlw	7	; case 4
 12114  003478  B4D8               	btfsc	status,2,c
 12115  00347A  0C34               	retlw	52
 12116  00347C  0A01               	xorlw	1	; case 5
 12117  00347E  B4D8               	btfsc	status,2,c
 12118  003480  0C35               	retlw	53
 12119  003482  0A03               	xorlw	3	; case 6
 12120  003484  B4D8               	btfsc	status,2,c
 12121  003486  0C36               	retlw	54
 12122  003488  0A01               	xorlw	1	; case 7
 12123  00348A  B4D8               	btfsc	status,2,c
 12124  00348C  0C37               	retlw	55
 12125  00348E  0A0F               	xorlw	15	; case 8
 12126  003490  B4D8               	btfsc	status,2,c
 12127  003492  0C38               	retlw	56
 12128  003494  0A01               	xorlw	1	; case 9
 12129  003496  B4D8               	btfsc	status,2,c
 12130  003498  0C39               	retlw	57
 12131  00349A  0A03               	xorlw	3	; case 10
 12132  00349C  B4D8               	btfsc	status,2,c
 12133  00349E  0C41               	retlw	65
 12134  0034A0  0A01               	xorlw	1	; case 11
 12135  0034A2  B4D8               	btfsc	status,2,c
 12136  0034A4  0C42               	retlw	66
 12137  0034A6  0A07               	xorlw	7	; case 12
 12138  0034A8  B4D8               	btfsc	status,2,c
 12139  0034AA  0C43               	retlw	67
 12140  0034AC  0A01               	xorlw	1	; case 13
 12141  0034AE  B4D8               	btfsc	status,2,c
 12142  0034B0  0C44               	retlw	68
 12143  0034B2  0A03               	xorlw	3	; case 14
 12144  0034B4  B4D8               	btfsc	status,2,c
 12145  0034B6  0C45               	retlw	69
 12146  0034B8  0A01               	xorlw	1	; case 15
 12147  0034BA  B4D8               	btfsc	status,2,c
 12148  0034BC  0C46               	retlw	70
 12149  0034BE  0C3F               	retlw	63
 12150  0034C0                     __end_of_getNumChar:
 12151                           	opt stack 0
 12152                           tblptru	equ	0xFF8
 12153                           tblptrh	equ	0xFF7
 12154                           tblptrl	equ	0xFF6
 12155                           tablat	equ	0xFF5
 12156                           prodh	equ	0xFF4
 12157                           prodl	equ	0xFF3
 12158                           intcon	equ	0xFF2
 12159                           intcon2	equ	0xFF1
 12160                           intcon3	equ	0xFF0
 12161                           postinc0	equ	0xFEE
 12162                           wreg	equ	0xFE8
 12163                           indf1	equ	0xFE7
 12164                           postdec1	equ	0xFE5
 12165                           plusw1	equ	0xFE3
 12166                           fsr1h	equ	0xFE2
 12167                           fsr1l	equ	0xFE1
 12168                           indf2	equ	0xFDF
 12169                           postinc2	equ	0xFDE
 12170                           postdec2	equ	0xFDD
 12171                           plusw2	equ	0xFDB
 12172                           fsr2h	equ	0xFDA
 12173                           fsr2l	equ	0xFD9
 12174                           status	equ	0xFD8
 12175                           
 12176 ;; *************** function _FillMinutes *****************
 12177 ;; Defined at:
 12178 ;;		line 1576 in file "prog.c"
 12179 ;; Parameters:    Size  Location     Type
 12180 ;;		None
 12181 ;; Auto vars:     Size  Location     Type
 12182 ;;		None
 12183 ;; Return value:  Size  Location     Type
 12184 ;;                  1    wreg      void 
 12185 ;; Registers used:
 12186 ;;		wreg, status,2, status,0
 12187 ;; Tracked objects:
 12188 ;;		On entry : 0/0
 12189 ;;		On exit  : F/1
 12190 ;;		Unchanged: 0/0
 12191 ;; Data sizes:     COMRAM   BANK0   BANK1   BANK2   BANK3   BANK4   BANK5   BANK6   BANK7   BANK8   BANK9  BANK10  BANK1
      +1  BANK12  BANK13  BANK14  BANK15
 12192 ;;      Params:         0       0       0       0       0       0       0       0       0       0       0       0       
      +0       0       0       0       0
 12193 ;;      Locals:         0       0       0       0       0       0       0       0       0       0       0       0       
      +0       0       0       0       0
 12194 ;;      Temps:          0       0       0       0       0       0       0       0       0       0       0       0       
      +0       0       0       0       0
 12195 ;;      Totals:         0       0       0       0       0       0       0       0       0       0       0       0       
      +0       0       0       0       0
 12196 ;;Total ram usage:        0 bytes
 12197 ;; Hardware stack levels used:    1
 12198 ;; Hardware stack levels required when called:    4
 12199 ;; This function calls:
 12200 ;;		Nothing
 12201 ;; This function is called by:
 12202 ;;		_main2
 12203 ;; This function uses a non-reentrant model
 12204 ;;
 12205                           
 12206                           	psect	text52
 12207  003BA0                     __ptext52:
 12208                           	opt stack 0
 12209  003BA0                     _FillMinutes:
 12210                           	opt stack 25
 12211                           
 12212                           ;prog.c: 1577: Minutes = Clock - 3000;
 12213                           
 12214                           ;incstack = 0
 12215  003BA0  0E48               	movlw	72
 12216  003BA2  0101               	movlb	1	; () banked
 12217                           
 12218                           ; BSR set to: 1
 12219  003BA4  D000               	goto	PL44	;call to abstracted procedure
 12220  003BA6                     __end_of_FillMinutes:
 12221                           	opt stack 0
 12222  003BA6                     PL44:
 12223                           	opt stack 19
 12224  003BA6  2594               	addwf	_Clock& (0+255),w,b
 12225  003BA8  6E4F               	movwf	_Minutes,c
 12226  003BAA  0EF4               	movlw	244
 12227  003BAC  2195               	addwfc	(_Clock+1)& (0+255),w,b
 12228  003BAE  6E50               	movwf	_Minutes+1,c
 12229  003BB0  0EFF               	movlw	255
 12230  003BB2  2196               	addwfc	(_Clock+2)& (0+255),w,b
 12231  003BB4  6E51               	movwf	_Minutes+2,c
 12232  003BB6  0EFF               	movlw	255
 12233  003BB8  2197               	addwfc	(_Clock+3)& (0+255),w,b
 12234  003BBA  6E52               	movwf	_Minutes+3,c
 12235  003BBC  0012               	return		;funcret
 12236  003BBE                     __end_ofPL44:
 12237                           	opt stack 0
 12238                           tblptru	equ	0xFF8
 12239                           tblptrh	equ	0xFF7
 12240                           tblptrl	equ	0xFF6
 12241                           tablat	equ	0xFF5
 12242                           prodh	equ	0xFF4
 12243                           prodl	equ	0xFF3
 12244                           intcon	equ	0xFF2
 12245                           intcon2	equ	0xFF1
 12246                           intcon3	equ	0xFF0
 12247                           postinc0	equ	0xFEE
 12248                           wreg	equ	0xFE8
 12249                           indf1	equ	0xFE7
 12250                           postdec1	equ	0xFE5
 12251                           plusw1	equ	0xFE3
 12252                           fsr1h	equ	0xFE2
 12253                           fsr1l	equ	0xFE1
 12254                           indf2	equ	0xFDF
 12255                           postinc2	equ	0xFDE
 12256                           postdec2	equ	0xFDD
 12257                           plusw2	equ	0xFDB
 12258                           fsr2h	equ	0xFDA
 12259                           fsr2l	equ	0xFD9
 12260                           status	equ	0xFD8
 12261                           
 12262 ;; *************** function _F_l *****************
 12263 ;; Defined at:
 12264 ;;		line 1584 in file "prog.c"
 12265 ;; Parameters:    Size  Location     Type
 12266 ;;		None
 12267 ;; Auto vars:     Size  Location     Type
 12268 ;;  digit           1   20[COMRAM] unsigned char 
 12269 ;;  symbol          2   25[COMRAM] int 
 12270 ;;  a               2   23[COMRAM] int 
 12271 ;;  _KeyIndex       1   22[COMRAM] unsigned char 
 12272 ;;  data_temp       1   21[COMRAM] unsigned char 
 12273 ;;  line            1   27[COMRAM] unsigned char 
 12274 ;;  MinuteAgo       1   19[COMRAM] unsigned char 
 12275 ;; Return value:  Size  Location     Type
 12276 ;;                  1    wreg      void 
 12277 ;; Registers used:
 12278 ;;		wreg, fsr2l, fsr2h, status,2, status,0, prodl, prodh, cstack
 12279 ;; Tracked objects:
 12280 ;;		On entry : 0/0
 12281 ;;		On exit  : 0/0
 12282 ;;		Unchanged: 0/0
 12283 ;; Data sizes:     COMRAM   BANK0   BANK1   BANK2   BANK3   BANK4   BANK5   BANK6   BANK7   BANK8   BANK9  BANK10  BANK1
      +1  BANK12  BANK13  BANK14  BANK15
 12284 ;;      Params:         0       0       0       0       0       0       0       0       0       0       0       0       
      +0       0       0       0       0
 12285 ;;      Locals:         9       0       0       0       0       0       0       0       0       0       0       0       
      +0       0       0       0       0
 12286 ;;      Temps:         11       0       0       0       0       0       0       0       0       0       0       0       
      +0       0       0       0       0
 12287 ;;      Totals:        20       0       0       0       0       0       0       0       0       0       0       0       
      +0       0       0       0       0
 12288 ;;Total ram usage:       20 bytes
 12289 ;; Hardware stack levels used:    1
 12290 ;; Hardware stack levels required when called:    3
 12291 ;; This function calls:
 12292 ;;		_ConvKeyNum
 12293 ;;		_SendSymbolToLCD
 12294 ;;		_getLcdCodeOfChar
 12295 ;;		i1_FillMinutes
 12296 ;;		i1_lcd_send_byte
 12297 ;; This function is called by:
 12298 ;;		Interrupt level 1
 12299 ;; This function uses a non-reentrant model
 12300 ;;
 12301                           
 12302                           	psect	intcodelo
 12303  000018                     __pintcodelo:
 12304                           	opt stack 0
 12305  000018                     _F_l:
 12306                           	opt stack 18
 12307                           
 12308                           ; BSR set to: 1
 12309                           ;incstack = 0
 12310  000018  8062               	bsf	btemp,0,c	;set compiler interrupt flag (level 1)
 12311  00001A  CFD8 F00D          	movff	status,??_F_l+4
 12312  00001E  CFE8 F00E          	movff	wreg,??_F_l+5
 12313  000022  CFE0 F00F          	movff	bsr,??_F_l+6
 12314  000026  CFD9 F010          	movff	fsr2l,??_F_l+7
 12315  00002A  CFDA F011          	movff	fsr2h,??_F_l+8
 12316  00002E  CFF3 F012          	movff	prodl,??_F_l+9
 12317  000032  CFF4 F013          	movff	prodh,??_F_l+10
 12318  000036  0004               	clrwdt		;# 
 12319                           
 12320                           ;prog.c: 1586: if (TMR1IF) {
 12321  000038  A09E               	btfss	3998,0,c	;volatile
 12322  00003A  D0F1               	goto	i1l964
 12323                           
 12324                           ;prog.c: 1587: TMR1IF = 0;
 12325  00003C  909E               	bcf	3998,0,c	;volatile
 12326                           
 12327                           ;prog.c: 1588: TMR1 += 51200;
 12328  00003E  0EC8               	movlw	200
 12329  000040  26CF               	addwf	4047,f,c	;volatile
 12330                           
 12331                           ;prog.c: 1590: char MinuteAgo = (Clock - Minutes > 6000);
 12332  000042  504F               	movf	_Minutes,w,c
 12333  000044  0101               	movlb	1	; () banked
 12334  000046  5D94               	subwf	_Clock& (0+255),w,b
 12335  000048  6E09               	movwf	??_F_l& (0+255),c
 12336  00004A  5050               	movf	_Minutes+1,w,c
 12337  00004C  5995               	subwfb	(_Clock+1)& (0+255),w,b
 12338  00004E  6E0A               	movwf	(??_F_l+1)& (0+255),c
 12339  000050  5051               	movf	_Minutes+2,w,c
 12340  000052  5996               	subwfb	(_Clock+2)& (0+255),w,b
 12341  000054  6E0B               	movwf	(??_F_l+2)& (0+255),c
 12342  000056  5052               	movf	_Minutes+3,w,c
 12343  000058  5997               	subwfb	(_Clock+3)& (0+255),w,b
 12344  00005A  6E0C               	movwf	(??_F_l+3)& (0+255),c
 12345  00005C  BE0C               	btfsc	??_F_l+3,7,c
 12346  00005E  D00A               	goto	i1u557_20
 12347  000060  500C               	movf	??_F_l+3,w,c
 12348  000062  100B               	iorwf	??_F_l+2,w,c
 12349  000064  E105               	bnz	i1u557_21
 12350  000066  0E71               	movlw	113
 12351  000068  5C09               	subwf	??_F_l,w,c
 12352  00006A  0E17               	movlw	23
 12353  00006C  580A               	subwfb	??_F_l+1,w,c
 12354  00006E  E302               	bnc	i1u557_20
 12355  000070                     i1u557_21:
 12356  000070  0E01               	movlw	1
 12357  000072  D001               	goto	i1u558_20
 12358  000074                     i1u557_20:
 12359  000074  0E00               	movlw	0
 12360  000076                     i1u558_20:
 12361  000076  6E14               	movwf	F_l@MinuteAgo,c
 12362                           
 12363                           ; BSR set to: 1
 12364                           ;prog.c: 1591: if (MinuteAgo > 0) {
 12365  000078  5014               	movf	F_l@MinuteAgo,w,c
 12366  00007A  E003               	bz	i1l7331
 12367                           
 12368                           ; BSR set to: 1
 12369                           ;prog.c: 1592: FillMinutes();
 12370  00007C  EC07  F01E         	call	i1_FillMinutes	;wreg free
 12371                           
 12372                           ; BSR set to: 1
 12373                           ;prog.c: 1593: flags.RelevanceOfNextStartCell = 0;
 12374  000080  9257               	bcf	_flags,1,c
 12375  000082                     i1l7331:
 12376                           
 12377                           ; BSR set to: 1
 12378                           ;prog.c: 1594: }
 12379                           ;prog.c: 1596: if (flags.LCD_Power_On && (GlobalBlinkCycleTime == 100 || flags.IsLCDModi
      +                          fied)) {
 12380  000082  AC57               	btfss	_flags,6,c
 12381  000084  D084               	goto	i1l7373
 12382                           
 12383                           ; BSR set to: 1
 12384  000086  0E64               	movlw	100
 12385  000088  1861               	xorwf	_GlobalBlinkCycleTime,w,c
 12386  00008A  E002               	bz	i1l935
 12387                           
 12388                           ; BSR set to: 1
 12389  00008C  A058               	btfss	_flags+1,0,c
 12390  00008E  D07F               	goto	i1l7373
 12391  000090                     i1l935:
 12392                           
 12393                           ; BSR set to: 1
 12394                           ;prog.c: 1597: for (char line = 0; line < 2; line++) {
 12395  000090  6A1C               	clrf	F_l@line,c
 12396  000092                     i1l936:
 12397                           
 12398                           ; BSR set to: 1
 12399                           ;prog.c: 1598: for (int symbol = 0; symbol < 16; symbol++) {
 12400  000092  6A1A               	clrf	F_l@symbol,c
 12401  000094  6A1B               	clrf	F_l@symbol+1,c
 12402  000096                     i1l7345:
 12403                           
 12404                           ; BSR set to: 1
 12405                           ;prog.c: 1599: if (GlobalBlinkCycleTime == 100 || digitsAtrib[line][symbol].modifided > 
      +                          0) {
 12406  000096  0E64               	movlw	100
 12407  000098  1861               	xorwf	_GlobalBlinkCycleTime,w,c
 12408  00009A  E012               	bz	i1l7349
 12409                           
 12410                           ; BSR set to: 1
 12411  00009C  501C               	movf	F_l@line,w,c
 12412  00009E  0D10               	mullw	16
 12413  0000A0  0E74               	movlw	low _digitsAtrib
 12414  0000A2  6E09               	movwf	??_F_l& (0+255),c
 12415  0000A4  0E01               	movlw	high _digitsAtrib
 12416  0000A6  6E0A               	movwf	(??_F_l+1)& (0+255),c
 12417  0000A8  50F3               	movf	prodl,w,c
 12418  0000AA  2609               	addwf	??_F_l,f,c
 12419  0000AC  50F4               	movf	prodh,w,c
 12420  0000AE  220A               	addwfc	??_F_l+1,f,c
 12421  0000B0  501A               	movf	F_l@symbol,w,c
 12422  0000B2  2409               	addwf	??_F_l,w,c
 12423  0000B4  6ED9               	movwf	fsr2l,c
 12424  0000B6  501B               	movf	F_l@symbol+1,w,c
 12425  0000B8  200A               	addwfc	??_F_l+1,w,c
 12426  0000BA  6EDA               	movwf	fsr2h,c
 12427  0000BC  A2DF               	btfss	indf2,1,c
 12428  0000BE  D059               	goto	i1l7365
 12429  0000C0                     i1l7349:
 12430                           
 12431                           ; BSR set to: 1
 12432                           ;prog.c: 1600: unsigned char digit = digits[line][symbol];
 12433  0000C0  501C               	movf	F_l@line,w,c
 12434  0000C2  0D10               	mullw	16
 12435  0000C4  0E54               	movlw	low _digits
 12436  0000C6  6E09               	movwf	??_F_l& (0+255),c
 12437  0000C8  0E01               	movlw	high _digits
 12438  0000CA  6E0A               	movwf	(??_F_l+1)& (0+255),c
 12439  0000CC  50F3               	movf	prodl,w,c
 12440  0000CE  2609               	addwf	??_F_l,f,c
 12441  0000D0  50F4               	movf	prodh,w,c
 12442  0000D2  220A               	addwfc	??_F_l+1,f,c
 12443  0000D4  501A               	movf	F_l@symbol,w,c
 12444  0000D6  2409               	addwf	??_F_l,w,c
 12445  0000D8  6ED9               	movwf	fsr2l,c
 12446  0000DA  501B               	movf	F_l@symbol+1,w,c
 12447  0000DC  200A               	addwfc	??_F_l+1,w,c
 12448  0000DE  6EDA               	movwf	fsr2h,c
 12449  0000E0  50DF               	movf	indf2,w,c
 12450  0000E2  6E15               	movwf	F_l@digit,c
 12451                           
 12452                           ; BSR set to: 1
 12453                           ;prog.c: 1601: lcd_send_byte((line * 0x40 + symbol) | 0b10000000);
 12454  0000E4  501C               	movf	F_l@line,w,c
 12455  0000E6  0D40               	mullw	64
 12456  0000E8  50F3               	movf	prodl,w,c
 12457  0000EA  241A               	addwf	F_l@symbol,w,c
 12458  0000EC  0980               	iorlw	128
 12459  0000EE  ECAD  F01D         	call	i1_lcd_send_byte
 12460                           
 12461                           ;prog.c: 1602: if (!(digitsAtrib[line][symbol].blink == 0 || digitsAtrib[line][symbol].b
      +                          link == 1 && flags.GlobalBlink)) {
 12462  0000F2  501C               	movf	F_l@line,w,c
 12463  0000F4  0D10               	mullw	16
 12464  0000F6  0E74               	movlw	low _digitsAtrib
 12465  0000F8  6E09               	movwf	??_F_l& (0+255),c
 12466  0000FA  0E01               	movlw	high _digitsAtrib
 12467  0000FC  6E0A               	movwf	(??_F_l+1)& (0+255),c
 12468  0000FE  50F3               	movf	prodl,w,c
 12469  000100  2609               	addwf	??_F_l,f,c
 12470  000102  50F4               	movf	prodh,w,c
 12471  000104  220A               	addwfc	??_F_l+1,f,c
 12472  000106  501A               	movf	F_l@symbol,w,c
 12473  000108  2409               	addwf	??_F_l,w,c
 12474  00010A  6ED9               	movwf	fsr2l,c
 12475  00010C  501B               	movf	F_l@symbol+1,w,c
 12476  00010E  200A               	addwfc	??_F_l+1,w,c
 12477  000110  6EDA               	movwf	fsr2h,c
 12478  000112  0101               	movlb	1	; () banked
 12479  000114  A0DF               	btfss	indf2,0,c
 12480  000116  D016               	goto	i1l7361
 12481                           
 12482                           ; BSR set to: 1
 12483  000118  501C               	movf	F_l@line,w,c
 12484  00011A  0D10               	mullw	16
 12485  00011C  0E74               	movlw	low _digitsAtrib
 12486  00011E  6E09               	movwf	??_F_l& (0+255),c
 12487  000120  0E01               	movlw	high _digitsAtrib
 12488  000122  6E0A               	movwf	(??_F_l+1)& (0+255),c
 12489  000124  50F3               	movf	prodl,w,c
 12490  000126  2609               	addwf	??_F_l,f,c
 12491  000128  50F4               	movf	prodh,w,c
 12492  00012A  220A               	addwfc	??_F_l+1,f,c
 12493  00012C  501A               	movf	F_l@symbol,w,c
 12494  00012E  2409               	addwf	??_F_l,w,c
 12495  000130  6ED9               	movwf	fsr2l,c
 12496  000132  501B               	movf	F_l@symbol+1,w,c
 12497  000134  200A               	addwfc	??_F_l+1,w,c
 12498  000136  6EDA               	movwf	fsr2h,c
 12499  000138  A0DF               	btfss	indf2,0,c
 12500  00013A  D002               	goto	i1l7359
 12501                           
 12502                           ; BSR set to: 1
 12503  00013C  B258               	btfsc	_flags+1,1,c
 12504  00013E  D002               	goto	i1l7361
 12505  000140                     i1l7359:
 12506                           
 12507                           ; BSR set to: 1
 12508                           ;prog.c: 1603: digit = '_';
 12509  000140  0E5F               	movlw	95
 12510  000142  6E15               	movwf	F_l@digit,c
 12511  000144                     i1l7361:
 12512                           
 12513                           ; BSR set to: 1
 12514                           ;prog.c: 1604: }
 12515                           ;prog.c: 1605: SendSymbolToLCD(getLcdCodeOfChar(digit));
 12516  000144  5015               	movf	F_l@digit,w,c
 12517  000146  ECCD  F00F         	call	_getLcdCodeOfChar
 12518  00014A  ECC4  F019         	call	_SendSymbolToLCD
 12519                           
 12520                           ;prog.c: 1606: digitsAtrib[line][symbol].modifided = 0;
 12521  00014E  501C               	movf	F_l@line,w,c
 12522  000150  0D10               	mullw	16
 12523  000152  0E74               	movlw	low _digitsAtrib
 12524  000154  6E09               	movwf	??_F_l& (0+255),c
 12525  000156  0E01               	movlw	high _digitsAtrib
 12526  000158  6E0A               	movwf	(??_F_l+1)& (0+255),c
 12527  00015A  50F3               	movf	prodl,w,c
 12528  00015C  2609               	addwf	??_F_l,f,c
 12529  00015E  50F4               	movf	prodh,w,c
 12530  000160  220A               	addwfc	??_F_l+1,f,c
 12531  000162  501A               	movf	F_l@symbol,w,c
 12532  000164  2409               	addwf	??_F_l,w,c
 12533  000166  6ED9               	movwf	fsr2l,c
 12534  000168  501B               	movf	F_l@symbol+1,w,c
 12535  00016A  200A               	addwfc	??_F_l+1,w,c
 12536  00016C  6EDA               	movwf	fsr2h,c
 12537  00016E  0101               	movlb	1	; () banked
 12538  000170  92DF               	bcf	indf2,1,c
 12539  000172                     i1l7365:
 12540                           
 12541                           ; BSR set to: 1
 12542  000172  4A1A               	infsnz	F_l@symbol,f,c
 12543  000174  2A1B               	incf	F_l@symbol+1,f,c
 12544                           
 12545                           ; BSR set to: 1
 12546  000176  BE1B               	btfsc	F_l@symbol+1,7,c
 12547  000178  D78E               	goto	i1l7345
 12548  00017A  501B               	movf	F_l@symbol+1,w,c
 12549  00017C  E103               	bnz	i1u568_20
 12550  00017E  0E10               	movlw	16
 12551  000180  5C1A               	subwf	F_l@symbol,w,c
 12552  000182  E389               	bnc	i1l7345
 12553  000184                     i1u568_20:
 12554                           
 12555                           ; BSR set to: 1
 12556  000184  2A1C               	incf	F_l@line,f,c
 12557                           
 12558                           ; BSR set to: 1
 12559  000186  0E01               	movlw	1
 12560  000188  641C               	cpfsgt	F_l@line,c
 12561  00018A  D783               	goto	i1l936
 12562                           
 12563                           ; BSR set to: 1
 12564                           ;prog.c: 1607: }
 12565                           ;prog.c: 1608: }
 12566                           ;prog.c: 1609: }
 12567                           ;prog.c: 1610: flags.IsLCDModified = 0;
 12568  00018C  9058               	bcf	_flags+1,0,c
 12569  00018E                     i1l7373:
 12570                           
 12571                           ; BSR set to: 1
 12572                           ;prog.c: 1611: }
 12573                           ;prog.c: 1613: if (GlobalBlinkCycleTime > 0) {
 12574  00018E  5061               	movf	_GlobalBlinkCycleTime,w,c
 12575  000190  E002               	bz	i1l946
 12576                           
 12577                           ; BSR set to: 1
 12578                           ;prog.c: 1614: GlobalBlinkCycleTime--;
 12579  000192  0661               	decf	_GlobalBlinkCycleTime,f,c
 12580                           
 12581                           ;prog.c: 1615: } else {
 12582  000194  D00F               	goto	i1l7381
 12583  000196                     i1l946:
 12584                           
 12585                           ; BSR set to: 1
 12586                           ;prog.c: 1616: flags.IsLCDModified = 1;
 12587  000196  8058               	bsf	_flags+1,0,c
 12588                           
 12589                           ; BSR set to: 1
 12590                           ;prog.c: 1617: GlobalBlinkCycleTime = 100;
 12591  000198  0E64               	movlw	100
 12592  00019A  6E61               	movwf	_GlobalBlinkCycleTime,c
 12593                           
 12594                           ; BSR set to: 1
 12595                           ;prog.c: 1618: flags.GlobalBlink = !flags.GlobalBlink;
 12596  00019C  B258               	btfsc	_flags+1,1,c
 12597  00019E  D003               	goto	i1u571_20
 12598  0001A0  6A09               	clrf	??_F_l& (0+255),c
 12599  0001A2  2A09               	incf	??_F_l& (0+255),f,c
 12600  0001A4  D001               	goto	i1u572_28
 12601  0001A6                     i1u571_20:
 12602  0001A6  6A09               	clrf	??_F_l& (0+255),c
 12603  0001A8                     i1u572_28:
 12604  0001A8  4609               	rlncf	??_F_l,f,c
 12605  0001AA  5058               	movf	_flags+1,w,c
 12606  0001AC  1809               	xorwf	??_F_l,w,c
 12607  0001AE  0BFD               	andlw	-3
 12608  0001B0  1809               	xorwf	??_F_l,w,c
 12609  0001B2  6E58               	movwf	_flags+1,c
 12610  0001B4                     i1l7381:
 12611                           
 12612                           ;prog.c: 1621: }
 12613                           ;prog.c: 1623: static unsigned char ButtonPressTimeOut;
 12614                           ;prog.c: 1625: static unsigned char KeyIndex;
 12615                           ;prog.c: 1626: static unsigned char PressedKeyIndex = 0xFF;
 12616                           ;prog.c: 1628: if (ButtonPressTimeOut > 0) {
 12617  0001B4  5059               	movf	F_l@ButtonPressTimeOut,w,c
 12618  0001B6  E002               	bz	i1l954
 12619                           
 12620                           ;prog.c: 1629: ButtonPressTimeOut--;
 12621  0001B8  0659               	decf	F_l@ButtonPressTimeOut,f,c
 12622                           
 12623                           ;prog.c: 1630: } else {
 12624  0001BA  D030               	goto	i1l7423
 12625  0001BC                     i1l954:
 12626                           
 12627                           ;prog.c: 1631: KeyCode = 0;
 12628  0001BC  6A5B               	clrf	_KeyCode,c	;volatile
 12629                           
 12630                           ;prog.c: 1632: if (RB7) {
 12631  0001BE  AE81               	btfss	3969,7,c	;volatile
 12632  0001C0  D023               	goto	i1l7415
 12633                           
 12634                           ;prog.c: 1633: if (KeyIndex == 0x0F) {
 12635  0001C2  0E0F               	movlw	15
 12636  0001C4  185A               	xorwf	F_l@KeyIndex,w,c
 12637  0001C6  E102               	bnz	i1l7389
 12638                           
 12639                           ;prog.c: 1634: KeyIndex = 0;
 12640  0001C8  6A5A               	clrf	F_l@KeyIndex,c
 12641                           
 12642                           ;prog.c: 1635: } else {
 12643  0001CA  D001               	goto	i1l7391
 12644  0001CC                     i1l7389:
 12645                           
 12646                           ;prog.c: 1636: KeyIndex++;
 12647  0001CC  2A5A               	incf	F_l@KeyIndex,f,c
 12648  0001CE                     i1l7391:
 12649                           
 12650                           ;prog.c: 1637: }
 12651                           ;prog.c: 1638: unsigned char data_temp = KeyIndex;
 12652  0001CE  C05A  F016         	movff	F_l@KeyIndex,F_l@data_temp
 12653                           
 12654                           ;prog.c: 1639: unsigned char _KeyIndex = 0;
 12655  0001D2  6A17               	clrf	F_l@_KeyIndex,c
 12656                           
 12657                           ;prog.c: 1640: for (int a = 4; a > 0; a--) {
 12658  0001D4  6A19               	clrf	F_l@a+1,c
 12659  0001D6  0E04               	movlw	4
 12660  0001D8  6E18               	movwf	F_l@a,c
 12661  0001DA                     i1l7401:
 12662                           
 12663                           ;prog.c: 1641: _KeyIndex *= 2;
 12664  0001DA  0E02               	movlw	2
 12665  0001DC  0217               	mulwf	F_l@_KeyIndex,c
 12666  0001DE  50F3               	movf	prodl,w,c
 12667  0001E0  6E17               	movwf	F_l@_KeyIndex,c
 12668                           
 12669                           ;prog.c: 1642: if (data_temp % 2 == 1) {
 12670  0001E2  B016               	btfsc	F_l@data_temp,0,c
 12671                           
 12672                           ;prog.c: 1643: _KeyIndex++;
 12673  0001E4  2A17               	incf	F_l@_KeyIndex,f,c
 12674                           
 12675                           ;prog.c: 1644: }
 12676                           ;prog.c: 1645: data_temp /= 2;
 12677  0001E6  90D8               	bcf	status,0,c
 12678  0001E8  3216               	rrcf	F_l@data_temp,f,c
 12679  0001EA  0618               	decf	F_l@a,f,c
 12680  0001EC  A0D8               	btfss	status,0,c
 12681  0001EE  0619               	decf	F_l@a+1,f,c
 12682  0001F0  BE19               	btfsc	F_l@a+1,7,c
 12683  0001F2  D004               	goto	i1l7411
 12684  0001F4  5019               	movf	F_l@a+1,w,c
 12685  0001F6  E1F1               	bnz	i1l7401
 12686  0001F8  0418               	decf	F_l@a,w,c
 12687  0001FA  E2EF               	bc	i1l7401
 12688  0001FC                     i1l7411:
 12689                           
 12690                           ;prog.c: 1646: }
 12691                           ;prog.c: 1648: PORTB = _KeyIndex * 2;
 12692  0001FC  5017               	movf	F_l@_KeyIndex,w,c
 12693  0001FE  0D02               	mullw	2
 12694  000200  CFF3 FF81          	movff	prodl,3969	;volatile
 12695                           
 12696                           ;prog.c: 1649: PressedKeyIndex = 0xFF;
 12697  000204  6860               	setf	F_l@PressedKeyIndex,c
 12698                           
 12699                           ;prog.c: 1650: } else {
 12700  000206  D00A               	goto	i1l7423
 12701  000208                     i1l7415:
 12702                           
 12703                           ;prog.c: 1651: if (PressedKeyIndex == 0xFF) {
 12704  000208  2860               	incf	F_l@PressedKeyIndex,w,c
 12705  00020A  E108               	bnz	i1l7423
 12706                           
 12707                           ;prog.c: 1652: PressedKeyIndex = KeyIndex;
 12708  00020C  C05A  F060         	movff	F_l@KeyIndex,F_l@PressedKeyIndex
 12709                           
 12710                           ;prog.c: 1653: KeyCode = ConvKeyNum(PressedKeyIndex);
 12711  000210  5060               	movf	F_l@PressedKeyIndex,w,c
 12712  000212  EC60  F01A         	call	_ConvKeyNum
 12713  000216  6E5B               	movwf	_KeyCode,c	;volatile
 12714                           
 12715                           ;prog.c: 1654: ButtonPressTimeOut = 30;
 12716  000218  0E1E               	movlw	30
 12717  00021A  6E59               	movwf	F_l@ButtonPressTimeOut,c
 12718  00021C                     i1l7423:
 12719                           
 12720                           ;prog.c: 1655: }
 12721                           ;prog.c: 1656: }
 12722                           ;prog.c: 1657: }
 12723                           ;prog.c: 1658: T0IF = 0;
 12724  00021C  94F2               	bcf	intcon,2,c	;volatile
 12725  00021E                     i1l964:
 12726  00021E  C013  FFF4         	movff	??_F_l+10,prodh
 12727  000222  C012  FFF3         	movff	??_F_l+9,prodl
 12728  000226  C011  FFDA         	movff	??_F_l+8,fsr2h
 12729  00022A  C010  FFD9         	movff	??_F_l+7,fsr2l
 12730  00022E  C00F  FFE0         	movff	??_F_l+6,bsr
 12731  000232  C00E  FFE8         	movff	??_F_l+5,wreg
 12732  000236  C00D  FFD8         	movff	??_F_l+4,status
 12733  00023A  9062               	bcf	btemp,0,c	;clear compiler interrupt flag (level 1)
 12734  00023C  0010               	retfie	
 12735  00023E                     __end_of_F_l:
 12736                           	opt stack 0
 12737                           tblptru	equ	0xFF8
 12738                           tblptrh	equ	0xFF7
 12739                           tblptrl	equ	0xFF6
 12740                           tablat	equ	0xFF5
 12741                           prodh	equ	0xFF4
 12742                           prodl	equ	0xFF3
 12743                           intcon	equ	0xFF2
 12744                           intcon2	equ	0xFF1
 12745                           intcon3	equ	0xFF0
 12746                           postinc0	equ	0xFEE
 12747                           wreg	equ	0xFE8
 12748                           indf1	equ	0xFE7
 12749                           postdec1	equ	0xFE5
 12750                           plusw1	equ	0xFE3
 12751                           fsr1h	equ	0xFE2
 12752                           fsr1l	equ	0xFE1
 12753                           bsr	equ	0xFE0
 12754                           indf2	equ	0xFDF
 12755                           postinc2	equ	0xFDE
 12756                           postdec2	equ	0xFDD
 12757                           plusw2	equ	0xFDB
 12758                           fsr2h	equ	0xFDA
 12759                           fsr2l	equ	0xFD9
 12760                           status	equ	0xFD8
 12761                           
 12762 ;; *************** function i1_lcd_send_byte *****************
 12763 ;; Defined at:
 12764 ;;		line 926 in file "prog.c"
 12765 ;; Parameters:    Size  Location     Type
 12766 ;;  data            1    wreg     unsigned char 
 12767 ;; Auto vars:     Size  Location     Type
 12768 ;;  data            1    3[COMRAM] unsigned char 
 12769 ;; Return value:  Size  Location     Type
 12770 ;;                  1    wreg      void 
 12771 ;; Registers used:
 12772 ;;		wreg, status,2, status,0, prodl, prodh, cstack
 12773 ;; Tracked objects:
 12774 ;;		On entry : 0/1
 12775 ;;		On exit  : 0/0
 12776 ;;		Unchanged: 0/0
 12777 ;; Data sizes:     COMRAM   BANK0   BANK1   BANK2   BANK3   BANK4   BANK5   BANK6   BANK7   BANK8   BANK9  BANK10  BANK1
      +1  BANK12  BANK13  BANK14  BANK15
 12778 ;;      Params:         0       0       0       0       0       0       0       0       0       0       0       0       
      +0       0       0       0       0
 12779 ;;      Locals:         1       0       0       0       0       0       0       0       0       0       0       0       
      +0       0       0       0       0
 12780 ;;      Temps:          0       0       0       0       0       0       0       0       0       0       0       0       
      +0       0       0       0       0
 12781 ;;      Totals:         1       0       0       0       0       0       0       0       0       0       0       0       
      +0       0       0       0       0
 12782 ;;Total ram usage:        1 bytes
 12783 ;; Hardware stack levels used:    1
 12784 ;; Hardware stack levels required when called:    2
 12785 ;; This function calls:
 12786 ;;		i1_lcd_send_initial_half_byte
 12787 ;; This function is called by:
 12788 ;;		_F_l
 12789 ;; This function uses a non-reentrant model
 12790 ;;
 12791                           
 12792                           	psect	text54
 12793  003B5A                     __ptext54:
 12794                           	opt stack 0
 12795  003B5A                     i1_lcd_send_byte:
 12796                           	opt stack 18
 12797                           
 12798                           ;incstack = 0
 12799                           ;i1lcd_send_byte@data stored from wreg
 12800  003B5A  6E04               	movwf	i1lcd_send_byte@data,c
 12801                           
 12802                           ;prog.c: 927: lcd_send_initial_half_byte((data & 0b11110000) / 16);
 12803  003B5C  3804               	swapf	i1lcd_send_byte@data,w,c
 12804  003B5E  0B0F               	andlw	15
 12805  003B60  ECBF  F01D         	call	i1_lcd_send_initial_half_byte
 12806                           
 12807                           ;prog.c: 928: _delay((unsigned long)((40)*(39400000/4000000.0)));
 12808  003B64  0E83               	movlw	131
 12809  003B66                     i1u753_27:
 12810  003B66  2EE8               	decfsz	wreg,f,c
 12811  003B68  D7FE               	goto	i1u753_27
 12812  003B6A  F000               	nop	
 12813                           
 12814                           ;prog.c: 929: lcd_send_initial_half_byte(data & 0b00001111);
 12815  003B6C  5004               	movf	i1lcd_send_byte@data,w,c
 12816  003B6E  0B0F               	andlw	15
 12817  003B70  ECBF  F01D         	call	i1_lcd_send_initial_half_byte
 12818                           
 12819                           ;prog.c: 930: _delay((unsigned long)((40)*(39400000/4000000.0)));
 12820  003B74  0E83               	movlw	131
 12821  003B76                     i1u754_27:
 12822  003B76  2EE8               	decfsz	wreg,f,c
 12823  003B78  D7FE               	goto	i1u754_27
 12824  003B7A  F000               	nop	
 12825  003B7C  0012               	return		;funcret
 12826  003B7E                     __end_ofi1_lcd_send_byte:
 12827                           	opt stack 0
 12828                           tblptru	equ	0xFF8
 12829                           tblptrh	equ	0xFF7
 12830                           tblptrl	equ	0xFF6
 12831                           tablat	equ	0xFF5
 12832                           prodh	equ	0xFF4
 12833                           prodl	equ	0xFF3
 12834                           intcon	equ	0xFF2
 12835                           intcon2	equ	0xFF1
 12836                           intcon3	equ	0xFF0
 12837                           postinc0	equ	0xFEE
 12838                           wreg	equ	0xFE8
 12839                           indf1	equ	0xFE7
 12840                           postdec1	equ	0xFE5
 12841                           plusw1	equ	0xFE3
 12842                           fsr1h	equ	0xFE2
 12843                           fsr1l	equ	0xFE1
 12844                           bsr	equ	0xFE0
 12845                           indf2	equ	0xFDF
 12846                           postinc2	equ	0xFDE
 12847                           postdec2	equ	0xFDD
 12848                           plusw2	equ	0xFDB
 12849                           fsr2h	equ	0xFDA
 12850                           fsr2l	equ	0xFD9
 12851                           status	equ	0xFD8
 12852                           
 12853 ;; *************** function i1_lcd_send_initial_half_byte *****************
 12854 ;; Defined at:
 12855 ;;		line 919 in file "prog.c"
 12856 ;; Parameters:    Size  Location     Type
 12857 ;;  data            1    wreg     unsigned char 
 12858 ;; Auto vars:     Size  Location     Type
 12859 ;;  data            1    0[COMRAM] unsigned char 
 12860 ;; Return value:  Size  Location     Type
 12861 ;;                  1    wreg      void 
 12862 ;; Registers used:
 12863 ;;		wreg, status,2, status,0, prodl, prodh
 12864 ;; Tracked objects:
 12865 ;;		On entry : 0/1
 12866 ;;		On exit  : 0/0
 12867 ;;		Unchanged: 0/0
 12868 ;; Data sizes:     COMRAM   BANK0   BANK1   BANK2   BANK3   BANK4   BANK5   BANK6   BANK7   BANK8   BANK9  BANK10  BANK1
      +1  BANK12  BANK13  BANK14  BANK15
 12869 ;;      Params:         0       0       0       0       0       0       0       0       0       0       0       0       
      +0       0       0       0       0
 12870 ;;      Locals:         3       0       0       0       0       0       0       0       0       0       0       0       
      +0       0       0       0       0
 12871 ;;      Temps:          0       0       0       0       0       0       0       0       0       0       0       0       
      +0       0       0       0       0
 12872 ;;      Totals:         3       0       0       0       0       0       0       0       0       0       0       0       
      +0       0       0       0       0
 12873 ;;Total ram usage:        3 bytes
 12874 ;; Hardware stack levels used:    1
 12875 ;; Hardware stack levels required when called:    1
 12876 ;; This function calls:
 12877 ;;		Nothing
 12878 ;; This function is called by:
 12879 ;;		i1_lcd_send_byte
 12880 ;; This function uses a non-reentrant model
 12881 ;;
 12882                           
 12883                           	psect	text55
 12884  003B7E                     __ptext55:
 12885                           	opt stack 0
 12886  003B7E                     i1_lcd_send_initial_half_byte:
 12887                           	opt stack 18
 12888                           
 12889                           ;incstack = 0
 12890                           ;i1lcd_send_initial_half_byte@data stored from wreg
 12891  003B7E  6E01               	movwf	i1lcd_send_initial_half_byte@data,c
 12892                           
 12893                           ;prog.c: 920: RC2 = 0;
 12894  003B80  9482               	bcf	3970,2,c	;volatile
 12895                           
 12896                           ;prog.c: 921: PORTA = (0b00011110 & (data * 2)) | (flags.LCD_Light_On == 1 ? 0b00100000 
      +                          : 0b00000000);
 12897  003B82  BA57               	btfsc	_flags,5,c
 12898  003B84  D003               	goto	i1l6397
 12899  003B86  6A02               	clrf	i1_lcd_send_initial_half_byte$1058,c
 12900  003B88  6A03               	clrf	i1_lcd_send_initial_half_byte$1058+1,c
 12901  003B8A  D003               	goto	i1l6399
 12902  003B8C                     i1l6397:
 12903  003B8C  6A03               	clrf	i1_lcd_send_initial_half_byte$1058+1,c
 12904  003B8E  0E20               	movlw	32
 12905  003B90  6E02               	movwf	i1_lcd_send_initial_half_byte$1058,c
 12906  003B92                     i1l6399:
 12907  003B92  5001               	movf	i1lcd_send_initial_half_byte@data,w,c
 12908  003B94  0D02               	mullw	2
 12909  003B96  50F3               	movf	prodl,w,c
 12910  003B98  0B1E               	andlw	30
 12911  003B9A  1002               	iorwf	i1_lcd_send_initial_half_byte$1058,w,c
 12912                           
 12913                           ;prog.c: 922: RC0 = 1;
 12914                           
 12915                           ;prog.c: 923: RC0 = 0;
 12916  003B9C  EF24  F01D         	goto	PL130	;call to abstracted procedure
 12917  003BA0                     __end_ofi1_lcd_send_initial_half_byte:
 12918                           	opt stack 0
 12919                           tblptru	equ	0xFF8
 12920                           tblptrh	equ	0xFF7
 12921                           tblptrl	equ	0xFF6
 12922                           tablat	equ	0xFF5
 12923                           prodh	equ	0xFF4
 12924                           prodl	equ	0xFF3
 12925                           intcon	equ	0xFF2
 12926                           intcon2	equ	0xFF1
 12927                           intcon3	equ	0xFF0
 12928                           postinc0	equ	0xFEE
 12929                           wreg	equ	0xFE8
 12930                           indf1	equ	0xFE7
 12931                           postdec1	equ	0xFE5
 12932                           plusw1	equ	0xFE3
 12933                           fsr1h	equ	0xFE2
 12934                           fsr1l	equ	0xFE1
 12935                           bsr	equ	0xFE0
 12936                           indf2	equ	0xFDF
 12937                           postinc2	equ	0xFDE
 12938                           postdec2	equ	0xFDD
 12939                           plusw2	equ	0xFDB
 12940                           fsr2h	equ	0xFDA
 12941                           fsr2l	equ	0xFD9
 12942                           status	equ	0xFD8
 12943                           
 12944 ;; *************** function i1_FillMinutes *****************
 12945 ;; Defined at:
 12946 ;;		line 1576 in file "prog.c"
 12947 ;; Parameters:    Size  Location     Type
 12948 ;;		None
 12949 ;; Auto vars:     Size  Location     Type
 12950 ;;		None
 12951 ;; Return value:  Size  Location     Type
 12952 ;;                  1    wreg      void 
 12953 ;; Registers used:
 12954 ;;		wreg, status,2, status,0
 12955 ;; Tracked objects:
 12956 ;;		On entry : F/1
 12957 ;;		On exit  : F/1
 12958 ;;		Unchanged: 0/0
 12959 ;; Data sizes:     COMRAM   BANK0   BANK1   BANK2   BANK3   BANK4   BANK5   BANK6   BANK7   BANK8   BANK9  BANK10  BANK1
      +1  BANK12  BANK13  BANK14  BANK15
 12960 ;;      Params:         0       0       0       0       0       0       0       0       0       0       0       0       
      +0       0       0       0       0
 12961 ;;      Locals:         0       0       0       0       0       0       0       0       0       0       0       0       
      +0       0       0       0       0
 12962 ;;      Temps:          0       0       0       0       0       0       0       0       0       0       0       0       
      +0       0       0       0       0
 12963 ;;      Totals:         0       0       0       0       0       0       0       0       0       0       0       0       
      +0       0       0       0       0
 12964 ;;Total ram usage:        0 bytes
 12965 ;; Hardware stack levels used:    1
 12966 ;; Hardware stack levels required when called:    1
 12967 ;; This function calls:
 12968 ;;		Nothing
 12969 ;; This function is called by:
 12970 ;;		_F_l
 12971 ;; This function uses a non-reentrant model
 12972 ;;
 12973                           
 12974                           	psect	text56
 12975  003C0E                     __ptext56:
 12976                           	opt stack 0
 12977  003C0E                     i1_FillMinutes:
 12978                           	opt stack 19
 12979                           
 12980                           ; BSR set to: 1
 12981                           ;prog.c: 1577: Minutes = Clock - 3000;
 12982                           
 12983                           ;incstack = 0
 12984  003C0E  0E48               	movlw	72
 12985                           
 12986                           ; BSR set to: 1
 12987  003C10  EFD3  F01D         	goto	PL44	;call to abstracted procedure
 12988  003C14                     __end_ofi1_FillMinutes:
 12989                           	opt stack 0
 12990                           tblptru	equ	0xFF8
 12991                           tblptrh	equ	0xFF7
 12992                           tblptrl	equ	0xFF6
 12993                           tablat	equ	0xFF5
 12994                           prodh	equ	0xFF4
 12995                           prodl	equ	0xFF3
 12996                           intcon	equ	0xFF2
 12997                           intcon2	equ	0xFF1
 12998                           intcon3	equ	0xFF0
 12999                           postinc0	equ	0xFEE
 13000                           wreg	equ	0xFE8
 13001                           indf1	equ	0xFE7
 13002                           postdec1	equ	0xFE5
 13003                           plusw1	equ	0xFE3
 13004                           fsr1h	equ	0xFE2
 13005                           fsr1l	equ	0xFE1
 13006                           bsr	equ	0xFE0
 13007                           indf2	equ	0xFDF
 13008                           postinc2	equ	0xFDE
 13009                           postdec2	equ	0xFDD
 13010                           plusw2	equ	0xFDB
 13011                           fsr2h	equ	0xFDA
 13012                           fsr2l	equ	0xFD9
 13013                           status	equ	0xFD8
 13014                           
 13015 ;; *************** function _getLcdCodeOfChar *****************
 13016 ;; Defined at:
 13017 ;;		line 236 in file "prog.c"
 13018 ;; Parameters:    Size  Location     Type
 13019 ;;  dig             1    wreg     unsigned char 
 13020 ;; Auto vars:     Size  Location     Type
 13021 ;;  dig             1    0[COMRAM] unsigned char 
 13022 ;; Return value:  Size  Location     Type
 13023 ;;                  1    wreg      unsigned char 
 13024 ;; Registers used:
 13025 ;;		wreg, status,2, status,0
 13026 ;; Tracked objects:
 13027 ;;		On entry : F/1
 13028 ;;		On exit  : 0/0
 13029 ;;		Unchanged: 0/0
 13030 ;; Data sizes:     COMRAM   BANK0   BANK1   BANK2   BANK3   BANK4   BANK5   BANK6   BANK7   BANK8   BANK9  BANK10  BANK1
      +1  BANK12  BANK13  BANK14  BANK15
 13031 ;;      Params:         0       0       0       0       0       0       0       0       0       0       0       0       
      +0       0       0       0       0
 13032 ;;      Locals:         1       0       0       0       0       0       0       0       0       0       0       0       
      +0       0       0       0       0
 13033 ;;      Temps:          0       0       0       0       0       0       0       0       0       0       0       0       
      +0       0       0       0       0
 13034 ;;      Totals:         1       0       0       0       0       0       0       0       0       0       0       0       
      +0       0       0       0       0
 13035 ;;Total ram usage:        1 bytes
 13036 ;; Hardware stack levels used:    1
 13037 ;; Hardware stack levels required when called:    1
 13038 ;; This function calls:
 13039 ;;		Nothing
 13040 ;; This function is called by:
 13041 ;;		_F_l
 13042 ;; This function uses a non-reentrant model
 13043 ;;
 13044                           
 13045                           	psect	text57
 13046  001F9A                     __ptext57:
 13047                           	opt stack 0
 13048  001F9A                     _getLcdCodeOfChar:
 13049                           	opt stack 19
 13050                           
 13051                           ; BSR set to: 1
 13052                           ;incstack = 0
 13053                           ;getLcdCodeOfChar@dig stored from wreg
 13054  001F9A  6E01               	movwf	getLcdCodeOfChar@dig,c
 13055                           
 13056                           ;prog.c: 237: switch (dig) {
 13057  001F9C  5001               	movf	getLcdCodeOfChar@dig,w,c
 13058                           
 13059                           ; Switch size 1, requested type "space"
 13060                           ; Number of cases is 164, Range of values is 32 to 255
 13061                           ; switch strategies available:
 13062                           ; Name         Instructions Cycles
 13063                           ; simple_byte          493   247 (average)
 13064                           ;	Chosen strategy is simple_byte
 13065  001F9E  0A20               	xorlw	32	; case 32
 13066  001FA0  B4D8               	btfsc	status,2,c
 13067  001FA2  0C20               	retlw	32
 13068  001FA4  0A01               	xorlw	1	; case 33
 13069  001FA6  B4D8               	btfsc	status,2,c
 13070  001FA8  0C21               	retlw	33
 13071  001FAA  0A03               	xorlw	3	; case 34
 13072  001FAC  B4D8               	btfsc	status,2,c
 13073  001FAE  0C22               	retlw	34
 13074  001FB0  0A01               	xorlw	1	; case 35
 13075  001FB2  B4D8               	btfsc	status,2,c
 13076  001FB4  0C23               	retlw	35
 13077  001FB6  0A07               	xorlw	7	; case 36
 13078  001FB8  B4D8               	btfsc	status,2,c
 13079  001FBA  0C24               	retlw	36
 13080  001FBC  0A01               	xorlw	1	; case 37
 13081  001FBE  B4D8               	btfsc	status,2,c
 13082  001FC0  0C25               	retlw	37
 13083  001FC2  0A03               	xorlw	3	; case 38
 13084  001FC4  B4D8               	btfsc	status,2,c
 13085  001FC6  0C26               	retlw	38
 13086  001FC8  0A0E               	xorlw	14	; case 40
 13087  001FCA  B4D8               	btfsc	status,2,c
 13088  001FCC  0C28               	retlw	40
 13089  001FCE  0A01               	xorlw	1	; case 41
 13090  001FD0  B4D8               	btfsc	status,2,c
 13091  001FD2  0C29               	retlw	41
 13092  001FD4  0A03               	xorlw	3	; case 42
 13093  001FD6  B4D8               	btfsc	status,2,c
 13094  001FD8  0C2A               	retlw	42
 13095  001FDA  0A01               	xorlw	1	; case 43
 13096  001FDC  B4D8               	btfsc	status,2,c
 13097  001FDE  0C2B               	retlw	43
 13098  001FE0  0A07               	xorlw	7	; case 44
 13099  001FE2  B4D8               	btfsc	status,2,c
 13100  001FE4  0C2C               	retlw	44
 13101  001FE6  0A01               	xorlw	1	; case 45
 13102  001FE8  B4D8               	btfsc	status,2,c
 13103  001FEA  0C2D               	retlw	45
 13104  001FEC  0A03               	xorlw	3	; case 46
 13105  001FEE  B4D8               	btfsc	status,2,c
 13106  001FF0  0C2E               	retlw	46
 13107  001FF2  0A01               	xorlw	1	; case 47
 13108  001FF4  B4D8               	btfsc	status,2,c
 13109  001FF6  0C2F               	retlw	47
 13110  001FF8  0A1F               	xorlw	31	; case 48
 13111  001FFA  B4D8               	btfsc	status,2,c
 13112  001FFC  0C30               	retlw	48
 13113  001FFE  0A01               	xorlw	1	; case 49
 13114  002000  B4D8               	btfsc	status,2,c
 13115  002002  0C31               	retlw	49
 13116  002004  0A03               	xorlw	3	; case 50
 13117  002006  B4D8               	btfsc	status,2,c
 13118  002008  0C32               	retlw	50
 13119  00200A  0A01               	xorlw	1	; case 51
 13120  00200C  B4D8               	btfsc	status,2,c
 13121  00200E  0C33               	retlw	51
 13122  002010  0A07               	xorlw	7	; case 52
 13123  002012  B4D8               	btfsc	status,2,c
 13124  002014  0C34               	retlw	52
 13125  002016  0A01               	xorlw	1	; case 53
 13126  002018  B4D8               	btfsc	status,2,c
 13127  00201A  0C35               	retlw	53
 13128  00201C  0A03               	xorlw	3	; case 54
 13129  00201E  B4D8               	btfsc	status,2,c
 13130  002020  0C36               	retlw	54
 13131  002022  0A01               	xorlw	1	; case 55
 13132  002024  B4D8               	btfsc	status,2,c
 13133  002026  0C37               	retlw	55
 13134  002028  0A0F               	xorlw	15	; case 56
 13135  00202A  B4D8               	btfsc	status,2,c
 13136  00202C  0C38               	retlw	56
 13137  00202E  0A01               	xorlw	1	; case 57
 13138  002030  B4D8               	btfsc	status,2,c
 13139  002032  0C39               	retlw	57
 13140  002034  0A03               	xorlw	3	; case 58
 13141  002036  B4D8               	btfsc	status,2,c
 13142  002038  0C3A               	retlw	58
 13143  00203A  0A01               	xorlw	1	; case 59
 13144  00203C  B4D8               	btfsc	status,2,c
 13145  00203E  0C3B               	retlw	59
 13146  002040  0A07               	xorlw	7	; case 60
 13147  002042  B4D8               	btfsc	status,2,c
 13148  002044  0C3C               	retlw	60
 13149  002046  0A01               	xorlw	1	; case 61
 13150  002048  B4D8               	btfsc	status,2,c
 13151  00204A  0C3D               	retlw	61
 13152  00204C  0A03               	xorlw	3	; case 62
 13153  00204E  B4D8               	btfsc	status,2,c
 13154  002050  0C3E               	retlw	62
 13155  002052  0A01               	xorlw	1	; case 63
 13156  002054  B4D8               	btfsc	status,2,c
 13157  002056  0C3F               	retlw	63
 13158  002058  0A7F               	xorlw	127	; case 64
 13159  00205A  B4D8               	btfsc	status,2,c
 13160  00205C  0C40               	retlw	64
 13161  00205E  0A01               	xorlw	1	; case 65
 13162  002060  B4D8               	btfsc	status,2,c
 13163  002062  0C41               	retlw	65
 13164  002064  0A03               	xorlw	3	; case 66
 13165  002066  B4D8               	btfsc	status,2,c
 13166  002068  0C42               	retlw	66
 13167  00206A  0A01               	xorlw	1	; case 67
 13168  00206C  B4D8               	btfsc	status,2,c
 13169  00206E  0C43               	retlw	67
 13170  002070  0A07               	xorlw	7	; case 68
 13171  002072  B4D8               	btfsc	status,2,c
 13172  002074  0C44               	retlw	68
 13173  002076  0A01               	xorlw	1	; case 69
 13174  002078  B4D8               	btfsc	status,2,c
 13175  00207A  0C45               	retlw	69
 13176  00207C  0A03               	xorlw	3	; case 70
 13177  00207E  B4D8               	btfsc	status,2,c
 13178  002080  0C46               	retlw	70
 13179  002082  0A01               	xorlw	1	; case 71
 13180  002084  B4D8               	btfsc	status,2,c
 13181  002086  0C47               	retlw	71
 13182  002088  0A0F               	xorlw	15	; case 72
 13183  00208A  B4D8               	btfsc	status,2,c
 13184  00208C  0C48               	retlw	72
 13185  00208E  0A01               	xorlw	1	; case 73
 13186  002090  B4D8               	btfsc	status,2,c
 13187  002092  0C49               	retlw	73
 13188  002094  0A03               	xorlw	3	; case 74
 13189  002096  B4D8               	btfsc	status,2,c
 13190  002098  0C4A               	retlw	74
 13191  00209A  0A01               	xorlw	1	; case 75
 13192  00209C  B4D8               	btfsc	status,2,c
 13193  00209E  0C4B               	retlw	75
 13194  0020A0  0A07               	xorlw	7	; case 76
 13195  0020A2  B4D8               	btfsc	status,2,c
 13196  0020A4  0C4C               	retlw	76
 13197  0020A6  0A01               	xorlw	1	; case 77
 13198  0020A8  B4D8               	btfsc	status,2,c
 13199  0020AA  0C4D               	retlw	77
 13200  0020AC  0A03               	xorlw	3	; case 78
 13201  0020AE  B4D8               	btfsc	status,2,c
 13202  0020B0  0C4E               	retlw	78
 13203  0020B2  0A01               	xorlw	1	; case 79
 13204  0020B4  B4D8               	btfsc	status,2,c
 13205  0020B6  0C4F               	retlw	79
 13206  0020B8  0A1F               	xorlw	31	; case 80
 13207  0020BA  B4D8               	btfsc	status,2,c
 13208  0020BC  0C50               	retlw	80
 13209  0020BE  0A01               	xorlw	1	; case 81
 13210  0020C0  B4D8               	btfsc	status,2,c
 13211  0020C2  0C51               	retlw	81
 13212  0020C4  0A03               	xorlw	3	; case 82
 13213  0020C6  B4D8               	btfsc	status,2,c
 13214  0020C8  0C52               	retlw	82
 13215  0020CA  0A01               	xorlw	1	; case 83
 13216  0020CC  B4D8               	btfsc	status,2,c
 13217  0020CE  0C53               	retlw	83
 13218  0020D0  0A07               	xorlw	7	; case 84
 13219  0020D2  B4D8               	btfsc	status,2,c
 13220  0020D4  0C54               	retlw	84
 13221  0020D6  0A01               	xorlw	1	; case 85
 13222  0020D8  B4D8               	btfsc	status,2,c
 13223  0020DA  0C55               	retlw	85
 13224  0020DC  0A03               	xorlw	3	; case 86
 13225  0020DE  B4D8               	btfsc	status,2,c
 13226  0020E0  0C56               	retlw	86
 13227  0020E2  0A01               	xorlw	1	; case 87
 13228  0020E4  B4D8               	btfsc	status,2,c
 13229  0020E6  0C57               	retlw	87
 13230  0020E8  0A0F               	xorlw	15	; case 88
 13231  0020EA  B4D8               	btfsc	status,2,c
 13232  0020EC  0C58               	retlw	88
 13233  0020EE  0A01               	xorlw	1	; case 89
 13234  0020F0  B4D8               	btfsc	status,2,c
 13235  0020F2  0C59               	retlw	89
 13236  0020F4  0A03               	xorlw	3	; case 90
 13237  0020F6  B4D8               	btfsc	status,2,c
 13238  0020F8  0C5A               	retlw	90
 13239  0020FA  0A01               	xorlw	1	; case 91
 13240  0020FC  B4D8               	btfsc	status,2,c
 13241  0020FE  0C5B               	retlw	91
 13242  002100  0A07               	xorlw	7	; case 92
 13243  002102  B4D8               	btfsc	status,2,c
 13244  002104  0C2F               	retlw	47
 13245  002106  0A01               	xorlw	1	; case 93
 13246  002108  B4D8               	btfsc	status,2,c
 13247  00210A  0C5D               	retlw	93
 13248  00210C  0A03               	xorlw	3	; case 94
 13249  00210E  B4D8               	btfsc	status,2,c
 13250  002110  0C5E               	retlw	94
 13251  002112  0A01               	xorlw	1	; case 95
 13252  002114  B4D8               	btfsc	status,2,c
 13253  002116  0C5F               	retlw	95
 13254  002118  0A3F               	xorlw	63	; case 96
 13255  00211A  B4D8               	btfsc	status,2,c
 13256  00211C  0C60               	retlw	96
 13257  00211E  0A01               	xorlw	1	; case 97
 13258  002120  B4D8               	btfsc	status,2,c
 13259  002122  0C61               	retlw	97
 13260  002124  0A03               	xorlw	3	; case 98
 13261  002126  B4D8               	btfsc	status,2,c
 13262  002128  0C62               	retlw	98
 13263  00212A  0A01               	xorlw	1	; case 99
 13264  00212C  B4D8               	btfsc	status,2,c
 13265  00212E  0C63               	retlw	99
 13266  002130  0A07               	xorlw	7	; case 100
 13267  002132  B4D8               	btfsc	status,2,c
 13268  002134  0C64               	retlw	100
 13269  002136  0A01               	xorlw	1	; case 101
 13270  002138  B4D8               	btfsc	status,2,c
 13271  00213A  0C65               	retlw	101
 13272  00213C  0A03               	xorlw	3	; case 102
 13273  00213E  B4D8               	btfsc	status,2,c
 13274  002140  0C66               	retlw	102
 13275  002142  0A01               	xorlw	1	; case 103
 13276  002144  B4D8               	btfsc	status,2,c
 13277  002146  0C67               	retlw	103
 13278  002148  0A0F               	xorlw	15	; case 104
 13279  00214A  B4D8               	btfsc	status,2,c
 13280  00214C  0C68               	retlw	104
 13281  00214E  0A01               	xorlw	1	; case 105
 13282  002150  B4D8               	btfsc	status,2,c
 13283  002152  0C69               	retlw	105
 13284  002154  0A03               	xorlw	3	; case 106
 13285  002156  B4D8               	btfsc	status,2,c
 13286  002158  0C6A               	retlw	106
 13287  00215A  0A01               	xorlw	1	; case 107
 13288  00215C  B4D8               	btfsc	status,2,c
 13289  00215E  0C6B               	retlw	107
 13290  002160  0A07               	xorlw	7	; case 108
 13291  002162  B4D8               	btfsc	status,2,c
 13292  002164  0C6C               	retlw	108
 13293  002166  0A01               	xorlw	1	; case 109
 13294  002168  B4D8               	btfsc	status,2,c
 13295  00216A  0C6D               	retlw	109
 13296  00216C  0A03               	xorlw	3	; case 110
 13297  00216E  B4D8               	btfsc	status,2,c
 13298  002170  0C6E               	retlw	110
 13299  002172  0A01               	xorlw	1	; case 111
 13300  002174  B4D8               	btfsc	status,2,c
 13301  002176  0C6F               	retlw	111
 13302  002178  0A1F               	xorlw	31	; case 112
 13303  00217A  B4D8               	btfsc	status,2,c
 13304  00217C  0C70               	retlw	112
 13305  00217E  0A01               	xorlw	1	; case 113
 13306  002180  B4D8               	btfsc	status,2,c
 13307  002182  0C71               	retlw	113
 13308  002184  0A03               	xorlw	3	; case 114
 13309  002186  B4D8               	btfsc	status,2,c
 13310  002188  0C72               	retlw	114
 13311  00218A  0A01               	xorlw	1	; case 115
 13312  00218C  B4D8               	btfsc	status,2,c
 13313  00218E  0C73               	retlw	115
 13314  002190  0A07               	xorlw	7	; case 116
 13315  002192  B4D8               	btfsc	status,2,c
 13316  002194  0C74               	retlw	116
 13317  002196  0A01               	xorlw	1	; case 117
 13318  002198  B4D8               	btfsc	status,2,c
 13319  00219A  0C75               	retlw	117
 13320  00219C  0A03               	xorlw	3	; case 118
 13321  00219E  B4D8               	btfsc	status,2,c
 13322  0021A0  0C76               	retlw	118
 13323  0021A2  0A01               	xorlw	1	; case 119
 13324  0021A4  B4D8               	btfsc	status,2,c
 13325  0021A6  0C77               	retlw	119
 13326  0021A8  0A0F               	xorlw	15	; case 120
 13327  0021AA  B4D8               	btfsc	status,2,c
 13328  0021AC  0C78               	retlw	120
 13329  0021AE  0A01               	xorlw	1	; case 121
 13330  0021B0  B4D8               	btfsc	status,2,c
 13331  0021B2  0C79               	retlw	121
 13332  0021B4  0A03               	xorlw	3	; case 122
 13333  0021B6  B4D8               	btfsc	status,2,c
 13334  0021B8  0C7A               	retlw	122
 13335  0021BA  0A04               	xorlw	4	; case 126
 13336  0021BC  B4D8               	btfsc	status,2,c
 13337  0021BE  0CE9               	retlw	233
 13338  0021C0  0AEC               	xorlw	236	; case 146
 13339  0021C2  B4D8               	btfsc	status,2,c
 13340  0021C4  0C27               	retlw	39
 13341  0021C6  0A05               	xorlw	5	; case 151
 13342  0021C8  B4D8               	btfsc	status,2,c
 13343  0021CA  0C2D               	retlw	45
 13344  0021CC  0A32               	xorlw	50	; case 165
 13345  0021CE  B4D8               	btfsc	status,2,c
 13346  0021D0  0CED               	retlw	237
 13347  0021D2  0A0D               	xorlw	13	; case 168
 13348  0021D4  B4D8               	btfsc	status,2,c
 13349  0021D6  0CA2               	retlw	162
 13350  0021D8  0A03               	xorlw	3	; case 171
 13351  0021DA  B4D8               	btfsc	status,2,c
 13352  0021DC  0CC8               	retlw	200
 13353  0021DE  0A1B               	xorlw	27	; case 176
 13354  0021E0  B4D8               	btfsc	status,2,c
 13355  0021E2  0CEF               	retlw	239
 13356  0021E4  0A08               	xorlw	8	; case 184
 13357  0021E6  B4D8               	btfsc	status,2,c
 13358  0021E8  0CB5               	retlw	181
 13359  0021EA  0A01               	xorlw	1	; case 185
 13360  0021EC  B4D8               	btfsc	status,2,c
 13361  0021EE  0CCC               	retlw	204
 13362  0021F0  0A02               	xorlw	2	; case 187
 13363  0021F2  B4D8               	btfsc	status,2,c
 13364  0021F4  0CC9               	retlw	201
 13365  0021F6  0A7B               	xorlw	123	; case 192
 13366  0021F8  B4D8               	btfsc	status,2,c
 13367  0021FA  0C41               	retlw	65
 13368  0021FC  0A01               	xorlw	1	; case 193
 13369  0021FE  B4D8               	btfsc	status,2,c
 13370  002200  0CA0               	retlw	160
 13371  002202  0A03               	xorlw	3	; case 194
 13372  002204  B4D8               	btfsc	status,2,c
 13373  002206  0C42               	retlw	66
 13374  002208  0A01               	xorlw	1	; case 195
 13375  00220A  B4D8               	btfsc	status,2,c
 13376  00220C  0CA1               	retlw	161
 13377  00220E  0A07               	xorlw	7	; case 196
 13378  002210  B4D8               	btfsc	status,2,c
 13379  002212  0CE0               	retlw	224
 13380  002214  0A01               	xorlw	1	; case 197
 13381  002216  B4D8               	btfsc	status,2,c
 13382  002218  0C45               	retlw	69
 13383  00221A  0A03               	xorlw	3	; case 198
 13384  00221C  B4D8               	btfsc	status,2,c
 13385  00221E  0CA3               	retlw	163
 13386  002220  0A01               	xorlw	1	; case 199
 13387  002222  B4D8               	btfsc	status,2,c
 13388  002224  0CA4               	retlw	164
 13389  002226  0A0F               	xorlw	15	; case 200
 13390  002228  B4D8               	btfsc	status,2,c
 13391  00222A  0CA5               	retlw	165
 13392  00222C  0A01               	xorlw	1	; case 201
 13393  00222E  B4D8               	btfsc	status,2,c
 13394  002230  0CA6               	retlw	166
 13395  002232  0A03               	xorlw	3	; case 202
 13396  002234  B4D8               	btfsc	status,2,c
 13397  002236  0C4B               	retlw	75
 13398  002238  0A01               	xorlw	1	; case 203
 13399  00223A  B4D8               	btfsc	status,2,c
 13400  00223C  0CA7               	retlw	167
 13401  00223E  0A07               	xorlw	7	; case 204
 13402  002240  B4D8               	btfsc	status,2,c
 13403  002242  0C4D               	retlw	77
 13404  002244  0A01               	xorlw	1	; case 205
 13405  002246  B4D8               	btfsc	status,2,c
 13406  002248  0C48               	retlw	72
 13407  00224A  0A03               	xorlw	3	; case 206
 13408  00224C  B4D8               	btfsc	status,2,c
 13409  00224E  0C4F               	retlw	79
 13410  002250  0A01               	xorlw	1	; case 207
 13411  002252  B4D8               	btfsc	status,2,c
 13412  002254  0CA8               	retlw	168
 13413  002256  0A1F               	xorlw	31	; case 208
 13414  002258  B4D8               	btfsc	status,2,c
 13415  00225A  0C50               	retlw	80
 13416  00225C  0A01               	xorlw	1	; case 209
 13417  00225E  B4D8               	btfsc	status,2,c
 13418  002260  0C43               	retlw	67
 13419  002262  0A03               	xorlw	3	; case 210
 13420  002264  B4D8               	btfsc	status,2,c
 13421  002266  0C54               	retlw	84
 13422  002268  0A01               	xorlw	1	; case 211
 13423  00226A  B4D8               	btfsc	status,2,c
 13424  00226C  0CA9               	retlw	169
 13425  00226E  0A07               	xorlw	7	; case 212
 13426  002270  B4D8               	btfsc	status,2,c
 13427  002272  0CAA               	retlw	170
 13428  002274  0A01               	xorlw	1	; case 213
 13429  002276  B4D8               	btfsc	status,2,c
 13430  002278  0C58               	retlw	88
 13431  00227A  0A03               	xorlw	3	; case 214
 13432  00227C  B4D8               	btfsc	status,2,c
 13433  00227E  0CE1               	retlw	225
 13434  002280  0A01               	xorlw	1	; case 215
 13435  002282  B4D8               	btfsc	status,2,c
 13436  002284  0CAB               	retlw	171
 13437  002286  0A0F               	xorlw	15	; case 216
 13438  002288  B4D8               	btfsc	status,2,c
 13439  00228A  0CAC               	retlw	172
 13440  00228C  0A01               	xorlw	1	; case 217
 13441  00228E  B4D8               	btfsc	status,2,c
 13442  002290  0CE2               	retlw	226
 13443  002292  0A03               	xorlw	3	; case 218
 13444  002294  B4D8               	btfsc	status,2,c
 13445  002296  0CAD               	retlw	173
 13446  002298  0A01               	xorlw	1	; case 219
 13447  00229A  B4D8               	btfsc	status,2,c
 13448  00229C  0CAE               	retlw	174
 13449  00229E  0A07               	xorlw	7	; case 220
 13450  0022A0  B4D8               	btfsc	status,2,c
 13451  0022A2  0CC4               	retlw	196
 13452  0022A4  0A01               	xorlw	1	; case 221
 13453  0022A6  B4D8               	btfsc	status,2,c
 13454  0022A8  0CAF               	retlw	175
 13455  0022AA  0A03               	xorlw	3	; case 222
 13456  0022AC  B4D8               	btfsc	status,2,c
 13457  0022AE  0CB0               	retlw	176
 13458  0022B0  0A01               	xorlw	1	; case 223
 13459  0022B2  B4D8               	btfsc	status,2,c
 13460  0022B4  0CB1               	retlw	177
 13461  0022B6  0A3F               	xorlw	63	; case 224
 13462  0022B8  B4D8               	btfsc	status,2,c
 13463  0022BA  0C61               	retlw	97
 13464  0022BC  0A01               	xorlw	1	; case 225
 13465  0022BE  B4D8               	btfsc	status,2,c
 13466  0022C0  0CB2               	retlw	178
 13467  0022C2  0A03               	xorlw	3	; case 226
 13468  0022C4  B4D8               	btfsc	status,2,c
 13469  0022C6  0CB3               	retlw	179
 13470  0022C8  0A01               	xorlw	1	; case 227
 13471  0022CA  B4D8               	btfsc	status,2,c
 13472  0022CC  0CB4               	retlw	180
 13473  0022CE  0A07               	xorlw	7	; case 228
 13474  0022D0  B4D8               	btfsc	status,2,c
 13475  0022D2  0CE3               	retlw	227
 13476  0022D4  0A01               	xorlw	1	; case 229
 13477  0022D6  B4D8               	btfsc	status,2,c
 13478  0022D8  0C65               	retlw	101
 13479  0022DA  0A03               	xorlw	3	; case 230
 13480  0022DC  B4D8               	btfsc	status,2,c
 13481  0022DE  0CB6               	retlw	182
 13482  0022E0  0A01               	xorlw	1	; case 231
 13483  0022E2  B4D8               	btfsc	status,2,c
 13484  0022E4  0CB7               	retlw	183
 13485  0022E6  0A0F               	xorlw	15	; case 232
 13486  0022E8  B4D8               	btfsc	status,2,c
 13487  0022EA  0CB8               	retlw	184
 13488  0022EC  0A01               	xorlw	1	; case 233
 13489  0022EE  B4D8               	btfsc	status,2,c
 13490  0022F0  0CB9               	retlw	185
 13491  0022F2  0A03               	xorlw	3	; case 234
 13492  0022F4  B4D8               	btfsc	status,2,c
 13493  0022F6  0CBA               	retlw	186
 13494  0022F8  0A01               	xorlw	1	; case 235
 13495  0022FA  B4D8               	btfsc	status,2,c
 13496  0022FC  0CBB               	retlw	187
 13497  0022FE  0A07               	xorlw	7	; case 236
 13498  002300  B4D8               	btfsc	status,2,c
 13499  002302  0CBC               	retlw	188
 13500  002304  0A01               	xorlw	1	; case 237
 13501  002306  B4D8               	btfsc	status,2,c
 13502  002308  0CBD               	retlw	189
 13503  00230A  0A03               	xorlw	3	; case 238
 13504  00230C  B4D8               	btfsc	status,2,c
 13505  00230E  0C6F               	retlw	111
 13506  002310  0A01               	xorlw	1	; case 239
 13507  002312  B4D8               	btfsc	status,2,c
 13508  002314  0CBE               	retlw	190
 13509  002316  0A1F               	xorlw	31	; case 240
 13510  002318  B4D8               	btfsc	status,2,c
 13511  00231A  0C70               	retlw	112
 13512  00231C  0A01               	xorlw	1	; case 241
 13513  00231E  B4D8               	btfsc	status,2,c
 13514  002320  0C63               	retlw	99
 13515  002322  0A03               	xorlw	3	; case 242
 13516  002324  B4D8               	btfsc	status,2,c
 13517  002326  0CBF               	retlw	191
 13518  002328  0A01               	xorlw	1	; case 243
 13519  00232A  B4D8               	btfsc	status,2,c
 13520  00232C  0C79               	retlw	121
 13521  00232E  0A07               	xorlw	7	; case 244
 13522  002330  B4D8               	btfsc	status,2,c
 13523  002332  0CE4               	retlw	228
 13524  002334  0A01               	xorlw	1	; case 245
 13525  002336  B4D8               	btfsc	status,2,c
 13526  002338  0C78               	retlw	120
 13527  00233A  0A03               	xorlw	3	; case 246
 13528  00233C  B4D8               	btfsc	status,2,c
 13529  00233E  0CE5               	retlw	229
 13530  002340  0A01               	xorlw	1	; case 247
 13531  002342  B4D8               	btfsc	status,2,c
 13532  002344  0CC0               	retlw	192
 13533  002346  0A0F               	xorlw	15	; case 248
 13534  002348  B4D8               	btfsc	status,2,c
 13535  00234A  0CC1               	retlw	193
 13536  00234C  0A01               	xorlw	1	; case 249
 13537  00234E  B4D8               	btfsc	status,2,c
 13538  002350  0CE6               	retlw	230
 13539  002352  0A03               	xorlw	3	; case 250
 13540  002354  B4D8               	btfsc	status,2,c
 13541  002356  0CC2               	retlw	194
 13542  002358  0A01               	xorlw	1	; case 251
 13543  00235A  B4D8               	btfsc	status,2,c
 13544  00235C  0CC3               	retlw	195
 13545  00235E  0A07               	xorlw	7	; case 252
 13546  002360  B4D8               	btfsc	status,2,c
 13547  002362  0CC4               	retlw	196
 13548  002364  0A01               	xorlw	1	; case 253
 13549  002366  B4D8               	btfsc	status,2,c
 13550  002368  0CC5               	retlw	197
 13551  00236A  0A03               	xorlw	3	; case 254
 13552  00236C  B4D8               	btfsc	status,2,c
 13553  00236E  0CC6               	retlw	198
 13554  002370  0A01               	xorlw	1	; case 255
 13555  002372  B4D8               	btfsc	status,2,c
 13556  002374  0CC7               	retlw	199
 13557  002376  0C3F               	retlw	63
 13558  002378                     __end_of_getLcdCodeOfChar:
 13559                           	opt stack 0
 13560                           tblptru	equ	0xFF8
 13561                           tblptrh	equ	0xFF7
 13562                           tblptrl	equ	0xFF6
 13563                           tablat	equ	0xFF5
 13564                           prodh	equ	0xFF4
 13565                           prodl	equ	0xFF3
 13566                           intcon	equ	0xFF2
 13567                           intcon2	equ	0xFF1
 13568                           intcon3	equ	0xFF0
 13569                           postinc0	equ	0xFEE
 13570                           wreg	equ	0xFE8
 13571                           indf1	equ	0xFE7
 13572                           postdec1	equ	0xFE5
 13573                           plusw1	equ	0xFE3
 13574                           fsr1h	equ	0xFE2
 13575                           fsr1l	equ	0xFE1
 13576                           bsr	equ	0xFE0
 13577                           indf2	equ	0xFDF
 13578                           postinc2	equ	0xFDE
 13579                           postdec2	equ	0xFDD
 13580                           plusw2	equ	0xFDB
 13581                           fsr2h	equ	0xFDA
 13582                           fsr2l	equ	0xFD9
 13583                           status	equ	0xFD8
 13584                           
 13585 ;; *************** function _SendSymbolToLCD *****************
 13586 ;; Defined at:
 13587 ;;		line 892 in file "prog.c"
 13588 ;; Parameters:    Size  Location     Type
 13589 ;;  Symb            1    wreg     unsigned char 
 13590 ;; Auto vars:     Size  Location     Type
 13591 ;;  Symb            1    7[COMRAM] unsigned char 
 13592 ;; Return value:  Size  Location     Type
 13593 ;;                  1    wreg      void 
 13594 ;; Registers used:
 13595 ;;		wreg, status,2, status,0, prodl, prodh, cstack
 13596 ;; Tracked objects:
 13597 ;;		On entry : 0/1
 13598 ;;		On exit  : 0/0
 13599 ;;		Unchanged: 0/0
 13600 ;; Data sizes:     COMRAM   BANK0   BANK1   BANK2   BANK3   BANK4   BANK5   BANK6   BANK7   BANK8   BANK9  BANK10  BANK1
      +1  BANK12  BANK13  BANK14  BANK15
 13601 ;;      Params:         0       0       0       0       0       0       0       0       0       0       0       0       
      +0       0       0       0       0
 13602 ;;      Locals:         5       0       0       0       0       0       0       0       0       0       0       0       
      +0       0       0       0       0
 13603 ;;      Temps:          0       0       0       0       0       0       0       0       0       0       0       0       
      +0       0       0       0       0
 13604 ;;      Totals:         5       0       0       0       0       0       0       0       0       0       0       0       
      +0       0       0       0       0
 13605 ;;Total ram usage:        5 bytes
 13606 ;; Hardware stack levels used:    1
 13607 ;; Hardware stack levels required when called:    2
 13608 ;; This function calls:
 13609 ;;		_delay
 13610 ;; This function is called by:
 13611 ;;		_F_l
 13612 ;; This function uses a non-reentrant model
 13613 ;;
 13614                           
 13615                           	psect	text58
 13616  003388                     __ptext58:
 13617                           	opt stack 0
 13618  003388                     _SendSymbolToLCD:
 13619                           	opt stack 18
 13620                           
 13621                           ;incstack = 0
 13622                           ;SendSymbolToLCD@Symb stored from wreg
 13623  003388  6E08               	movwf	SendSymbolToLCD@Symb,c
 13624                           
 13625                           ;prog.c: 893: RC2 = 1;
 13626  00338A  8482               	bsf	3970,2,c	;volatile
 13627                           
 13628                           ;prog.c: 894: PORTA = (0b11110000 & Symb) / 8 | (flags.LCD_Light_On == 1 ? 0b00100000 : 
      +                          0b00000000);
 13629  00338C  BA57               	btfsc	_flags,5,c
 13630  00338E  D003               	goto	i1l7075
 13631  003390  6A04               	clrf	_SendSymbolToLCD$1048,c
 13632  003392  6A05               	clrf	_SendSymbolToLCD$1048+1,c
 13633  003394  D003               	goto	i1l7077
 13634  003396                     i1l7075:
 13635  003396  6A05               	clrf	_SendSymbolToLCD$1048+1,c
 13636  003398  0E20               	movlw	32
 13637  00339A  6E04               	movwf	_SendSymbolToLCD$1048,c
 13638  00339C                     i1l7077:
 13639  00339C  3808               	swapf	SendSymbolToLCD@Symb,w,c
 13640  00339E  46E8               	rlncf	wreg,f,c
 13641  0033A0  0B1F               	andlw	31
 13642  0033A2  0B1E               	andlw	30
 13643  0033A4  1004               	iorwf	_SendSymbolToLCD$1048,w,c
 13644                           
 13645                           ;prog.c: 895: RC0 = 1;
 13646                           
 13647                           ;prog.c: 896: delay(10, 1);
 13648  0033A6  D821               	call	PL108	;call to abstracted procedure
 13649  0033A8  ECDF  F01D         	call	_delay
 13650                           
 13651                           ;prog.c: 897: RC0 = 0;
 13652                           
 13653                           ;prog.c: 898: RC2 = 0;
 13654                           
 13655                           ;prog.c: 899: delay(25, 5);
 13656  0033AC  D818               	call	PL106	;call to abstracted procedure
 13657  0033AE  ECDF  F01D         	call	_delay
 13658                           
 13659                           ;prog.c: 901: RC2 = 1;
 13660  0033B2  8482               	bsf	3970,2,c	;volatile
 13661                           
 13662                           ;prog.c: 902: PORTA = (0b11110000 & (Symb * 16)) / 8 | (flags.LCD_Light_On == 1 ? 0b0010
      +                          0000 : 0b00000000);
 13663  0033B4  BA57               	btfsc	_flags,5,c
 13664  0033B6  D003               	goto	i1l7095
 13665  0033B8  6A06               	clrf	_SendSymbolToLCD$1050,c
 13666  0033BA  6A07               	clrf	_SendSymbolToLCD$1050+1,c
 13667  0033BC  D003               	goto	i1l7097
 13668  0033BE                     i1l7095:
 13669  0033BE  6A07               	clrf	_SendSymbolToLCD$1050+1,c
 13670  0033C0  0E20               	movlw	32
 13671  0033C2  6E06               	movwf	_SendSymbolToLCD$1050,c
 13672  0033C4                     i1l7097:
 13673  0033C4  5008               	movf	SendSymbolToLCD@Symb,w,c
 13674  0033C6  0D10               	mullw	16
 13675  0033C8  38F3               	swapf	prodl,w,c
 13676  0033CA  46E8               	rlncf	wreg,f,c
 13677  0033CC  0B1F               	andlw	31
 13678  0033CE  0B1E               	andlw	30
 13679  0033D0  1006               	iorwf	_SendSymbolToLCD$1050,w,c
 13680                           
 13681                           ;prog.c: 903: RC0 = 1;
 13682                           
 13683                           ;prog.c: 904: delay(10, 1);
 13684  0033D2  D80B               	call	PL108	;call to abstracted procedure
 13685  0033D4  ECDF  F01D         	call	_delay
 13686                           
 13687                           ;prog.c: 905: RC0 = 0;
 13688                           
 13689                           ;prog.c: 906: RC2 = 0;
 13690                           
 13691                           ;prog.c: 907: delay(25, 5);
 13692  0033D8  D802               	call	PL106	;call to abstracted procedure
 13693  0033DA  EFDF  F01D         	goto	_delay
 13694  0033DE                     __end_of_SendSymbolToLCD:
 13695                           	opt stack 0
 13696  0033DE                     PL106:
 13697                           	opt stack 18
 13698  0033DE  9082               	bcf	3970,0,c	;volatile
 13699  0033E0  9482               	bcf	3970,2,c	;volatile
 13700  0033E2  6A02               	clrf	delay@count+1,c
 13701  0033E4  0E05               	movlw	5
 13702  0033E6  6E01               	movwf	delay@count,c
 13703  0033E8  0C19               	retlw	25
 13704  0033EA                     __end_ofPL106:
 13705                           	opt stack 0
 13706  0033EA                     PL108:
 13707                           	opt stack 18
 13708  0033EA  6E80               	movwf	3968,c	;volatile
 13709  0033EC  8082               	bsf	3970,0,c	;volatile
 13710  0033EE  6A02               	clrf	delay@count+1,c
 13711  0033F0  0E01               	movlw	1
 13712  0033F2  6E01               	movwf	delay@count,c
 13713  0033F4  0C0A               	retlw	10
 13714  0033F6                     __end_ofPL108:
 13715                           	opt stack 0
 13716                           tblptru	equ	0xFF8
 13717                           tblptrh	equ	0xFF7
 13718                           tblptrl	equ	0xFF6
 13719                           tablat	equ	0xFF5
 13720                           prodh	equ	0xFF4
 13721                           prodl	equ	0xFF3
 13722                           intcon	equ	0xFF2
 13723                           intcon2	equ	0xFF1
 13724                           intcon3	equ	0xFF0
 13725                           postinc0	equ	0xFEE
 13726                           wreg	equ	0xFE8
 13727                           indf1	equ	0xFE7
 13728                           postdec1	equ	0xFE5
 13729                           plusw1	equ	0xFE3
 13730                           fsr1h	equ	0xFE2
 13731                           fsr1l	equ	0xFE1
 13732                           bsr	equ	0xFE0
 13733                           indf2	equ	0xFDF
 13734                           postinc2	equ	0xFDE
 13735                           postdec2	equ	0xFDD
 13736                           plusw2	equ	0xFDB
 13737                           fsr2h	equ	0xFDA
 13738                           fsr2l	equ	0xFD9
 13739                           status	equ	0xFD8
 13740                           
 13741 ;; *************** function _delay *****************
 13742 ;; Defined at:
 13743 ;;		line 881 in file "prog.c"
 13744 ;; Parameters:    Size  Location     Type
 13745 ;;  del             1    wreg     unsigned char 
 13746 ;;  count           2    0[COMRAM] unsigned int 
 13747 ;; Auto vars:     Size  Location     Type
 13748 ;;  del             1    2[COMRAM] unsigned char 
 13749 ;; Return value:  Size  Location     Type
 13750 ;;                  1    wreg      void 
 13751 ;; Registers used:
 13752 ;;		wreg, status,2, status,0
 13753 ;; Tracked objects:
 13754 ;;		On entry : 0/1
 13755 ;;		On exit  : 0/0
 13756 ;;		Unchanged: 0/0
 13757 ;; Data sizes:     COMRAM   BANK0   BANK1   BANK2   BANK3   BANK4   BANK5   BANK6   BANK7   BANK8   BANK9  BANK10  BANK1
      +1  BANK12  BANK13  BANK14  BANK15
 13758 ;;      Params:         2       0       0       0       0       0       0       0       0       0       0       0       
      +0       0       0       0       0
 13759 ;;      Locals:         1       0       0       0       0       0       0       0       0       0       0       0       
      +0       0       0       0       0
 13760 ;;      Temps:          0       0       0       0       0       0       0       0       0       0       0       0       
      +0       0       0       0       0
 13761 ;;      Totals:         3       0       0       0       0       0       0       0       0       0       0       0       
      +0       0       0       0       0
 13762 ;;Total ram usage:        3 bytes
 13763 ;; Hardware stack levels used:    1
 13764 ;; Hardware stack levels required when called:    1
 13765 ;; This function calls:
 13766 ;;		Nothing
 13767 ;; This function is called by:
 13768 ;;		_SendSymbolToLCD
 13769 ;; This function uses a non-reentrant model
 13770 ;;
 13771                           
 13772                           	psect	text59
 13773  003BBE                     __ptext59:
 13774                           	opt stack 0
 13775  003BBE                     _delay:
 13776                           	opt stack 18
 13777                           
 13778                           ;incstack = 0
 13779                           ;delay@del stored from wreg
 13780  003BBE  6E03               	movwf	delay@del,c
 13781                           
 13782                           ;prog.c: 882: while (count > 0) {
 13783  003BC0  D009               	goto	i1l6379
 13784  003BC2                     i1l567:
 13785                           
 13786                           ;prog.c: 883: TMR2 = 0;
 13787  003BC2  6ACC               	clrf	4044,c	;volatile
 13788                           
 13789                           ;prog.c: 884: PR2 = del;
 13790  003BC4  C003  FFCB         	movff	delay@del,4043	;volatile
 13791                           
 13792                           ;prog.c: 885: TMR2IF = 0;
 13793  003BC8  929E               	bcf	3998,1,c	;volatile
 13794  003BCA                     i1l568:
 13795  003BCA  A29E               	btfss	3998,1,c	;volatile
 13796  003BCC  D7FE               	goto	i1l568
 13797                           
 13798                           ;prog.c: 887: count--;
 13799  003BCE  0601               	decf	delay@count,f,c
 13800  003BD0  A0D8               	btfss	status,0,c
 13801  003BD2  0602               	decf	delay@count+1,f,c
 13802  003BD4                     i1l6379:
 13803  003BD4  5001               	movf	delay@count,w,c
 13804  003BD6  1002               	iorwf	delay@count+1,w,c
 13805  003BD8  E1F4               	bnz	i1l567
 13806  003BDA  0012               	return		;funcret
 13807  003BDC                     __end_of_delay:
 13808                           	opt stack 0
 13809                           tblptru	equ	0xFF8
 13810                           tblptrh	equ	0xFF7
 13811                           tblptrl	equ	0xFF6
 13812                           tablat	equ	0xFF5
 13813                           prodh	equ	0xFF4
 13814                           prodl	equ	0xFF3
 13815                           intcon	equ	0xFF2
 13816                           intcon2	equ	0xFF1
 13817                           intcon3	equ	0xFF0
 13818                           postinc0	equ	0xFEE
 13819                           wreg	equ	0xFE8
 13820                           indf1	equ	0xFE7
 13821                           postdec1	equ	0xFE5
 13822                           plusw1	equ	0xFE3
 13823                           fsr1h	equ	0xFE2
 13824                           fsr1l	equ	0xFE1
 13825                           bsr	equ	0xFE0
 13826                           indf2	equ	0xFDF
 13827                           postinc2	equ	0xFDE
 13828                           postdec2	equ	0xFDD
 13829                           plusw2	equ	0xFDB
 13830                           fsr2h	equ	0xFDA
 13831                           fsr2l	equ	0xFD9
 13832                           status	equ	0xFD8
 13833                           
 13834 ;; *************** function _ConvKeyNum *****************
 13835 ;; Defined at:
 13836 ;;		line 996 in file "prog.c"
 13837 ;; Parameters:    Size  Location     Type
 13838 ;;  Num             1    wreg     unsigned char 
 13839 ;; Auto vars:     Size  Location     Type
 13840 ;;  Num             1    0[COMRAM] unsigned char 
 13841 ;; Return value:  Size  Location     Type
 13842 ;;                  1    wreg      unsigned char 
 13843 ;; Registers used:
 13844 ;;		wreg, status,2, status,0
 13845 ;; Tracked objects:
 13846 ;;		On entry : 0/1
 13847 ;;		On exit  : 0/0
 13848 ;;		Unchanged: 0/0
 13849 ;; Data sizes:     COMRAM   BANK0   BANK1   BANK2   BANK3   BANK4   BANK5   BANK6   BANK7   BANK8   BANK9  BANK10  BANK1
      +1  BANK12  BANK13  BANK14  BANK15
 13850 ;;      Params:         0       0       0       0       0       0       0       0       0       0       0       0       
      +0       0       0       0       0
 13851 ;;      Locals:         1       0       0       0       0       0       0       0       0       0       0       0       
      +0       0       0       0       0
 13852 ;;      Temps:          0       0       0       0       0       0       0       0       0       0       0       0       
      +0       0       0       0       0
 13853 ;;      Totals:         1       0       0       0       0       0       0       0       0       0       0       0       
      +0       0       0       0       0
 13854 ;;Total ram usage:        1 bytes
 13855 ;; Hardware stack levels used:    1
 13856 ;; Hardware stack levels required when called:    1
 13857 ;; This function calls:
 13858 ;;		Nothing
 13859 ;; This function is called by:
 13860 ;;		_F_l
 13861 ;; This function uses a non-reentrant model
 13862 ;;
 13863                           
 13864                           	psect	text60
 13865  0034C0                     __ptext60:
 13866                           	opt stack 0
 13867  0034C0                     _ConvKeyNum:
 13868                           	opt stack 19
 13869                           
 13870                           ;incstack = 0
 13871                           ;ConvKeyNum@Num stored from wreg
 13872  0034C0  6E01               	movwf	ConvKeyNum@Num,c
 13873                           
 13874                           ;prog.c: 997: switch (Num) {
 13875  0034C2  5001               	movf	ConvKeyNum@Num,w,c
 13876                           
 13877                           ; Switch size 1, requested type "space"
 13878                           ; Number of cases is 16, Range of values is 0 to 15
 13879                           ; switch strategies available:
 13880                           ; Name         Instructions Cycles
 13881                           ; simple_byte           49    25 (average)
 13882                           ;	Chosen strategy is simple_byte
 13883  0034C4  B4D8               	btfsc	status,2,c
 13884  0034C6  0C21               	retlw	33
 13885  0034C8  0A01               	xorlw	1	; case 1
 13886  0034CA  B4D8               	btfsc	status,2,c
 13887  0034CC  0C2B               	retlw	43
 13888  0034CE  0A03               	xorlw	3	; case 2
 13889  0034D0  B4D8               	btfsc	status,2,c
 13890  0034D2  0C2A               	retlw	42
 13891  0034D4  0A01               	xorlw	1	; case 3
 13892  0034D6  B4D8               	btfsc	status,2,c
 13893  0034D8  0C29               	retlw	41
 13894  0034DA  0A07               	xorlw	7	; case 4
 13895  0034DC  B4D8               	btfsc	status,2,c
 13896  0034DE  0C28               	retlw	40
 13897  0034E0  0A01               	xorlw	1	; case 5
 13898  0034E2  B4D8               	btfsc	status,2,c
 13899  0034E4  0C2D               	retlw	45
 13900  0034E6  0A03               	xorlw	3	; case 6
 13901  0034E8  B4D8               	btfsc	status,2,c
 13902  0034EA  0C27               	retlw	39
 13903  0034EC  0A01               	xorlw	1	; case 7
 13904  0034EE  B4D8               	btfsc	status,2,c
 13905  0034F0  0C24               	retlw	36
 13906  0034F2  0A0F               	xorlw	15	; case 8
 13907  0034F4  B4D8               	btfsc	status,2,c
 13908  0034F6  0C25               	retlw	37
 13909  0034F8  0A01               	xorlw	1	; case 9
 13910  0034FA  B4D8               	btfsc	status,2,c
 13911  0034FC  0C26               	retlw	38
 13912  0034FE  0A03               	xorlw	3	; case 10
 13913  003500  B4D8               	btfsc	status,2,c
 13914  003502  0C23               	retlw	35
 13915  003504  0A01               	xorlw	1	; case 11
 13916  003506  B4D8               	btfsc	status,2,c
 13917  003508  0C22               	retlw	34
 13918  00350A  0A07               	xorlw	7	; case 12
 13919  00350C  B4D8               	btfsc	status,2,c
 13920  00350E  0C20               	retlw	32
 13921  003510  0A01               	xorlw	1	; case 13
 13922  003512  B4D8               	btfsc	status,2,c
 13923  003514  0C1E               	retlw	30
 13924  003516  0A03               	xorlw	3	; case 14
 13925  003518  B4D8               	btfsc	status,2,c
 13926  00351A  0C2C               	retlw	44
 13927  00351C  0A01               	xorlw	1	; case 15
 13928  00351E  B4D8               	btfsc	status,2,c
 13929  003520  0C1F               	retlw	31
 13930  003522  0C00               	retlw	0
 13931  003524                     __end_of_ConvKeyNum:
 13932                           	opt stack 0
 13933                           tblptru	equ	0xFF8
 13934                           tblptrh	equ	0xFF7
 13935                           tblptrl	equ	0xFF6
 13936                           tablat	equ	0xFF5
 13937                           prodh	equ	0xFF4
 13938                           prodl	equ	0xFF3
 13939                           intcon	equ	0xFF2
 13940                           intcon2	equ	0xFF1
 13941                           intcon3	equ	0xFF0
 13942                           postinc0	equ	0xFEE
 13943                           wreg	equ	0xFE8
 13944                           indf1	equ	0xFE7
 13945                           postdec1	equ	0xFE5
 13946                           plusw1	equ	0xFE3
 13947                           fsr1h	equ	0xFE2
 13948                           fsr1l	equ	0xFE1
 13949                           bsr	equ	0xFE0
 13950                           indf2	equ	0xFDF
 13951                           postinc2	equ	0xFDE
 13952                           postdec2	equ	0xFDD
 13953                           plusw2	equ	0xFDB
 13954                           fsr2h	equ	0xFDA
 13955                           fsr2l	equ	0xFD9
 13956                           status	equ	0xFD8
 13957                           
 13958 ;; *************** function _F_h *****************
 13959 ;; Defined at:
 13960 ;;		line 1580 in file "prog.c"
 13961 ;; Parameters:    Size  Location     Type
 13962 ;;		None
 13963 ;; Auto vars:     Size  Location     Type
 13964 ;;		None
 13965 ;; Return value:  Size  Location     Type
 13966 ;;                  1    wreg      void 
 13967 ;; Registers used:
 13968 ;;		None
 13969 ;; Tracked objects:
 13970 ;;		On entry : 0/0
 13971 ;;		On exit  : 0/0
 13972 ;;		Unchanged: 0/0
 13973 ;; Data sizes:     COMRAM   BANK0   BANK1   BANK2   BANK3   BANK4   BANK5   BANK6   BANK7   BANK8   BANK9  BANK10  BANK1
      +1  BANK12  BANK13  BANK14  BANK15
 13974 ;;      Params:         0       0       0       0       0       0       0       0       0       0       0       0       
      +0       0       0       0       0
 13975 ;;      Locals:         0       0       0       0       0       0       0       0       0       0       0       0       
      +0       0       0       0       0
 13976 ;;      Temps:          0       0       0       0       0       0       0       0       0       0       0       0       
      +0       0       0       0       0
 13977 ;;      Totals:         0       0       0       0       0       0       0       0       0       0       0       0       
      +0       0       0       0       0
 13978 ;;Total ram usage:        0 bytes
 13979 ;; Hardware stack levels used:    1
 13980 ;; This function calls:
 13981 ;;		Nothing
 13982 ;; This function is called by:
 13983 ;;		Interrupt level 2
 13984 ;; This function uses a non-reentrant model
 13985 ;;
 13986                           
 13987                           	psect	intcode
 13988  000008                     __pintcode:
 13989                           	opt stack 0
 13990  000008                     _F_h:
 13991                           	opt stack 18
 13992                           
 13993                           ;incstack = 0
 13994  000008  8262               	bsf	btemp,1,c	;set compiler interrupt flag (level 2)
 13995  00000A  ED03  F01E         	call	int_func,f	;refresh shadow registers
 13996                           tblptru	equ	0xFF8
 13997                           tblptrh	equ	0xFF7
 13998                           tblptrl	equ	0xFF6
 13999                           tablat	equ	0xFF5
 14000                           prodh	equ	0xFF4
 14001                           prodl	equ	0xFF3
 14002                           intcon	equ	0xFF2
 14003                           intcon2	equ	0xFF1
 14004                           intcon3	equ	0xFF0
 14005                           postinc0	equ	0xFEE
 14006                           wreg	equ	0xFE8
 14007                           indf1	equ	0xFE7
 14008                           postdec1	equ	0xFE5
 14009                           plusw1	equ	0xFE3
 14010                           fsr1h	equ	0xFE2
 14011                           fsr1l	equ	0xFE1
 14012                           bsr	equ	0xFE0
 14013                           indf2	equ	0xFDF
 14014                           postinc2	equ	0xFDE
 14015                           postdec2	equ	0xFDD
 14016                           plusw2	equ	0xFDB
 14017                           fsr2h	equ	0xFDA
 14018                           fsr2l	equ	0xFD9
 14019                           status	equ	0xFD8
 14020                           
 14021                           	psect	intcode_body
 14022  003C06                     __pintcode_body:
 14023                           	opt stack 18
 14024  003C06                     int_func:
 14025                           	opt stack 18
 14026  003C06  0006               	pop		; remove dummy address from shadow register refresh
 14027  003C08  0004               	clrwdt		;# 
 14028  003C0A  9262               	bcf	btemp,1,c	;clear compiler interrupt flag (level 2)
 14029  003C0C  0011               	retfie		f
 14030  003C0E                     __end_of_F_h:
 14031                           	opt stack 0
 14032                           tblptru	equ	0xFF8
 14033                           tblptrh	equ	0xFF7
 14034                           tblptrl	equ	0xFF6
 14035                           tablat	equ	0xFF5
 14036                           prodh	equ	0xFF4
 14037                           prodl	equ	0xFF3
 14038                           intcon	equ	0xFF2
 14039                           intcon2	equ	0xFF1
 14040                           intcon3	equ	0xFF0
 14041                           postinc0	equ	0xFEE
 14042                           wreg	equ	0xFE8
 14043                           indf1	equ	0xFE7
 14044                           postdec1	equ	0xFE5
 14045                           plusw1	equ	0xFE3
 14046                           fsr1h	equ	0xFE2
 14047                           fsr1l	equ	0xFE1
 14048                           bsr	equ	0xFE0
 14049                           indf2	equ	0xFDF
 14050                           postinc2	equ	0xFDE
 14051                           postdec2	equ	0xFDD
 14052                           plusw2	equ	0xFDB
 14053                           fsr2h	equ	0xFDA
 14054                           fsr2l	equ	0xFD9
 14055                           status	equ	0xFD8
 14056                           tblptru	equ	0xFF8
 14057                           tblptrh	equ	0xFF7
 14058                           tblptrl	equ	0xFF6
 14059                           tablat	equ	0xFF5
 14060                           prodh	equ	0xFF4
 14061                           prodl	equ	0xFF3
 14062                           intcon	equ	0xFF2
 14063                           intcon2	equ	0xFF1
 14064                           intcon3	equ	0xFF0
 14065                           postinc0	equ	0xFEE
 14066                           wreg	equ	0xFE8
 14067                           indf1	equ	0xFE7
 14068                           postdec1	equ	0xFE5
 14069                           plusw1	equ	0xFE3
 14070                           fsr1h	equ	0xFE2
 14071                           fsr1l	equ	0xFE1
 14072                           bsr	equ	0xFE0
 14073                           indf2	equ	0xFDF
 14074                           postinc2	equ	0xFDE
 14075                           postdec2	equ	0xFDD
 14076                           plusw2	equ	0xFDB
 14077                           fsr2h	equ	0xFDA
 14078                           fsr2l	equ	0xFD9
 14079                           status	equ	0xFD8
 14080                           
 14081                           	psect	rparam
 14082  0000                     tblptru	equ	0xFF8
 14083                           tblptrh	equ	0xFF7
 14084                           tblptrl	equ	0xFF6
 14085                           tablat	equ	0xFF5
 14086                           prodh	equ	0xFF4
 14087                           prodl	equ	0xFF3
 14088                           intcon	equ	0xFF2
 14089                           intcon2	equ	0xFF1
 14090                           intcon3	equ	0xFF0
 14091                           postinc0	equ	0xFEE
 14092                           wreg	equ	0xFE8
 14093                           indf1	equ	0xFE7
 14094                           postdec1	equ	0xFE5
 14095                           plusw1	equ	0xFE3
 14096                           fsr1h	equ	0xFE2
 14097                           fsr1l	equ	0xFE1
 14098                           bsr	equ	0xFE0
 14099                           indf2	equ	0xFDF
 14100                           postinc2	equ	0xFDE
 14101                           postdec2	equ	0xFDD
 14102                           plusw2	equ	0xFDB
 14103                           fsr2h	equ	0xFDA
 14104                           fsr2l	equ	0xFD9
 14105                           status	equ	0xFD8
 14106                           
 14107                           	psect	temp
 14108  000062                     btemp:
 14109                           	opt stack 0
 14110  000062                     	ds	1
 14111  0000                     int$flags	set	btemp
 14112                           tblptru	equ	0xFF8
 14113                           tblptrh	equ	0xFF7
 14114                           tblptrl	equ	0xFF6
 14115                           tablat	equ	0xFF5
 14116                           prodh	equ	0xFF4
 14117                           prodl	equ	0xFF3
 14118                           intcon	equ	0xFF2
 14119                           intcon2	equ	0xFF1
 14120                           intcon3	equ	0xFF0
 14121                           postinc0	equ	0xFEE
 14122                           wreg	equ	0xFE8
 14123                           indf1	equ	0xFE7
 14124                           postdec1	equ	0xFE5
 14125                           plusw1	equ	0xFE3
 14126                           fsr1h	equ	0xFE2
 14127                           fsr1l	equ	0xFE1
 14128                           bsr	equ	0xFE0
 14129                           indf2	equ	0xFDF
 14130                           postinc2	equ	0xFDE
 14131                           postdec2	equ	0xFDD
 14132                           plusw2	equ	0xFDB
 14133                           fsr2h	equ	0xFDA
 14134                           fsr2l	equ	0xFD9
 14135                           status	equ	0xFD8
 14136                           tblptru	equ	0xFF8
 14137                           tblptrh	equ	0xFF7
 14138                           tblptrl	equ	0xFF6
 14139                           tablat	equ	0xFF5
 14140                           prodh	equ	0xFF4
 14141                           prodl	equ	0xFF3
 14142                           intcon	equ	0xFF2
 14143                           intcon2	equ	0xFF1
 14144                           intcon3	equ	0xFF0
 14145                           postinc0	equ	0xFEE
 14146                           wreg	equ	0xFE8
 14147                           indf1	equ	0xFE7
 14148                           postdec1	equ	0xFE5
 14149                           plusw1	equ	0xFE3
 14150                           fsr1h	equ	0xFE2
 14151                           fsr1l	equ	0xFE1
 14152                           bsr	equ	0xFE0
 14153                           indf2	equ	0xFDF
 14154                           postinc2	equ	0xFDE
 14155                           postdec2	equ	0xFDD
 14156                           plusw2	equ	0xFDB
 14157                           fsr2h	equ	0xFDA
 14158                           fsr2l	equ	0xFD9
 14159                           status	equ	0xFD8


Data Sizes:
    Strings     84
    Constant    0
    Data        89
    BSS         88
    Persistent  0
    Stack       0

Auto Spaces:
    Space          Size  Autos    Used
    COMRAM          126     78      97
    BANK0           128    103     118
    BANK1           256     84     227
    BANK2           256      0       0
    BANK3           256      0       0
    BANK4           256      0       0
    BANK5           256      0       0
    BANK6           256      0       0
    BANK7           256      0       0
    BANK8           256      0       0
    BANK9           256      0       0
    BANK10          256      0       0
    BANK11          256      0       0
    BANK12          256      0       0
    BANK13          256      0       0
    BANK14          256      0       0
    BANK15          128      0       0

Pointer List with Targets:

    outputString@stringData	PTR unsigned char  size(2) Largest target is 17
		 -> drowText@cutedString(COMRAM[17]), EditSchedule@string2(BANK0[12]), EditSchedule@string(BANK0[12]), STR_14(CODE[6]), 
		 -> STR_13(CODE[5]), STR_12(CODE[11]), STR_11(CODE[4]), RefreshSchedulerIndicator@num(BANK0[3]), 
		 -> STR_10(CODE[17]), TimeToInd@DataArrayOfLine2(BANK1[13]), TimeToInd@DataArray(BANK1[17]), STR_9(CODE[17]), 
		 -> TimeToInd@TimeData(BANK1[9]), TimeToInd@D(BANK1[4]), STR_8(CODE[3]), STR_7(CODE[3]), 
		 -> STR_6(CODE[3]), STR_5(CODE[3]), STR_4(CODE[3]), STR_3(CODE[3]), 
		 -> STR_2(CODE[3]), STR_1(CODE[3]), 

    FindNextTimeStart@TimeFrom	PTR unsigned long  size(2) Largest target is 4
		 -> NearTimeStart(BANK1[4]), 

    ParseDataRecord@Signals	PTR unsigned char  size(2) Largest target is 1
		 -> FindNextTimeStart@Signals(BANK0[1]), EditSchedule@Signals(BANK0[1]), TimeToInd@Signals(BANK1[1]), 

    ParseDataRecord@Days	PTR unsigned char  size(2) Largest target is 1
		 -> FindNextTimeStart@Days(BANK0[1]), EditSchedule@Days(BANK0[1]), TimeToInd@Days(BANK1[1]), 

    ParseDataRecord@TimeStop	PTR unsigned int  size(2) Largest target is 2
		 -> FindNextTimeStart@TimeStop(BANK0[2]), EditSchedule@TimeStop(BANK0[2]), TimeToInd@TimeStop(BANK1[2]), 

    ParseDataRecord@TimeStart	PTR unsigned int  size(2) Largest target is 2
		 -> FindNextTimeStart@TimeStart(BANK0[2]), EditSchedule@TimeStart(BANK0[2]), TimeToInd@TimeStart(BANK1[2]), 

    ParseTime@Day	PTR unsigned char  size(2) Largest target is 1
		 -> TimeToInd@Day(BANK1[1]), 

    ParseTime@Time	PTR unsigned int  size(2) Largest target is 2
		 -> TimeToInd@Time(BANK1[2]), 

    WriteDataOfCell@Data	PTR unsigned long  size(1) Largest target is 4
		 -> EditSchedule@Data(BANK0[4]), 

    WriteDataOfCell@CellsData	PTR unsigned char  size(1) Largest target is 8
		 -> EditSchedule@CellsData(BANK0[8]), 

    ReadDataOfCell@Data	PTR unsigned long  size(2) Largest target is 4
		 -> FindNextTimeStart@Data(BANK0[4]), EditSchedule@Data(BANK0[4]), RefreshSchedulerIndicator@Data(BANK0[4]), FindCell@Data(BANK0[4]), 
		 -> TimeToInd@Data(BANK1[4]), 

    ReadDataOfCell@CellsData	PTR unsigned char  size(2) Largest target is 8
		 -> FindNextTimeStart@CellsData(BANK0[8]), EditSchedule@CellsData(BANK0[8]), RefreshSchedulerIndicator@CellsData(BANK0[8]), FindCell@CellsData(BANK0[8]), 
		 -> TimeToInd@CellsData(BANK1[8]), 

    TimeDataToString@TimeData	PTR unsigned char  size(1) Largest target is 8
		 -> EditSchedule@TimeData(BANK0[8]), 

    TimeDataToString@string	PTR unsigned char  size(1) Largest target is 12
		 -> EditSchedule@string2(BANK0[12]), EditSchedule@string(BANK0[12]), 

    TimesToTimeData@TimeData	PTR unsigned char  size(1) Largest target is 8
		 -> EditSchedule@TimeData(BANK0[8]), 

    TimesToTimeData@Times	PTR unsigned int  size(1) Largest target is 4
		 -> EditSchedule@Times(BANK0[4]), 

    WriteArrayToEEPROM@container	PTR unsigned char  size(1) Largest target is 8
		 -> EditSchedule@CellsData(BANK0[8]), DeleteDataOfCell@CellsData(COMRAM[8]), 

    FillArrayFromEEPROM@container	PTR unsigned char  size(2) Largest target is 8
		 -> FindNextTimeStart@CellsData(BANK0[8]), EditSchedule@CellsData(BANK0[8]), RefreshSchedulerIndicator@CellsData(BANK0[8]), FindCell@CellsData(BANK0[8]), 
		 -> TimeToInd@CellsData(BANK1[8]), 

    TimeEdit@symb_array	PTR struct .[11] size(1) Largest target is 64
		 -> TimeData.Date(COMRAM[40]), TimeData.WeekDay(COMRAM[4]), TimeData.Time(COMRAM[20]), TimeEdit@TimeData(BANK0[64]), 

    TimeData_INIT@TimeData	PTR struct . size(1) Largest target is 64
		 -> TimeEdit@TimeData(BANK0[64]), 

    TimeData_BlinkOFF@TimeData	PTR struct . size(1) Largest target is 64
		 -> TimeEdit@TimeData(BANK0[64]), 

    ReIndTimeEdit@TimeData	PTR struct . size(1) Largest target is 64
		 -> TimeEdit@TimeData(BANK0[64]), 

    outputDateData@data	PTR struct . size(1) Largest target is 64
		 -> TimeEdit@TimeData(BANK0[64]), 

    TimeToInd@DataArray2	PTR unsigned char  size(1) Largest target is 3
		 -> STR_8(CODE[3]), STR_7(CODE[3]), STR_6(CODE[3]), STR_5(CODE[3]), 
		 -> STR_4(CODE[3]), STR_3(CODE[3]), STR_2(CODE[3]), STR_1(CODE[3]), 

    sp__GetDayOfWeek	PTR unsigned char  size(1) Largest target is 3
		 -> STR_8(CODE[3]), STR_7(CODE[3]), STR_6(CODE[3]), STR_5(CODE[3]), 
		 -> STR_4(CODE[3]), STR_3(CODE[3]), STR_2(CODE[3]), STR_1(CODE[3]), 

    NumericToString@mySring	PTR unsigned char  size(1) Largest target is 3
		 -> RefreshSchedulerIndicator@num(BANK0[3]), 


Critical Paths under _main in COMRAM

    _main->_main2
    _main2->_TimeToInd
    _lcd_on->_lcd_init
    _lcd_init->_lcd_send_byte
    _lcd_off->_lcd_send_byte
    _lcd_send_byte->_lcd_send_initial_half_byte
    _TimeToInd->_Scheduler
    _Scheduler->_SchedulerNew
    _SchedulerNew->_RefreshSchedulerIndicator
    _RefreshSchedulerIndicator->_FindCell
    _NumericToString->___lldiv
    _FindCell->_ReadDataOfCell
    _EditSchedule->_ReadDataOfCell
    _outputString->_setDigit
    _getBorderUp->_getDigit
    _WriteDataOfCell->_WriteArrayToEEPROM
    _TimesToTimeData->___lwdiv
    _TimeDataToString->_getNumChar
    _ItemsToIndicator->_setDigit
    _DeleteDataOfCell->_WriteArrayToEEPROM
    _WriteArrayToEEPROM->_EEWR
    _ParseTime->___aldiv
    _FindNextTimeStart->_ReadDataOfCell
    _ReadDataOfCell->_FillArrayFromEEPROM
    _FillArrayFromEEPROM->_EERD
    _TimeEdit->_ReIndTimeEdit
    _ReIndTimeEdit->_outputDateData
    _outputDateData->_setDigit
    _setDigit->___lwdiv

Critical Paths under _F_l in COMRAM

    _F_l->_SendSymbolToLCD
    i1_lcd_send_byte->i1_lcd_send_initial_half_byte
    _SendSymbolToLCD->_delay

Critical Paths under _F_h in COMRAM

    None.

Critical Paths under _main in BANK0

    _main2->_TimeEdit
    _Scheduler->_EditSchedule
    _SchedulerNew->_EditSchedule
    _RefreshSchedulerIndicator->_FindCell

Critical Paths under _F_l in BANK0

    None.

Critical Paths under _F_h in BANK0

    None.

Critical Paths under _main in BANK1

    _main2->_TimeToInd

Critical Paths under _F_l in BANK1

    None.

Critical Paths under _F_h in BANK1

    None.

Critical Paths under _main in BANK2

    None.

Critical Paths under _F_l in BANK2

    None.

Critical Paths under _F_h in BANK2

    None.

Critical Paths under _main in BANK3

    None.

Critical Paths under _F_l in BANK3

    None.

Critical Paths under _F_h in BANK3

    None.

Critical Paths under _main in BANK4

    None.

Critical Paths under _F_l in BANK4

    None.

Critical Paths under _F_h in BANK4

    None.

Critical Paths under _main in BANK5

    None.

Critical Paths under _F_l in BANK5

    None.

Critical Paths under _F_h in BANK5

    None.

Critical Paths under _main in BANK6

    None.

Critical Paths under _F_l in BANK6

    None.

Critical Paths under _F_h in BANK6

    None.

Critical Paths under _main in BANK7

    None.

Critical Paths under _F_l in BANK7

    None.

Critical Paths under _F_h in BANK7

    None.

Critical Paths under _main in BANK8

    None.

Critical Paths under _F_l in BANK8

    None.

Critical Paths under _F_h in BANK8

    None.

Critical Paths under _main in BANK9

    None.

Critical Paths under _F_l in BANK9

    None.

Critical Paths under _F_h in BANK9

    None.

Critical Paths under _main in BANK10

    None.

Critical Paths under _F_l in BANK10

    None.

Critical Paths under _F_h in BANK10

    None.

Critical Paths under _main in BANK11

    None.

Critical Paths under _F_l in BANK11

    None.

Critical Paths under _F_h in BANK11

    None.

Critical Paths under _main in BANK12

    None.

Critical Paths under _F_l in BANK12

    None.

Critical Paths under _F_h in BANK12

    None.

Critical Paths under _main in BANK13

    None.

Critical Paths under _F_l in BANK13

    None.

Critical Paths under _F_h in BANK13

    None.

Critical Paths under _main in BANK14

    None.

Critical Paths under _F_l in BANK14

    None.

Critical Paths under _F_h in BANK14

    None.

Critical Paths under _main in BANK15

    None.

Critical Paths under _F_l in BANK15

    None.

Critical Paths under _F_h in BANK15

    None.

Call Graph Tables:

 ---------------------------------------------------------------------------------
 (Depth) Function   	        Calls       Base Space   Used Autos Params    Refs
 ---------------------------------------------------------------------------------
 (0) _main                                                 1     1      0  293105
                                             77 COMRAM     1     1      0
                               _EERD
                             _clrInd
                             _lcd_on
                              _main2
 ---------------------------------------------------------------------------------
 (1) _main2                                                1     1      0  291966
                                             76 COMRAM     1     1      0
                               _EEWR
                        _FillMinutes
                  _FindNextTimeStart
                          _Scheduler
                           _TimeEdit
                          _TimeToInd
                             _clrInd
                            _lcd_off
                             _lcd_on
 ---------------------------------------------------------------------------------
 (2) _lcd_on                                               0     0      0     249
                           _lcd_init
                      _lcd_send_byte
 ---------------------------------------------------------------------------------
 (3) _lcd_init                                             2     2      0     159
                                             32 COMRAM     2     2      0
                      _lcd_send_byte
         _lcd_send_initial_half_byte
 ---------------------------------------------------------------------------------
 (2) _lcd_off                                              0     0      0      90
                      _lcd_send_byte
 ---------------------------------------------------------------------------------
 (3) _lcd_send_byte                                        1     1      0      90
                                             31 COMRAM     1     1      0
         _lcd_send_initial_half_byte
 ---------------------------------------------------------------------------------
 (4) _lcd_send_initial_half_byte                           3     3      0      46
                                             28 COMRAM     3     3      0
 ---------------------------------------------------------------------------------
 (2) _TimeToInd                                           86    86      0  151194
                                             74 COMRAM     2     2      0
                                              0 BANK1     84    84      0
                  _FindNextTimeStart
                       _GetDayOfWeek
                    _ParseDataRecord
                          _ParseTime
                     _ReadDataOfCell
                          _Scheduler
                            ___aldiv
                            ___almod
                            ___lbdiv
                            ___lbmod
                            ___lwdiv
                            ___lwmod
                             _clrInd
                         _getNumChar
                       _outputString
 ---------------------------------------------------------------------------------
 (3) _Scheduler                                            2     0      2  115267
                                             72 COMRAM     2     0      2
                   _DeleteDataOfCell
                       _EditSchedule
                           _FindCell
          _RefreshSchedulerIndicator
                       _SchedulerNew
                             _clrInd
 ---------------------------------------------------------------------------------
 (4) _SchedulerNew                                         2     0      2   56623
                                             70 COMRAM     2     0      2
                       _EditSchedule
                           _FindCell
          _RefreshSchedulerIndicator
                             _clrInd
 ---------------------------------------------------------------------------------
 (5) _RefreshSchedulerIndicator                           30    25      5   24375
                                             63 COMRAM     7     2      5
                                             20 BANK0     23    23      0
                           _FindCell
                    _NumericToString
                     _ReadDataOfCell
                            ___lwdiv
                            ___lwmod
                         _getNumChar
                       _outputString
                           _setDigit
 ---------------------------------------------------------------------------------
 (6) _NumericToString                                      9     3      6    1684
                                             41 COMRAM     9     3      6
                            ___lldiv
                            ___llmod
                         _getNumChar
 ---------------------------------------------------------------------------------
 (7) ___llmod                                              9     1      8     563
                                             28 COMRAM     9     1      8
 ---------------------------------------------------------------------------------
 (7) ___lldiv                                             13     5      8     692
                                             28 COMRAM    13     5      8
 ---------------------------------------------------------------------------------
 (6) _FindCell                                            26    21      5    4765
                                             57 COMRAM     6     1      5
                                              0 BANK0     20    20      0
                     _ReadDataOfCell
 ---------------------------------------------------------------------------------
 (5) _EditSchedule                                        92    88      4   26893
                                             57 COMRAM     4     0      4
                                              0 BANK0     88    88      0
                    _ConvertDayToBit
                   _ItemsToIndicator
                    _ParseDataRecord
                     _ReadDataOfCell
                   _TimeDataToString
                    _TimesToTimeData
                    _WriteDataOfCell
                             ___wmul
                             _clrInd
                             _entNum
                        _getBorderUp
                       _outputString
                           _setBlink
 ---------------------------------------------------------------------------------
 (3) _outputString                                        10     6      4    5375
                                             44 COMRAM    10     6      4
                       _GetDayOfWeek (ARG)
                           _setDigit
 ---------------------------------------------------------------------------------
 (6) _getBorderUp                                          2     2      0     191
                                             32 COMRAM     2     2      0
                           _getDigit
 ---------------------------------------------------------------------------------
 (7) _getDigit                                             4     3      1     120
                                             28 COMRAM     4     3      1
 ---------------------------------------------------------------------------------
 (6) ___wmul                                               6     2      4    2435
                                             28 COMRAM     6     2      4
 ---------------------------------------------------------------------------------
 (6) _WriteDataOfCell                                      6     3      3    2295
                                             40 COMRAM     6     3      3
                 _WriteArrayToEEPROM
 ---------------------------------------------------------------------------------
 (6) _TimesToTimeData                                      6     5      1    4559
                                             35 COMRAM     6     5      1
                            ___lwdiv
                            ___lwmod
 ---------------------------------------------------------------------------------
 (6) _TimeDataToString                                     5     4      1     420
                                             29 COMRAM     5     4      1
                         _getNumChar
 ---------------------------------------------------------------------------------
 (6) _ItemsToIndicator                                     4     2      2    2205
                                             44 COMRAM     4     2      2
                         _getNumChar
                           _setDigit
 ---------------------------------------------------------------------------------
 (6) _ConvertDayToBit                                      1     1      0      22
                                             28 COMRAM     1     1      0
 ---------------------------------------------------------------------------------
 (4) _DeleteDataOfCell                                    11     9      2    2145
                                             40 COMRAM    11     9      2
                 _WriteArrayToEEPROM
 ---------------------------------------------------------------------------------
 (7) _WriteArrayToEEPROM                                   8     4      4    1932
                                             32 COMRAM     8     4      4
                               _EEWR
 ---------------------------------------------------------------------------------
 (8) _EEWR                                                 4     1      3    1428
                                             28 COMRAM     4     1      3
 ---------------------------------------------------------------------------------
 (3) _ParseTime                                           10     2      8    6658
                                             42 COMRAM    10     2      8
                            ___aldiv
                            ___lwdiv
                            ___lwmod
 ---------------------------------------------------------------------------------
 (3) ___lwmod                                              5     1      4    1957
                                             28 COMRAM     5     1      4
 ---------------------------------------------------------------------------------
 (3) ___lwdiv                                              7     3      4    1960
                                             28 COMRAM     7     3      4
 ---------------------------------------------------------------------------------
 (3) _GetDayOfWeek                                         3     1      2     154
                                             28 COMRAM     3     1      2
 ---------------------------------------------------------------------------------
 (3) _FindNextTimeStart                                   43    41      2    7026
                                             57 COMRAM     6     4      2
                                              0 BANK0     37    37      0
                    _ParseDataRecord
                     _ReadDataOfCell
                             ___lmul
 ---------------------------------------------------------------------------------
 (6) _ReadDataOfCell                                      16    10      6    2459
                                             41 COMRAM    16    10      6
                _FillArrayFromEEPROM
 ---------------------------------------------------------------------------------
 (7) _FillArrayFromEEPROM                                  9     3      6    1080
                                             32 COMRAM     9     3      6
                               _EERD
 ---------------------------------------------------------------------------------
 (8) _EERD                                                 4     2      2     663
                                             28 COMRAM     4     2      2
 ---------------------------------------------------------------------------------
 (6) _ParseDataRecord                                     16     4     12    1319
                                             28 COMRAM    16     4     12
 ---------------------------------------------------------------------------------
 (2) _TimeEdit                                           115   115      0   16488
                                             53 COMRAM    12    12      0
                                              0 BANK0    103   103      0
                      _ReIndTimeEdit
                  _TimeData_BlinkOFF
                      _TimeData_INIT
                            ___aldiv
                            ___almod
                            ___lbdiv
                            ___lbmod
                             ___lmul
                             _clrInd
                             _entNum
 ---------------------------------------------------------------------------------
 (6) _entNum                                               3     2      1     415
                                             28 COMRAM     3     2      1
 ---------------------------------------------------------------------------------
 (2) _clrInd                                               4     4      0     224
                                             28 COMRAM     4     4      0
 ---------------------------------------------------------------------------------
 (4) ___lmul                                              12     4      8    2114
                                             28 COMRAM    12     4      8
 ---------------------------------------------------------------------------------
 (3) ___lbmod                                              4     3      1     602
                                             28 COMRAM     4     3      1
 ---------------------------------------------------------------------------------
 (3) ___lbdiv                                              4     3      1     605
                                             28 COMRAM     4     3      1
 ---------------------------------------------------------------------------------
 (3) ___almod                                             10     2      8    1816
                                             28 COMRAM    10     2      8
 ---------------------------------------------------------------------------------
 (3) ___aldiv                                             14     6      8    2402
                                             28 COMRAM    14     6      8
 ---------------------------------------------------------------------------------
 (3) _TimeData_INIT                                        3     3      0     477
                                             28 COMRAM     3     3      0
 ---------------------------------------------------------------------------------
 (3) _TimeData_BlinkOFF                                    3     3      0     466
                                             28 COMRAM     3     3      0
 ---------------------------------------------------------------------------------
 (3) _ReIndTimeEdit                                        4     4      0    4905
                                             49 COMRAM     4     4      0
                         _getNumChar
                     _outputDateData
 ---------------------------------------------------------------------------------
 (4) _outputDateData                                       5     2      3    4163
                                             44 COMRAM     5     2      3
                           _setBlink
                           _setDigit
 ---------------------------------------------------------------------------------
 (4) _setDigit                                             9     7      2    1700
                                             35 COMRAM     9     7      2
                            ___lwdiv (ARG)
                            ___lwmod (ARG)
                         _getNumChar (ARG)
 ---------------------------------------------------------------------------------
 (6) _setBlink                                             5     3      2    1370
                                             28 COMRAM     5     3      2
 ---------------------------------------------------------------------------------
 (3) _getNumChar                                           1     1      0      22
                                             28 COMRAM     1     1      0
 ---------------------------------------------------------------------------------
 (2) _FillMinutes                                          0     0      0       0
 ---------------------------------------------------------------------------------
 Estimated maximum stack depth 8
 ---------------------------------------------------------------------------------
 (Depth) Function   	        Calls       Base Space   Used Autos Params    Refs
 ---------------------------------------------------------------------------------
 (10) _F_l                                                20    20      0    1073
                                              8 COMRAM    20    20      0
                         _ConvKeyNum
                    _SendSymbolToLCD
                   _getLcdCodeOfChar
                      i1_FillMinutes
                    i1_lcd_send_byte
 ---------------------------------------------------------------------------------
 (11) i1_lcd_send_byte                                     1     1      0      90
                                              3 COMRAM     1     1      0
       i1_lcd_send_initial_half_byte
 ---------------------------------------------------------------------------------
 (12) i1_lcd_send_initial_half_byte                        3     3      0      46
                                              0 COMRAM     3     3      0
 ---------------------------------------------------------------------------------
 (11) i1_FillMinutes                                       0     0      0       0
 ---------------------------------------------------------------------------------
 (11) _getLcdCodeOfChar                                    1     1      0      22
                                              0 COMRAM     1     1      0
 ---------------------------------------------------------------------------------
 (11) _SendSymbolToLCD                                     5     5      0     441
                                              3 COMRAM     5     5      0
                              _delay
 ---------------------------------------------------------------------------------
 (12) _delay                                               3     1      2     349
                                              0 COMRAM     3     1      2
 ---------------------------------------------------------------------------------
 (11) _ConvKeyNum                                          1     1      0      22
                                              0 COMRAM     1     1      0
 ---------------------------------------------------------------------------------
 Estimated maximum stack depth 12
 ---------------------------------------------------------------------------------
 (Depth) Function   	        Calls       Base Space   Used Autos Params    Refs
 ---------------------------------------------------------------------------------
 (13) _F_h                                                 0     0      0       0
 ---------------------------------------------------------------------------------
 Estimated maximum stack depth 13
 ---------------------------------------------------------------------------------

 Call Graph Graphs:

 _main (ROOT)
   _EERD
   _clrInd
   _lcd_on
     _lcd_init
       _lcd_send_byte
         _lcd_send_initial_half_byte
       _lcd_send_initial_half_byte
     _lcd_send_byte
       _lcd_send_initial_half_byte
   _main2
     _EEWR
     _FillMinutes
     _FindNextTimeStart
       _ParseDataRecord
       _ReadDataOfCell
         _FillArrayFromEEPROM
           _EERD
       ___lmul
     _Scheduler
       _DeleteDataOfCell
         _WriteArrayToEEPROM
           _EEWR
       _EditSchedule
         _ConvertDayToBit
         _ItemsToIndicator
           _getNumChar
           _setDigit
             ___lwdiv (ARG)
             ___lwmod (ARG)
             _getNumChar (ARG)
         _ParseDataRecord
         _ReadDataOfCell
           _FillArrayFromEEPROM
             _EERD
         _TimeDataToString
           _getNumChar
         _TimesToTimeData
           ___lwdiv
           ___lwmod
         _WriteDataOfCell
           _WriteArrayToEEPROM
             _EEWR
         ___wmul
         _clrInd
         _entNum
         _getBorderUp
           _getDigit
         _outputString
           _GetDayOfWeek (ARG)
           _setDigit (ARG)
             ___lwdiv (ARG)
             ___lwmod (ARG)
             _getNumChar (ARG)
         _setBlink
       _FindCell
         _ReadDataOfCell
           _FillArrayFromEEPROM
             _EERD
       _RefreshSchedulerIndicator
         _FindCell
           _ReadDataOfCell
             _FillArrayFromEEPROM
               _EERD
         _NumericToString
           ___lldiv
           ___llmod
           _getNumChar
         _ReadDataOfCell
           _FillArrayFromEEPROM
             _EERD
         ___lwdiv
         ___lwmod
         _getNumChar
         _outputString
           _GetDayOfWeek (ARG)
           _setDigit (ARG)
             ___lwdiv (ARG)
             ___lwmod (ARG)
             _getNumChar (ARG)
         _setDigit
           ___lwdiv (ARG)
           ___lwmod (ARG)
           _getNumChar (ARG)
       _SchedulerNew
         _EditSchedule
           _ConvertDayToBit
           _ItemsToIndicator
             _getNumChar
             _setDigit
               ___lwdiv (ARG)
               ___lwmod (ARG)
               _getNumChar (ARG)
           _ParseDataRecord
           _ReadDataOfCell
             _FillArrayFromEEPROM
               _EERD
           _TimeDataToString
             _getNumChar
           _TimesToTimeData
             ___lwdiv
             ___lwmod
           _WriteDataOfCell
             _WriteArrayToEEPROM
               _EEWR
           ___wmul
           _clrInd
           _entNum
           _getBorderUp
             _getDigit
           _outputString
             _GetDayOfWeek (ARG)
             _setDigit (ARG)
               ___lwdiv (ARG)
               ___lwmod (ARG)
               _getNumChar (ARG)
           _setBlink
         _FindCell
           _ReadDataOfCell
             _FillArrayFromEEPROM
               _EERD
         _RefreshSchedulerIndicator
           _FindCell
             _ReadDataOfCell
               _FillArrayFromEEPROM
                 _EERD
           _NumericToString
             ___lldiv
             ___llmod
             _getNumChar
           _ReadDataOfCell
             _FillArrayFromEEPROM
               _EERD
           ___lwdiv
           ___lwmod
           _getNumChar
           _outputString
             _GetDayOfWeek (ARG)
             _setDigit (ARG)
               ___lwdiv (ARG)
               ___lwmod (ARG)
               _getNumChar (ARG)
           _setDigit
             ___lwdiv (ARG)
             ___lwmod (ARG)
             _getNumChar (ARG)
         _clrInd
       _clrInd
     _TimeEdit
       _ReIndTimeEdit
         _getNumChar
         _outputDateData
           _setBlink
           _setDigit
             ___lwdiv (ARG)
             ___lwmod (ARG)
             _getNumChar (ARG)
       _TimeData_BlinkOFF
       _TimeData_INIT
       ___aldiv
       ___almod
       ___lbdiv
       ___lbmod
       ___lmul
       _clrInd
       _entNum
     _TimeToInd
       _FindNextTimeStart
         _ParseDataRecord
         _ReadDataOfCell
           _FillArrayFromEEPROM
             _EERD
         ___lmul
       _GetDayOfWeek
       _ParseDataRecord
       _ParseTime
         ___aldiv
         ___lwdiv
         ___lwmod
       _ReadDataOfCell
         _FillArrayFromEEPROM
           _EERD
       _Scheduler
         _DeleteDataOfCell
           _WriteArrayToEEPROM
             _EEWR
         _EditSchedule
           _ConvertDayToBit
           _ItemsToIndicator
             _getNumChar
             _setDigit
               ___lwdiv (ARG)
               ___lwmod (ARG)
               _getNumChar (ARG)
           _ParseDataRecord
           _ReadDataOfCell
             _FillArrayFromEEPROM
               _EERD
           _TimeDataToString
             _getNumChar
           _TimesToTimeData
             ___lwdiv
             ___lwmod
           _WriteDataOfCell
             _WriteArrayToEEPROM
               _EEWR
           ___wmul
           _clrInd
           _entNum
           _getBorderUp
             _getDigit
           _outputString
             _GetDayOfWeek (ARG)
             _setDigit (ARG)
               ___lwdiv (ARG)
               ___lwmod (ARG)
               _getNumChar (ARG)
           _setBlink
         _FindCell
           _ReadDataOfCell
             _FillArrayFromEEPROM
               _EERD
         _RefreshSchedulerIndicator
           _FindCell
             _ReadDataOfCell
               _FillArrayFromEEPROM
                 _EERD
           _NumericToString
             ___lldiv
             ___llmod
             _getNumChar
           _ReadDataOfCell
             _FillArrayFromEEPROM
               _EERD
           ___lwdiv
           ___lwmod
           _getNumChar
           _outputString
             _GetDayOfWeek (ARG)
             _setDigit (ARG)
               ___lwdiv (ARG)
               ___lwmod (ARG)
               _getNumChar (ARG)
           _setDigit
             ___lwdiv (ARG)
             ___lwmod (ARG)
             _getNumChar (ARG)
         _SchedulerNew
           _EditSchedule
             _ConvertDayToBit
             _ItemsToIndicator
               _getNumChar
               _setDigit
                 ___lwdiv (ARG)
                 ___lwmod (ARG)
                 _getNumChar (ARG)
             _ParseDataRecord
             _ReadDataOfCell
               _FillArrayFromEEPROM
                 _EERD
             _TimeDataToString
               _getNumChar
             _TimesToTimeData
               ___lwdiv
               ___lwmod
             _WriteDataOfCell
               _WriteArrayToEEPROM
                 _EEWR
             ___wmul
             _clrInd
             _entNum
             _getBorderUp
               _getDigit
             _outputString
               _GetDayOfWeek (ARG)
               _setDigit (ARG)
                 ___lwdiv (ARG)
                 ___lwmod (ARG)
                 _getNumChar (ARG)
             _setBlink
           _FindCell
             _ReadDataOfCell
               _FillArrayFromEEPROM
                 _EERD
           _RefreshSchedulerIndicator
             _FindCell
               _ReadDataOfCell
                 _FillArrayFromEEPROM
                   _EERD
             _NumericToString
               ___lldiv
               ___llmod
               _getNumChar
             _ReadDataOfCell
               _FillArrayFromEEPROM
                 _EERD
             ___lwdiv
             ___lwmod
             _getNumChar
             _outputString
               _GetDayOfWeek (ARG)
               _setDigit (ARG)
                 ___lwdiv (ARG)
                 ___lwmod (ARG)
                 _getNumChar (ARG)
             _setDigit
               ___lwdiv (ARG)
               ___lwmod (ARG)
               _getNumChar (ARG)
           _clrInd
         _clrInd
       ___aldiv
       ___almod
       ___lbdiv
       ___lbmod
       ___lwdiv
       ___lwmod
       _clrInd
       _getNumChar
       _outputString
         _GetDayOfWeek (ARG)
         _setDigit (ARG)
           ___lwdiv (ARG)
           ___lwmod (ARG)
           _getNumChar (ARG)
     _clrInd
     _lcd_off
       _lcd_send_byte
         _lcd_send_initial_half_byte
     _lcd_on
       _lcd_init
         _lcd_send_byte
           _lcd_send_initial_half_byte
         _lcd_send_initial_half_byte
       _lcd_send_byte
         _lcd_send_initial_half_byte

 _F_l (ROOT)
   _ConvKeyNum
   _SendSymbolToLCD
     _delay
   _getLcdCodeOfChar
   i1_FillMinutes
   i1_lcd_send_byte
     i1_lcd_send_initial_half_byte

 _F_h (ROOT)

 Address spaces:
Name               Size   Autos  Total    Cost      Usage
BIGRAM             F7F      0       0      37        0.0%
EEDATA             400      0       0       0        0.0%
BITBANK14          100      0       0      32        0.0%
BANK14             100      0       0      33        0.0%
BITBANK13          100      0       0      30        0.0%
BANK13             100      0       0      31        0.0%
BITBANK12          100      0       0      28        0.0%
BANK12             100      0       0      29        0.0%
BITBANK11          100      0       0      26        0.0%
BANK11             100      0       0      27        0.0%
BITBANK10          100      0       0      24        0.0%
BANK10             100      0       0      25        0.0%
BITBANK9           100      0       0      22        0.0%
BANK9              100      0       0      23        0.0%
BITBANK8           100      0       0      20        0.0%
BANK8              100      0       0      21        0.0%
BITBANK7           100      0       0      18        0.0%
BANK7              100      0       0      19        0.0%
BITBANK6           100      0       0      16        0.0%
BANK6              100      0       0      17        0.0%
BITBANK5           100      0       0      14        0.0%
BANK5              100      0       0      15        0.0%
BITBANK4           100      0       0      12        0.0%
BANK4              100      0       0      13        0.0%
BITBANK3           100      0       0      10        0.0%
BANK3              100      0       0      11        0.0%
BITBANK2           100      0       0       8        0.0%
BANK2              100      0       0       9        0.0%
BITBANK1           100      0       0       6        0.0%
BANK1              100     54      E3       7       88.7%
BITBANK15           80      0       0      35        0.0%
BANK15              80      0       0      36        0.0%
BITBANK0            80      0       0       4        0.0%
BANK0               80     67      76       5       92.2%
BITCOMRAM           7E      0       0       0        0.0%
COMRAM              7E     4E      61       1       77.0%
BITSFR               0      0       0      40        0.0%
SFR                  0      0       0      40        0.0%
STACK                0      0       0       2        0.0%
NULL                 0      0       0       0        0.0%
ABS                  0      0     1BA      34        0.0%
DATA                 0      0     1BA       3        0.0%
CODE                 0      0       0       0        0.0%


Microchip Technology PIC18 Macro Assembler V1.37 build -260352376 
Symbol Table                                                                                   Tue May 10 21:38:54 2016

                     ?_TimesToTimeData 0024    RefreshSchedulerIndicator@NumberFrom 00A8  
                 __end_of_GetDayOfWeek 37B2                                     PL2 1546  
                                   PL4 1EE4                                     PL6 1568  
                                   PL8 157A                        ??_ReIndTimeEdit 0032  
                       ?_lcd_send_byte 0001                                     bsr 000FE0  
                  ___wmul@multiplicand 001F                            __CFG_BORV$3 000000  
                      _ParseDataRecord 3218                           __CFG_CP0$OFF 000000  
                         __CFG_CP1$OFF 000000                           __CFG_CP2$OFF 000000  
                         __CFG_CP3$OFF 000000                                    PL10 3892  
                                  PL20 35BC                                    PL12 295C  
                                  PL30 3186                                    PL22 1EEE  
                                  PL14 3162                                    PL40 1F12  
                                  PL32 15AA                                    PL24 317A  
                                  PL16 2FC6                                    PL50 1ABE  
                                  PL42 3670                                    PL34 2A4E  
                                  PL26 35D4                                    PL18 158C  
                                  PL60 2F48                                    PL52 2E90  
                                  PL44 3BA6                                    PL36 1F00  
                                  PL28 15A0                                    PL70 2FE2  
                                  PL62 284C                                    PL54 252E  
                                  PL46 1F24                                    PL38 283A  
                                  PL80 1F46                                    PL72 15C6  
                                  PL64 1AC8                                    PL56 2DFC  
                                  PL48 3264                                    PL90 1F62  
                                  PL82 2BD8                                    PL74 15D2  
                                  PL66 15B4                                    PL58 1F3C  
                                  PL92 1F6C                                    PL84 327C  
                                  PL76 15DE                                    PL68 2BC6  
                                  PL94 2E12                                    PL86 2BE4  
                                  PL78 15EA                                    PL96 2970  
                                  PL88 1F52                                    PL98 2BF0  
                                  l203 314E                                    l212 3588  
                                  l208 388A                                    l421 106C  
                                  l521 1D00                                    l463 39B8  
                                  l447 1526                       ?_SendSymbolToLCD 0001  
                                  l529 1DC8                                    l806 195C  
                                  l761 1634                                    l762 163C  
                                  l666 2B32                                    l782 1868  
                                  l686 24E4                                    l678 2424  
                                  l775 17BA                                    l993 2F60  
                                  l994 2F6E                           __CFG_CPB$OFF 000000  
                                  _RC0 007C10                                    _RC2 007C12  
                                  _RB7 007C0F                                    _PR2 000FCB  
                         __CFG_CPD$OFF 000000                                    _F_h 0008  
                                  _F_l 0018                                    fsr2 000FD9  
               TimeData_BlinkOFF@i_938 001E                                    wreg 000FE8  
                         __CFG_IESO$ON 000000             ItemsToIndicator@firstDigit 002E  
                EditSchedule@CellsData 00AC                     ReadDataOfCell@Data 002C  
                                 PL100 1AD8                                   PL110 1F7C  
                                 PL102 3288                                   PL120 26F2  
                                 PL112 15F6                                   PL104 2E9C  
                                 PL130 3A48                                   PL122 2EB4  
                                 PL114 2EAA                                   PL106 33DE  
                                 PL140 160C                                   PL132 1602  
                                 PL124 1AEC                                   PL116 253A  
                                 PL108 33EA                                   PL150 3830  
                                 PL142 1F8A                                   PL134 2542  
                                 PL126 38E4                                   PL118 1AE2  
                                 PL160 1B02                                   PL152 1AF8  
                                 PL144 3986                                   PL136 3308  
                                 PL128 2A5A                                   PL154 254C  
                                 PL146 3100                                   PL138 367E  
                                 PL156 1F92                                   PL148 1616  
                                 PL158 2554                           __CFG_LVP$OFF 000000  
                                 ?_F_h 0001                                   ?_F_l 0001  
                         __CFG_WDT$OFF 000000                                   l1018 270E  
                                 l1027 2742                                   l1133 3690  
                                 l1524 375E                                   l1534 386C  
                                 l1471 3376                                   l1481 3574  
                                 l5013 397C                                   l5023 3818  
                                 l5007 3962                                   l5025 3822  
                                 l5041 36F2                                   l5033 36D8  
                                 l5019 3800                                   l5035 36DC  
                                 l5029 3828                                   l5117 3A36  
                                 l5039 36EE                                   l5047 36F8  
                                 l5119 3A3C                                   l5049 371A  
                                 l4801 372E                                   l5097 35E4  
                                 l8001 294E                                   l4803 3736  
                                 l5541 36A4                                   l6317 1D30  
                                 l8013 256C                                   l5621 3790  
                                 l5613 3786                                   l5605 377C  
                                 l4813 3754                                   l4805 373A  
                                 l4821 3844                                   l8101 10C8  
                                 l5463 363A                                   l6343 1DA8  
                                 l6335 1D8C                                   l6327 1D76  
                                 l6271 1C9E                                   l6255 1C68  
                                 l8023 25A8                                   l4823 384C  
                                 l4751 38F6                                   l4903 2F76  
                                 l4649 312E                                   l5553 2CD0  
                                 l6361 1ECC                                   l6273 1CA0  
                                 l8033 25DC                                   l4825 3850  
                                 l5481 3A52                                   l4913 2FAE  
                                 l8113 1116                                   l8105 10D8  
                                 l5467 3668                                   l4851 358A  
                                 l6283 1CBA                                   l8043 267E  
                                 l8051 26B2                                   l5643 37AE  
                                 l4755 3914                                   l4763 332A  
                                 l8203 12F0                                   l8123 1130  
                                 l4837 3884                                   l5805 29BE  
                                 l5565 2D00                                   l5581 2D4C  
                                 l6365 1ED6                                   l6285 1CBE  
                                 l8061 26DE                                   l5637 37A4  
                                 l5629 379A                                   l4829 3862  
                                 l4909 2F96                                   l4917 2FB2  
                                 l4765 3336                                   l5567 2D0C  
                                 l5559 2CE8                                   l6295 1CD6  
                                 l8063 26E8                                   l8055 26BA  
                                 l7511 2AA0                                   l7503 2A78  
                                 l4775 3368                                   l4767 333A  
                                 l4791 3566                                   l4783 3534  
                                 l8231 13E6                                   l8135 1168  
                                 l5809 29DC                                   l5833 38B8  
                                 l5585 2D60                                   l5577 2D3E  
                                 l5569 2D10                                   l5921 2EE0  
                                 l6297 1CDA                                   l7513 2AAA  
                                 l7505 2A8A                                   l4785 3540  
                                 l8241 140A                                   l8129 1150  
                                 l8321 2736                                   l5843 38CC  
                                 l7531 2AEA                                   l4787 3544  
                                 l7611 2516                                   l8227 13DE  
                                 l8411 2832                                   l8403 2820  
                                 l8307 271C                                   l5941 2F36  
                                 l5933 2F22                                   l5925 2EF0  
                                 l5917 2ECC                                   l4877 3A9E  
                                 l5597 3772                                   l7701 17F0  
                                 l7517 2ABA                                   l8237 1406  
                                 l8181 12B4                                   l8077 1088  
                                 l8333 277A                                   l5791 2984  
                                 l5927 2EFC                                   l5951 39D2  
                                 l4983 2B40                                   l7631 1672  
                                 l7543 2B0C                                   l7535 2AF8  
                                 l7519 2AC2                                   l4887 2FF2  
                                 l8271 14F2                                   l8087 10AC  
                                 l8327 2752                                   l5857 2E26  
                                 l5929 2F00                                   l5937 2F30  
                                 l7641 16B8                                   l7609 2508  
                                 l8177 1296                                   l8169 1270  
                                 F_l@a 0018                                   l5795 29A8  
                                 l5867 2E44                                   l5963 39EC  
                                 l5955 39D8                                   l7483 394A  
                                 l4987 2B48                                   l4899 2F66  
                                 l7643 16BE                                   l7563 23A6  
                                 l8099 10C6                                   l8339 2790  
                                 l8291 2702                                   l5957 39DC  
                                 l7493 309E                                   l7821 19EA  
                                 l7717 1884                                   l7549 2B26  
                                 l7581 23E2                                   l7901 2DBE  
                                 l8189 12BE                                   l8349 27A4  
                                 l5967 39F4                                   l5983 3B0A  
                                 l5975 3AF4                                   l7479 392A  
                                 l7815 19DA                                   l7743 18D8  
                                 l7751 18F2                                   l7655 16CC  
                                 l7583 23FE                                   l7567 23B4  
                                 l7911 2DD0                                   l7903 2DC6  
                                 l8287 1530                                   l8359 27B8  
                                 l7833 1A22                                   l7809 19CA  
                                 l7745 18DE                                   l7729 18B0  
                                 l7577 23D2                                   l8369 27CE  
                                 l7851 1A68                                   l7819 19E4  
                                 l7747 18E0                                   l7595 245C  
                                 l8395 280A                                   l8379 27E2  
                                 l7829 1A16                                   l7781 1960  
                                 l7765 191A                                   l7773 1932  
                                 l7693 17DE                                   l7685 17D0  
                                 l7669 1788                                   l7597 246C  
                                 l7941 2874                                   l8389 27FC  
                                 l7871 1AA2                                   l7847 1A5C  
                                 l7839 1A30                                   l7791 1974  
                                 l7783 1964                                   l7767 1920  
                                 l7919 2DE2                                   l7943 2882  
                                 l7881 1ABA                                   l7793 1978  
                                 l7785 1968                                   l7769 1922  
                                 l7697 17E8                                   l7689 17D8  
                                 l7857 1A76                                   l7929 2DEE  
                                 l7953 28A2                                   l7787 196C  
                                 l7859 1A88                                   l7891 2D84  
                                 l7789 1970                                   l7797 197E  
                                 l7799 19A0                                   l7991 2942  
                                 l7983 2930                                   l7975 2912  
                                 l7967 28E4                                   l7959 28BE  
                                 l7889 2D76                                   l7899 2DAE  
                                 STR_1 1040                                   STR_2 1049  
                                 STR_3 1043                                   STR_4 104F  
                                 STR_5 104C                                   STR_6 103D  
                                 STR_7 1046                                   STR_8 1052  
                                 STR_9 1012                                   _EERD 3B36  
                                 _T0IF 007F92                                   _EEWR 3990  
                                 _LATA 000F89                                   _LATB 000F8A  
                                 _LATC 000F8B                                   u3220 2F88  
                                 u3240 2FAA                                   u3305 324E  
                                 u3227 2F86                                   u3500 3614  
                                 u3260 2FC0                                   _IPR1 000F9F  
                                 u3190 3072                                   _IPR2 000FA2  
                                 u3247 2FA8                                   _PIE1 000F9D  
                                 _PIE2 000FA0                                   u3505 3606  
                                 u6010 23D8                                   u3267 2FBE  
                                 u5141 1D0E                                   u3285 3224  
                                 u3295 3236                                   u6060 247A  
                                 u6125 16E6                                   u6070 24C0  
                                 u7030 12CC                                   u6151 1792  
                                 u6135 1700                                   u2945 313A  
                                 u6321 193C                                   u6145 171A  
                                 u7041 12D6                                   u2946 313E  
                                 u7210 2768                                   u2975 3156  
                                 u2976 3158                                   u6600 28C8  
                                 _PIR1 000F9E                                   _PIR2 000FA1  
                                 u7091 1452                                   u6620 28EE  
                                 u7228 276A                                   u5910 2B12  
                                 u6560 286C                                   u6800 107C  
                                 u7417 2C0A                                   u6490 2D8E  
                                 u6570 288C                                   u7507 2CA0  
                                 u7427 2C20                                   u7517 3B1E  
                                 u7437 2C32                                   u6830 109A  
                                 u7527 3B2E                                   u7447 2C44  
                                 u5960 23C6                                   _RCON 000FD0  
                                 u5881 2B08                                   u7457 2C52  
                                 u6930 1106                                   u6818 107E  
                                 u7467 2C60                                   u5981 23CE  
                                 u7477 2C6E                                   u6870 10D4  
                                 u7487 2C7C                                   u7497 2C8A  
                                 u6890 10E8                                   u6948 1108  
                                 u6981 1172                                   u6898 10EA  
                                 _TMR1 000FCE                                   _TMR2 000FCC  
                  i1lcd_send_byte@data 0004                           __CFG_PWRT$ON 000000  
                __end_of_TimeData_INIT 2E90                  __size_of_outputString 006C  
                    EditSchedule@F3130 01C8                      EditSchedule@F3123 01BC  
                   lcd_init@INTCON_BUF 0022                                   _main 3296  
                  __end_of_FillMinutes 3BA6    FindNextTimeStart@LastFoundTimeStart 0091  
                                 fsr1h 000FE2                                   fsr2h 000FDA  
                                 indf1 000FE7                                   fsr1l 000FE1  
                                 indf2 000FDF                                   fsr2l 000FD9  
                                 btemp 0062                                   prodh 000FF4  
                                 prodl 000FF3                                   start 023E  
           WriteArrayToEEPROM@quantity 0023                         EEWR@INTCON_BUP 0020  
                   TimeData_BlinkOFF@i 001D            WriteArrayToEEPROM@container 0027  
                ReIndTimeEdit@TimeData 0035                           ___param_bank 000010  
                    EditSchedule@Times 00CC           __size_of_FillArrayFromEEPROM 0036  
                                ??_F_h 0001                                  ??_F_l 0009  
                       _ReadDataOfCell 307E                                  ?_EERD 001D  
                                ?_EEWR 001D                        __end_of___aldiv 2D72  
                      __end_of___almod 2F48                                  ?_main 0001  
                      __end_of___lbdiv 39F8                                  _EEADR 000FA9  
                                STR_10 1001                                  STR_11 1039  
                                STR_12 1023                                  STR_13 1034  
                                STR_14 102E                        __end_of___lbmod 3B12  
                      __end_of___lldiv 3388                        __end_of___llmod 3586  
                                _T2CON 000FCA                        __end_of___lwdiv 3768  
                      __end_of___lwmod 3876                                  i1l567 3BC2  
                                i1l568 3BCA                                  i1l935 0090  
                                i1l936 0092                                  i1l954 01BC  
                                i1l946 0196                                  i1l964 021E  
                                _PORTA 000F80                                  _PORTB 000F81  
          WriteDataOfCell@TargetAdress 002A                                  _TRISA 000F92  
                                _TRISB 000F93                                  _TRISC 000F94  
                                _Clock 0194                      TimeDataToString@i 0022  
                    TimeDataToString@j 0020                          __CFG_WRT0$OFF 000000  
          NumericToString@displacement 0032                        i1_lcd_send_byte 3B5A  
                        __CFG_WRT1$OFF 000000                          __CFG_WRT2$OFF 000000  
                  ___lmul@multiplicand 0021                             _ConvKeyNum 34C0  
                        __CFG_WRT3$OFF 000000                         __CFG_EBTR0$OFF 000000  
                       __CFG_FCMEN$OFF 000000                         __CFG_EBTR1$OFF 000000  
                                _cDays 00F3                         __CFG_EBTR2$OFF 000000  
                       __CFG_EBTR3$OFF 000000                           _outputString 2F5A  
                      __end_of_lcd_off 3C06                          __CFG_WRTB$OFF 000000  
                        __CFG_WRTC$OFF 000000                          __CFG_WRTD$OFF 000000  
                       __CFG_EBTRB$OFF 000000                                  _delay 3BBE  
                TimeData_INIT@TimeData 001F                           F_l@_KeyIndex 0017  
                                _flags 0057                                  _main2 26FC  
               TimeDataToString@string 001E                           F_l@MinuteAgo 0014  
      RefreshSchedulerIndicator@adress 0040                  EditSchedule@TimeStart 00BF  
                                tablat 000FF5                                  plusw1 000FE3  
                                plusw2 000FDB                       ?_NumericToString 002A  
                    ItemsToIndicator@i 0030              SchedulerNew@NumberOfCells 0055  
                                status 000FD8                      TimeEdit@MonthDays 0080  
                      ___lbdiv@divisor 001D                           __end_ofPL100 1AE2  
                         __end_ofPL110 1F8A                           __end_ofPL102 3296  
                         __end_ofPL120 26FC                           __end_ofPL112 1602  
                         __end_ofPL104 2EAA                           __end_ofPL130 3A50  
                         __end_ofPL122 2EC0                           __end_ofPL114 2EB4  
                         __end_ofPL106 33EA                           __end_ofPL140 1616  
                         __end_ofPL132 160C                           __end_ofPL124 1AF8  
                         __end_ofPL116 2542                           __end_ofPL108 33F6  
                         __end_ofPL150 3838                           __end_ofPL142 1F92  
                         __end_ofPL134 254C                           __end_ofPL126 38F0  
                         __end_ofPL118 1AEC                           __end_ofPL160 1B0A  
                         __end_ofPL152 1B02                           __end_ofPL144 3990  
                         __end_ofPL136 3312                           __end_ofPL128 2A66  
                         __end_ofPL154 2554                           __end_ofPL146 310A  
                         __end_ofPL138 3688                           __end_ofPL156 1F9A  
                         __end_ofPL148 1620                           __end_ofPL158 255C  
                      ___lbdiv@counter 001F                       __end_of_FindCell 2B3C  
                         __end_of_EERD 3B5A                           __end_of_EEWR 39C4  
   RefreshSchedulerIndicator@CellsData 0094                         __CFG_MCLRE$OFF 000000  
              __end_of_ParseDataRecord 3264                 __end_of_ReadDataOfCell 3100  
                      __initialization 3192                           __end_of_main 3308  
                      ??_lcd_send_byte 0020                      ?_DeleteDataOfCell 0029  
                       EERD@EEDATA_BUP 0020             RefreshSchedulerIndicator@i 00AA  
            FindNextTimeStart@DayIndex 00A0                                 ??_EERD 001F  
                               ??_EEWR 0020                     EditSchedule@adress 003A  
                   ??_DeleteDataOfCell 002B                __size_of_outputDateData 003C  
                       __CFG_OSC$HSPLL 000000                   __size_of_getBorderUp 004A  
                               ??_main 004E                          __activetblptr 000002  
                     __end_of_TimeEdit 1EE4                     EditSchedule@string 0094  
                     TimesToTimeData@d 0026                       TimesToTimeData@j 0027  
                               ?_delay 0001                            _FillMinutes 3BA0  
                               ?_main2 0001                                 _ADCON1 000FC1  
                     ___llmod@dividend 001D                                 _EEADRH 000FAA  
                               _EEDATA 000FA8                                 _EECON2 000FA7  
   __size_of_RefreshSchedulerIndicator 01B6                             TimeToInd@D 013B  
                           TimeToInd@d 0134                             TimeToInd@i 0146  
                               i1l7401 01DA                                 i1l7075 3396  
                               i1l7411 01FC                                 i1l7331 0082  
                               i1l7077 339C                                 i1l7095 33BE  
                               i1l7415 0208                                 i1l7423 021C  
                               i1l7097 33C4                                 i1l7361 0144  
                               i1l7345 0096                                 i1l6379 3BD4  
                               i1l6397 3B8C                                 i1l7381 01B4  
                               i1l7365 0172                                 i1l7349 00C0  
                               i1l7373 018E                                 i1l6399 3B92  
                               i1l7391 01CE                                 i1l7359 0140  
                               i1l7389 01CC                                 _INTCON 000FF2  
                __size_of_EditSchedule 049E                           F_l@data_temp 0016  
            FindNextTimeStart@TimeFrom 003A               __end_of_ItemsToIndicator 3830  
                               _TMR1IF 007CF0                                 _TMR2IF 007CF1  
            FindNextTimeStart@TimeStop 008C                          EditSchedule@T 00C4  
                        EditSchedule@d 00D5                          EditSchedule@f 00CA  
                        EditSchedule@j 00D0                          EditSchedule@n 00D7  
            DeleteDataOfCell@CellsData 002B                  __size_of_GetDayOfWeek 004A  
                     _TimeDataToString 395C                       __end_of_getDigit 3AC6  
                           _SignalsOut 005C                         __CFG_XINST$OFF 000000  
                   __size_of_ParseTime 0066                        ?_ReadDataOfCell 002A  
                     __end_of_lcd_init 2CB6                     __size_of_Scheduler 00FE  
                               _cYears 00F5                          ?_SchedulerNew 0047  
                               ___lmul 3688                              ??___aldiv 0025  
                            ??___almod 0025                                 ___wmul 3AC6  
                            ??___lbdiv 001E                         __CFG_STVREN$ON 000000  
                            ??___lbmod 001E                              ??___lldiv 0025  
                               _clrInd 3586                              ??___llmod 0025  
                               _digits 0154                              ??___lwdiv 0021  
                            ??___lwmod 0021               __size_of_ConvertDayToBit 0030  
                               _lcd_on 3BEC                                 _entNum 3A78  
              __end_ofi1_lcd_send_byte 3B7E              __size_of_getLcdCodeOfChar 03DE  
                               clear_0 3198                                 clear_1 31A4  
                   __size_of_TimeToInd 04F0                       __end_of_setDigit 3162  
                     __end_of_setBlink 3892                              ??_lcd_off 0021  
              ReadDataOfCell@CellsData 002A                     ParseTime@TimeValue 002B  
                         __pdataCOMRAM 005D                            ?_ConvKeyNum 0001  
                         _EditSchedule 1620                           __mediumconst 0000  
                               tblptrh 000FF7                                 tblptrl 000FF6  
                               tblptru 000FF8           ??_lcd_send_initial_half_byte 001D  
                __end_ofi1_FillMinutes 3C14               __size_of_WriteDataOfCell 0054  
                         _GetDayOfWeek 3768                       ___lbdiv@dividend 001E  
                      ___lbmod@divisor 001D                             __accesstop 0080  
              __end_of__initialization 320A                         EERD@INTCON_BUP 001F  
                      ___lbmod@counter 001F                          setDigit@value 002B  
                      __CFG_PBADEN$OFF 000000                          setBlink@value 001E  
                   ReIndTimeEdit@i_911 0034         ??i1_lcd_send_initial_half_byte 0001  
                       getDigit@symbol 001D                          ___rparam_used 000001  
         DeleteDataOfCell@TargetAdress 0029             __end_of_WriteArrayToEEPROM 3926  
                       ??_SchedulerNew 0049   RefreshSchedulerIndicator@CellIsEmpty 00A5  
                     ?_ParseDataRecord 001D                         __pcstackCOMRAM 0001  
                         __pidataBANK0 3BDC                           __pidataBANK1 37B2  
        RefreshSchedulerIndicator@Data 00A1                          __end_of_delay 3BDC  
                        __end_of_main2 283A                    EditSchedule@Signals 00C9  
        RefreshSchedulerIndicator@cell 00A6                         _CurrentSignals 0198  
                           __end_ofPL2 1568                             __end_ofPL4 1EEE  
                           __end_ofPL6 157A                             __end_ofPL8 158C  
                     ___lbdiv@quotient 0020    __size_of_lcd_send_initial_half_byte 0020  
                   F_l@PressedKeyIndex 0060                  _AdressOfNextStartCell 01E1  
           FindNextTimeStart@CellsData 0080                         entNum@KeyValue 001F  
                    __end_of_ParseTime 345C                              ?_FindCell 003A  
                              ??_delay 0003                          TimeEdit@F2989 00E7  
                    __end_of_Scheduler 295C                                ??_main2 004D  
                      __CFG_LPT1OSC$ON 000000                    _FillArrayFromEEPROM 3926  
                           __pbssBANK1 0154                  TimeToInd@SignalOn_850 0133  
                  EditSchedule@string2 00A0                      __end_of_TimeToInd 1546  
           outputDateData@start_symbol 002F                          TimeEdit@input 0094  
                        TimeEdit@month 0095                              ?_TimeEdit 0001  
                TimeToInd@SignalsFinal 014B                    __size_of_ConvKeyNum 0064  
             TimeDataToString@TimeData 0021         FindNextTimeStart@TimeOfSignals 009A  
                              ?___lmul 001D                   ?_FillArrayFromEEPROM 0021  
                              ?___wmul 001D                                ?_clrInd 0001  
         RefreshSchedulerIndicator@New 0042                                ?_lcd_on 0001  
                              ?_entNum 001D                         _outputDateData 3634  
         RefreshSchedulerIndicator@num 009C                         ___lmul@product 0025  
                           _getNumChar 345C                       ?i1_lcd_send_byte 0001  
                              F_l@line 001C                  __end_of_ReIndTimeEdit 2A4E  
                    _TimeData_BlinkOFF 38B4                            TimeToInd@j2 0149  
             __size_of_TimesToTimeData 008A                         entNum@borderUp 001D  
                  TimesToTimeData@temp 0028                                _INTCON2 000FF1  
                              _INTCON3 000FF0                      ??_ConvertDayToBit 001D  
                   ?_TimeData_BlinkOFF 0001                              ?_getDigit 001D  
                           ??_FindCell 003F             FindNextTimeStart@TimeStart 0095  
                     outputString@line 002F                              ?_lcd_init 0001  
             __size_of_SendSymbolToLCD 0056                    ??_TimeData_BlinkOFF 001D  
                      ReadDataOfCell@i 0038                                _KeyCode 005B  
                    ??_WriteDataOfCell 002C                              ?_setDigit 0024  
                            ?_setBlink 001D                                __Hparam 0000  
                              _Minutes 004F                      _FindNextTimeStart 255C  
                           ??_TimeEdit 0036                                __Lparam 0000  
                ??_FillArrayFromEEPROM 0027                 __end_of_outputDateData 3670  
                              _cMonths 00F4                                ___aldiv 2CB6  
                   ?_FindNextTimeStart 003A                FindNextTimeStart@adress 009E  
                              ___almod 2EC0                                ___lbdiv 39C4  
                      __size_of___lmul 004C                                ___lbmod 3AEC  
                              ___lldiv 3312                        __size_of___wmul 0026  
                              ___llmod 3524                                ___lwdiv 371E  
                              ___lwmod 3838                        __size_of_clrInd 0036  
                         __psmallconst 1000                              F_l@symbol 001A  
                      __size_of_lcd_on 000E                        __size_of_entNum 0028  
                     _getLcdCodeOfChar 1F9A              __end_of_TimeData_BlinkOFF 38E4  
                              __pcinit 3192                                __ramtop 1000  
                           EERD@adress 001D                                __ptext0 3296  
                              __ptext1 26FC                                __ptext2 3BEC  
                              __ptext3 2BFA                                __ptext4 3BFA  
                              __ptext5 3B12                                __ptext6 3A28  
                              __ptext7 1056                                __ptext8 285E  
                              __ptext9 2D72                                _lcd_off 3BFA  
               __size_of_TimeData_INIT 006E                    ??_FindNextTimeStart 003C  
                  TimeToInd@DataArray2 013F                              _T1CONbits 000FCD  
                         __size_of_F_h 3C06                           __size_of_F_l 0226  
                         ParseTime@Day 0031                              _T2CONbits 000FCA  
                           delay@count 0001               __end_of_TimeDataToString 3986  
                        TimeToInd@Data 0142                          TimeToInd@Days 0139  
                     ___aldiv@dividend 001D               ConvertDayToBit@DayNumber 001D  
                        TimeToInd@Time 014E     __end_of_lcd_send_initial_half_byte 3A48  
           _lcd_send_initial_half_byte 3A28                             ??_getDigit 001E  
                        TimeToInd@line 013A                       entNum@borderDown 001E  
                        TimeToInd@temp 0150              __size_of_DeleteDataOfCell 0028  
                 __end_of_SchedulerNew 2DFC                           ?_FillMinutes 0001  
                           ??_lcd_init 0021                             clrInd@line 001F  
                       __pintcode_body 3C06                             clrInd@symb 0020  
                 end_of_initialization 320A                       TimeToInd@Signals 0141  
                        __Lmediumconst 0000                                int_func 3C06  
                     ??_ReadDataOfCell 0030                      ?_ItemsToIndicator 002D  
               ParseDataRecord@Signals 0027              __end_of_FindNextTimeStart 26F2  
                           ??_setDigit 0026                             ??_setBlink 001F  
                      outputDateData@i 0031                        ___lldiv@divisor 0021  
                   ??_ItemsToIndicator 002F                        ___lldiv@counter 0029  
                            FindCell@i 0091                             EEWR@adress 001D  
                     ___aldiv@quotient 0027               __size_of_NumericToString 0090  
                      ?_outputDateData 002D                                postdec1 000FE5  
                              postdec2 000FDD                                postinc0 000FEE  
                              postinc2 000FDE                          ??_getBorderUp 0021  
                __end_of_lcd_send_byte 3B36                            ?_getNumChar 0001  
                  getBorderUp@BorderUp 0022                       FindCell@previous 003D  
           ReadDataOfCell@TargetAdress 002E                           ??_ConvKeyNum 0001  
                     ___lbmod@dividend 001E                    WriteArrayToEEPROM@i 0028  
                       setDigit@value0 002A                          _TimeEdit$1984 0090  
                       setDigit@symbol 0024                      ??_TimesToTimeData 0025  
                   Scheduler@StartFrom 0049                         setBlink@symbol 001D  
                          ___lbmod@rem 0020                          _TimeData_INIT 2E22  
                  WriteDataOfCell@Data 0029                      ??_SendSymbolToLCD 0004  
                 EditSchedule@BorderUp 00C3                       EditSchedule@Data 00D1  
                     EditSchedule@Days 00C8         RefreshSchedulerIndicator@F3062 005D  
                     EditSchedule@mode 00CB                     __end_of_ConvKeyNum 3524  
                          F_l@KeyIndex 005A                         __end_of___lmul 36D4  
                  FindCell@adressStart 003A                         __end_of___wmul 3AEC  
           __size_of_TimeData_BlinkOFF 0030                         __end_of_clrInd 35BC  
                        __pidataCOMRAM 3C14                         __end_of_lcd_on 3BFA  
                       __end_of_entNum 3AA0                   EditSchedule@TimeData 00B6  
                   _WriteArrayToEEPROM 38F0                   EditSchedule@TimeStop 00C1  
                  __end_of_getBorderUp 371E                          _FindCell$1088 008A  
                     TimeEdit@TimeData 00A7                            __end_ofPL10 38B4  
                          __end_ofPL20 35D4                            __end_ofPL12 2970  
                          __end_ofPL30 3192                            __end_ofPL22 1F00  
                          __end_ofPL14 317A                            __end_ofPL40 1F24  
                          __end_ofPL32 15B4                            __end_ofPL24 3186  
                          __end_ofPL16 2FE2             EditSchedule@SourceOfRecord 003C  
                          __end_ofPL50 1AC8                            __end_ofPL42 367E  
                          __end_ofPL34 2A5A                            __end_ofPL26 35E0  
                          __end_ofPL18 15A0                            __end_ofPL60 2F5A  
                          __end_ofPL52 2E9C                            __end_ofPL44 3BBE  
                          __end_ofPL36 1F12                            __end_ofPL28 15AA  
                          __end_ofPL70 2FEE                            __end_ofPL62 285E  
                          __end_ofPL54 253A                            __end_ofPL46 1F3C  
                          __end_ofPL38 284C                            __end_ofPL80 1F52  
                          __end_ofPL72 15D2                            __end_ofPL64 1AD8  
                          __end_ofPL56 2E12                            __end_ofPL48 327C  
                          __end_ofPL90 1F6C                            __end_ofPL82 2BE4  
                          __end_ofPL74 15DE                            __end_ofPL66 15C6  
                          __end_ofPL58 1F46                            __end_ofPL92 1F7C  
                          __end_ofPL84 3288                            __end_ofPL76 15EA  
                          __end_ofPL68 2BD8                            __end_ofPL94 2E22  
                          __end_ofPL86 2BF0                            __end_ofPL78 15F6  
                          __end_ofPL96 2980                            __end_ofPL88 1F62  
                          __end_ofPL98 2BFA        _lcd_send_initial_half_byte$1058 001E  
    i1_lcd_send_initial_half_byte$1058 0002                    start_initialization 3192  
                          __end_of_F_h 3C0E                            __end_of_F_l 023E  
                        _SignalsForInd 0199                    ?_WriteArrayToEEPROM 0021  
                        _TimeToInd$835 0135                          _TimeToInd$836 0137  
                    __size_of_FindCell 00D6      RefreshSchedulerIndicator@CopyFrom 0043  
                            _ParseTime 33F6       i1lcd_send_initial_half_byte@data 0001  
                       ?_TimeData_INIT 0001                              TimeEdit@n 008C  
                            TimeEdit@t 00A6           FillArrayFromEEPROM@container 0021  
                            _Scheduler 285E                    __size_of_getNumChar 0064  
                      ___llmod@divisor 0021             __size_of_FindNextTimeStart 0196  
                   TimeEdit@symb_array 0096             ?_RefreshSchedulerIndicator 0040  
                      ___llmod@counter 0025                              _TimeToInd 1056  
                     TimeEdit@blinking 00A1                   ??_WriteArrayToEEPROM 0025  
                             ??___lmul 0025                        _ConvertDayToBit 39F8  
                             ??___wmul 0021                      __size_of_TimeEdit 03DA  
                             ??_clrInd 001D                 __size_ofi1_FillMinutes 0006  
                             ??_lcd_on 0023                               ??_entNum 001E  
                          __pdataBANK0 00E7                            __pdataBANK1 019E  
                 _SendSymbolToLCD$1050 0006                   _SendSymbolToLCD$1048 0004  
                             EEWR@data 001F                         TimeData_INIT@i 001D  
                    ??_NumericToString 0030               __size_of_ParseDataRecord 004C  
                     NumericToString@n 002A                  __size_of_SchedulerNew 008A  
                         setDigit@data 0025                           setDigit@line 002C  
                         setBlink@line 0021   __end_ofi1_lcd_send_initial_half_byte 3BA0  
__size_ofi1_lcd_send_initial_half_byte 0022           i1_lcd_send_initial_half_byte 3B7E  
                          __pbssCOMRAM 004F              TimeToInd@DataArrayOfLine2 0108  
                        __pcstackBANK0 0080                          __pcstackBANK1 0100  
                        ?_outputString 002D                        _WriteDataOfCell 35E0  
                     _DeleteDataOfCell 3A50           FindNextTimeStart@TimeIsFound 0098  
                    __size_of_getDigit 0026                   __size_of_FillMinutes 0006  
                           ?_ParseTime 002B               __end_of_getLcdCodeOfChar 2378  
                           ?_Scheduler 0049                      __size_of_lcd_init 00BC  
    __end_of_RefreshSchedulerIndicator 252E                           TimeEdit@temp 00A2  
                     ___lwdiv@dividend 001D                             ?_TimeToInd 0001  
                    __CFG_CCP2MX$PORTC 000000                      __size_of_setDigit 0058  
                    __size_of_setBlink 001C                              __pintcode 0008  
                        outputString@i 0034                          outputString@l 0036  
                        outputString@s 0033                               ?___aldiv 001D  
                         _SchedulerNew 2D72                               ?___almod 001D  
                             ?___lbdiv 001D                               ?___lbmod 001D  
                   outputDateData@data 0030                               ?___lldiv 001D  
                             ?___llmod 001D                     outputDateData@line 002E  
                             ?___lwdiv 001D                            _getBorderUp 36D4  
                             ?___lwmod 001D                TimesToTimeData@TimeData 0024  
                          __pintcodelo 0018                      lcd_send_byte@data 0020  
                     ___almod@dividend 001D                            _digitsAtrib 0174  
                             ?_lcd_off 0001                       WriteDataOfCell@i 002E  
                          __smallconst 1000                 _FindNextTimeStart$1985 0088  
               FindNextTimeStart@DayOn 008E                         ??_outputString 0031  
                    ?_TimeDataToString 001E                               F_l@digit 0015  
        ?i1_lcd_send_initial_half_byte 0001            ?_lcd_send_initial_half_byte 0001  
             __size_ofi1_lcd_send_byte 0024                       ___lwdiv@quotient 0021  
                 outputDateData@length 002D                         __size_of_delay 001E  
                   ??_TimeDataToString 001F                         __size_of_main2 013E  
                        i1_FillMinutes 3C0E                        ??_TimeData_INIT 001D  
                 TimesToTimeData@Times 0025                           FindCell@Data 008C  
                   TimeToInd@DataArray 011E                           TimeToInd@Day 0140  
                      ___aldiv@divisor 0021                           TimeToInd@day 0132  
                      ___aldiv@counter 0025                     TimeToInd@CellsData 0100  
                       ___wmul@product 0021            __end_of_FillArrayFromEEPROM 395C  
              __end_of_ConvertDayToBit 3A28                       ??_outputDateData 0030  
               __size_of_ReIndTimeEdit 00CE                               _PIE1bits 000F9D  
                             i1u571_20 01A6                               i1u572_28 01A8  
                             i1u557_20 0074                               i1u557_21 0070  
                             i1u558_20 0076                               i1u568_20 0184  
                             i1u753_27 3B66                               i1u754_27 3B76  
                             _PIR2bits 000FA1                  F_l@ButtonPressTimeOut 0059  
                         _setDigit$793 0028                           _setDigit$794 0029  
                             _RCONbits 000FD0                       __CFG_WDTPS$32768 000000  
                         ??_getNumChar 001D                __end_of_WriteDataOfCell 3634  
            __size_of_ItemsToIndicator 0038               WriteDataOfCell@CellsData 002D  
                      _TimesToTimeData 2B3C                      FindCell@CellsData 0080  
                    ___wmul@multiplier 001D                          ?_EditSchedule 003A  
                             _FindCell 2A66                        EditSchedule@key 00D6  
                      _SendSymbolToLCD 3388                         ?i1_FillMinutes 0001  
                    ??_ParseDataRecord 0029                          ?_GetDayOfWeek 001D  
                    ___lmul@multiplier 001D                              copy_data0 31BE  
                            copy_data1 31DE                              copy_data2 31FE  
                          ??_ParseTime 0033                            ??_Scheduler 004B  
                     ParseTime@DayTime 0033                     __end_of_getNumChar 34C0  
                           _EECON1bits 000FA6                     TimeToInd@TimeStart 012F  
                 FillArrayFromEEPROM@i 0029                               __Hrparam 0000  
             FindNextTimeStart@Signals 0097                               _TimeEdit 1B0A  
                          ??_TimeToInd 004B                               __Lrparam 0000  
                   __CFG_BOREN$SBORDIS 000000                    ParseDataRecord@Data 001D  
                  ParseDataRecord@Days 0025                       __size_of___aldiv 00BC  
                     __size_of___almod 0088                       __size_of___lbdiv 0034  
                     __size_of___lbmod 0026                           getDigit@line 0020  
                     __size_of___lldiv 0076                       __size_of___llmod 0062  
                     __size_of___lwdiv 004A                       __size_of___lwmod 003E  
       _RefreshSchedulerIndicator$1098 009F               ParseDataRecord@TimeStart 0021  
            TimeData_BlinkOFF@TimeData 001F            FillArrayFromEEPROM@quantity 0025  
                        _ReIndTimeEdit 2980                          ConvKeyNum@Num 0001  
                       ??_EditSchedule 0080                       __size_of_lcd_off 000C  
               NumericToString@mySring 002E                         ReIndTimeEdit@i 0033  
                      ___lwdiv@divisor 001F                               _getDigit 3AA0  
                      ___lwdiv@counter 0023                         ??_GetDayOfWeek 001F  
                             __ptext10 2378                               __ptext11 2FEE  
                             __ptext20 35E0                               __ptext12 3524  
                             __ptext21 2B3C                               __ptext13 3312  
             EditSchedule@TargetAdress 00B4                               __ptext30 371E  
                             __ptext22 395C                               __ptext14 2A66  
                             __ptext31 3768                               __ptext23 37F8  
                             __ptext15 1620                               __ptext40 3688  
                             __ptext32 255C                               __ptext24 39F8  
                             __ptext16 2F5A                               __ptext41 3AEC  
                             __ptext33 307E                               __ptext25 3A50  
                             __ptext17 36D4                               __ptext50 3876  
                             __ptext42 39C4                               __ptext34 3926  
                             __ptext26 38F0                               __ptext18 3AA0  
                             __ptext51 345C                               __ptext43 2EC0  
                             __ptext35 3B36                               __ptext27 3990  
                             __ptext19 3AC6                               __ptext60 34C0  
                             __ptext52 3BA0                               __ptext44 2CB6  
                             __ptext36 3218                               __ptext28 33F6  
                             __ptext45 2E22                               __ptext37 1B0A  
                             __ptext29 3838                               __ptext54 3B5A  
                             __ptext46 38B4                               __ptext38 3A78  
                             __ptext55 3B7E                               __ptext47 2980  
                             __ptext39 3586                               __ptext56 3C0E  
                             __ptext48 3634                               __ptext57 1F9A  
                             __ptext49 310A                               __ptext58 3388  
                             __ptext59 3BBE                           getBorderUp@n 0021  
                             _lcd_init 2BFA                          getNumChar@num 001D  
                      ___almod@divisor 0021                          __size_of_EERD 0024  
                        __size_of_EEWR 0034                         TimeToInd@F2932 01D4  
                       TimeToInd@F2950 01AF                         TimeToInd@F2928 01DD  
                       TimeToInd@F2936 019E                        ___almod@counter 0025  
                FindNextTimeStart@Data 00A1                  FindNextTimeStart@Days 0099  
               __size_of_lcd_send_byte 0024                          ParseTime@Time 002F  
                    ??i1_lcd_send_byte 0004                          __size_of_main 0072  
                             delay@del 0003                            FindCell@New 003C  
                     ?_ConvertDayToBit 0001            ??_RefreshSchedulerIndicator 0045  
                             _setDigit 310A                               _setBlink 3876  
                       TimeToInd@i_849 0147                         FindCell@adress 0092  
                    DeleteDataOfCell@i 0033                   __end_of_outputString 2FC6  
                      _NumericToString 2FEE                __end_of_TimesToTimeData 2BC6  
             __end_of_DeleteDataOfCell 3A78         WriteArrayToEEPROM@adress_start 0021  
                             int$flags 0062                   _GlobalBlinkCycleTime 0061  
       lcd_send_initial_half_byte@data 001D                __size_of_ReadDataOfCell 0082  
                     ?_WriteDataOfCell 0029                         ?_ReIndTimeEdit 0001  
                    FindCell@adressNew 0088           FindNextTimeStart@adressStart 008F  
                   TimeData_INIT@i_963 001E                __end_of_SendSymbolToLCD 33DE  
                 TimeToInd@CellsNumber 0148                 Scheduler@NumberOfCells 0053  
                           _INTCONbits 000FF2                      TimeToInd@TimeData 0115  
                    TimeToInd@SignalOn 0131                        ??i1_FillMinutes 0001  
                    TimeToInd@TimeStop 014C                    getLcdCodeOfChar@dig 0001  
                ItemsToIndicator@max_i 002D                  ItemsToIndicator@items 002F  
              ParseDataRecord@TimeStop 0023                               intlevel1 0000  
                             intlevel2 0000                 outputString@stringData 002D  
                  SendSymbolToLCD@Symb 0008                      ?_getLcdCodeOfChar 0001  
                     ___lwmod@dividend 001D                       ___lldiv@dividend 001D  
                   ??_getLcdCodeOfChar 0001            __size_of_WriteArrayToEEPROM 0036  
                         ?_getBorderUp 0001                          _lcd_send_byte 3B12  
                     _ItemsToIndicator 37F8                        GetDayOfWeek@day 001F  
            _RefreshSchedulerIndicator 2378                       ___lldiv@quotient 0025  
                      ___lwmod@divisor 001F                        ___lwmod@counter 0021  
                         ___aldiv@sign 0026                          ??_FillMinutes 001D  
                 outputString@position 0030                          _NearTimeStart 019A  
      FillArrayFromEEPROM@adress_start 0023             EditSchedule@BeginEditTimes 00BE  
                  NumericToString@size 002F                           ___almod@sign 0026  
              __end_of_NumericToString 307E             SchedulerNew@SourceOfRecord 0047  
                  FindCell@CellIsEmpty 0090              __size_of_TimeDataToString 002A  
                 __end_of_EditSchedule 1ABE  
