Microchip MPLAB XC8 Compiler V1.37 ()

Linker command line:

-W9 --edf=/opt/microchip/xc8/v1.37/dat/en_msgs.txt -cs \
  -h+dist/default/production/Water_PIC18_test.production.sym \
  --cmf=dist/default/production/Water_PIC18_test.production.cmf -z \
  -Q18F2620 -o/tmp/xcXypnJtJ \
  -Mdist/default/production/Water_PIC18_test.production.map -E1 -ver=XC8 \
  --acfsm=1493 -ASTACK=0C6Ah-0f7fh -pstack=STACK -ACODE=00h-0FFFFh \
  -ACONST=00h-0FFFFh -ASMALLCONST=01000h-010FFhx240 \
  -AMEDIUMCONST=01000h-0FFFFh -ACOMRAM=01h-07Fh -AABS1=00h-0F7Fh \
  -ABIGRAM=01h-0F7Fh -ARAM=080h-0FFh,0100h-01FFhx14,0F00h-0F7Fh \
  -ABANK0=080h-0FFh -ABANK1=0100h-01FFh -ABANK2=0200h-02FFh \
  -ABANK3=0300h-03FFh -ABANK4=0400h-04FFh -ABANK5=0500h-05FFh \
  -ABANK6=0600h-06FFh -ABANK7=0700h-07FFh -ABANK8=0800h-08FFh \
  -ABANK9=0900h-09FFh -ABANK10=0A00h-0AFFh -ABANK11=0B00h-0BFFh \
  -ABANK12=0C00h-0CFFh -ABANK13=0D00h-0DFFh -ABANK14=0E00h-0EFFh \
  -ABANK15=0F00h-0F7Fh -ASFR=0F80h-0FFFh \
  -preset_vec=00h,intcode=08h,intcodelo=018h,powerup,init,end_init \
  -pramtop=01000h -psmallconst=SMALLCONST -pmediumconst=MEDIUMCONST \
  -pconst=CONST -AFARRAM=00h-00h -ACONFIG=0300000h-030000Dh -pconfig=CONFIG \
  -AIDLOC=0200000h-0200007h -pidloc=IDLOC -AEEDATA=0F00000h-0F003FFh \
  -peeprom_data=EEDATA \
  -prdata=COMRAM,nvrram=COMRAM,nvbit=COMRAM,rbss=COMRAM,rbit=COMRAM \
  -pfarbss=FARRAM,fardata=FARRAM,nvFARRAM=FARRAM \
  -pintsave_regs=BIGRAM,bigbss=BIGRAM,bigdata=BIGRAM -pbss=RAM \
  -pidata=CODE,irdata=CODE,ibigdata=CODE,ifardata=CODE -prparam=COMRAM \
  /tmp/xcXPIld4i.obj \
  dist/default/production/Water_PIC18_test.production.obj 

Object code version is 3.11

Machine type is 18F2620

Call graph: (short form)




                Name                               Link     Load   Length Selector   Space Scale
/tmp/xcXPIld4i.obj
                end_init                            384      384        4        C       0
                reset_vec                             0        0        4        0       0
                config                           300000   300000        E   300000       0
dist/default/production/Water_PIC18_test.production.obj
                intcodelo                            18       18      36C        C       0
                intcode                               8        8        E        4       0
                temp                                 5F       5F        1        1       1
                mediumconst                        FBF6     FBF6      40A     7DFB       0
                text152                            853E     853E       26     3E4C       0
                text151                            60F4     60F4       EC        C       0
                text150                            7AC4     7AC4       64     3CFE       0
                intcode_body                       75E8     75E8       72        C       0
                text148                            7A60     7A60       64     3CFE       0
                text147                            6834     6834       BC        C       0
                text146                            68F0     68F0       B4        C       0
                text145                            85AC     85AC       24     3E4C       0
                text144                            8178     8178       36     3E4C       0
                text143                            7862     7862       68        C       0
                text142                            6778     6778       BC        C       0
                text141                            7EA6     7EA6       42     3E4C       0
                text140                            8798     8798       12     3E4C       0
                text139                            8518     8518       26     3E4C       0
                text138                            84F2     84F2       26     3E4C       0
                text137                            58EC     58EC      144        C       0
                text136                            86E4     86E4       1E     3E4C       0
                text135                            86C6     86C6       1E     3E4C       0
                text134                            86A8     86A8       1E     3E4C       0
                text133                            80D4     80D4       38     3E4C       0
                text132                            7484     7484       78        C       0
                text131                            77FA     77FA       68        C       0
                text130                            84CC     84CC       26     3E4C       0
                text129                            701E     701E       86        C       0
                text128                            5C94     5C94      124        C       0
                text127                            8610     8610       20     3E4C       0
                text126                            7D82     7D82       4C     3E4C       0
                text125                            7CE8     7CE8       4E     3E4C       0
                text124                            7FE4     7FE4       3E     3E4C       0
                text123                            8786     8786       12     3E4C       0
                text122                            7572     7572       76        C       0
                text121                            2F1A     2F1A      4E4        C       0
                text120                            87D6     87D6        C     3E4C       0
                text119                            8738     8738       16     3E4C       0
                text118                            87EC     87EC        A     3E4C       0
                text117                            87E2     87E2        A     3E4C       0
                text116                            8702     8702       1C     3E4C       0
                text115                            8828     8828        8     4400       0
                text114                            8836     8836        4     4400       0
                text113                            871E     871E       1A     3E4C       0
                text112                            8820     8820        8     4400       0
                text111                            8818     8818        8     4400       0
                text110                            7222     7222       7E        C       0
                text109                            868A     868A       1E     3E4C       0
                text108                            74FC     74FC       76        C       0
                text107                            81E2     81E2       34     3E4C       0
                text106                            70A4     70A4       82        C       0
                text105                            833E     833E       30     3E4C       0
                text104                            7E18     7E18       4A     3E4C       0
                text103                            7FA6     7FA6       3E     3E4C       0
                text102                            4E36     4E36      1CA        C       0
                text101                            3C92     3C92      3DE        C       0
                text100                            8810     8810        8     4400       0
                text99                             84A6     84A6       26     3E4C       0
                text98                             8588     8588       24     3E4C       0
                text96                             8480     8480       26     3E4C       0
                text95                             8564     8564       24     3E4C       0
                text94                             866C     866C       1E     3E4C       0
                text93                             845A     845A       26     3E4C       0
                text92                             71A4     71A4       7E        C       0
                text91                             8142     8142       36     3E4C       0
                text90                             6E82     6E82       8C        C       0
                text89                             7D36     7D36       4C     3E4C       0
                text88                             51AE     51AE      19E        C       0
                text87                             72A0     72A0       7C        C       0
                text86                             66BC     66BC       BC        C       0
                text85                             6CCC     6CCC       9A        C       0
                text84                             7930     7930       66        C       0
                text83                             5ED8     5ED8      116        C       0
                text82                             7DCE     7DCE       4A     3E4C       0
                text81                             7F68     7F68       3E     3E4C       0
                text80                             7792     7792       68        C       0
                text79                             7C98     7C98       50     3E4C       0
                text78                             33FE     33FE      48A        C       0
                text77                             772A     772A       68        C       0
                text76                             85F0     85F0       20     3E4C       0
                text75                             5B6A     5B6A      12A        C       0
                text74                             6B96     6B96       9C        C       0
                text73                             6C32     6C32       9A        C       0
                text72                             78CA     78CA       66        C       0
                text71                             805E     805E       3C     3E4C       0
                text70                             6DF6     6DF6       8C        C       0
                text69                             4070     4070      2D4        C       0
                text68                             830E     830E       30     3E4C       0
                text67                             7B88     7B88       5E     3CFE       0
                text66                             6F96     6F96       88        C       0
                text65                             4866     4866      20A        C       0
                text64                             864E     864E       1E     3E4C       0
                text63                             8774     8774       12     3E4C       0
                text62                             740C     740C       78        C       0
                text61                             1A74     1A74      7B6        C       0
                text60                             564A     564A      152        C       0
                text59                             85D0     85D0       20     3E4C       0
                text58                             6D66     6D66       90        C       0
                text57                             809A     809A       3A     3E4C       0
                text56                             76C2     76C2       68        C       0
                text55                             3888     3888      40A        C       0
                text54                             7F28     7F28       40     3E4C       0
                text53                             7EE8     7EE8       40     3E4C       0
                text52                             65FA     65FA       C2        C       0
                text51                             8434     8434       26     3E4C       0
                text50                             579C     579C      150        C       0
                text49                              388      388      F1E        C       0
                text48                             6AF8     6AF8       9E        C       0
                text47                             7126     7126       7E        C       0
                text46                             4344     4344      2C6        C       0
                text45                             7B28     7B28       60     3CFE       0
                text44                             87C8     87C8        E     3E4C       0
                text43                             8022     8022       3C     3E4C       0
                text42                             5A30     5A30      13A        C       0
                text41                             874E     874E       14     3E4C       0
                text40                             7394     7394       78        C       0
                text39                             765A     765A       68        C       0
                text38                             840E     840E       26     3E4C       0
                text37                             6F0E     6F0E       88        C       0
                text36                             4C60     4C60      1D6        C       0
                text35                             82AC     82AC       32     3E4C       0
                text34                             81AE     81AE       34     3E4C       0
                text33                             5DB8     5DB8      120        C       0
                text32                             810C     810C       36     3E4C       0
                text31                             83C0     83C0       28     3E4C       0
                text30                             836E     836E       2A     3E4C       0
                text29                             8762     8762       12     3E4C       0
                text28                             8630     8630       1E     3E4C       0
                text27                             8808     8808        8     4400       0
                text26                             8800     8800        8     4400       0
                text25                             731C     731C       78        C       0
                text24                             79FC     79FC       64     3CFE       0
                text23                             534C     534C      18C        C       0
                text22                             82DE     82DE       30     3E4C       0
                text21                             12A6     12A6      7CE        C       0
                text20                             83E8     83E8       26     3E4C       0
                text19                             61E0     61E0       E2        C       0
                text18                             827A     827A       32     3E4C       0
                text17                             8248     8248       32     3E4C       0
                text16                             7E62     7E62       44     3E4C       0
                text15                             7BE6     7BE6       5C     3CFE       0
                text14                             222A     222A      706        C       0
                text13                             62C2     62C2       DA        C       0
                text12                             5000     5000      1AE        C       0
                text11                             69A4     69A4       AE        C       0
                text10                             639C     639C       D2        C       0
                text9                              6A52     6A52       A6        C       0
                text8                              2930     2930      5EA        C       0
                text7                              5FEE     5FEE      106        C       0
                text6                              8216     8216       32     3E4C       0
                text5                              8398     8398       28     3E4C       0
                text4                              87BA     87BA        E     3E4C       0
                text3                              646E     646E       CA        C       0
                text2                              87AA     87AA       10     3E4C       0
                text1                              460A     460A      25C        C       0
                text0                              4A70     4A70      1F0        C       0
                cstackCOMRAM                          1        1       42        1       1
                cstackBANK0                          80       80       5A       80       1
                cstackBANK1                         100      100       C5      100       1
                cstackBANK2                         200      200       F9      200       1
                cstackBANK3                         300      300       8E      300       1
                cstackBANK4                         4F6      4F6        A      400       1
                cstackBANK10                        A00      A00       6A      A00       1
                bssBIGRAM                           A6A      A6A      200      A6A       1
                bssBANK9                            900      900      100      900       1
                bssBANK8                            800      800      100      800       1
                bssBANK7                            700      700      100      700       1
                bssBANK6                            600      600      100      600       1
                dataBANK5                           5A4      5A4       55      500       1
                bssBANK5                            500      500       A4      500       1
                dataBANK4                           400      400       C2      400       1
                bssBANK4                            4C2      4C2       34      400       1
                dataBANK3                           38E      38E       65      300       1
                bssBANK3                            3F3      3F3        C      300       1
                dataBANK2                           2FE      2FE        2      200       1
                bssBANK2                            2F9      2F9        5      200       1
                dataBANK0                            ED       ED        9       80       1
                bssBANK0                             DA       DA       13       80       1
                dataCOMRAM                           59       59        6        1       1
                bssCOMRAM                            43       43       16        1       1
                cinit                              54D8     54D8      172        C       0
                idataBANK5                         7C42     7C42       55     3CFE       0
                idataBANK4                         6538     6538       C2        C       0
                idataBANK3                         7996     7996       65        C       0
                idataBANK2                         883A     883A        2     4400       0
                idataBANK0                         87F6     87F6        9     3E4C       0
                idataCOMRAM                        8830     8830        6     4400       0

TOTAL           Name                               Link     Load   Length     Space
        CLASS   STACK          

        CLASS   CODE           
                end_init                            384      384        4         0
                intcodelo                            18       18      36C         0
                intcode                               8        8        E         0
                reset_vec                             0        0        4         0
                text152                            853E     853E       26         0
                text151                            60F4     60F4       EC         0
                text150                            7AC4     7AC4       64         0
                intcode_body                       75E8     75E8       72         0
                text148                            7A60     7A60       64         0
                text147                            6834     6834       BC         0
                text146                            68F0     68F0       B4         0
                text145                            85AC     85AC       24         0
                text144                            8178     8178       36         0
                text143                            7862     7862       68         0
                text142                            6778     6778       BC         0
                text141                            7EA6     7EA6       42         0
                text140                            8798     8798       12         0
                text139                            8518     8518       26         0
                text138                            84F2     84F2       26         0
                text137                            58EC     58EC      144         0
                text136                            86E4     86E4       1E         0
                text135                            86C6     86C6       1E         0
                text134                            86A8     86A8       1E         0
                text133                            80D4     80D4       38         0
                text132                            7484     7484       78         0
                text131                            77FA     77FA       68         0
                text130                            84CC     84CC       26         0
                text129                            701E     701E       86         0
                text128                            5C94     5C94      124         0
                text127                            8610     8610       20         0
                text126                            7D82     7D82       4C         0
                text125                            7CE8     7CE8       4E         0
                text124                            7FE4     7FE4       3E         0
                text123                            8786     8786       12         0
                text122                            7572     7572       76         0
                text121                            2F1A     2F1A      4E4         0
                text120                            87D6     87D6        C         0
                text119                            8738     8738       16         0
                text118                            87EC     87EC        A         0
                text117                            87E2     87E2        A         0
                text116                            8702     8702       1C         0
                text115                            8828     8828        8         0
                text114                            8836     8836        4         0
                text113                            871E     871E       1A         0
                text112                            8820     8820        8         0
                text111                            8818     8818        8         0
                text110                            7222     7222       7E         0
                text109                            868A     868A       1E         0
                text108                            74FC     74FC       76         0
                text107                            81E2     81E2       34         0
                text106                            70A4     70A4       82         0
                text105                            833E     833E       30         0
                text104                            7E18     7E18       4A         0
                text103                            7FA6     7FA6       3E         0
                text102                            4E36     4E36      1CA         0
                text101                            3C92     3C92      3DE         0
                text100                            8810     8810        8         0
                text99                             84A6     84A6       26         0
                text98                             8588     8588       24         0
                text96                             8480     8480       26         0
                text95                             8564     8564       24         0
                text94                             866C     866C       1E         0
                text93                             845A     845A       26         0
                text92                             71A4     71A4       7E         0
                text91                             8142     8142       36         0
                text90                             6E82     6E82       8C         0
                text89                             7D36     7D36       4C         0
                text88                             51AE     51AE      19E         0
                text87                             72A0     72A0       7C         0
                text86                             66BC     66BC       BC         0
                text85                             6CCC     6CCC       9A         0
                text84                             7930     7930       66         0
                text83                             5ED8     5ED8      116         0
                text82                             7DCE     7DCE       4A         0
                text81                             7F68     7F68       3E         0
                text80                             7792     7792       68         0
                text79                             7C98     7C98       50         0
                text78                             33FE     33FE      48A         0
                text77                             772A     772A       68         0
                text76                             85F0     85F0       20         0
                text75                             5B6A     5B6A      12A         0
                text74                             6B96     6B96       9C         0
                text73                             6C32     6C32       9A         0
                text72                             78CA     78CA       66         0
                text71                             805E     805E       3C         0
                text70                             6DF6     6DF6       8C         0
                text69                             4070     4070      2D4         0
                text68                             830E     830E       30         0
                text67                             7B88     7B88       5E         0
                text66                             6F96     6F96       88         0
                text65                             4866     4866      20A         0
                text64                             864E     864E       1E         0
                text63                             8774     8774       12         0
                text62                             740C     740C       78         0
                text61                             1A74     1A74      7B6         0
                text60                             564A     564A      152         0
                text59                             85D0     85D0       20         0
                text58                             6D66     6D66       90         0
                text57                             809A     809A       3A         0
                text56                             76C2     76C2       68         0
                text55                             3888     3888      40A         0
                text54                             7F28     7F28       40         0
                text53                             7EE8     7EE8       40         0
                text52                             65FA     65FA       C2         0
                text51                             8434     8434       26         0
                text50                             579C     579C      150         0
                text49                              388      388      F1E         0
                text48                             6AF8     6AF8       9E         0
                text47                             7126     7126       7E         0
                text46                             4344     4344      2C6         0
                text45                             7B28     7B28       60         0
                text44                             87C8     87C8        E         0
                text43                             8022     8022       3C         0
                text42                             5A30     5A30      13A         0
                text41                             874E     874E       14         0
                text40                             7394     7394       78         0
                text39                             765A     765A       68         0
                text38                             840E     840E       26         0
                text37                             6F0E     6F0E       88         0
                text36                             4C60     4C60      1D6         0
                text35                             82AC     82AC       32         0
                text34                             81AE     81AE       34         0
                text33                             5DB8     5DB8      120         0
                text32                             810C     810C       36         0
                text31                             83C0     83C0       28         0
                text30                             836E     836E       2A         0
                text29                             8762     8762       12         0
                text28                             8630     8630       1E         0
                text27                             8808     8808        8         0
                text26                             8800     8800        8         0
                text25                             731C     731C       78         0
                text24                             79FC     79FC       64         0
                text23                             534C     534C      18C         0
                text22                             82DE     82DE       30         0
                text21                             12A6     12A6      7CE         0
                text20                             83E8     83E8       26         0
                text19                             61E0     61E0       E2         0
                text18                             827A     827A       32         0
                text17                             8248     8248       32         0
                text16                             7E62     7E62       44         0
                text15                             7BE6     7BE6       5C         0
                text14                             222A     222A      706         0
                text13                             62C2     62C2       DA         0
                text12                             5000     5000      1AE         0
                text11                             69A4     69A4       AE         0
                text10                             639C     639C       D2         0
                text9                              6A52     6A52       A6         0
                text8                              2930     2930      5EA         0
                text7                              5FEE     5FEE      106         0
                text6                              8216     8216       32         0
                text5                              8398     8398       28         0
                text4                              87BA     87BA        E         0
                text3                              646E     646E       CA         0
                text2                              87AA     87AA       10         0
                text1                              460A     460A      25C         0
                text0                              4A70     4A70      1F0         0
                cinit                              54D8     54D8      172         0
                idataBANK5                         7C42     7C42       55         0
                idataBANK4                         6538     6538       C2         0
                idataBANK3                         7996     7996       65         0
                idataBANK2                         883A     883A        2         0
                idataBANK0                         87F6     87F6        9         0
                idataCOMRAM                        8830     8830        6         0

        CLASS   CONST          

        CLASS   SMALLCONST     

        CLASS   MEDIUMCONST    
                mediumconst                        FBF6     FBF6      40A         0

        CLASS   COMRAM         
                temp                                 5F       5F        1         1
                cstackCOMRAM                          1        1       42         1
                dataCOMRAM                           59       59        6         1
                bssCOMRAM                            43       43       16         1

        CLASS   ABS1           

        CLASS   BIGRAM         
                bssBIGRAM                           A6A      A6A      200         1

        CLASS   RAM            

        CLASS   BANK0          
                cstackBANK0                          80       80       5A         1
                dataBANK0                            ED       ED        9         1
                bssBANK0                             DA       DA       13         1

        CLASS   BANK1          
                cstackBANK1                         100      100       C5         1

        CLASS   BANK2          
                cstackBANK2                         200      200       F9         1
                dataBANK2                           2FE      2FE        2         1
                bssBANK2                            2F9      2F9        5         1

        CLASS   BANK3          
                cstackBANK3                         300      300       8E         1
                dataBANK3                           38E      38E       65         1
                bssBANK3                            3F3      3F3        C         1

        CLASS   BANK4          
                cstackBANK4                         4F6      4F6        A         1
                dataBANK4                           400      400       C2         1
                bssBANK4                            4C2      4C2       34         1

        CLASS   BANK5          
                dataBANK5                           5A4      5A4       55         1
                bssBANK5                            500      500       A4         1

        CLASS   BANK6          
                bssBANK6                            600      600      100         1

        CLASS   BANK7          
                bssBANK7                            700      700      100         1

        CLASS   BANK8          
                bssBANK8                            800      800      100         1

        CLASS   BANK9          
                bssBANK9                            900      900      100         1

        CLASS   BANK10         
                cstackBANK10                        A00      A00       6A         1

        CLASS   BANK11         

        CLASS   BANK12         

        CLASS   BANK13         

        CLASS   BANK14         

        CLASS   BANK15         

        CLASS   SFR            

        CLASS   FARRAM         

        CLASS   CONFIG         
                config                           300000   300000        E         0

        CLASS   IDLOC          

        CLASS   EEDATA         



SEGMENTS        Name                           Load    Length   Top    Selector   Space  Class

                reset_vec                      000000  000004  000004         0       0  CODE    
                cstackCOMRAM                   000001  00005F  000060         1       1  COMRAM  
                intcode                        000008  00000E  000016         4       0  CODE    
                intcodelo                      000018  0079E3  0079FB         C       0  CODE    
                cstackBANK0                    000080  000076  0000F6        80       1  BANK0   
                cstackBANK1                    000100  0000C5  0001C5       100       1  BANK1   
                cstackBANK2                    000200  000100  000300       200       1  BANK2   
                cstackBANK3                    000300  0000FF  0003FF       300       1  BANK3   
                dataBANK4                      000400  000100  000500       400       1  BANK4   
                bssBANK5                       000500  0000F9  0005F9       500       1  BANK5   
                bssBANK6                       000600  000100  000700       600       1  BANK6   
                bssBANK7                       000700  000100  000800       700       1  BANK7   
                bssBANK8                       000800  000100  000900       800       1  BANK8   
                bssBANK9                       000900  000100  000A00       900       1  BANK9   
                cstackBANK10                   000A00  00006A  000A6A       A00       1  BANK10  
                bssBIGRAM                      000A6A  000200  000C6A       A6A       1  BIGRAM  
                text24                         0079FC  00029B  007C97      3CFE       0  CODE    
                text79                         007C98  000B67  0087FF      3E4C       0  CODE    
                text26                         008800  00003C  00883C      4400       0  CODE    
                mediumconst                    00FBF6  00040A  010000      7DFB       0  MEDIUMCO
                config                         300000  00000E  30000E    300000       0  CONFIG  


UNUSED ADDRESS RANGES

        Name                Unused          Largest block    Delta
        BANK0            0000F6-0000FF                A
        BANK1            0001C5-0001FF               3B
        BANK12           000C6A-000CFF               96
        BANK13           000D00-000DFF              100
        BANK14           000E00-000EFF              100
        BANK15           000F00-000F7F               80
        BANK3            0003FF-0003FF                1
        BANK5            0005F9-0005FF                7
        BIGRAM           000060-00007F               20
                         0000F6-0000FF                A
                         0001C5-0001FF               3B
                         0003FF-0003FF                1
                         0005F9-0005FF                7
                         000C6A-000F7F              316
        CODE             000004-000007                4
                         000016-000017                2
                         0079FB-0079FB                1
                         007C97-007C97                1
                         0087FF-0087FF                1
                         00883C-00FBF5             73BA
        COMRAM           000060-00007F               20
        CONST            000004-000007                4
                         000016-000017                2
                         0079FB-0079FB                1
                         007C97-007C97                1
                         0087FF-0087FF                1
                         00883C-00FBF5             73BA
        EEDATA           F00000-F003FF              400
        IDLOC            200000-200007                8
        MEDIUMCONST      0079FB-0079FB                1
                         007C97-007C97                1
                         0087FF-0087FF                1
                         00883C-00FBF5             73BA
        RAM              0000F6-0000FF                A
                         0001C5-0001FF               3B
                         0003FF-0003FF                1
                         0005F9-0005FF                7
                         000C6A-000F7F              100
        SFR              000F80-000FFF               80
        SMALLCONST       0079FB-0079FB                1
                         007C97-007C97                1
                         0087FF-0087FF                1
                         00883C-00FBF5              100
        STACK            000C6A-000F7F              316

                                  Symbol Table

?_EncodePhoneNumberToPDU                    cstackBANK1  000144
?_FindCell                                  cstackBANK1  000158
?_FindNextTimeStart                         cstackBANK1  000158
?_FindPhoneContactByNumber                  cstackCOMRAM 00002D
?_GetDayOfWeek                              cstackBANK1  00013B
?_GetStringLength                           cstackBANK1  00013B
?_GetSystemInfo                             cstackBANK1  000183
?_GetUnicodeSymbol                          cstackBANK1  00013B
?_InputText                                 cstackBANK1  000181
?_RefreshSchedulerIndicator                 cstackBANK1  000172
?__GetStringLength_interr                   cstackCOMRAM 00001C
?___aldiv                                   cstackBANK1  00013B
?___almod                                   cstackBANK1  00013B
?___awdiv                                   cstackBANK1  000141
?___awmod                                   cstackBANK1  000149
?___lldiv                                   cstackBANK1  00013B
?___llmod                                   cstackBANK1  00013B
?___lmul                                    cstackBANK1  00013B
?___lwdiv                                   cstackBANK1  00013B
?___lwmod                                   cstackBANK1  00013B
?___wmul                                    cstackBANK1  00013B
?__getContainer_Clock_from_GSM              cstackCOMRAM 000023
?__getContainer_Incomming_Call_Data         cstackCOMRAM 000023
?__getContainer_Incomming_DTMF_Data         cstackCOMRAM 000023
?_getSystemTimePoint                        cstackBANK1  00013B
?_strlen                                    cstackBANK1  00013B
?i1___aldiv                                 cstackCOMRAM 00001C
?i1___awdiv                                 cstackCOMRAM 000022
?i1___awmod                                 cstackCOMRAM 00002A
?i1___lmul                                  cstackCOMRAM 000036
?i1___lwdiv                                 cstackCOMRAM 00001C
?i1___lwmod                                 cstackCOMRAM 00001C
?i1___wmul                                  cstackCOMRAM 00001C
?i1_getSystemTimePoint                      cstackCOMRAM 00001C
AddByteToUSARTbuff@buff                     cstackCOMRAM 00000A
AddByteToUSARTbuff@byte                     cstackCOMRAM 00000C
AddByteToUSARTbuff@i                        cstackCOMRAM 00000D
AddByteToUSARTbuff@i_1799                   cstackCOMRAM 00000F
AddByteToUSARTbuff@lastdata                 bssCOMRAM    00004F
BCD_to_DEC@BCD                              cstackCOMRAM 00001D
CalculateClockDelta@newTime                 cstackCOMRAM 00002A
CheckoutRegisterOfSymbol@dig                cstackBANK1  00013B
CleanStringArray@i                          cstackBANK1  000140
CleanStringArray@myArray                    cstackBANK1  00013B
CleanStringArray@settingData                cstackBANK1  00013F
CleanStringArray@size                       cstackBANK1  00013D
ConvKeyNum@Num                              cstackCOMRAM 00001C
ConvertCharToNumeric@symbol                 cstackCOMRAM 00001C
ConvertDayToBit@DayNumber                   cstackBANK1  00013B
DEC_to_BCD@DEC                              cstackBANK1  000140
DeleteDataOfCell@CellsData                  cstackBANK1  00014A
DeleteDataOfCell@TargetAdress               cstackBANK1  000148
EERD@EEDATA_BUP                             cstackBANK1  00013E
EERD@INTCON_BUP                             cstackBANK1  00013D
EERD@adress                                 cstackBANK1  00013B
EEWR@INTCON_BUP                             cstackBANK1  00013E
EEWR@adress                                 cstackBANK1  00013B
EEWR@data                                   cstackBANK1  00013D
EditSchedule@BeginEditTimes                 cstackBANK2  000220
EditSchedule@CellsData                      cstackBANK2  000216
EditSchedule@Data                           cstackBANK2  000272
EditSchedule@Days                           cstackBANK2  00026B
EditSchedule@HH                             cstackBANK2  000221
EditSchedule@HL                             cstackBANK2  000222
EditSchedule@MH                             cstackBANK2  000223
EditSchedule@ML                             cstackBANK2  000224
EditSchedule@OK                             cstackBANK2  00026A
EditSchedule@Signals                        cstackBANK2  00026C
EditSchedule@SourceOfRecord                 cstackBANK1  00015A
EditSchedule@T                              cstackBANK2  000225
EditSchedule@TargetAdress                   cstackBANK2  00021E
EditSchedule@TimeStart                      cstackBANK2  00023A
EditSchedule@TimeStop                       cstackBANK2  00023C
EditSchedule@Times                          cstackBANK2  000229
EditSchedule@TimesOutput                    cstackBANK2  000200
EditSchedule@_times                         cstackBANK2  00023E
EditSchedule@adress                         cstackBANK1  000158
EditSchedule@blinking                       cstackBANK2  000277
EditSchedule@f                              cstackBANK2  000271
EditSchedule@i                              cstackBANK2  000278
EditSchedule@i_1641                         cstackBANK2  000279
EditSchedule@i_1644                         cstackBANK2  00026E
EditSchedule@i_1652                         cstackBANK2  00026F
EditSchedule@j                              cstackBANK2  000239
EditSchedule@j_1661                         cstackBANK2  000270
EditSchedule@key                            cstackBANK2  000276
EditSchedule@mode                           cstackBANK2  00026D
EditSchedule@temp                           cstackBANK2  00027A
EncodePhoneNumberToPDU@encoded              cstackBANK1  000148
EncodePhoneNumberToPDU@i                    cstackBANK1  000159
EncodePhoneNumberToPDU@number_legth         cstackBANK1  000157
EncodePhoneNumberToPDU@phone_number         cstackBANK1  000144
EncodePhoneNumberToPDU@temp                 cstackBANK1  000158
F_l@ButtonPressTimeOut                      bssCOMRAM    000050
F_l@KeyIndex                                bssCOMRAM    000051
F_l@MinuteAgo                               cstackBANK0  0000CD
F_l@PressedKeyIndex                         dataCOMRAM   000059
F_l@_KeyIndex                               cstackBANK0  0000D2
F_l@a                                       cstackBANK0  0000D3
F_l@data_temp                               cstackBANK0  0000D1
F_l@dddd                                    bssCOMRAM    000052
F_l@digit                                   cstackBANK0  0000D0
F_l@digs                                    cstackBANK0  0000CE
F_l@digsAtrib                               cstackBANK0  0000D5
F_l@line                                    cstackBANK0  0000D9
F_l@symbol                                  cstackBANK0  0000D7
FillArrayFromEEPROM@adress_start            cstackBANK1  000141
FillArrayFromEEPROM@container               cstackBANK1  00013F
FillArrayFromEEPROM@i                       cstackBANK1  000147
FillArrayFromEEPROM@quantity                cstackBANK1  000143
FillArrayFromEEPROM_interr@adress_start     cstackCOMRAM 000020
FillArrayFromEEPROM_interr@container        cstackCOMRAM 000026
FillArrayFromEEPROM_interr@i                cstackCOMRAM 000027
FillArrayFromEEPROM_interr@quantity         cstackCOMRAM 000022
FillPhonebookCellFromEEPROM@adress_start    cstackBANK1  00014A
FillPhonebookCellFromEEPROM@container       cstackBANK1  000148
FindCell@CellIsEmpty                        cstackBANK1  00016E
FindCell@CellsData                          cstackBANK1  00015E
FindCell@Data                               cstackBANK1  00016A
FindCell@New                                cstackBANK1  00015A
FindCell@adress                             cstackBANK1  000170
FindCell@adressNew                          cstackBANK1  000166
FindCell@adressStart                        cstackBANK1  000158
FindCell@i                                  cstackBANK1  00016F
FindCell@previous                           cstackBANK1  00015B
FindIncommingData@a                         cstackBANK1  000152
FindIncommingData@container                 cstackBANK1  000144
FindIncommingData@end_of_regexp             cstackBANK1  000154
FindIncommingData@finish_index              cstackBANK1  00014E
FindIncommingData@history_index             cstackBANK1  000146
FindIncommingData@i                         cstackBANK1  000158
FindIncommingData@j                         cstackBANK1  00015E
FindIncommingData@last_s                    cstackBANK1  00015C
FindIncommingData@not_found                 cstackBANK1  000150
FindIncommingData@pointer                   cstackBANK1  00015A
FindIncommingData@regexp                    cstackBANK1  000142
FindIncommingData@s0                        cstackBANK1  000156
FindIncommingData@s1                        cstackBANK1  00014A
FindIncommingData@start_index               cstackBANK1  00014C
FindNextTimeStart@CellsData                 cstackBANK1  00015E
FindNextTimeStart@Data                      cstackBANK1  00017F
FindNextTimeStart@DayIndex                  cstackBANK1  00017E
FindNextTimeStart@DayOn                     cstackBANK1  00016A
FindNextTimeStart@Days                      cstackBANK1  000177
FindNextTimeStart@LastFoundTimeStart        cstackBANK1  00016F
FindNextTimeStart@Signals                   cstackBANK1  000176
FindNextTimeStart@TimeFrom                  cstackBANK1  000158
FindNextTimeStart@TimeIsFound               cstackBANK1  000175
FindNextTimeStart@TimeOfSignals             cstackBANK1  000178
FindNextTimeStart@TimeStart                 cstackBANK1  000173
FindNextTimeStart@TimeStop                  cstackBANK1  00016D
FindNextTimeStart@adress                    cstackBANK1  00017C
FindNextTimeStart@adressStart               cstackBANK1  00016B
FindPhoneContactByNumber@container          cstackBANK0  000084
FindPhoneContactByNumber@end_of_phone       cstackBANK0  000082
FindPhoneContactByNumber@found              cstackBANK0  000080
FindPhoneContactByNumber@i                  cstackBANK0  000081
FindPhoneContactByNumber@j                  cstackBANK0  000083
FindPhoneContactByNumber@number             cstackCOMRAM 00002D
Format_EEPROM_Memory@first_cell             cstackBANK1  000150
Format_EEPROM_Memory@i                      cstackBANK1  000159
Format_EEPROM_Memory@interactive            cstackBANK1  000154
Format_EEPROM_Memory@last_cell              cstackBANK1  000152
GetDayOfWeek@day                            cstackBANK1  00013D
GetDayOfWeekByDate@_day                     cstackBANK1  000150
GetDayOfWeekByDate@_mounth                  cstackBANK1  00014F
GetDayOfWeekByDate@_year                    cstackBANK1  000154
GetNumericFromString@index                  cstackCOMRAM 00001F
GetNumericFromString@string                 cstackCOMRAM 00001D
GetStringLength@container                   cstackBANK1  00013B
GetStringLength@i                           cstackBANK1  00013D
GetSystemInfo@CellsData                     cstackBANK2  000249
GetSystemInfo@Data                          cstackBANK2  000284
GetSystemInfo@DataArray                     cstackBANK2  000251
GetSystemInfo@Day                           cstackBANK2  000283
GetSystemInfo@Days                          cstackBANK2  000281
GetSystemInfo@F3705                         dataBANK3    00038E
GetSystemInfo@F3708                         dataBANK3    000393
GetSystemInfo@F3713                         dataBANK5    0005C3
GetSystemInfo@F3723                         dataBANK0    0000ED
GetSystemInfo@F3725                         dataBANK3    0003C8
GetSystemInfo@F3727                         dataBANK3    0003CB
GetSystemInfo@F3729                         dataBANK3    0003CE
GetSystemInfo@F3731                         dataBANK3    000398
GetSystemInfo@NextCell                      cstackBANK2  000288
GetSystemInfo@Signals                       cstackBANK2  000282
GetSystemInfo@Time                          cstackBANK2  00028C
GetSystemInfo@TimeStart                     cstackBANK2  00027F
GetSystemInfo@TimeStop                      cstackBANK2  00028A
GetSystemInfo@cTime                         cstackBANK2  00028E
GetSystemInfo@d                             cstackBANK2  000292
GetSystemInfo@h_1                           cstackBANK2  000276
GetSystemInfo@h_2                           cstackBANK2  00027C
GetSystemInfo@i                             cstackBANK2  000293
GetSystemInfo@i_2253                        cstackBANK2  000294
GetSystemInfo@i_2284                        cstackBANK2  000295
GetSystemInfo@info                          cstackBANK2  000200
GetSystemInfo@m_1                           cstackBANK2  000273
GetSystemInfo@m_2                           cstackBANK2  000279
GetSystemInfo@s_auto                        cstackBANK2  000264
GetSystemInfo@s_hand                        cstackBANK2  000269
GetSystemInfo@sss                           cstackBANK2  00026E
GetUnicodeSymbol@symb                       cstackBANK1  00013D
I2CRead@temp                                cstackCOMRAM 00001D
I2CSend@dat                                 cstackBANK1  00013C
Init_GSM@show                               cstackBANK1  000160
Init_USART@SpeedNumber                      cstackBANK1  00013D
Init_USART@_value                           cstackBANK1  00013B
InputText@F3570                             dataBANK3    0003D1
InputText@F3572                             dataBANK5    0005D6
InputText@F3574                             dataBANK3    00039D
InputText@F3576                             dataBANK3    0003A2
InputText@F3578                             dataBANK3    0003A7
InputText@F3580                             dataBANK3    0003AC
InputText@F3582                             dataBANK3    0003B1
InputText@F3584                             dataBANK4    00047A
InputText@F3586                             dataBANK3    0003B6
InputText@F3588                             dataBANK4    000480
InputText@F3590                             dataBANK4    000486
InputText@F3592                             dataBANK4    00048C
InputText@F3594                             dataBANK4    000492
InputText@F3596                             dataBANK4    000498
InputText@F3598                             dataBANK4    00049E
InputText@F3600                             dataBANK4    0004A4
InputText@F3602                             dataBANK4    0004AA
InputText@F3604                             dataBANK4    0004B0
InputText@F3606                             dataBANK3    0003D4
InputText@F3608                             dataBANK3    0003E0
InputText@F3610                             dataBANK3    0003E2
InputText@F3612                             dataBANK3    0003E4
InputText@F3614                             dataBANK3    0003E6
InputText@F3616                             dataBANK3    0003E8
InputText@F3618                             dataBANK3    0003EA
InputText@F3620                             dataBANK3    0003EC
InputText@F3622                             dataBANK3    0003EE
InputText@F3624                             dataBANK3    0003F0
InputText@InputData                         cstackBANK3  000300
InputText@_input_data                       cstackBANK2  000257
InputText@_props                            cstackBANK1  000183
InputText@active_cell                       cstackBANK3  000386
InputText@capacity                          cstackBANK1  000185
InputText@cur_char                          cstackBANK2  0002F4
InputText@i                                 cstackBANK3  000385
InputText@i_2088                            cstackBANK3  00037E
InputText@i_2096                            cstackBANK2  0002F8
InputText@i_2106                            cstackBANK3  000382
InputText@i_2115                            cstackBANK3  00037F
InputText@lastKeyCode                       cstackBANK3  000383
InputText@props                             cstackBANK3  000384
InputText@ret_string                        cstackBANK1  00019C
InputText@s_0                               cstackBANK2  0002DB
InputText@s_1                               cstackBANK1  00018A
InputText@s_12                              cstackBANK2  000206
InputText@s_13                              cstackBANK2  00020C
InputText@s_14                              cstackBANK2  000212
InputText@s_15                              cstackBANK2  000218
InputText@s_16                              cstackBANK2  00021E
InputText@s_17                              cstackBANK2  000224
InputText@s_18                              cstackBANK2  00022A
InputText@s_19                              cstackBANK2  000230
InputText@s_2                               cstackBANK2  000236
InputText@s_20                              cstackBANK2  000254
InputText@s_21                              cstackBANK2  0002DE
InputText@s_22                              cstackBANK2  0002E0
InputText@s_23                              cstackBANK2  0002E2
InputText@s_24                              cstackBANK2  0002E4
InputText@s_25                              cstackBANK2  0002E6
InputText@s_26                              cstackBANK2  0002E8
InputText@s_27                              cstackBANK2  0002EA
InputText@s_28                              cstackBANK2  0002EC
InputText@s_29                              cstackBANK2  0002EE
InputText@s_3                               cstackBANK2  00023B
InputText@s_4                               cstackBANK2  000240
InputText@s_5                               cstackBANK2  000245
InputText@s_6                               cstackBANK2  00024A
InputText@s_7                               cstackBANK1  0001BD
InputText@s_8                               cstackBANK2  00024F
InputText@s_9                               cstackBANK2  000200
InputText@symbols                           cstackBANK3  000342
InputText@temp                              cstackBANK3  000380
InputText@temp_2108                         cstackBANK2  0002F6
InputText@text                              cstackBANK1  000181
InputText@time_point                        cstackBANK2  0002F0
InteractiveData_BlinkOFF@InteractiveData    cstackBANK1  00013B
InteractiveData_BlinkOFF@i                  cstackBANK1  000140
InteractiveData_BlinkOFF@leght              cstackBANK1  00013D
ItemsToIndicator@firstDigit                 cstackBANK1  000146
ItemsToIndicator@i                          cstackBANK1  000148
ItemsToIndicator@items                      cstackBANK1  000147
ItemsToIndicator@max_i                      cstackBANK1  000145
NumericToHEXString@displacement             cstackBANK1  000152
NumericToHEXString@mySring                  cstackBANK1  00014D
NumericToHEXString@n                        cstackBANK1  000149
NumericToHEXString@size                     cstackBANK1  00014F
NumericToString@displacement                cstackBANK1  000153
NumericToString@mySring                     cstackBANK1  00014D
NumericToString@n                           cstackBANK1  000149
NumericToString@negative                    cstackBANK1  000152
NumericToString@size                        cstackBANK1  00014F
OutputInteractiveData@data                  cstackBANK1  000145
OutputInteractiveData@i                     cstackBANK1  00014D
OutputInteractiveData@length                cstackBANK1  000147
OutputInteractiveData@line                  cstackBANK1  00014B
OutputInteractiveData@s                     cstackBANK1  00014C
OutputInteractiveData@start_symbol          cstackBANK1  000148
OutputString@cont                           cstackBANK1  00014C
OutputString@i                              cstackBANK1  00014D
OutputString@line                           cstackBANK1  000147
OutputString@position                       cstackBANK1  000148
OutputString@stringData                     cstackBANK1  000145
OutputString@transfer_line                  cstackBANK1  000149
OutputSystemMessage@i                       cstackBANK1  000141
OutputSystemMessage@l                       cstackBANK1  000144
OutputSystemMessage@line                    cstackBANK1  000145
OutputSystemMessage@s                       cstackBANK1  000143
OutputSystemMessage@stringData              cstackBANK1  00013B
OutputSystemMessage@symb                    cstackBANK1  000146
PL10                                        text21       0018A6
PL100                                       text78       0037FC
PL102                                       text56       007714
PL104                                       text143      0078B4
PL106                                       text21       00191A
PL108                                       text77       00777C
PL110                                       text74       006C1C
PL112                                       text14       0028A8
PL114                                       text61       002166
PL116                                       text33       005EB4
PL118                                       text33       005EBC
PL12                                        text14       002856
PL120                                       text21       001930
PL122                                       text74       006C2A
PL124                                       text60       005742
PL126                                       text72       007928
PL128                                       text21       00193C
PL130                                       text21       00195A
PL132                                       text66       00700E
PL134                                       text128      005DB0
PL136                                       text21       00196C
PL138                                       text1        00483E
PL14                                        text128      005D72
PL140                                       text21       00197E
PL142                                       text23       0054B2
PL144                                       text75       005C84
PL146                                       text55       003C02
PL148                                       text36       004E0E
PL150                                       text14       0028B6
PL152                                       text21       001990
PL154                                       text21       00199A
PL156                                       text46       0045B6
PL158                                       text60       005760
PL16                                        text14       00285E
PL160                                       text14       0028C4
PL162                                       text60       00577C
PL164                                       text52       006692
PL166                                       text133      0080F2
PL168                                       text0        004C30
PL170                                       text21       0019A2
PL172                                       text8        002EB8
PL174                                       text61       002188
PL176                                       text94       008674
PL178                                       text121      003396
PL18                                        text8        002E40
PL180                                       text92       0071F0
PL182                                       text0        004C40
PL184                                       text55       003C10
PL186                                       text83       005FBC
PL188                                       text55       003C26
PL190                                       text0        004C4A
PL192                                       text46       0045C4
PL194                                       text0        004C52
PL196                                       text14       0028D2
PL198                                       text46       0045CE
PL2                                         text67       007BB2
PL20                                        text14       002868
PL200                                       text8        002EC2
PL202                                       text21       0019B0
PL204                                       text21       0019BE
PL206                                       text83       005FD2
PL208                                       text12       00518C
PL210                                       text14       0028E4
PL212                                       text61       0021A0
PL214                                       text21       0019CC
PL216                                       text21       0019D4
PL218                                       text83       005FDA
PL22                                        text33       005E56
PL220                                       text121      0033AE
PL222                                       text58       006DCA
PL224                                       text14       0028EC
PL226                                       text36       004E1C
PL228                                       text46       0045DA
PL230                                       text121      0033B6
PL232                                       text11       006A40
PL234                                       text29       008764
PL236                                       text21       0019DC
PL238                                       text121      0033BE
PL24                                        text33       005E70
PL240                                       text9        006AE6
PL242                                       text85       006D54
PL244                                       text92       007208
PL246                                       text61       0021A8
PL248                                       text21       0019EE
PL250                                       text102      004FF4
PL252                                       text21       0019FA
PL254                                       text65       004A22
PL256                                       text61       0021B0
PL258                                       text150      007B18
PL26                                        text21       0018B6
PL260                                       text0        004C5A
PL262                                       text14       002900
PL264                                       text52       0066AC
PL266                                       text21       001A06
PL268                                       text42       005B62
PL270                                       text21       001A12
PL272                                       text21       001A1C
PL274                                       text55       003C32
PL276                                       text21       001A28
PL278                                       text8        002ECC
PL28                                        text14       002870
PL280                                       text50       0058BC
PL282                                       text50       0058CA
PL284                                       text137      005A14
PL286                                       text21       001A32
PL288                                       text14       002910
PL290                                       text137      005A22
PL292                                       text78       003806
PL294                                       text108      00755A
PL296                                       text61       0021C0
PL298                                       text108      007566
PL30                                        text121      00337E
PL300                                       text78       003814
PL302                                       text78       003822
PL304                                       text61       0021CE
PL306                                       text78       003830
PL308                                       text8        002ED4
PL310                                       text55       003C42
PL312                                       text58       006DDE
PL314                                       text7        0060E6
PL316                                       text8        002EE2
PL318                                       text21       001A3A
PL32                                        text8        002E62
PL320                                       text92       007214
PL322                                       text48       006B88
PL324                                       text21       001A42
PL326                                       text65       004A2C
PL328                                       text61       0021DC
PL330                                       text55       003C50
PL332                                       text60       005788
PL334                                       text8        002EF0
PL336                                       text61       0021E6
PL338                                       text88       005342
PL34                                        text8        002E74
PL340                                       text49       001060
PL342                                       text21       001A50
PL344                                       text78       00383E
PL346                                       text121      0033D0
PL348                                       text46       0045E4
PL350                                       text34       0081D6
PL352                                       text65       004A36
PL354                                       text50       0058D8
PL356                                       text55       003C5A
PL358                                       text78       003846
PL36                                        text23       005490
PL360                                       text146      006998
PL362                                       text21       001A58
PL364                                       text65       004A42
PL366                                       text47       007198
PL368                                       text1        004850
PL370                                       text65       004A4E
PL372                                       text55       003C66
PL374                                       text55       003C72
PL376                                       text65       004A5A
PL378                                       text8        002EFA
PL38                                        text36       004DCC
PL380                                       text21       001A60
PL382                                       text55       003C7E
PL384                                       text12       00519A
PL386                                       text36       004E24
PL388                                       text16       007E9C
PL390                                       text8        002F06
PL392                                       text75       005C8C
PL394                                       text33       005ECE
PL396                                       text61       0021F0
PL398                                       text78       003852
PL4                                         text14       002846
PL40                                        text74       006C04
PL400                                       text121      0033DA
PL402                                       text61       0021FA
PL404                                       text55       003C8A
PL406                                       text78       00385C
PL408                                       text61       002204
PL410                                       text61       00220E
PL412                                       text23       0054C4
PL414                                       text3        006530
PL416                                       text90       006F04
PL418                                       text65       004A66
PL42                                        text21       0018C6
PL420                                       text60       005792
PL422                                       text61       002216
PL424                                       text78       003864
PL426                                       text71       008090
PL428                                       text8        002F10
PL430                                       text121      0033E4
PL432                                       text49       001068
PL434                                       text49       001070
PL436                                       text78       00386E
PL438                                       text46       0045F0
PL44                                        text67       007BC8
PL440                                       text49       001078
PL442                                       text49       001080
PL444                                       text61       002220
PL446                                       text49       001088
PL448                                       text49       001090
PL450                                       text49       001098
PL452                                       text14       00291E
PL454                                       text23       0054CE
PL456                                       text49       0010A0
PL458                                       text49       0010A8
PL46                                        text8        002E86
PL460                                       text49       0010B0
PL462                                       text6        008240
PL464                                       text49       0010B8
PL466                                       text49       0010C0
PL468                                       text49       0010C8
PL470                                       text49       0010D0
PL472                                       text21       001A6C
PL474                                       text79       007CDE
PL476                                       text121      0033EE
PL478                                       text1        00485C
PL48                                        text66       006FFE
PL480                                       text15       007C38
PL482                                       text58       006DEC
PL484                                       text125      007D2C
PL486                                       text46       0045FA
PL488                                       text12       0051A6
PL490                                       text49       0010D8
PL492                                       text49       0010DE
PL494                                       text49       0010E4
PL496                                       text46       004602
PL498                                       text14       002928
PL50                                        text78       0037D4
PL500                                       text121      0033F8
PL502                                       text78       003878
PL504                                       text50       0058E4
PL506                                       text35       0082D8
PL508                                       text49       0010EA
PL510                                       text49       0010F0
PL512                                       text18       0082A4
PL514                                       text49       0010F6
PL516                                       text49       0010FC
PL518                                       text49       001102
PL52                                        text78       0037E4
PL520                                       text49       001108
PL522                                       text49       00110E
PL524                                       text49       001114
PL526                                       text49       00111A
PL528                                       text49       001120
PL530                                       text49       001126
PL532                                       text49       00112C
PL534                                       text49       001132
PL536                                       text49       001138
PL538                                       text49       00113E
PL54                                        text33       005E82
PL540                                       text49       001144
PL542                                       text49       00114A
PL544                                       text49       001150
PL546                                       text49       001156
PL548                                       text49       00115C
PL550                                       text49       001162
PL552                                       text49       001168
PL554                                       text49       00116E
PL556                                       text49       001174
PL558                                       text49       00117A
PL56                                        text73       006CB0
PL560                                       text49       001180
PL562                                       text49       001186
PL564                                       text49       00118C
PL566                                       text49       001192
PL568                                       text49       001198
PL570                                       text49       00119E
PL572                                       text49       0011A4
PL574                                       text49       0011AA
PL576                                       text49       0011B0
PL578                                       text49       0011B6
PL58                                        text8        002EA4
PL580                                       text49       0011BC
PL582                                       text49       0011C2
PL584                                       text49       0011C8
PL586                                       text49       0011CE
PL588                                       text49       0011D4
PL590                                       text49       0011DA
PL592                                       text49       0011E0
PL594                                       text49       0011E6
PL596                                       text49       0011EC
PL598                                       text49       0011F2
PL6                                         text21       001892
PL60                                        text8        002EAE
PL600                                       text49       0011F8
PL602                                       text49       0011FE
PL604                                       text49       001204
PL606                                       text49       00120A
PL608                                       text49       001210
PL610                                       text49       001216
PL612                                       text49       00121C
PL614                                       text49       001222
PL616                                       text49       001228
PL618                                       text49       00122E
PL62                                        text21       0018D4
PL620                                       text49       001234
PL622                                       text49       00123A
PL624                                       text49       001240
PL626                                       text49       001246
PL628                                       text49       00124C
PL630                                       text49       001252
PL632                                       text49       001258
PL634                                       text49       00125E
PL636                                       text49       001264
PL638                                       text36       004E2E
PL64                                        text78       0037F0
PL640                                       text49       00126A
PL642                                       text49       001270
PL644                                       text49       001276
PL646                                       text49       00127C
PL648                                       text49       001282
PL650                                       text49       001288
PL652                                       text49       00128E
PL654                                       text49       001294
PL656                                       text49       00129A
PL658                                       text49       0012A0
PL66                                        text14       002882
PL660                                       text78       003880
PL68                                        text42       005B4E
PL70                                        text128      005D7E
PL72                                        text75       005C52
PL74                                        text21       0018F0
PL76                                        text21       0018FC
PL78                                        text0        004C20
PL8                                         text61       002148
PL80                                        text66       007006
PL82                                        text36       004DEE
PL84                                        text61       002158
PL86                                        text72       007910
PL88                                        text128      005D98
PL90                                        text75       005C6C
PL92                                        text36       004DFE
PL94                                        text21       001908
PL96                                        text14       002896
PL98                                        text121      00338C
ParseDataRecord@Data                        cstackBANK1  00013B
ParseDataRecord@Days                        cstackBANK1  000143
ParseDataRecord@Signals                     cstackBANK1  000145
ParseDataRecord@TimeStart                   cstackBANK1  00013F
ParseDataRecord@TimeStop                    cstackBANK1  000141
ParseTime@Day                               cstackBANK1  00014F
ParseTime@DayTime                           cstackBANK1  000151
ParseTime@Time                              cstackBANK1  00014D
ParseTime@TimeValue                         cstackBANK1  000149
PhonebookEdit@Contact                       cstackBANK10 000A3D
PhonebookEdit@F3674                         dataBANK3    0003D7
PhonebookEdit@F3676                         dataBANK4    00044F
PhonebookEdit@aaa                           cstackBANK10 000A0A
PhonebookEdit@cell                          cstackBANK10 000A3A
PhonebookEdit@field                         cstackBANK10 000A38
PhonebookEdit@i                             cstackBANK10 000A3C
PhonebookEdit@input_props                   cstackBANK10 000A36
PhonebookEdit@input_props_2197              cstackBANK10 000A32
PhonebookEdit@menu                          cstackBANK10 000A00
PhonebookEdit@num_cell                      cstackBANK10 000A2B
PhonebookEdit@number                        cstackBANK10 000A33
PhonebookEdit@read                          cstackBANK10 000A35
PhonebookEdit@result                        cstackBANK10 000A37
ProcessIncommingUartData@contact            cstackBANK1  000138
ProcessIncommingUartData@i                  cstackBANK1  00013A
ProcessIncommingUartData@msg                cstackBANK1  000100
ProcessIncommingUartData@number             cstackBANK1  000121
ProcessIncommingUartData@tClock             cstackBANK1  000134
ProcessIncommingUartData@tt                 cstackBANK1  00012C
ReIndTimeEdit@F3178                         dataBANK4    0004B6
ReIndTimeEdit@TimeData                      cstackBANK1  00014E
ReIndTimeEdit@i                             cstackBANK1  00015C
ReIndTimeEdit@i_1354                        cstackBANK1  00015D
ReIndTimeEdit@sources_of_time               cstackBANK1  000154
ReIndTimeEdit@value                         cstackBANK1  00015A
ReadDataOfCell@CellsData                    cstackBANK1  000148
ReadDataOfCell@Data                         cstackBANK1  00014A
ReadDataOfCell@TargetAdress                 cstackBANK1  00014C
ReadDataOfCell@i                            cstackBANK1  000156
ReadDataOfCell_interr@CellsData             cstackCOMRAM 000033
ReadDataOfCell_interr@Data                  cstackCOMRAM 000028
ReadDataOfCell_interr@TargetAdress          cstackCOMRAM 000029
ReadDataOfCell_interr@i                     cstackCOMRAM 000034
ReadTime@lastTimeStamp                      bssBANK0     0000DA
RefreshSchedulerIndicator@CellIsEmpty       cstackBANK1  00018D
RefreshSchedulerIndicator@CellsData         cstackBANK1  000179
RefreshSchedulerIndicator@CopyFrom          cstackBANK1  000175
RefreshSchedulerIndicator@Data              cstackBANK1  000189
RefreshSchedulerIndicator@F3289             dataBANK0    0000F0
RefreshSchedulerIndicator@F3291             dataBANK0    0000F3
RefreshSchedulerIndicator@New               cstackBANK1  000174
RefreshSchedulerIndicator@adress            cstackBANK1  000172
RefreshSchedulerIndicator@cell              cstackBANK1  00018E
RefreshSchedulerIndicator@i                 cstackBANK1  000190
RefreshSchedulerIndicator@num               cstackBANK1  000181
RefreshSchedulerIndicator@num_1574          cstackBANK1  000184
Save_USART_SpeedNumber@speed                cstackBANK1  00013F
Scheduler@NumberOfCells                     bssCOMRAM    000047
Scheduler@StartFrom                         cstackBANK1  0001A2
SchedulerNew@NumberOfCells                  bssCOMRAM    000049
SchedulerNew@SourceOfRecord                 cstackBANK1  000191
Select_OK_NO@text                           cstackBANK1  00014E
SendCommandToUSART@command                  cstackBANK1  00013B
SendCommandToUSART@wait                     cstackBANK1  00013D
SendSMS@F3779                               dataBANK3    0003DA
SendSMS@F3783                               dataBANK3    0003DD
SendSMS@F3787                               dataBANK4    00041F
SendSMS@PhoneNumber                         cstackBANK1  000189
SendSMS@Text                                cstackBANK1  00018B
SendSMS@command                             cstackBANK1  00018F
SendSMS@e                                   cstackBANK1  0001A6
SendSMS@l                                   cstackBANK1  0001AB
SendSMS@myNumber                            cstackBANK1  0001A9
SendSMS@pn                                  cstackBANK1  0001B1
SendSMS@sc_len                              cstackBANK1  0001B3
SendSMS@tempString                          cstackBANK1  0001A3
SendSMS@tt                                  cstackBANK1  00019F
SendSMS@y                                   cstackBANK1  00019B
SendSymbolToLCD@Symb                        cstackCOMRAM 000023
SetTimeSource@time_source                   cstackBANK1  000140
Settings@F3694                              dataBANK4    00042B
Settings@F3698                              dataBANK4    0004BC
Settings@GSM_Condition                      cstackBANK1  000196
Settings@GSM_On_Off                         cstackBANK1  000197
Settings@item                               cstackBANK1  000199
Settings@menu                               cstackBANK1  000183
Settings@menu_GSM_on_off                    cstackBANK1  00018F
Settings@num                                cstackBANK1  000198
Settings@speed                              cstackBANK1  000195
ShowMenu@item                               cstackBANK1  000150
ShowMenu@item_max                           cstackBANK1  000156
ShowMenu@line                               bssCOMRAM    000053
ShowMenu@menu                               cstackBANK1  00014E
ShowMenu@result                             cstackBANK1  000155
ShowSchedulerMenu@F3366                     dataBANK4    000437
ShowSchedulerMenu@NumberOfCells             cstackBANK1  000193
ShowSchedulerMenu@item                      cstackBANK1  0001A1
ShowSchedulerMenu@menu                      cstackBANK1  000195
SignalsOnOff@CellsData                      cstackBANK0  000080
SignalsOnOff@Data                           cstackBANK0  000096
SignalsOnOff@Data_1734                      cstackBANK0  000095
SignalsOnOff@DayTime                        cstackBANK0  000090
SignalsOnOff@Days                           cstackBANK0  000092
SignalsOnOff@Signals                        cstackBANK0  000093
SignalsOnOff@ThisDay                        cstackBANK0  000094
SignalsOnOff@ThisTime                       cstackBANK0  00008E
SignalsOnOff@TimeStart                      cstackBANK0  000088
SignalsOnOff@TimeStop                       cstackBANK0  00008A
TelephoneCall@F3661                         dataBANK4    000400
TelephoneCall@command                       cstackBANK1  000142
TelephoneCall@i                             cstackBANK1  000154
TelephoneCall@phone_number                  cstackBANK1  00013E
TimeData_BlinkOFF@TimeData                  cstackBANK1  000141
TimeData_INIT@TimeData                      cstackBANK1  00013B
TimeData_INIT@i                             cstackBANK1  000141
TimeData_INIT@i_1406                        cstackBANK1  000142
TimeEdit@F3209                              dataBANK4    000443
TimeEdit@MonthDays                          cstackBANK2  000200
TimeEdit@TimeData                           cstackBANK2  000276
TimeEdit@_date                              cstackBANK2  000214
TimeEdit@_time                              cstackBANK2  00023C
TimeEdit@_weekday                           cstackBANK2  000268
TimeEdit@blinking                           cstackBANK2  00026F
TimeEdit@i                                  cstackBANK2  00026C
TimeEdit@i_1432                             cstackBANK2  00026D
TimeEdit@i_1433                             cstackBANK2  00026E
TimeEdit@input                              cstackBANK2  000251
TimeEdit@month                              cstackBANK2  000253
TimeEdit@n                                  cstackBANK2  00020C
TimeEdit@p                                  cstackBANK2  000275
TimeEdit@symb_array                         cstackBANK2  000254
TimeEdit@symb_array_max_index               cstackBANK2  000252
TimeEdit@t                                  cstackBANK2  000274
TimeEdit@temp                               cstackBANK2  000270
TimeEdit@time_is_changed                    cstackBANK2  000250
TimeToInd@CellsData                         cstackBANK2  00027C
TimeToInd@CellsNumber                       cstackBANK2  0002C5
TimeToInd@D                                 cstackBANK2  0002B7
TimeToInd@Data                              cstackBANK2  0002BE
TimeToInd@DataArray                         cstackBANK2  00029A
TimeToInd@DataArray2                        cstackBANK2  0002BB
TimeToInd@DataArrayOfLine2                  cstackBANK2  000284
TimeToInd@Day                               cstackBANK2  0002BD
TimeToInd@Days                              cstackBANK2  0002B6
TimeToInd@F3133                             dataBANK3    0003C0
TimeToInd@F3137                             dataBANK4    000459
TimeToInd@F3141                             dataBANK5    0005E8
TimeToInd@F3155                             dataBANK4    000412
TimeToInd@SignalOn                          cstackBANK2  0002AB
TimeToInd@SignalOn_1291                     cstackBANK2  0002AD
TimeToInd@Signals                           cstackBANK2  0002C2
TimeToInd@SignalsFinal                      cstackBANK2  0002C8
TimeToInd@Time                              cstackBANK2  0002CB
TimeToInd@TimeData                          cstackBANK2  000291
TimeToInd@TimeStart                         cstackBANK2  0002B3
TimeToInd@TimeStop                          cstackBANK2  0002C9
TimeToInd@d                                 cstackBANK2  0002AE
TimeToInd@day                               cstackBANK2  0002AC
TimeToInd@i                                 cstackBANK2  0002C3
TimeToInd@i_1290                            cstackBANK2  0002C4
TimeToInd@j2                                cstackBANK2  0002C6
TimeToInd@line                              cstackBANK2  0002B5
TimeToInd@temp                              cstackBANK2  0002CD
USART_Speed_Choise@F3691                    dataBANK4    000462
USART_Speed_Choise@menu                     cstackBANK1  000157
UserDelay@timestamp                         cstackBANK1  000151
UserDelay@value                             cstackBANK1  00014F
WorkingWithGSM@command                      cstackBANK10 000A21
WorkingWithGSM@i                            cstackBANK10 000A26
WorkingWithGSM@line                         dataBANK3    0003F2
WorkingWithGSM@myOutputString               cstackBANK10 000A00
WorkingWithGSM@p                            cstackBANK10 000A23
WorkingWithGSM@speed                        cstackBANK10 000A25
WriteArrayToEEPROM@adress_start             cstackBANK1  000141
WriteArrayToEEPROM@container                cstackBANK1  00013F
WriteArrayToEEPROM@i                        cstackBANK1  000147
WriteArrayToEEPROM@quantity                 cstackBANK1  000143
WriteDataOfCell@CellsData                   cstackBANK1  000148
WriteDataOfCell@Data                        cstackBANK1  00014A
WriteDataOfCell@TargetAdress                cstackBANK1  00014C
WriteDataOfCell@i                           cstackBANK1  00014F
WritePhonebookCellToEEPROM@adress_start     cstackBANK1  00014A
WritePhonebookCellToEEPROM@container        cstackBANK1  000148
WriteTime@F3755                             dataBANK5    0005A4
WriteTime@INTCON_BUP                        cstackBANK1  000172
WriteTime@comand                            cstackBANK1  000150
WriteTime@days                              cstackBANK1  00014D
WriteTime@lClock                            cstackBANK1  000149
WriteTime@months                            cstackBANK1  00014E
WriteTime@temp                              cstackBANK1  000173
WriteTime@years                             cstackBANK1  00014F
_ADCON1                                     (abs)        000FC1
_AddByteToUSARTbuff                         text151      0060F4
_AdressOfNextStartCell                      dataBANK2    0002FE
_BAUDCONbits                                (abs)        000FB8
_BCD_to_DEC                                 text119      008738
_CalculateClockDelta                        text146      0068F0
_CalculateClockDelta$3323                   cstackCOMRAM 000032
_CheckoutRegisterOfSymbol                   text69       004070
_CleanStringArray                           text93       00845A
_Clock                                      bssCOMRAM    000043
_Clock_from_GSM                             bssBANK4     0004C2
_ConvKeyNum                                 text148      007A60
_ConvertCharToNumeric                       text141      007EA6
_ConvertDayToBit                            text17       008248
_CurrentReadingCell                         bssCOMRAM    00004B
_CurrentSignals                             bssCOMRAM    000054
_CurrentSignalsData                         bssCOMRAM    000055
_DEC_to_BCD                                 text30       00836E
_DTMF_Symbol                                bssBANK0     0000EC
_DeleteDataOfCell                           text18       00827A
_EEADR                                      (abs)        000FA9
_EEADRH                                     (abs)        000FAA
_EECON1bits                                 (abs)        000FA6
_EECON2                                     (abs)        000FA7
_EEDATA                                     (abs)        000FA8
_EERD                                       text96       008480
_EEWR                                       text76       0085F0
_EditSchedule                               text14       00222A
_EncodePhoneNumberToPDU                     text52       0065FA
_F_h                                        intcode      000008
_F_l                                        intcodelo    000018
_FillArrayFromEEPROM                        text91       008142
_FillArrayFromEEPROM_interr                 text107      0081E2
_FillMinutes                                text94       00866C
_FillPhonebookCellFromEEPROM                text77       00772A
_FindCell                                   text13       0062C2
_FindCell$1556                              cstackBANK1  000168
_FindIncommingData                          text50       00579C
_FindNextTimeStart                          text88       0051AE
_FindNextTimeStart$3116                     cstackBANK1  000166
_FindPhoneContactByNumber                   text142      006778
_Format_EEPROM_Memory                       text70       006DF6
_GetDayOfWeek                               text87       0072A0
_GetDayOfWeekByDate                         text37       006F0E
_GetNumericFromString                       text140      008798
_GetStringLength                            text51       008434
_GetSystemInfo                              text78       0033FE
_GetTimeSource                              text95       008564
_GetUnicodeSymbol                           text49       000388
_GlobalBlinkCycleTime                       dataCOMRAM   00005A
_I2CAck                                     text118      0087EC
_I2CInit                                    text29       008762
_I2CNak                                     text117      0087E2
_I2CRead                                    text116      008702
_I2CRestart                                 text115      008828
_I2CSend                                    text28       008630
_I2CStart                                   text27       008808
_I2CStop                                    text26       008800
_INTCON                                     (abs)        000FF2
_INTCON2                                    (abs)        000FF1
_INTCON3                                    (abs)        000FF0
_INTCONbits                                 (abs)        000FF2
_IPR1                                       (abs)        000F9F
_IPR1bits                                   (abs)        000F9F
_IPR2                                       (abs)        000FA2
_IncommingBuffer                            bssBANK3     0003F3
_Incomming_Call_Data                        bssBANK5     000500
_Incomming_DTMF_Data                        bssBANK4     0004EE
_Init_GSM                                   text42       005A30
_Init_USART                                 text45       007B28
_InputText                                  text61       001A74
_InteractiveData_BlinkOFF                   text68       00830E
_ItemsToIndicator                           text16       007E62
_KeyCode                                    bssBANK2     0002FC
_LATA                                       (abs)        000F89
_LATB                                       (abs)        000F8A
_LATC                                       (abs)        000F8B
_Minutes                                    bssBANK0     0000DE
_NearTimeStart                              bssBANK3     0003FB
_NumericToHEXString                         text48       006AF8
_NumericToString                            text83       005ED8
_OutcommingBuffer                           bssCOMRAM    00004D
_OutputInteractiveData                      text66       006F96
_OutputString                               text73       006C32
_OutputSystemMessage                        text75       005B6A
_PIE1                                       (abs)        000F9D
_PIE1bits                                   (abs)        000F9D
_PIE2                                       (abs)        000FA0
_PIR1                                       (abs)        000F9E
_PIR1bits                                   (abs)        000F9E
_PIR2                                       (abs)        000FA1
_PIR2bits                                   (abs)        000FA1
_PORTA                                      (abs)        000F80
_PORTB                                      (abs)        000F81
_PR2                                        (abs)        000FCB
_ParseDataRecord                            text92       0071A4
_ParseTime                                  text80       007792
_PhonebookEdit                              text55       003888
_PhonebookEdit$2192                         cstackBANK10 000A2E
_PhonebookEdit$2195                         cstackBANK10 000A30
_ProcessIncommingUartData                   text121      002F1A
_ProcessIncommingUartData$3324              cstackBANK1  000130
_ProcessSystemMessageShowing                text120      0087D6
_RB7                                        (abs)        007C0F
_RC0                                        (abs)        007C10
_RC2                                        (abs)        007C12
_RCON                                       (abs)        000FD0
_RCONbits                                   (abs)        000FD0
_RCREG                                      (abs)        000FAE
_RCSTAbits                                  (abs)        000FAB
_ReIndTimeEdit                              text36       004C60
_ReadDataOfCell                             text90       006E82
_ReadDataOfCell_interr                      text106      0070A4
_ReadTime                                   text110      007222
_Read_USART_SpeedNumber                     text44       0087C8
_RefreshSchedulerIndicator                  text12       005000
_RefreshSchedulerIndicator$1566             cstackBANK1  000187
_SMS                                        bssBIGRAM    000A6A
_SPBRG                                      (abs)        000FAF
_SPBRGH                                     (abs)        000FB0
_SSPADD                                     (abs)        000FC8
_SSPBUF                                     (abs)        000FC9
_SSPCON1                                    (abs)        000FC6
_SSPCON2                                    (abs)        000FC5
_SSPCON2bits                                (abs)        000FC5
_SSPSTAT                                    (abs)        000FC7
_SSPSTATbits                                (abs)        000FC7
_Save_USART_SpeedNumber                     text41       00874E
_Scheduler                                  text9        006A52
_SchedulerNew                               text11       0069A4
_Select_OK_NO                               text71       00805E
_SendCommandToUSART                         text59       0085D0
_SendSMS                                    text46       004344
_SendSMS$2395                               cstackBANK1  0001AD
_SendSMS$2396                               cstackBANK1  0001AF
_SendSymbolToLCD                            text108      0074FC
_SendSymbolToLCD$1516                       cstackCOMRAM 00001F
_SendSymbolToLCD$1518                       cstackCOMRAM 000021
_SetTimeSource                              text35       0082AC
_Settings                                   text19       0061E0
_ShowMenu                                   text60       00564A
_ShowSchedulerMenu                          text10       00639C
_SignalsForInd                              bssBANK2     0002FD
_SignalsOnOff                               text102      004E36
_SignalsOnOff$1733                          cstackBANK0  00008C
_SignalsOut                                 bssCOMRAM    000056
_StandardAnswer_BUSY                        mediumconst  00FC9A
_StandardAnswer_CLOCK                       mediumconst  00FC3B
_StandardAnswer_DTMF                        mediumconst  00FC8C
_StandardAnswer_ERROR                       mediumconst  00FC94
_StandardAnswer_INCCALL                     mediumconst  00FC17
_StandardAnswer_NORMAL_POWER_DOWN           mediumconst  00FC59
_StandardAnswer_NO_ANSWER                   mediumconst  00FC82
_StandardAnswer_NO_CARRIER                  mediumconst  00FC77
_StandardAnswer_NO_DIALTONE                 mediumconst  00FC6B
_StandardAnswer_OK                          mediumconst  00FC9F
_T0IF                                       (abs)        007F92
_T1CONbits                                  (abs)        000FCD
_T2CON                                      (abs)        000FCA
_T2CONbits                                  (abs)        000FCA
_TMR1                                       (abs)        000FCE
_TMR1IF                                     (abs)        007CF0
_TMR2                                       (abs)        000FCC
_TMR2IF                                     (abs)        007CF1
_TRISA                                      (abs)        000F92
_TRISB                                      (abs)        000F93
_TRISC                                      (abs)        000F94
_TRISCbits                                  (abs)        000F94
_TXREG                                      (abs)        000FAD
_TXSTAbits                                  (abs)        000FAC
_TelephoneCall                              text58       006D66
_TimeData_BlinkOFF                          text34       0081AE
_TimeData_INIT                              text33       005DB8
_TimeEdit                                   text21       0012A6
_TimeEdit$3115                              cstackBANK2  000210
_TimeToInd                                  text8        002930
_TimeToInd$1276                             cstackBANK2  0002AF
_TimeToInd$1277                             cstackBANK2  0002B1
_USART_Speed_Choise                         text20       0083E8
_UserDelay                                  text43       008022
_WorkingWithGSM                             text7        005FEE
_WriteArrayToEEPROM                         text57       00809A
_WriteDataOfCell                            text15       007BE6
_WritePhonebookCellToEEPROM                 text56       0076C2
_WriteTime                                  text23       00534C
__CFG_BOREN$SBORDIS                         (abs)        000000
__CFG_BORV$3                                (abs)        000000
__CFG_CCP2MX$PORTC                          (abs)        000000
__CFG_CP0$OFF                               (abs)        000000
__CFG_CP1$OFF                               (abs)        000000
__CFG_CP2$OFF                               (abs)        000000
__CFG_CP3$OFF                               (abs)        000000
__CFG_CPB$OFF                               (abs)        000000
__CFG_CPD$OFF                               (abs)        000000
__CFG_EBTR0$OFF                             (abs)        000000
__CFG_EBTR1$OFF                             (abs)        000000
__CFG_EBTR2$OFF                             (abs)        000000
__CFG_EBTR3$OFF                             (abs)        000000
__CFG_EBTRB$OFF                             (abs)        000000
__CFG_FCMEN$OFF                             (abs)        000000
__CFG_IESO$ON                               (abs)        000000
__CFG_LPT1OSC$ON                            (abs)        000000
__CFG_LVP$OFF                               (abs)        000000
__CFG_MCLRE$OFF                             (abs)        000000
__CFG_OSC$HSPLL                             (abs)        000000
__CFG_PBADEN$OFF                            (abs)        000000
__CFG_PWRT$ON                               (abs)        000000
__CFG_STVREN$ON                             (abs)        000000
__CFG_WDT$OFF                               (abs)        000000
__CFG_WDTPS$32768                           (abs)        000000
__CFG_WRT0$OFF                              (abs)        000000
__CFG_WRT1$OFF                              (abs)        000000
__CFG_WRT2$OFF                              (abs)        000000
__CFG_WRT3$OFF                              (abs)        000000
__CFG_WRTB$OFF                              (abs)        000000
__CFG_WRTC$OFF                              (abs)        000000
__CFG_WRTD$OFF                              (abs)        000000
__CFG_XINST$OFF                             (abs)        000000
__CleanStringArray_interrupt                text152      00853E
__CleanStringArray_interrupt@i              cstackCOMRAM 000006
__CleanStringArray_interrupt@myArray        cstackCOMRAM 000001
__CleanStringArray_interrupt@settingData    cstackCOMRAM 000005
__CleanStringArray_interrupt@size           cstackCOMRAM 000003
__FindIncommingData_interrupt               text137      0058EC
__FindIncommingData_interrupt@a             cstackCOMRAM 000035
__FindIncommingData_interrupt@container     cstackCOMRAM 000027
__FindIncommingData_interrupt@end_of_regexp cstackCOMRAM 000037
__FindIncommingData_interrupt@finish_index  cstackCOMRAM 000031
__FindIncommingData_interrupt@history_index cstackCOMRAM 000029
__FindIncommingData_interrupt@i             cstackCOMRAM 00003B
__FindIncommingData_interrupt@j             cstackCOMRAM 000041
__FindIncommingData_interrupt@last_s        cstackCOMRAM 00003F
__FindIncommingData_interrupt@not_found     cstackCOMRAM 000033
__FindIncommingData_interrupt@pointer       cstackCOMRAM 00003D
__FindIncommingData_interrupt@regexp        cstackCOMRAM 000025
__FindIncommingData_interrupt@s0            cstackCOMRAM 000039
__FindIncommingData_interrupt@s1            cstackCOMRAM 00002D
__FindIncommingData_interrupt@start_index   cstackCOMRAM 00002F
__GetStringLength_interr                    text139      008518
__GetStringLength_interr@container          cstackCOMRAM 00001C
__GetStringLength_interr@i                  cstackCOMRAM 00001E
__HRAM                                      (abs)        000000
__Habs1                                     abs1         000000
__Hbank0                                    bank0        000000
__Hbank1                                    bank1        000000
__Hbank10                                   bank10       000000
__Hbank11                                   bank11       000000
__Hbank12                                   bank12       000000
__Hbank13                                   bank13       000000
__Hbank14                                   bank14       000000
__Hbank15                                   bank15       000000
__Hbank2                                    bank2        000000
__Hbank3                                    bank3        000000
__Hbank4                                    bank4        000000
__Hbank5                                    bank5        000000
__Hbank6                                    bank6        000000
__Hbank7                                    bank7        000000
__Hbank8                                    bank8        000000
__Hbank9                                    bank9        000000
__Hbigbss                                   bigbss       000000
__Hbigdata                                  bigdata      000000
__Hbigram                                   bigram       000000
__Hbss                                      bss          000000
__HbssBANK0                                 bssBANK0     000000
__HbssBANK2                                 bssBANK2     000000
__HbssBANK3                                 bssBANK3     000000
__HbssBANK4                                 bssBANK4     000000
__HbssBANK5                                 bssBANK5     000000
__HbssBANK6                                 bssBANK6     000000
__HbssBANK7                                 bssBANK7     000000
__HbssBANK8                                 bssBANK8     000000
__HbssBANK9                                 bssBANK9     000000
__HbssBIGRAM                                bssBIGRAM    000000
__HbssCOMRAM                                bssCOMRAM    000000
__Hcinit                                    cinit        000000
__Hclrtext                                  clrtext      000000
__Hcomram                                   comram       000000
__Hconfig                                   config       30000E
__Hconst                                    const        000000
__HcstackBANK0                              cstackBANK0  000000
__HcstackBANK1                              cstackBANK1  000000
__HcstackBANK10                             cstackBANK10 000000
__HcstackBANK2                              cstackBANK2  000000
__HcstackBANK3                              cstackBANK3  000000
__HcstackBANK4                              cstackBANK4  000000
__HcstackCOMRAM                             cstackCOMRAM 000000
__Hdata                                     data         000000
__HdataBANK0                                dataBANK0    000000
__HdataBANK2                                dataBANK2    000000
__HdataBANK3                                dataBANK3    000000
__HdataBANK4                                dataBANK4    000000
__HdataBANK5                                dataBANK5    000000
__HdataCOMRAM                               dataCOMRAM   000000
__Heeprom_data                              eeprom_data  000000
__Hend_init                                 end_init     000388
__Hfarbss                                   farbss       000000
__Hfardata                                  fardata      000000
__Hibigdata                                 ibigdata     000000
__Hidata                                    idata        000000
__HidataBANK0                               idataBANK0   000000
__HidataBANK2                               idataBANK2   000000
__HidataBANK3                               idataBANK3   000000
__HidataBANK4                               idataBANK4   000000
__HidataBANK5                               idataBANK5   000000
__HidataCOMRAM                              idataCOMRAM  000000
__Hidloc                                    idloc        000000
__Hifardata                                 ifardata     000000
__Hinit                                     init         000384
__Hintcode                                  intcode      000016
__Hintcode_body                             intcode_body 000000
__Hintcodelo                                intcodelo    000384
__Hintentry                                 intentry     000000
__Hintret                                   intret       000000
__Hintsave_regs                             intsave_regs 000000
__Hirdata                                   irdata       000000
__Hmediumconst                              mediumconst  010000
__HnvFARRAM                                 nvFARRAM     000000
__Hnvbit                                    nvbit        000000
__Hnvrram                                   nvrram       000000
__Hpa_nodes                                 pa_nodes     000000
__Hparam                                    rparam       000000
__Hpowerup                                  powerup      000384
__Hram                                      ram          000000
__Hramtop                                   ramtop       001000
__Hrbit                                     rbit         000000
__Hrbss                                     rbss         000000
__Hrdata                                    rdata        000000
__Hreset_vec                                reset_vec    000004
__Hrparam                                   rparam       000000
__Hsfr                                      sfr          000000
__Hsmallconst                               smallconst   000000
__Hspace_0                                  (abs)        30000E
__Hspace_1                                  (abs)        000C6A
__Hspace_2                                  (abs)        000000
__Hstack                                    stack        000000
__Hstruct                                   struct       000000
__Htemp                                     temp         000060
__Htext                                     text         000000
__Htext0                                    text0        000000
__Htext1                                    text1        000000
__Htext10                                   text10       000000
__Htext100                                  text100      000000
__Htext101                                  text101      000000
__Htext102                                  text102      000000
__Htext103                                  text103      000000
__Htext104                                  text104      000000
__Htext105                                  text105      000000
__Htext106                                  text106      000000
__Htext107                                  text107      000000
__Htext108                                  text108      000000
__Htext109                                  text109      000000
__Htext11                                   text11       000000
__Htext110                                  text110      000000
__Htext111                                  text111      000000
__Htext112                                  text112      000000
__Htext113                                  text113      000000
__Htext114                                  text114      000000
__Htext115                                  text115      000000
__Htext116                                  text116      000000
__Htext117                                  text117      000000
__Htext118                                  text118      000000
__Htext119                                  text119      000000
__Htext12                                   text12       000000
__Htext120                                  text120      000000
__Htext121                                  text121      000000
__Htext122                                  text122      000000
__Htext123                                  text123      000000
__Htext124                                  text124      000000
__Htext125                                  text125      000000
__Htext126                                  text126      000000
__Htext127                                  text127      000000
__Htext128                                  text128      000000
__Htext129                                  text129      000000
__Htext13                                   text13       000000
__Htext130                                  text130      000000
__Htext131                                  text131      000000
__Htext132                                  text132      000000
__Htext133                                  text133      000000
__Htext134                                  text134      000000
__Htext135                                  text135      000000
__Htext136                                  text136      000000
__Htext137                                  text137      000000
__Htext138                                  text138      000000
__Htext139                                  text139      000000
__Htext14                                   text14       000000
__Htext140                                  text140      000000
__Htext141                                  text141      000000
__Htext142                                  text142      000000
__Htext143                                  text143      000000
__Htext144                                  text144      000000
__Htext145                                  text145      000000
__Htext146                                  text146      000000
__Htext147                                  text147      000000
__Htext148                                  text148      000000
__Htext15                                   text15       000000
__Htext150                                  text150      000000
__Htext151                                  text151      000000
__Htext152                                  text152      000000
__Htext16                                   text16       000000
__Htext17                                   text17       000000
__Htext18                                   text18       000000
__Htext19                                   text19       000000
__Htext2                                    text2        000000
__Htext20                                   text20       000000
__Htext21                                   text21       000000
__Htext22                                   text22       000000
__Htext23                                   text23       000000
__Htext24                                   text24       000000
__Htext25                                   text25       000000
__Htext26                                   text26       000000
__Htext27                                   text27       000000
__Htext28                                   text28       000000
__Htext29                                   text29       000000
__Htext3                                    text3        000000
__Htext30                                   text30       000000
__Htext31                                   text31       000000
__Htext32                                   text32       000000
__Htext33                                   text33       000000
__Htext34                                   text34       000000
__Htext35                                   text35       000000
__Htext36                                   text36       000000
__Htext37                                   text37       000000
__Htext38                                   text38       000000
__Htext39                                   text39       000000
__Htext4                                    text4        000000
__Htext40                                   text40       000000
__Htext41                                   text41       000000
__Htext42                                   text42       000000
__Htext43                                   text43       000000
__Htext44                                   text44       000000
__Htext45                                   text45       000000
__Htext46                                   text46       000000
__Htext47                                   text47       000000
__Htext48                                   text48       000000
__Htext49                                   text49       000000
__Htext5                                    text5        000000
__Htext50                                   text50       000000
__Htext51                                   text51       000000
__Htext52                                   text52       000000
__Htext53                                   text53       000000
__Htext54                                   text54       000000
__Htext55                                   text55       000000
__Htext56                                   text56       000000
__Htext57                                   text57       000000
__Htext58                                   text58       000000
__Htext59                                   text59       000000
__Htext6                                    text6        000000
__Htext60                                   text60       000000
__Htext61                                   text61       000000
__Htext62                                   text62       000000
__Htext63                                   text63       000000
__Htext64                                   text64       000000
__Htext65                                   text65       000000
__Htext66                                   text66       000000
__Htext67                                   text67       000000
__Htext68                                   text68       000000
__Htext69                                   text69       000000
__Htext7                                    text7        000000
__Htext70                                   text70       000000
__Htext71                                   text71       000000
__Htext72                                   text72       000000
__Htext73                                   text73       000000
__Htext74                                   text74       000000
__Htext75                                   text75       000000
__Htext76                                   text76       000000
__Htext77                                   text77       000000
__Htext78                                   text78       000000
__Htext79                                   text79       000000
__Htext8                                    text8        000000
__Htext80                                   text80       000000
__Htext81                                   text81       000000
__Htext82                                   text82       000000
__Htext83                                   text83       000000
__Htext84                                   text84       000000
__Htext85                                   text85       000000
__Htext86                                   text86       000000
__Htext87                                   text87       000000
__Htext88                                   text88       000000
__Htext89                                   text89       000000
__Htext9                                    text9        000000
__Htext90                                   text90       000000
__Htext91                                   text91       000000
__Htext92                                   text92       000000
__Htext93                                   text93       000000
__Htext94                                   text94       000000
__Htext95                                   text95       000000
__Htext96                                   text96       000000
__Htext98                                   text98       000000
__Htext99                                   text99       000000
__LRAM                                      (abs)        000001
__Labs1                                     abs1         000000
__Lbank0                                    bank0        000000
__Lbank1                                    bank1        000000
__Lbank10                                   bank10       000000
__Lbank11                                   bank11       000000
__Lbank12                                   bank12       000000
__Lbank13                                   bank13       000000
__Lbank14                                   bank14       000000
__Lbank15                                   bank15       000000
__Lbank2                                    bank2        000000
__Lbank3                                    bank3        000000
__Lbank4                                    bank4        000000
__Lbank5                                    bank5        000000
__Lbank6                                    bank6        000000
__Lbank7                                    bank7        000000
__Lbank8                                    bank8        000000
__Lbank9                                    bank9        000000
__Lbigbss                                   bigbss       000000
__Lbigdata                                  bigdata      000000
__Lbigram                                   bigram       000000
__Lbss                                      bss          000000
__LbssBANK0                                 bssBANK0     000000
__LbssBANK2                                 bssBANK2     000000
__LbssBANK3                                 bssBANK3     000000
__LbssBANK4                                 bssBANK4     000000
__LbssBANK5                                 bssBANK5     000000
__LbssBANK6                                 bssBANK6     000000
__LbssBANK7                                 bssBANK7     000000
__LbssBANK8                                 bssBANK8     000000
__LbssBANK9                                 bssBANK9     000000
__LbssBIGRAM                                bssBIGRAM    000000
__LbssCOMRAM                                bssCOMRAM    000000
__Lcinit                                    cinit        000000
__Lclrtext                                  clrtext      000000
__Lcomram                                   comram       000000
__Lconfig                                   config       300000
__Lconst                                    const        000000
__LcstackBANK0                              cstackBANK0  000000
__LcstackBANK1                              cstackBANK1  000000
__LcstackBANK10                             cstackBANK10 000000
__LcstackBANK2                              cstackBANK2  000000
__LcstackBANK3                              cstackBANK3  000000
__LcstackBANK4                              cstackBANK4  000000
__LcstackCOMRAM                             cstackCOMRAM 000000
__Ldata                                     data         000000
__LdataBANK0                                dataBANK0    000000
__LdataBANK2                                dataBANK2    000000
__LdataBANK3                                dataBANK3    000000
__LdataBANK4                                dataBANK4    000000
__LdataBANK5                                dataBANK5    000000
__LdataCOMRAM                               dataCOMRAM   000000
__Leeprom_data                              eeprom_data  000000
__Lend_init                                 end_init     000384
__Lfarbss                                   farbss       000000
__Lfardata                                  fardata      000000
__Libigdata                                 ibigdata     000000
__Lidata                                    idata        000000
__LidataBANK0                               idataBANK0   000000
__LidataBANK2                               idataBANK2   000000
__LidataBANK3                               idataBANK3   000000
__LidataBANK4                               idataBANK4   000000
__LidataBANK5                               idataBANK5   000000
__LidataCOMRAM                              idataCOMRAM  000000
__Lidloc                                    idloc        000000
__Lifardata                                 ifardata     000000
__Linit                                     init         000384
__Lintcode                                  intcode      000008
__Lintcode_body                             intcode_body 000000
__Lintcodelo                                intcodelo    000018
__Lintentry                                 intentry     000000
__Lintret                                   intret       000000
__Lintsave_regs                             intsave_regs 000000
__Lirdata                                   irdata       000000
__Lmediumconst                              mediumconst  00FBF6
__LnvFARRAM                                 nvFARRAM     000000
__Lnvbit                                    nvbit        000000
__Lnvrram                                   nvrram       000000
__Lpa_nodes                                 pa_nodes     000000
__Lparam                                    rparam       000000
__Lpowerup                                  powerup      000384
__Lram                                      ram          000000
__Lramtop                                   ramtop       001000
__Lrbit                                     rbit         000000
__Lrbss                                     rbss         000000
__Lrdata                                    rdata        000000
__Lreset_vec                                reset_vec    000000
__Lrparam                                   rparam       000000
__Lsfr                                      sfr          000000
__Lsmallconst                               smallconst   000000
__Lspace_0                                  (abs)        000000
__Lspace_1                                  (abs)        000000
__Lspace_2                                  (abs)        000000
__Lstack                                    stack        000000
__Lstruct                                   struct       000000
__Ltemp                                     temp         00005F
__Ltext                                     text         000000
__Ltext0                                    text0        000000
__Ltext1                                    text1        000000
__Ltext10                                   text10       000000
__Ltext100                                  text100      000000
__Ltext101                                  text101      000000
__Ltext102                                  text102      000000
__Ltext103                                  text103      000000
__Ltext104                                  text104      000000
__Ltext105                                  text105      000000
__Ltext106                                  text106      000000
__Ltext107                                  text107      000000
__Ltext108                                  text108      000000
__Ltext109                                  text109      000000
__Ltext11                                   text11       000000
__Ltext110                                  text110      000000
__Ltext111                                  text111      000000
__Ltext112                                  text112      000000
__Ltext113                                  text113      000000
__Ltext114                                  text114      000000
__Ltext115                                  text115      000000
__Ltext116                                  text116      000000
__Ltext117                                  text117      000000
__Ltext118                                  text118      000000
__Ltext119                                  text119      000000
__Ltext12                                   text12       000000
__Ltext120                                  text120      000000
__Ltext121                                  text121      000000
__Ltext122                                  text122      000000
__Ltext123                                  text123      000000
__Ltext124                                  text124      000000
__Ltext125                                  text125      000000
__Ltext126                                  text126      000000
__Ltext127                                  text127      000000
__Ltext128                                  text128      000000
__Ltext129                                  text129      000000
__Ltext13                                   text13       000000
__Ltext130                                  text130      000000
__Ltext131                                  text131      000000
__Ltext132                                  text132      000000
__Ltext133                                  text133      000000
__Ltext134                                  text134      000000
__Ltext135                                  text135      000000
__Ltext136                                  text136      000000
__Ltext137                                  text137      000000
__Ltext138                                  text138      000000
__Ltext139                                  text139      000000
__Ltext14                                   text14       000000
__Ltext140                                  text140      000000
__Ltext141                                  text141      000000
__Ltext142                                  text142      000000
__Ltext143                                  text143      000000
__Ltext144                                  text144      000000
__Ltext145                                  text145      000000
__Ltext146                                  text146      000000
__Ltext147                                  text147      000000
__Ltext148                                  text148      000000
__Ltext15                                   text15       000000
__Ltext150                                  text150      000000
__Ltext151                                  text151      000000
__Ltext152                                  text152      000000
__Ltext16                                   text16       000000
__Ltext17                                   text17       000000
__Ltext18                                   text18       000000
__Ltext19                                   text19       000000
__Ltext2                                    text2        000000
__Ltext20                                   text20       000000
__Ltext21                                   text21       000000
__Ltext22                                   text22       000000
__Ltext23                                   text23       000000
__Ltext24                                   text24       000000
__Ltext25                                   text25       000000
__Ltext26                                   text26       000000
__Ltext27                                   text27       000000
__Ltext28                                   text28       000000
__Ltext29                                   text29       000000
__Ltext3                                    text3        000000
__Ltext30                                   text30       000000
__Ltext31                                   text31       000000
__Ltext32                                   text32       000000
__Ltext33                                   text33       000000
__Ltext34                                   text34       000000
__Ltext35                                   text35       000000
__Ltext36                                   text36       000000
__Ltext37                                   text37       000000
__Ltext38                                   text38       000000
__Ltext39                                   text39       000000
__Ltext4                                    text4        000000
__Ltext40                                   text40       000000
__Ltext41                                   text41       000000
__Ltext42                                   text42       000000
__Ltext43                                   text43       000000
__Ltext44                                   text44       000000
__Ltext45                                   text45       000000
__Ltext46                                   text46       000000
__Ltext47                                   text47       000000
__Ltext48                                   text48       000000
__Ltext49                                   text49       000000
__Ltext5                                    text5        000000
__Ltext50                                   text50       000000
__Ltext51                                   text51       000000
__Ltext52                                   text52       000000
__Ltext53                                   text53       000000
__Ltext54                                   text54       000000
__Ltext55                                   text55       000000
__Ltext56                                   text56       000000
__Ltext57                                   text57       000000
__Ltext58                                   text58       000000
__Ltext59                                   text59       000000
__Ltext6                                    text6        000000
__Ltext60                                   text60       000000
__Ltext61                                   text61       000000
__Ltext62                                   text62       000000
__Ltext63                                   text63       000000
__Ltext64                                   text64       000000
__Ltext65                                   text65       000000
__Ltext66                                   text66       000000
__Ltext67                                   text67       000000
__Ltext68                                   text68       000000
__Ltext69                                   text69       000000
__Ltext7                                    text7        000000
__Ltext70                                   text70       000000
__Ltext71                                   text71       000000
__Ltext72                                   text72       000000
__Ltext73                                   text73       000000
__Ltext74                                   text74       000000
__Ltext75                                   text75       000000
__Ltext76                                   text76       000000
__Ltext77                                   text77       000000
__Ltext78                                   text78       000000
__Ltext79                                   text79       000000
__Ltext8                                    text8        000000
__Ltext80                                   text80       000000
__Ltext81                                   text81       000000
__Ltext82                                   text82       000000
__Ltext83                                   text83       000000
__Ltext84                                   text84       000000
__Ltext85                                   text85       000000
__Ltext86                                   text86       000000
__Ltext87                                   text87       000000
__Ltext88                                   text88       000000
__Ltext89                                   text89       000000
__Ltext9                                    text9        000000
__Ltext90                                   text90       000000
__Ltext91                                   text91       000000
__Ltext92                                   text92       000000
__Ltext93                                   text93       000000
__Ltext94                                   text94       000000
__Ltext95                                   text95       000000
__Ltext96                                   text96       000000
__Ltext98                                   text98       000000
__Ltext99                                   text99       000000
__S0                                        (abs)        30000E
__S1                                        (abs)        000C6A
__S2                                        (abs)        000000
___aldiv                                    text86       0066BC
___aldiv@counter                            cstackBANK1  000143
___aldiv@dividend                           cstackBANK1  00013B
___aldiv@divisor                            cstackBANK1  00013F
___aldiv@quotient                           cstackBANK1  000145
___aldiv@sign                               cstackBANK1  000144
___almod                                    text85       006CCC
___almod@counter                            cstackBANK1  000143
___almod@dividend                           cstackBANK1  00013B
___almod@divisor                            cstackBANK1  00013F
___almod@sign                               cstackBANK1  000144
___awdiv                                    text40       007394
___awdiv@counter                            cstackBANK1  000145
___awdiv@dividend                           cstackBANK1  000141
___awdiv@divisor                            cstackBANK1  000143
___awdiv@quotient                           cstackBANK1  000147
___awdiv@sign                               cstackBANK1  000146
___awmod                                    text39       00765A
___awmod@counter                            cstackBANK1  00014D
___awmod@dividend                           cstackBANK1  000149
___awmod@divisor                            cstackBANK1  00014B
___awmod@sign                               cstackBANK1  00014E
___inthi_sp                                 stack        000000
___intlo_sp                                 stack        000000
___lbdiv                                    text32       00810C
___lbdiv@counter                            cstackBANK1  00013D
___lbdiv@dividend                           cstackBANK1  00013C
___lbdiv@divisor                            cstackBANK1  00013B
___lbdiv@quotient                           cstackBANK1  00013E
___lbmod                                    text31       0083C0
___lbmod@counter                            cstackBANK1  00013D
___lbmod@dividend                           cstackBANK1  00013C
___lbmod@divisor                            cstackBANK1  00013B
___lbmod@rem                                cstackBANK1  00013E
___lldiv                                    text25       00731C
___lldiv@counter                            cstackBANK1  000147
___lldiv@dividend                           cstackBANK1  00013B
___lldiv@divisor                            cstackBANK1  00013F
___lldiv@quotient                           cstackBANK1  000143
___llmod                                    text24       0079FC
___llmod@counter                            cstackBANK1  000143
___llmod@dividend                           cstackBANK1  00013B
___llmod@divisor                            cstackBANK1  00013F
___lmul                                     text89       007D36
___lmul@multiplicand                        cstackBANK1  00013F
___lmul@multiplier                          cstackBANK1  00013B
___lmul@product                             cstackBANK1  000143
___lwdiv                                    text82       007DCE
___lwdiv@counter                            cstackBANK1  00013F
___lwdiv@dividend                           cstackBANK1  00013B
___lwdiv@divisor                            cstackBANK1  00013D
___lwdiv@quotient                           cstackBANK1  000140
___lwmod                                    text81       007F68
___lwmod@counter                            cstackBANK1  00013F
___lwmod@dividend                           cstackBANK1  00013B
___lwmod@divisor                            cstackBANK1  00013D
___param_bank                               (abs)        000010
___rparam_used                              (abs)        000001
___sp                                       stack        000000
___wmul                                     text38       00840E
___wmul@multiplicand                        cstackBANK1  00013D
___wmul@multiplier                          cstackBANK1  00013B
___wmul@product                             cstackBANK1  00013F
__accesstop                                 (abs)        000080
__activetblptr                              (abs)        000002
__end_ofPL10                                text21       0018B6
__end_ofPL100                               text78       003806
__end_ofPL102                               text56       00772A
__end_ofPL104                               text143      0078CA
__end_ofPL106                               text21       001930
__end_ofPL108                               text77       007792
__end_ofPL110                               text74       006C2A
__end_ofPL112                               text14       0028B6
__end_ofPL114                               text61       002188
__end_ofPL116                               text33       005EBC
__end_ofPL118                               text33       005ECE
__end_ofPL12                                text14       00285E
__end_ofPL120                               text21       00193C
__end_ofPL122                               text74       006C32
__end_ofPL124                               text60       005760
__end_ofPL126                               text72       007930
__end_ofPL128                               text21       00195A
__end_ofPL130                               text21       00196C
__end_ofPL132                               text66       00701E
__end_ofPL134                               text128      005DB8
__end_ofPL136                               text21       00197E
__end_ofPL138                               text1        004850
__end_ofPL14                                text128      005D7E
__end_ofPL140                               text21       001990
__end_ofPL142                               text23       0054C4
__end_ofPL144                               text75       005C8C
__end_ofPL146                               text55       003C10
__end_ofPL148                               text36       004E1C
__end_ofPL150                               text14       0028C4
__end_ofPL152                               text21       00199A
__end_ofPL154                               text21       0019A2
__end_ofPL156                               text46       0045C4
__end_ofPL158                               text60       00577C
__end_ofPL16                                text14       002868
__end_ofPL160                               text14       0028D2
__end_ofPL162                               text60       005788
__end_ofPL164                               text52       0066AC
__end_ofPL166                               text133      00810C
__end_ofPL168                               text0        004C40
__end_ofPL170                               text21       0019B0
__end_ofPL172                               text8        002EC2
__end_ofPL174                               text61       0021A0
__end_ofPL176                               text94       00868A
__end_ofPL178                               text121      0033AE
__end_ofPL18                                text8        002E62
__end_ofPL180                               text92       007208
__end_ofPL182                               text0        004C4A
__end_ofPL184                               text55       003C26
__end_ofPL186                               text83       005FD2
__end_ofPL188                               text55       003C32
__end_ofPL190                               text0        004C52
__end_ofPL192                               text46       0045CE
__end_ofPL194                               text0        004C5A
__end_ofPL196                               text14       0028E4
__end_ofPL198                               text46       0045DA
__end_ofPL2                                 text67       007BC8
__end_ofPL20                                text14       002870
__end_ofPL200                               text8        002ECC
__end_ofPL202                               text21       0019BE
__end_ofPL204                               text21       0019CC
__end_ofPL206                               text83       005FDA
__end_ofPL208                               text12       00519A
__end_ofPL210                               text14       0028EC
__end_ofPL212                               text61       0021A8
__end_ofPL214                               text21       0019D4
__end_ofPL216                               text21       0019DC
__end_ofPL218                               text83       005FEE
__end_ofPL22                                text33       005E70
__end_ofPL220                               text121      0033B6
__end_ofPL222                               text58       006DDE
__end_ofPL224                               text14       002900
__end_ofPL226                               text36       004E24
__end_ofPL228                               text46       0045E4
__end_ofPL230                               text121      0033BE
__end_ofPL232                               text11       006A52
__end_ofPL234                               text29       008774
__end_ofPL236                               text21       0019EE
__end_ofPL238                               text121      0033D0
__end_ofPL24                                text33       005E82
__end_ofPL240                               text9        006AF8
__end_ofPL242                               text85       006D66
__end_ofPL244                               text92       007214
__end_ofPL246                               text61       0021B0
__end_ofPL248                               text21       0019FA
__end_ofPL250                               text102      005000
__end_ofPL252                               text21       001A06
__end_ofPL254                               text65       004A2C
__end_ofPL256                               text61       0021C0
__end_ofPL258                               text150      007B28
__end_ofPL26                                text21       0018C6
__end_ofPL260                               text0        004C60
__end_ofPL262                               text14       002910
__end_ofPL264                               text52       0066BC
__end_ofPL266                               text21       001A12
__end_ofPL268                               text42       005B6A
__end_ofPL270                               text21       001A1C
__end_ofPL272                               text21       001A28
__end_ofPL274                               text55       003C42
__end_ofPL276                               text21       001A32
__end_ofPL278                               text8        002ED4
__end_ofPL28                                text14       002882
__end_ofPL280                               text50       0058CA
__end_ofPL282                               text50       0058D8
__end_ofPL284                               text137      005A22
__end_ofPL286                               text21       001A3A
__end_ofPL288                               text14       00291E
__end_ofPL290                               text137      005A30
__end_ofPL292                               text78       003814
__end_ofPL294                               text108      007566
__end_ofPL296                               text61       0021CE
__end_ofPL298                               text108      007572
__end_ofPL30                                text121      00338C
__end_ofPL300                               text78       003822
__end_ofPL302                               text78       003830
__end_ofPL304                               text61       0021DC
__end_ofPL306                               text78       00383E
__end_ofPL308                               text8        002EE2
__end_ofPL310                               text55       003C50
__end_ofPL312                               text58       006DEC
__end_ofPL314                               text7        0060F4
__end_ofPL316                               text8        002EF0
__end_ofPL318                               text21       001A42
__end_ofPL32                                text8        002E74
__end_ofPL320                               text92       007222
__end_ofPL322                               text48       006B96
__end_ofPL324                               text21       001A50
__end_ofPL326                               text65       004A36
__end_ofPL328                               text61       0021E6
__end_ofPL330                               text55       003C5A
__end_ofPL332                               text60       005792
__end_ofPL334                               text8        002EFA
__end_ofPL336                               text61       0021F0
__end_ofPL338                               text88       00534C
__end_ofPL34                                text8        002E86
__end_ofPL340                               text49       001068
__end_ofPL342                               text21       001A58
__end_ofPL344                               text78       003846
__end_ofPL346                               text121      0033DA
__end_ofPL348                               text46       0045F0
__end_ofPL350                               text34       0081E2
__end_ofPL352                               text65       004A42
__end_ofPL354                               text50       0058E4
__end_ofPL356                               text55       003C66
__end_ofPL358                               text78       003852
__end_ofPL36                                text23       0054B2
__end_ofPL360                               text146      0069A4
__end_ofPL362                               text21       001A60
__end_ofPL364                               text65       004A4E
__end_ofPL366                               text47       0071A4
__end_ofPL368                               text1        00485C
__end_ofPL370                               text65       004A5A
__end_ofPL372                               text55       003C72
__end_ofPL374                               text55       003C7E
__end_ofPL376                               text65       004A66
__end_ofPL378                               text8        002F06
__end_ofPL38                                text36       004DEE
__end_ofPL380                               text21       001A6C
__end_ofPL382                               text55       003C8A
__end_ofPL384                               text12       0051A6
__end_ofPL386                               text36       004E2E
__end_ofPL388                               text16       007EA6
__end_ofPL390                               text8        002F10
__end_ofPL392                               text75       005C94
__end_ofPL394                               text33       005ED8
__end_ofPL396                               text61       0021FA
__end_ofPL398                               text78       00385C
__end_ofPL4                                 text14       002856
__end_ofPL40                                text74       006C1C
__end_ofPL400                               text121      0033E4
__end_ofPL402                               text61       002204
__end_ofPL404                               text55       003C92
__end_ofPL406                               text78       003864
__end_ofPL408                               text61       00220E
__end_ofPL410                               text61       002216
__end_ofPL412                               text23       0054CE
__end_ofPL414                               text3        006538
__end_ofPL416                               text90       006F0E
__end_ofPL418                               text65       004A70
__end_ofPL42                                text21       0018D4
__end_ofPL420                               text60       00579C
__end_ofPL422                               text61       002220
__end_ofPL424                               text78       00386E
__end_ofPL426                               text71       00809A
__end_ofPL428                               text8        002F1A
__end_ofPL430                               text121      0033EE
__end_ofPL432                               text49       001070
__end_ofPL434                               text49       001078
__end_ofPL436                               text78       003878
__end_ofPL438                               text46       0045FA
__end_ofPL44                                text67       007BE6
__end_ofPL440                               text49       001080
__end_ofPL442                               text49       001088
__end_ofPL444                               text61       00222A
__end_ofPL446                               text49       001090
__end_ofPL448                               text49       001098
__end_ofPL450                               text49       0010A0
__end_ofPL452                               text14       002928
__end_ofPL454                               text23       0054D8
__end_ofPL456                               text49       0010A8
__end_ofPL458                               text49       0010B0
__end_ofPL46                                text8        002EA4
__end_ofPL460                               text49       0010B8
__end_ofPL462                               text6        008248
__end_ofPL464                               text49       0010C0
__end_ofPL466                               text49       0010C8
__end_ofPL468                               text49       0010D0
__end_ofPL470                               text49       0010D8
__end_ofPL472                               text21       001A74
__end_ofPL474                               text79       007CE8
__end_ofPL476                               text121      0033F8
__end_ofPL478                               text1        004866
__end_ofPL48                                text66       007006
__end_ofPL480                               text15       007C42
__end_ofPL482                               text58       006DF6
__end_ofPL484                               text125      007D36
__end_ofPL486                               text46       004602
__end_ofPL488                               text12       0051AE
__end_ofPL490                               text49       0010DE
__end_ofPL492                               text49       0010E4
__end_ofPL494                               text49       0010EA
__end_ofPL496                               text46       00460A
__end_ofPL498                               text14       002930
__end_ofPL50                                text78       0037E4
__end_ofPL500                               text121      0033FE
__end_ofPL502                               text78       003880
__end_ofPL504                               text50       0058EC
__end_ofPL506                               text35       0082DE
__end_ofPL508                               text49       0010F0
__end_ofPL510                               text49       0010F6
__end_ofPL512                               text18       0082AC
__end_ofPL514                               text49       0010FC
__end_ofPL516                               text49       001102
__end_ofPL518                               text49       001108
__end_ofPL52                                text78       0037F0
__end_ofPL520                               text49       00110E
__end_ofPL522                               text49       001114
__end_ofPL524                               text49       00111A
__end_ofPL526                               text49       001120
__end_ofPL528                               text49       001126
__end_ofPL530                               text49       00112C
__end_ofPL532                               text49       001132
__end_ofPL534                               text49       001138
__end_ofPL536                               text49       00113E
__end_ofPL538                               text49       001144
__end_ofPL54                                text33       005EB4
__end_ofPL540                               text49       00114A
__end_ofPL542                               text49       001150
__end_ofPL544                               text49       001156
__end_ofPL546                               text49       00115C
__end_ofPL548                               text49       001162
__end_ofPL550                               text49       001168
__end_ofPL552                               text49       00116E
__end_ofPL554                               text49       001174
__end_ofPL556                               text49       00117A
__end_ofPL558                               text49       001180
__end_ofPL56                                text73       006CCC
__end_ofPL560                               text49       001186
__end_ofPL562                               text49       00118C
__end_ofPL564                               text49       001192
__end_ofPL566                               text49       001198
__end_ofPL568                               text49       00119E
__end_ofPL570                               text49       0011A4
__end_ofPL572                               text49       0011AA
__end_ofPL574                               text49       0011B0
__end_ofPL576                               text49       0011B6
__end_ofPL578                               text49       0011BC
__end_ofPL58                                text8        002EAE
__end_ofPL580                               text49       0011C2
__end_ofPL582                               text49       0011C8
__end_ofPL584                               text49       0011CE
__end_ofPL586                               text49       0011D4
__end_ofPL588                               text49       0011DA
__end_ofPL590                               text49       0011E0
__end_ofPL592                               text49       0011E6
__end_ofPL594                               text49       0011EC
__end_ofPL596                               text49       0011F2
__end_ofPL598                               text49       0011F8
__end_ofPL6                                 text21       0018A6
__end_ofPL60                                text8        002EB8
__end_ofPL600                               text49       0011FE
__end_ofPL602                               text49       001204
__end_ofPL604                               text49       00120A
__end_ofPL606                               text49       001210
__end_ofPL608                               text49       001216
__end_ofPL610                               text49       00121C
__end_ofPL612                               text49       001222
__end_ofPL614                               text49       001228
__end_ofPL616                               text49       00122E
__end_ofPL618                               text49       001234
__end_ofPL62                                text21       0018F0
__end_ofPL620                               text49       00123A
__end_ofPL622                               text49       001240
__end_ofPL624                               text49       001246
__end_ofPL626                               text49       00124C
__end_ofPL628                               text49       001252
__end_ofPL630                               text49       001258
__end_ofPL632                               text49       00125E
__end_ofPL634                               text49       001264
__end_ofPL636                               text49       00126A
__end_ofPL638                               text36       004E36
__end_ofPL64                                text78       0037FC
__end_ofPL640                               text49       001270
__end_ofPL642                               text49       001276
__end_ofPL644                               text49       00127C
__end_ofPL646                               text49       001282
__end_ofPL648                               text49       001288
__end_ofPL650                               text49       00128E
__end_ofPL652                               text49       001294
__end_ofPL654                               text49       00129A
__end_ofPL656                               text49       0012A0
__end_ofPL658                               text49       0012A6
__end_ofPL66                                text14       002896
__end_ofPL660                               text78       003888
__end_ofPL68                                text42       005B62
__end_ofPL70                                text128      005D98
__end_ofPL72                                text75       005C6C
__end_ofPL74                                text21       0018FC
__end_ofPL76                                text21       001908
__end_ofPL78                                text0        004C30
__end_ofPL8                                 text61       002158
__end_ofPL80                                text66       00700E
__end_ofPL82                                text36       004DFE
__end_ofPL84                                text61       002166
__end_ofPL86                                text72       007928
__end_ofPL88                                text128      005DB0
__end_ofPL90                                text75       005C84
__end_ofPL92                                text36       004E0E
__end_ofPL94                                text21       00191A
__end_ofPL96                                text14       0028A8
__end_ofPL98                                text121      003396
__end_of_AddByteToUSARTbuff                 text151      0061E0
__end_of_BCD_to_DEC                         text119      00874E
__end_of_CalculateClockDelta                text146      006998
__end_of_CheckoutRegisterOfSymbol           text69       004344
__end_of_CleanStringArray                   text93       008480
__end_of_ConvKeyNum                         text148      007AC4
__end_of_ConvertCharToNumeric               text141      007EE8
__end_of_ConvertDayToBit                    text17       00827A
__end_of_DEC_to_BCD                         text30       008398
__end_of_DeleteDataOfCell                   text18       0082A4
__end_of_EERD                               text96       0084A6
__end_of_EEWR                               text76       008610
__end_of_EditSchedule                       text14       002846
__end_of_EncodePhoneNumberToPDU             text52       006692
__end_of_F_h                                intcode_body 00765A
__end_of_F_l                                intcodelo    000384
__end_of_FillArrayFromEEPROM                text91       008178
__end_of_FillArrayFromEEPROM_interr         text107      008216
__end_of_FillMinutes                        text94       008674
__end_of_FillPhonebookCellFromEEPROM        text77       00777C
__end_of_FindCell                           text13       00639C
__end_of_FindIncommingData                  text50       0058BC
__end_of_FindNextTimeStart                  text88       005342
__end_of_FindPhoneContactByNumber           text142      006834
__end_of_Format_EEPROM_Memory               text70       006E82
__end_of_GetDayOfWeek                       text87       00731C
__end_of_GetDayOfWeekByDate                 text37       006F96
__end_of_GetNumericFromString               text140      0087AA
__end_of_GetStringLength                    text51       00845A
__end_of_GetSystemInfo                      text78       0037D4
__end_of_GetTimeSource                      text95       008588
__end_of_GetUnicodeSymbol                   text49       001060
__end_of_I2CAck                             text118      0087F6
__end_of_I2CInit                            text29       008764
__end_of_I2CNak                             text117      0087EC
__end_of_I2CRead                            text116      00871E
__end_of_I2CRestart                         text115      008830
__end_of_I2CSend                            text28       00864E
__end_of_I2CStart                           text27       008810
__end_of_I2CStop                            text26       008808
__end_of_Init_GSM                           text42       005B4E
__end_of_Init_USART                         text45       007B88
__end_of_InputText                          text61       002148
__end_of_InteractiveData_BlinkOFF           text68       00833E
__end_of_ItemsToIndicator                   text16       007E9C
__end_of_NumericToHEXString                 text48       006B88
__end_of_NumericToString                    text83       005FBC
__end_of_OutputInteractiveData              text66       006FFE
__end_of_OutputString                       text73       006CB0
__end_of_OutputSystemMessage                text75       005C52
__end_of_ParseDataRecord                    text92       0071F0
__end_of_ParseTime                          text80       0077FA
__end_of_PhonebookEdit                      text55       003C02
__end_of_ProcessIncommingUartData           text121      00337E
__end_of_ProcessSystemMessageShowing        text120      0087E2
__end_of_ReIndTimeEdit                      text36       004DCC
__end_of_ReadDataOfCell                     text90       006F04
__end_of_ReadDataOfCell_interr              text106      007126
__end_of_ReadTime                           text110      0072A0
__end_of_Read_USART_SpeedNumber             text44       0087D6
__end_of_RefreshSchedulerIndicator          text12       00518C
__end_of_Save_USART_SpeedNumber             text41       008762
__end_of_Scheduler                          text9        006AE6
__end_of_SchedulerNew                       text11       006A40
__end_of_Select_OK_NO                       text71       008090
__end_of_SendCommandToUSART                 text59       0085F0
__end_of_SendSMS                            text46       0045B6
__end_of_SendSymbolToLCD                    text108      00755A
__end_of_SetTimeSource                      text35       0082D8
__end_of_Settings                           text19       0062C2
__end_of_ShowMenu                           text60       005742
__end_of_ShowSchedulerMenu                  text10       00646E
__end_of_SignalsOnOff                       text102      004FF4
__end_of_StandardAnswer_BUSY                mediumconst  00FC9F
__end_of_StandardAnswer_CLOCK               mediumconst  00FC59
__end_of_StandardAnswer_DTMF                mediumconst  00FC94
__end_of_StandardAnswer_ERROR               mediumconst  00FC9A
__end_of_StandardAnswer_INCCALL             mediumconst  00FC3B
__end_of_StandardAnswer_NORMAL_POWER_DOWN   mediumconst  00FC6B
__end_of_StandardAnswer_NO_ANSWER           mediumconst  00FC8C
__end_of_StandardAnswer_NO_CARRIER          mediumconst  00FC82
__end_of_StandardAnswer_NO_DIALTONE         mediumconst  00FC77
__end_of_StandardAnswer_OK                  mediumconst  00FCA2
__end_of_TelephoneCall                      text58       006DCA
__end_of_TimeData_BlinkOFF                  text34       0081D6
__end_of_TimeData_INIT                      text33       005E56
__end_of_TimeEdit                           text21       001892
__end_of_TimeToInd                          text8        002E40
__end_of_USART_Speed_Choise                 text20       00840E
__end_of_UserDelay                          text43       00805E
__end_of_WorkingWithGSM                     text7        0060E6
__end_of_WriteArrayToEEPROM                 text57       0080D4
__end_of_WriteDataOfCell                    text15       007C38
__end_of_WritePhonebookCellToEEPROM         text56       007714
__end_of_WriteTime                          text23       005490
__end_of__CleanStringArray_interrupt        text152      008564
__end_of__FindIncommingData_interrupt       text137      005A14
__end_of__GetStringLength_interr            text139      00853E
__end_of___aldiv                            text86       006778
__end_of___almod                            text85       006D54
__end_of___awdiv                            text40       00740C
__end_of___awmod                            text39       0076C2
__end_of___lbdiv                            text32       008142
__end_of___lbmod                            text31       0083E8
__end_of___lldiv                            text25       007394
__end_of___llmod                            text24       007A60
__end_of___lmul                             text89       007D82
__end_of___lwdiv                            text82       007E18
__end_of___lwmod                            text81       007FA6
__end_of___wmul                             text38       008434
__end_of__getContainer_Clock_from_GSM       text136      008702
__end_of__getContainer_Incomming_Call_Data  text135      0086E4
__end_of__getContainer_Incomming_DTMF_Data  text134      0086C6
__end_of__initialization                    cinit        00563C
__end_of__load_TXREG                        text150      007B18
__end_of__setInputTextProps                 text65       004A22
__end_of__setInputTextProps@F3555           mediumconst  00FC17
__end_of__setInputTextProps@F3557           mediumconst  00FC0D
__end_of_clrInd                             text72       007910
__end_of_cp1251_to_unicode                  text47       007198
__end_of_delay                              text109      0086A8
__end_of_entNum                             text22       00830E
__end_of_getLcdCodeOfChar                   text101      004070
__end_of_getNumChar                         text84       007996
__end_of_getSystemTimePoint                 text63       008786
__end_of_lcd_init                           text3        006530
__end_of_lcd_off                            text4        0087C8
__end_of_lcd_on                             text2        0087BA
__end_of_lcd_send_byte                      text5        0083C0
__end_of_lcd_send_initial_half_byte         text6        008240
__end_of_main                               text0        004C20
__end_of_main2                              text1        00483E
__end_of_setBlink                           text67       007BB2
__end_of_setDigit                           text74       006C04
__end_of_strcat                             text79       007CDE
__end_of_strcpy                             text54       007F68
__end_of_strlen                             text53       007F28
__end_of_system_BlinkReset                  text64       00866C
__end_of_testTimePoint                      text62       007484
__end_ofi1_CleanStringArray                 text138      008518
__end_ofi1_ConvertDayToBit                  text105      00836E
__end_ofi1_EERD                             text145      0085D0
__end_ofi1_EEWR                             text133      0080F2
__end_ofi1_FillArrayFromEEPROM              text144      0081AE
__end_ofi1_FillMinutes                      text100      008818
__end_ofi1_FillPhonebookCellFromEEPROM      text143      0078B4
__end_ofi1_GetDayOfWeekByDate               text129      0070A4
__end_ofi1_I2CInit                          text114      00883A
__end_ofi1_I2CSend                          text113      008738
__end_ofi1_I2CStart                         text112      008828
__end_ofi1_I2CStop                          text111      008820
__end_ofi1_OutputSystemMessage              text128      005D72
__end_ofi1_SendCommandToUSART               text127      008630
__end_ofi1___aldiv                          text147      0068F0
__end_ofi1___awdiv                          text132      0074FC
__end_ofi1___awmod                          text131      007862
__end_ofi1___lmul                           text126      007DCE
__end_ofi1___lwdiv                          text104      007E62
__end_ofi1___lwmod                          text103      007FE4
__end_ofi1___wmul                           text130      0084F2
__end_ofi1_getSystemTimePoint               text123      008798
__end_ofi1_lcd_send_byte                    text98       0085AC
__end_ofi1_lcd_send_initial_half_byte       text99       0084CC
__end_ofi1_strcat                           text125      007D2C
__end_ofi1_strcpy                           text124      008022
__end_ofi1_testTimePoint                    text122      0075E8
__getContainer_Clock_from_GSM               text136      0086E4
__getContainer_Incomming_Call_Data          text135      0086C6
__getContainer_Incomming_DTMF_Data          text134      0086A8
__initialization                            cinit        0054D8
__load_TXREG                                text150      007AC4
__mediumconst                               mediumconst  00FBF6
__pbssBANK0                                 bssBANK0     0000DA
__pbssBANK2                                 bssBANK2     0002F9
__pbssBANK3                                 bssBANK3     0003F3
__pbssBANK4                                 bssBANK4     0004C2
__pbssBANK5                                 bssBANK5     000500
__pbssBANK6                                 bssBANK6     000600
__pbssBANK7                                 bssBANK7     000700
__pbssBANK8                                 bssBANK8     000800
__pbssBANK9                                 bssBANK9     000900
__pbssBIGRAM                                bssBIGRAM    000A6A
__pbssCOMRAM                                bssCOMRAM    000043
__pcinit                                    cinit        0054D8
__pcstackBANK0                              cstackBANK0  000080
__pcstackBANK1                              cstackBANK1  000100
__pcstackBANK10                             cstackBANK10 000A00
__pcstackBANK2                              cstackBANK2  000200
__pcstackBANK3                              cstackBANK3  000300
__pcstackBANK4                              cstackBANK4  0004F6
__pcstackCOMRAM                             cstackCOMRAM 000001
__pdataBANK0                                dataBANK0    0000ED
__pdataBANK2                                dataBANK2    0002FE
__pdataBANK3                                dataBANK3    00038E
__pdataBANK4                                dataBANK4    000400
__pdataBANK5                                dataBANK5    0005A4
__pdataCOMRAM                               dataCOMRAM   000059
__pidataBANK0                               idataBANK0   0087F6
__pidataBANK2                               idataBANK2   00883A
__pidataBANK3                               idataBANK3   007996
__pidataBANK4                               idataBANK4   006538
__pidataBANK5                               idataBANK5   007C42
__pidataCOMRAM                              idataCOMRAM  008830
__pintcode                                  intcode      000008
__pintcode_body                             intcode_body 0075E8
__pintcodelo                                intcodelo    000018
__pmediumconst                              mediumconst  00FBF6
__ptext0                                    text0        004A70
__ptext1                                    text1        00460A
__ptext10                                   text10       00639C
__ptext100                                  text100      008810
__ptext101                                  text101      003C92
__ptext102                                  text102      004E36
__ptext103                                  text103      007FA6
__ptext104                                  text104      007E18
__ptext105                                  text105      00833E
__ptext106                                  text106      0070A4
__ptext107                                  text107      0081E2
__ptext108                                  text108      0074FC
__ptext109                                  text109      00868A
__ptext11                                   text11       0069A4
__ptext110                                  text110      007222
__ptext111                                  text111      008818
__ptext112                                  text112      008820
__ptext113                                  text113      00871E
__ptext114                                  text114      008836
__ptext115                                  text115      008828
__ptext116                                  text116      008702
__ptext117                                  text117      0087E2
__ptext118                                  text118      0087EC
__ptext119                                  text119      008738
__ptext12                                   text12       005000
__ptext120                                  text120      0087D6
__ptext121                                  text121      002F1A
__ptext122                                  text122      007572
__ptext123                                  text123      008786
__ptext124                                  text124      007FE4
__ptext125                                  text125      007CE8
__ptext126                                  text126      007D82
__ptext127                                  text127      008610
__ptext128                                  text128      005C94
__ptext129                                  text129      00701E
__ptext13                                   text13       0062C2
__ptext130                                  text130      0084CC
__ptext131                                  text131      0077FA
__ptext132                                  text132      007484
__ptext133                                  text133      0080D4
__ptext134                                  text134      0086A8
__ptext135                                  text135      0086C6
__ptext136                                  text136      0086E4
__ptext137                                  text137      0058EC
__ptext138                                  text138      0084F2
__ptext139                                  text139      008518
__ptext14                                   text14       00222A
__ptext140                                  text140      008798
__ptext141                                  text141      007EA6
__ptext142                                  text142      006778
__ptext143                                  text143      007862
__ptext144                                  text144      008178
__ptext145                                  text145      0085AC
__ptext146                                  text146      0068F0
__ptext147                                  text147      006834
__ptext148                                  text148      007A60
__ptext15                                   text15       007BE6
__ptext150                                  text150      007AC4
__ptext151                                  text151      0060F4
__ptext152                                  text152      00853E
__ptext16                                   text16       007E62
__ptext17                                   text17       008248
__ptext18                                   text18       00827A
__ptext19                                   text19       0061E0
__ptext2                                    text2        0087AA
__ptext20                                   text20       0083E8
__ptext21                                   text21       0012A6
__ptext22                                   text22       0082DE
__ptext23                                   text23       00534C
__ptext24                                   text24       0079FC
__ptext25                                   text25       00731C
__ptext26                                   text26       008800
__ptext27                                   text27       008808
__ptext28                                   text28       008630
__ptext29                                   text29       008762
__ptext3                                    text3        00646E
__ptext30                                   text30       00836E
__ptext31                                   text31       0083C0
__ptext32                                   text32       00810C
__ptext33                                   text33       005DB8
__ptext34                                   text34       0081AE
__ptext35                                   text35       0082AC
__ptext36                                   text36       004C60
__ptext37                                   text37       006F0E
__ptext38                                   text38       00840E
__ptext39                                   text39       00765A
__ptext4                                    text4        0087BA
__ptext40                                   text40       007394
__ptext41                                   text41       00874E
__ptext42                                   text42       005A30
__ptext43                                   text43       008022
__ptext44                                   text44       0087C8
__ptext45                                   text45       007B28
__ptext46                                   text46       004344
__ptext47                                   text47       007126
__ptext48                                   text48       006AF8
__ptext49                                   text49       000388
__ptext5                                    text5        008398
__ptext50                                   text50       00579C
__ptext51                                   text51       008434
__ptext52                                   text52       0065FA
__ptext53                                   text53       007EE8
__ptext54                                   text54       007F28
__ptext55                                   text55       003888
__ptext56                                   text56       0076C2
__ptext57                                   text57       00809A
__ptext58                                   text58       006D66
__ptext59                                   text59       0085D0
__ptext6                                    text6        008216
__ptext60                                   text60       00564A
__ptext61                                   text61       001A74
__ptext62                                   text62       00740C
__ptext63                                   text63       008774
__ptext64                                   text64       00864E
__ptext65                                   text65       004866
__ptext66                                   text66       006F96
__ptext67                                   text67       007B88
__ptext68                                   text68       00830E
__ptext69                                   text69       004070
__ptext7                                    text7        005FEE
__ptext70                                   text70       006DF6
__ptext71                                   text71       00805E
__ptext72                                   text72       0078CA
__ptext73                                   text73       006C32
__ptext74                                   text74       006B96
__ptext75                                   text75       005B6A
__ptext76                                   text76       0085F0
__ptext77                                   text77       00772A
__ptext78                                   text78       0033FE
__ptext79                                   text79       007C98
__ptext8                                    text8        002930
__ptext80                                   text80       007792
__ptext81                                   text81       007F68
__ptext82                                   text82       007DCE
__ptext83                                   text83       005ED8
__ptext84                                   text84       007930
__ptext85                                   text85       006CCC
__ptext86                                   text86       0066BC
__ptext87                                   text87       0072A0
__ptext88                                   text88       0051AE
__ptext89                                   text89       007D36
__ptext9                                    text9        006A52
__ptext90                                   text90       006E82
__ptext91                                   text91       008142
__ptext92                                   text92       0071A4
__ptext93                                   text93       00845A
__ptext94                                   text94       00866C
__ptext95                                   text95       008564
__ptext96                                   text96       008480
__ptext98                                   text98       008588
__ptext99                                   text99       0084A6
__ramtop                                    ramtop       001000
__setInputTextProps                         text65       004866
__setInputTextProps@Aa                      cstackBANK1  00017A
__setInputTextProps@F3555                   mediumconst  00FC0D
__setInputTextProps@F3557                   mediumconst  00FBF7
__setInputTextProps@F3559                   dataBANK3    0003C4
__setInputTextProps@F3561                   dataBANK4    00046A
__setInputTextProps@Lang                    cstackBANK1  000172
__setInputTextProps@_props                  cstackBANK1  00014E
__setInputTextProps@i                       cstackBANK1  00017E
__setInputTextProps@i_2008                  cstackBANK1  00017F
__setInputTextProps@props                   cstackBANK1  000180
__setInputTextProps@source_A                cstackBANK1  000168
__setInputTextProps@source_L                cstackBANK1  000152
__size_of_AddByteToUSARTbuff                (abs)        000000
__size_of_BCD_to_DEC                        (abs)        000000
__size_of_CalculateClockDelta               (abs)        000000
__size_of_CheckoutRegisterOfSymbol          (abs)        000000
__size_of_CleanStringArray                  (abs)        000000
__size_of_ConvKeyNum                        (abs)        000000
__size_of_ConvertCharToNumeric              (abs)        000000
__size_of_ConvertDayToBit                   (abs)        000000
__size_of_DEC_to_BCD                        (abs)        000000
__size_of_DeleteDataOfCell                  (abs)        000000
__size_of_EERD                              (abs)        000000
__size_of_EEWR                              (abs)        000000
__size_of_EditSchedule                      (abs)        000000
__size_of_EncodePhoneNumberToPDU            (abs)        000000
__size_of_F_h                               (abs)        000000
__size_of_F_l                               (abs)        000000
__size_of_FillArrayFromEEPROM               (abs)        000000
__size_of_FillArrayFromEEPROM_interr        (abs)        000000
__size_of_FillMinutes                       (abs)        000000
__size_of_FillPhonebookCellFromEEPROM       (abs)        000000
__size_of_FindCell                          (abs)        000000
__size_of_FindIncommingData                 (abs)        000000
__size_of_FindNextTimeStart                 (abs)        000000
__size_of_FindPhoneContactByNumber          (abs)        000000
__size_of_Format_EEPROM_Memory              (abs)        000000
__size_of_GetDayOfWeek                      (abs)        000000
__size_of_GetDayOfWeekByDate                (abs)        000000
__size_of_GetNumericFromString              (abs)        000000
__size_of_GetStringLength                   (abs)        000000
__size_of_GetSystemInfo                     (abs)        000000
__size_of_GetTimeSource                     (abs)        000000
__size_of_GetUnicodeSymbol                  (abs)        000000
__size_of_I2CAck                            (abs)        000000
__size_of_I2CInit                           (abs)        000000
__size_of_I2CNak                            (abs)        000000
__size_of_I2CRead                           (abs)        000000
__size_of_I2CRestart                        (abs)        000000
__size_of_I2CSend                           (abs)        000000
__size_of_I2CStart                          (abs)        000000
__size_of_I2CStop                           (abs)        000000
__size_of_Init_GSM                          (abs)        000000
__size_of_Init_USART                        (abs)        000000
__size_of_InputText                         (abs)        000000
__size_of_InteractiveData_BlinkOFF          (abs)        000000
__size_of_ItemsToIndicator                  (abs)        000000
__size_of_NumericToHEXString                (abs)        000000
__size_of_NumericToString                   (abs)        000000
__size_of_OutputInteractiveData             (abs)        000000
__size_of_OutputString                      (abs)        000000
__size_of_OutputSystemMessage               (abs)        000000
__size_of_ParseDataRecord                   (abs)        000000
__size_of_ParseTime                         (abs)        000000
__size_of_PhonebookEdit                     (abs)        000000
__size_of_ProcessIncommingUartData          (abs)        000000
__size_of_ProcessSystemMessageShowing       (abs)        000000
__size_of_ReIndTimeEdit                     (abs)        000000
__size_of_ReadDataOfCell                    (abs)        000000
__size_of_ReadDataOfCell_interr             (abs)        000000
__size_of_ReadTime                          (abs)        000000
__size_of_Read_USART_SpeedNumber            (abs)        000000
__size_of_RefreshSchedulerIndicator         (abs)        000000
__size_of_Save_USART_SpeedNumber            (abs)        000000
__size_of_Scheduler                         (abs)        000000
__size_of_SchedulerNew                      (abs)        000000
__size_of_Select_OK_NO                      (abs)        000000
__size_of_SendCommandToUSART                (abs)        000000
__size_of_SendSMS                           (abs)        000000
__size_of_SendSymbolToLCD                   (abs)        000000
__size_of_SetTimeSource                     (abs)        000000
__size_of_Settings                          (abs)        000000
__size_of_ShowMenu                          (abs)        000000
__size_of_ShowSchedulerMenu                 (abs)        000000
__size_of_SignalsOnOff                      (abs)        000000
__size_of_TelephoneCall                     (abs)        000000
__size_of_TimeData_BlinkOFF                 (abs)        000000
__size_of_TimeData_INIT                     (abs)        000000
__size_of_TimeEdit                          (abs)        000000
__size_of_TimeToInd                         (abs)        000000
__size_of_USART_Speed_Choise                (abs)        000000
__size_of_UserDelay                         (abs)        000000
__size_of_WorkingWithGSM                    (abs)        000000
__size_of_WriteArrayToEEPROM                (abs)        000000
__size_of_WriteDataOfCell                   (abs)        000000
__size_of_WritePhonebookCellToEEPROM        (abs)        000000
__size_of_WriteTime                         (abs)        000000
__size_of__CleanStringArray_interrupt       (abs)        000000
__size_of__FindIncommingData_interrupt      (abs)        000000
__size_of__GetStringLength_interr           (abs)        000000
__size_of___aldiv                           (abs)        000000
__size_of___almod                           (abs)        000000
__size_of___awdiv                           (abs)        000000
__size_of___awmod                           (abs)        000000
__size_of___lbdiv                           (abs)        000000
__size_of___lbmod                           (abs)        000000
__size_of___lldiv                           (abs)        000000
__size_of___llmod                           (abs)        000000
__size_of___lmul                            (abs)        000000
__size_of___lwdiv                           (abs)        000000
__size_of___lwmod                           (abs)        000000
__size_of___wmul                            (abs)        000000
__size_of__getContainer_Clock_from_GSM      (abs)        000000
__size_of__getContainer_Incomming_Call_Data (abs)        000000
__size_of__getContainer_Incomming_DTMF_Data (abs)        000000
__size_of__load_TXREG                       (abs)        000000
__size_of__setInputTextProps                (abs)        000000
__size_of_clrInd                            (abs)        000000
__size_of_cp1251_to_unicode                 (abs)        000000
__size_of_delay                             (abs)        000000
__size_of_entNum                            (abs)        000000
__size_of_getLcdCodeOfChar                  (abs)        000000
__size_of_getNumChar                        (abs)        000000
__size_of_getSystemTimePoint                (abs)        000000
__size_of_lcd_init                          (abs)        000000
__size_of_lcd_off                           (abs)        000000
__size_of_lcd_on                            (abs)        000000
__size_of_lcd_send_byte                     (abs)        000000
__size_of_lcd_send_initial_half_byte        (abs)        000000
__size_of_main                              (abs)        000000
__size_of_main2                             (abs)        000000
__size_of_setBlink                          (abs)        000000
__size_of_setDigit                          (abs)        000000
__size_of_strcat                            (abs)        000000
__size_of_strcpy                            (abs)        000000
__size_of_strlen                            (abs)        000000
__size_of_system_BlinkReset                 (abs)        000000
__size_of_testTimePoint                     (abs)        000000
__size_ofi1_CleanStringArray                (abs)        000000
__size_ofi1_ConvertDayToBit                 (abs)        000000
__size_ofi1_EERD                            (abs)        000000
__size_ofi1_EEWR                            (abs)        000000
__size_ofi1_FillArrayFromEEPROM             (abs)        000000
__size_ofi1_FillMinutes                     (abs)        000000
__size_ofi1_FillPhonebookCellFromEEPROM     (abs)        000000
__size_ofi1_GetDayOfWeekByDate              (abs)        000000
__size_ofi1_I2CInit                         (abs)        000000
__size_ofi1_I2CSend                         (abs)        000000
__size_ofi1_I2CStart                        (abs)        000000
__size_ofi1_I2CStop                         (abs)        000000
__size_ofi1_OutputSystemMessage             (abs)        000000
__size_ofi1_SendCommandToUSART              (abs)        000000
__size_ofi1___aldiv                         (abs)        000000
__size_ofi1___awdiv                         (abs)        000000
__size_ofi1___awmod                         (abs)        000000
__size_ofi1___lmul                          (abs)        000000
__size_ofi1___lwdiv                         (abs)        000000
__size_ofi1___lwmod                         (abs)        000000
__size_ofi1___wmul                          (abs)        000000
__size_ofi1_getSystemTimePoint              (abs)        000000
__size_ofi1_lcd_send_byte                   (abs)        000000
__size_ofi1_lcd_send_initial_half_byte      (abs)        000000
__size_ofi1_strcat                          (abs)        000000
__size_ofi1_strcpy                          (abs)        000000
__size_ofi1_testTimePoint                   (abs)        000000
__smallconst                                smallconst   000000
__systemCounter                             bssBANK0     0000E2
_active_phone                               bssBANK4     0004E0
_buff_string_10                             bssBANK8     000800
_buff_string_11                             bssBANK9     000900
_buff_string_8                              bssBANK6     000600
_buff_string_9                              bssBANK7     000700
_cDays                                      dataCOMRAM   00005B
_cHours                                     bssCOMRAM    000057
_cMinutes                                   bssCOMRAM    000058
_cMonths                                    dataCOMRAM   00005C
_cWeekDay                                   dataCOMRAM   00005D
_cYears                                     dataCOMRAM   00005E
_clock_delta                                bssBANK0     0000EA
_clrInd                                     text72       0078CA
_cp1251_to_unicode                          text47       007126
_delay                                      text109      00868A
_digits                                     bssBANK5     000524
_digitsAtrib                                bssBANK5     000544
_digitsAtrib_system_message                 bssBANK5     000564
_digits_system_message                      bssBANK5     000584
_entNum                                     text22       0082DE
_flags                                      bssBANK2     0002F9
_getLcdCodeOfChar                           text101      003C92
_getNumChar                                 text84       007930
_getSystemTimePoint                         text63       008774
_lastClock                                  bssBANK0     0000E6
_lcd_init                                   text3        00646E
_lcd_off                                    text4        0087BA
_lcd_on                                     text2        0087AA
_lcd_send_byte                              text5        008398
_lcd_send_initial_half_byte                 text6        008216
_lcd_send_initial_half_byte$1526            cstackBANK1  00013C
_main                                       text0        004A70
_main$3118                                  cstackBANK3  000388
_main2                                      text1        00460A
_setBlink                                   text67       007B88
_setDigit                                   text74       006B96
_setDigit$1217                              cstackBANK1  000140
_setDigit$1218                              cstackBANK1  000141
_strcat                                     text79       007C98
_strcpy                                     text54       007F28
_strlen                                     text53       007EE8
_system_BlinkReset                          text64       00864E
_testTimePoint                              text62       00740C
btemp                                       temp         00005F
clrInd@line                                 cstackBANK1  00013D
clrInd@symb                                 cstackBANK1  00013E
cp1251_to_unicode@F3773                     dataBANK3    0003BB
cp1251_to_unicode@a                         cstackBANK1  00015E
cp1251_to_unicode@dest                      cstackBANK1  000153
cp1251_to_unicode@eof                       cstackBANK1  000157
cp1251_to_unicode@src                       cstackBANK1  000155
cp1251_to_unicode@t                         cstackBANK1  000159
delay@count                                 cstackCOMRAM 00001C
delay@del                                   cstackCOMRAM 00001E
end_of_initialization                       cinit        00563C
entNum@KeyValue                             cstackBANK1  00013D
entNum@borderDown                           cstackBANK1  00013C
entNum@borderUp                             cstackBANK1  00013B
getLcdCodeOfChar@dig                        cstackCOMRAM 00001C
getNumChar@num                              cstackBANK1  00013B
i1CleanStringArray@i                        cstackCOMRAM 000021
i1CleanStringArray@myArray                  cstackCOMRAM 00001C
i1CleanStringArray@settingData              cstackCOMRAM 000020
i1CleanStringArray@size                     cstackCOMRAM 00001E
i1ConvertDayToBit@DayNumber                 cstackCOMRAM 00001C
i1EERD@EEDATA_BUP                           cstackCOMRAM 00001F
i1EERD@INTCON_BUP                           cstackCOMRAM 00001E
i1EERD@adress                               cstackCOMRAM 00001C
i1EEWR@INTCON_BUP                           cstackCOMRAM 00001F
i1EEWR@adress                               cstackCOMRAM 00001C
i1EEWR@data                                 cstackCOMRAM 00001E
i1FillArrayFromEEPROM@adress_start          cstackCOMRAM 000022
i1FillArrayFromEEPROM@container             cstackCOMRAM 000020
i1FillArrayFromEEPROM@i                     cstackCOMRAM 000028
i1FillArrayFromEEPROM@quantity              cstackCOMRAM 000024
i1FillPhonebookCellFromEEPROM@adress_start  cstackCOMRAM 00002B
i1FillPhonebookCellFromEEPROM@container     cstackCOMRAM 000029
i1GetDayOfWeekByDate@_day                   cstackCOMRAM 000031
i1GetDayOfWeekByDate@_mounth                cstackCOMRAM 000030
i1GetDayOfWeekByDate@_year                  cstackCOMRAM 000035
i1I2CSend@dat                               cstackCOMRAM 00001D
i1OutputSystemMessage@i                     cstackCOMRAM 000022
i1OutputSystemMessage@l                     cstackCOMRAM 000025
i1OutputSystemMessage@line                  cstackCOMRAM 000026
i1OutputSystemMessage@s                     cstackCOMRAM 000024
i1OutputSystemMessage@stringData            cstackCOMRAM 00001C
i1OutputSystemMessage@symb                  cstackCOMRAM 000027
i1SendCommandToUSART@command                cstackCOMRAM 00001C
i1SendCommandToUSART@wait                   cstackCOMRAM 00001E
i1_CleanStringArray                         text138      0084F2
i1_ConvertDayToBit                          text105      00833E
i1_EERD                                     text145      0085AC
i1_EEWR                                     text133      0080D4
i1_FillArrayFromEEPROM                      text144      008178
i1_FillMinutes                              text100      008810
i1_FillPhonebookCellFromEEPROM              text143      007862
i1_GetDayOfWeekByDate                       text129      00701E
i1_I2CInit                                  text114      008836
i1_I2CSend                                  text113      00871E
i1_I2CStart                                 text112      008820
i1_I2CStop                                  text111      008818
i1_OutputSystemMessage                      text128      005C94
i1_SendCommandToUSART                       text127      008610
i1___aldiv                                  text147      006834
i1___aldiv@counter                          cstackCOMRAM 000024
i1___aldiv@dividend                         cstackCOMRAM 00001C
i1___aldiv@divisor                          cstackCOMRAM 000020
i1___aldiv@quotient                         cstackCOMRAM 000026
i1___aldiv@sign                             cstackCOMRAM 000025
i1___awdiv                                  text132      007484
i1___awdiv@counter                          cstackCOMRAM 000026
i1___awdiv@dividend                         cstackCOMRAM 000022
i1___awdiv@divisor                          cstackCOMRAM 000024
i1___awdiv@quotient                         cstackCOMRAM 000028
i1___awdiv@sign                             cstackCOMRAM 000027
i1___awmod                                  text131      0077FA
i1___awmod@counter                          cstackCOMRAM 00002E
i1___awmod@dividend                         cstackCOMRAM 00002A
i1___awmod@divisor                          cstackCOMRAM 00002C
i1___awmod@sign                             cstackCOMRAM 00002F
i1___lmul                                   text126      007D82
i1___lmul@multiplicand                      cstackCOMRAM 00003A
i1___lmul@multiplier                        cstackCOMRAM 000036
i1___lmul@product                           cstackCOMRAM 00003E
i1___lwdiv                                  text104      007E18
i1___lwdiv@counter                          cstackCOMRAM 000020
i1___lwdiv@dividend                         cstackCOMRAM 00001C
i1___lwdiv@divisor                          cstackCOMRAM 00001E
i1___lwdiv@quotient                         cstackCOMRAM 000021
i1___lwmod                                  text103      007FA6
i1___lwmod@counter                          cstackCOMRAM 000020
i1___lwmod@dividend                         cstackCOMRAM 00001C
i1___lwmod@divisor                          cstackCOMRAM 00001E
i1___wmul                                   text130      0084CC
i1___wmul@multiplicand                      cstackCOMRAM 00001E
i1___wmul@multiplier                        cstackCOMRAM 00001C
i1___wmul@product                           cstackCOMRAM 000020
i1_getSystemTimePoint                       text123      008786
i1_lcd_send_byte                            text98       008588
i1_lcd_send_initial_half_byte               text99       0084A6
i1_lcd_send_initial_half_byte$1526          cstackCOMRAM 00001D
i1_strcat                                   text125      007CE8
i1_strcpy                                   text124      007FE4
i1_testTimePoint                            text122      007572
i1lcd_send_byte@data                        cstackCOMRAM 00001F
i1lcd_send_initial_half_byte@data           cstackCOMRAM 00001C
i1strcat@cp                                 cstackCOMRAM 000020
i1strcat@from                               cstackCOMRAM 00001E
i1strcat@to                                 cstackCOMRAM 00001C
i1strcpy@cp                                 cstackCOMRAM 000020
i1strcpy@from                               cstackCOMRAM 00001E
i1strcpy@to                                 cstackCOMRAM 00001C
i1testTimePoint@_point                      cstackCOMRAM 00002C
i1testTimePoint@point                       cstackCOMRAM 000020
i1testTimePoint@value                       cstackCOMRAM 000024
int$flags                                   temp         00005F
int_func                                    intcode_body 0075E8
intlevel0                                   text         000000
intlevel1                                   text         000000
intlevel2                                   text         000000
intlevel3                                   text         000000
lcd_init@INTCON_BUF                         cstackBANK1  000140
lcd_send_byte@data                          cstackBANK1  00013E
lcd_send_initial_half_byte@data             cstackBANK1  00013B
main2@F3736                                 dataBANK4    000472
main2@i                                     cstackBANK4  0004FE
main2@item                                  cstackBANK4  0004FF
main2@menu                                  cstackBANK4  0004F6
main@i                                      cstackBANK3  00038D
main@i_1922                                 cstackBANK3  00038C
setBlink@line                               cstackBANK1  00013F
setBlink@symbol                             cstackBANK1  00013B
setBlink@value                              cstackBANK1  00013C
setDigit@data                               cstackBANK1  00013D
setDigit@line                               cstackBANK1  000144
setDigit@symbol                             cstackBANK1  00013C
setDigit@value                              cstackBANK1  000143
setDigit@value0                             cstackBANK1  000142
stackhi                                     (abs)        000F7F
stacklo                                     (abs)        000C6A
start                                       init         000384
start_initialization                        cinit        0054D8
strcat@cp                                   cstackBANK1  000142
strcat@from                                 cstackBANK1  000140
strcat@to                                   cstackBANK1  00013E
strcpy@cp                                   cstackBANK1  00013F
strcpy@from                                 cstackBANK1  00013D
strcpy@to                                   cstackBANK1  00013B
strlen@cp                                   cstackBANK1  00013D
strlen@s                                    cstackBANK1  00013B
system_BlinkReset@val                       cstackBANK1  00013B
testTimePoint@_point                        cstackBANK1  00014B
testTimePoint@point                         cstackBANK1  00013F
testTimePoint@value                         cstackBANK1  000143


FUNCTION INFORMATION:

 *************** function _main *****************
 Defined at:
		line 2666 in file "prog.c"
 Parameters:    Size  Location     Type
		None
 Auto vars:     Size  Location     Type
  i               1  140[BANK3 ] unsigned char 
  i               1  141[BANK3 ] unsigned char 
 Return value:  Size  Location     Type
                  1    wreg      void 
 Registers used:
		wreg, fsr0l, fsr0h, fsr1l, fsr1h, fsr2l, fsr2h, status,2, status,0, tblptrl, tblptrh, tblptru, prodl, prodh, cstack
 Tracked objects:
		On entry : 
		On exit  : 
		Unchanged: 
 Data sizes:     COMRAM   BANK0   BANK1   BANK2   BANK3   BANK4   BANK5   BANK6   BANK7   BANK8   BANK9  BANK10  BANK11  BANK12  BANK13  BANK14  BANK15
      Params:         0       0       0       0       0       0       0       0       0       0       0       0       0       0       0       0       0
      Locals:         0       0       0       0       6       0       0       0       0       0       0       0       0       0       0       0       0
      Temps:          0       0       0       0       0       0       0       0       0       0       0      12       0       0       0       0       0
      Totals:         0       0       0       0       6       0       0       0       0       0       0      12       0       0       0       0       0
Total ram usage:       18 bytes
 Hardware stack levels required when called:   19
 This function calls:
		_CleanStringArray
		_EERD
		_GetTimeSource
		___lmul
		_clrInd
		_lcd_on
		_main2
 This function is called by:
		Startup code after reset
 This function uses a non-reentrant model


 *************** function _main2 *****************
 Defined at:
		line 3821 in file "prog.c"
 Parameters:    Size  Location     Type
		None
 Auto vars:     Size  Location     Type
  menu            8    0[BANK4 ] PTR unsigned char [4]
		 -> STR_88(10), STR_87(11), STR_86(12), STR_73(9), 
		 -> STR_72(10), STR_71(14), STR_70(15), STR_69(15), 
		 -> STR_68(15), STR_67(15), STR_66(6), STR_65(6), 
		 -> STR_64(6), STR_56(12), STR_55(8), STR_54(14), 
		 -> STR_53(9), STR_23(16), STR_22(8), STR_21(11), 
		 -> STR_20(9), STR_19(9), NULL(0), 
  item            1    9[BANK4 ] unsigned char 
  i               1    8[BANK4 ] unsigned char 
 Return value:  Size  Location     Type
                  1    wreg      void 
 Registers used:
		wreg, fsr0l, fsr0h, fsr1l, fsr1h, fsr2l, fsr2h, status,2, status,0, tblptrl, tblptrh, tblptru, prodl, prodh, cstack
 Tracked objects:
		On entry : 
		On exit  : 
		Unchanged: 
 Data sizes:     COMRAM   BANK0   BANK1   BANK2   BANK3   BANK4   BANK5   BANK6   BANK7   BANK8   BANK9  BANK10  BANK11  BANK12  BANK13  BANK14  BANK15
      Params:         0       0       0       0       0       0       0       0       0       0       0       0       0       0       0       0       0
      Locals:         0       0       0       0       0      10       0       0       0       0       0       0       0       0       0       0       0
      Temps:          0       0       0       0       1       0       0       0       0       0       0       0       0       0       0       0       0
      Totals:         0       0       0       0       1      10       0       0       0       0       0       0       0       0       0       0       0
Total ram usage:       11 bytes
 Hardware stack levels used:    1
 Hardware stack levels required when called:   18
 This function calls:
		_CleanStringArray
		_EERD
		_EEWR
		_FillMinutes
		_FindNextTimeStart
		_GetSystemInfo
		_Init_GSM
		_PhonebookEdit
		_Scheduler
		_SendSMS
		_Settings
		_ShowMenu
		_TimeToInd
		_UserDelay
		_WorkingWithGSM
		_clrInd
		_lcd_off
		_lcd_on
 This function is called by:
		_main
 This function uses a non-reentrant model


 *************** function _lcd_on *****************
 Defined at:
		line 1563 in file "prog.c"
 Parameters:    Size  Location     Type
		None
 Auto vars:     Size  Location     Type
		None
 Return value:  Size  Location     Type
                  1    wreg      void 
 Registers used:
		wreg, status,2, status,0, prodl, prodh, cstack
 Tracked objects:
		On entry : 
		On exit  : 
		Unchanged: 
 Data sizes:     COMRAM   BANK0   BANK1   BANK2   BANK3   BANK4   BANK5   BANK6   BANK7   BANK8   BANK9  BANK10  BANK11  BANK12  BANK13  BANK14  BANK15
      Params:         0       0       0       0       0       0       0       0       0       0       0       0       0       0       0       0       0
      Locals:         0       0       0       0       0       0       0       0       0       0       0       0       0       0       0       0       0
      Temps:          0       0       0       0       0       0       0       0       0       0       0       0       0       0       0       0       0
      Totals:         0       0       0       0       0       0       0       0       0       0       0       0       0       0       0       0       0
Total ram usage:        0 bytes
 Hardware stack levels used:    1
 Hardware stack levels required when called:   12
 This function calls:
		_lcd_init
		_lcd_send_byte
 This function is called by:
		_main
		_main2
 This function uses a non-reentrant model


 *************** function _lcd_init *****************
 Defined at:
		line 1570 in file "prog.c"
 Parameters:    Size  Location     Type
		None
 Auto vars:     Size  Location     Type
  INTCON_BUF      1   64[BANK1 ] unsigned char 
 Return value:  Size  Location     Type
                  1    wreg      void 
 Registers used:
		wreg, status,2, status,0, prodl, prodh, cstack
 Tracked objects:
		On entry : 
		On exit  : 
		Unchanged: 
 Data sizes:     COMRAM   BANK0   BANK1   BANK2   BANK3   BANK4   BANK5   BANK6   BANK7   BANK8   BANK9  BANK10  BANK11  BANK12  BANK13  BANK14  BANK15
      Params:         0       0       0       0       0       0       0       0       0       0       0       0       0       0       0       0       0
      Locals:         0       0       1       0       0       0       0       0       0       0       0       0       0       0       0       0       0
      Temps:          0       0       1       0       0       0       0       0       0       0       0       0       0       0       0       0       0
      Totals:         0       0       2       0       0       0       0       0       0       0       0       0       0       0       0       0       0
Total ram usage:        2 bytes
 Hardware stack levels used:    1
 Hardware stack levels required when called:   11
 This function calls:
		_lcd_send_byte
		_lcd_send_initial_half_byte
 This function is called by:
		_lcd_on
 This function uses a non-reentrant model


 *************** function _lcd_off *****************
 Defined at:
		line 1556 in file "prog.c"
 Parameters:    Size  Location     Type
		None
 Auto vars:     Size  Location     Type
		None
 Return value:  Size  Location     Type
                  1    wreg      void 
 Registers used:
		wreg, status,2, status,0, prodl, prodh, cstack
 Tracked objects:
		On entry : 
		On exit  : 
		Unchanged: 
 Data sizes:     COMRAM   BANK0   BANK1   BANK2   BANK3   BANK4   BANK5   BANK6   BANK7   BANK8   BANK9  BANK10  BANK11  BANK12  BANK13  BANK14  BANK15
      Params:         0       0       0       0       0       0       0       0       0       0       0       0       0       0       0       0       0
      Locals:         0       0       0       0       0       0       0       0       0       0       0       0       0       0       0       0       0
      Temps:          0       0       0       0       0       0       0       0       0       0       0       0       0       0       0       0       0
      Totals:         0       0       0       0       0       0       0       0       0       0       0       0       0       0       0       0       0
Total ram usage:        0 bytes
 Hardware stack levels used:    1
 Hardware stack levels required when called:   11
 This function calls:
		_lcd_send_byte
 This function is called by:
		_main2
 This function uses a non-reentrant model


 *************** function _lcd_send_byte *****************
 Defined at:
		line 1549 in file "prog.c"
 Parameters:    Size  Location     Type
  data            1    wreg     unsigned char 
 Auto vars:     Size  Location     Type
  data            1   62[BANK1 ] unsigned char 
 Return value:  Size  Location     Type
                  1    wreg      void 
 Registers used:
		wreg, status,2, status,0, prodl, prodh, cstack
 Tracked objects:
		On entry : 
		On exit  : 
		Unchanged: 
 Data sizes:     COMRAM   BANK0   BANK1   BANK2   BANK3   BANK4   BANK5   BANK6   BANK7   BANK8   BANK9  BANK10  BANK11  BANK12  BANK13  BANK14  BANK15
      Params:         0       0       0       0       0       0       0       0       0       0       0       0       0       0       0       0       0
      Locals:         0       0       1       0       0       0       0       0       0       0       0       0       0       0       0       0       0
      Temps:          0       0       0       0       0       0       0       0       0       0       0       0       0       0       0       0       0
      Totals:         0       0       1       0       0       0       0       0       0       0       0       0       0       0       0       0       0
Total ram usage:        1 bytes
 Hardware stack levels used:    1
 Hardware stack levels required when called:   10
 This function calls:
		_lcd_send_initial_half_byte
 This function is called by:
		_lcd_off
		_lcd_on
		_lcd_init
 This function uses a non-reentrant model


 *************** function _lcd_send_initial_half_byte *****************
 Defined at:
		line 1542 in file "prog.c"
 Parameters:    Size  Location     Type
  data            1    wreg     unsigned char 
 Auto vars:     Size  Location     Type
  data            1   59[BANK1 ] unsigned char 
 Return value:  Size  Location     Type
                  1    wreg      void 
 Registers used:
		wreg, status,2, status,0, prodl, prodh
 Tracked objects:
		On entry : 
		On exit  : 
		Unchanged: 
 Data sizes:     COMRAM   BANK0   BANK1   BANK2   BANK3   BANK4   BANK5   BANK6   BANK7   BANK8   BANK9  BANK10  BANK11  BANK12  BANK13  BANK14  BANK15
      Params:         0       0       0       0       0       0       0       0       0       0       0       0       0       0       0       0       0
      Locals:         0       0       3       0       0       0       0       0       0       0       0       0       0       0       0       0       0
      Temps:          0       0       0       0       0       0       0       0       0       0       0       0       0       0       0       0       0
      Totals:         0       0       3       0       0       0       0       0       0       0       0       0       0       0       0       0       0
Total ram usage:        3 bytes
 Hardware stack levels used:    1
 Hardware stack levels required when called:    9
 This function calls:
		Nothing
 This function is called by:
		_lcd_send_byte
		_lcd_init
 This function uses a non-reentrant model


 *************** function _WorkingWithGSM *****************
 Defined at:
		line 3229 in file "prog.c"
 Parameters:    Size  Location     Type
		None
 Auto vars:     Size  Location     Type
  command         2   33[BANK10] PTR unsigned char 
		 -> InputText@ret_string(33), NULL(0), 
  speed           1   37[BANK10] unsigned char 
  i               1   38[BANK10] unsigned char 
  p               2   35[BANK10] PTR unsigned char 
		 -> buff_string_11(256), buff_string_10(256), buff_string_9(256), buff_string_8(256), 
  myOutputStri   33    0[BANK10] unsigned char [33]
 Return value:  Size  Location     Type
                  1    wreg      void 
 Registers used:
		wreg, fsr0l, fsr0h, fsr1l, fsr1h, fsr2l, fsr2h, status,2, status,0, tblptrl, tblptrh, tblptru, prodl, prodh, cstack
 Tracked objects:
		On entry : 
		On exit  : 
		Unchanged: 
 Data sizes:     COMRAM   BANK0   BANK1   BANK2   BANK3   BANK4   BANK5   BANK6   BANK7   BANK8   BANK9  BANK10  BANK11  BANK12  BANK13  BANK14  BANK15
      Params:         0       0       0       0       0       0       0       0       0       0       0       0       0       0       0       0       0
      Locals:         0       0       0       0       0       0       0       0       0       0       0      39       0       0       0       0       0
      Temps:          0       0       2       0       0       0       0       0       0       0       0       0       0       0       0       0       0
      Totals:         0       0       2       0       0       0       0       0       0       0       0      39       0       0       0       0       0
Total ram usage:       41 bytes
 Hardware stack levels used:    1
 Hardware stack levels required when called:   13
 This function calls:
		_Init_USART
		_InputText
		_OutputString
		_Save_USART_SpeedNumber
		_SendCommandToUSART
		_USART_Speed_Choise
		_clrInd
 This function is called by:
		_main2
 This function uses a non-reentrant model


 *************** function _TimeToInd *****************
 Defined at:
		line 1003 in file "prog.c"
 Parameters:    Size  Location     Type
		None
 Auto vars:     Size  Location     Type
  SignalOn        1  171[BANK2 ] unsigned char 
  d               1  174[BANK2 ] unsigned char 
  SignalOn        1  173[BANK2 ] unsigned char 
  i               1  195[BANK2 ] unsigned char 
  DataArrayOfL   13  132[BANK2 ] unsigned char [13]
  j2              2  198[BANK2 ] int 
  CellsNumber     1  197[BANK2 ] unsigned char 
  i               1  196[BANK2 ] unsigned char 
  D               4  183[BANK2 ] unsigned char [4]
  DataArray      17  154[BANK2 ] unsigned char [17]
  CellsData       8  124[BANK2 ] unsigned char [8]
  Data            4  190[BANK2 ] unsigned long 
  Time            2  203[BANK2 ] unsigned int 
  TimeStop        2  201[BANK2 ] unsigned int 
  DataArray2      2  187[BANK2 ] PTR unsigned char 
		 -> STR_8(3), STR_7(3), STR_6(3), STR_5(3), 
		 -> STR_4(3), STR_3(3), STR_2(3), STR_1(3), 
  TimeStart       2  179[BANK2 ] unsigned int 
  Signals         1  194[BANK2 ] unsigned char 
  Day             1  189[BANK2 ] unsigned char 
  Days            1  182[BANK2 ] unsigned char 
  line            1  181[BANK2 ] unsigned char 
  TimeData        9  145[BANK2 ] unsigned char [9]
  temp            4  205[BANK2 ] long 
  SignalsFinal    1  200[BANK2 ] unsigned char 
  day             1  172[BANK2 ] unsigned char 
 Return value:  Size  Location     Type
                  1    wreg      void 
 Registers used:
		wreg, fsr0l, fsr0h, fsr1l, fsr1h, fsr2l, fsr2h, status,2, status,0, tblptrl, tblptrh, tblptru, prodl, prodh, cstack
 Tracked objects:
		On entry : 
		On exit  : 
		Unchanged: 
 Data sizes:     COMRAM   BANK0   BANK1   BANK2   BANK3   BANK4   BANK5   BANK6   BANK7   BANK8   BANK9  BANK10  BANK11  BANK12  BANK13  BANK14  BANK15
      Params:         0       0       0       0       0       0       0       0       0       0       0       0       0       0       0       0       0
      Locals:         0       0       0      85       0       0       0       0       0       0       0       0       0       0       0       0       0
      Temps:          0       0       2       0       0       0       0       0       0       0       0       0       0       0       0       0       0
      Totals:         0       0       2      85       0       0       0       0       0       0       0       0       0       0       0       0       0
Total ram usage:       87 bytes
 Hardware stack levels used:    1
 Hardware stack levels required when called:   17
 This function calls:
		_FindNextTimeStart
		_GetDayOfWeek
		_OutputString
		_ParseDataRecord
		_ParseTime
		_ReadDataOfCell
		_Scheduler
		___aldiv
		___almod
		___lbdiv
		___lbmod
		___lwdiv
		___lwmod
		_clrInd
		_getNumChar
 This function is called by:
		_main2
 This function uses a non-reentrant model


 *************** function _Scheduler *****************
 Defined at:
		line 2057 in file "prog.c"
 Parameters:    Size  Location     Type
  StartFrom       2  162[BANK1 ] unsigned int 
 Auto vars:     Size  Location     Type
		None
 Return value:  Size  Location     Type
                  1    wreg      void 
 Registers used:
		wreg, fsr0l, fsr0h, fsr1l, fsr1h, fsr2l, fsr2h, status,2, status,0, tblptrl, tblptrh, tblptru, prodl, prodh, cstack
 Tracked objects:
		On entry : 
		On exit  : 
		Unchanged: 
 Data sizes:     COMRAM   BANK0   BANK1   BANK2   BANK3   BANK4   BANK5   BANK6   BANK7   BANK8   BANK9  BANK10  BANK11  BANK12  BANK13  BANK14  BANK15
      Params:         0       0       2       0       0       0       0       0       0       0       0       0       0       0       0       0       0
      Locals:         0       0       0       0       0       0       0       0       0       0       0       0       0       0       0       0       0
      Temps:          0       0       0       0       0       0       0       0       0       0       0       0       0       0       0       0       0
      Totals:         0       0       2       0       0       0       0       0       0       0       0       0       0       0       0       0       0
Total ram usage:        2 bytes
 Hardware stack levels used:    1
 Hardware stack levels required when called:   16
 This function calls:
		_FindCell
		_RefreshSchedulerIndicator
		_ShowSchedulerMenu
		_clrInd
 This function is called by:
		_TimeToInd
		_main2
 This function uses a non-reentrant model


 *************** function _ShowSchedulerMenu *****************
 Defined at:
		line 2027 in file "prog.c"
 Parameters:    Size  Location     Type
  NumberOfCell    2  147[BANK1 ] unsigned int 
 Auto vars:     Size  Location     Type
  menu           12  149[BANK1 ] PTR unsigned char [6]
		 -> STR_88(10), STR_87(11), STR_86(12), STR_73(9), 
		 -> STR_72(10), STR_71(14), STR_70(15), STR_69(15), 
		 -> STR_68(15), STR_67(15), STR_66(6), STR_65(6), 
		 -> STR_64(6), STR_56(12), STR_55(8), STR_54(14), 
		 -> STR_53(9), STR_23(16), STR_22(8), STR_21(11), 
		 -> STR_20(9), STR_19(9), NULL(0), 
  item            1  161[BANK1 ] unsigned char 
 Return value:  Size  Location     Type
                  1    wreg      void 
 Registers used:
		wreg, fsr0l, fsr0h, fsr1l, fsr1h, fsr2l, fsr2h, status,2, status,0, tblptrl, tblptrh, tblptru, prodl, prodh, cstack
 Tracked objects:
		On entry : 
		On exit  : 
		Unchanged: 
 Data sizes:     COMRAM   BANK0   BANK1   BANK2   BANK3   BANK4   BANK5   BANK6   BANK7   BANK8   BANK9  BANK10  BANK11  BANK12  BANK13  BANK14  BANK15
      Params:         0       0       2       0       0       0       0       0       0       0       0       0       0       0       0       0       0
      Locals:         0       0      13       0       0       0       0       0       0       0       0       0       0       0       0       0       0
      Temps:          0       0       0       0       0       0       0       0       0       0       0       0       0       0       0       0       0
      Totals:         0       0      15       0       0       0       0       0       0       0       0       0       0       0       0       0       0
Total ram usage:       15 bytes
 Hardware stack levels used:    1
 Hardware stack levels required when called:   15
 This function calls:
		_DeleteDataOfCell
		_EditSchedule
		_Format_EEPROM_Memory
		_OutputSystemMessage
		_SchedulerNew
		_Select_OK_NO
		_ShowMenu
		_clrInd
 This function is called by:
		_Scheduler
 This function uses a non-reentrant model


 *************** function _SchedulerNew *****************
 Defined at:
		line 2087 in file "prog.c"
 Parameters:    Size  Location     Type
  SourceOfReco    2  145[BANK1 ] unsigned int 
 Auto vars:     Size  Location     Type
		None
 Return value:  Size  Location     Type
                  1    wreg      void 
 Registers used:
		wreg, fsr0l, fsr0h, fsr1l, fsr1h, fsr2l, fsr2h, status,2, status,0, tblptrl, tblptrh, tblptru, prodl, prodh, cstack
 Tracked objects:
		On entry : 
		On exit  : 
		Unchanged: 
 Data sizes:     COMRAM   BANK0   BANK1   BANK2   BANK3   BANK4   BANK5   BANK6   BANK7   BANK8   BANK9  BANK10  BANK11  BANK12  BANK13  BANK14  BANK15
      Params:         0       0       2       0       0       0       0       0       0       0       0       0       0       0       0       0       0
      Locals:         0       0       0       0       0       0       0       0       0       0       0       0       0       0       0       0       0
      Temps:          0       0       0       0       0       0       0       0       0       0       0       0       0       0       0       0       0
      Totals:         0       0       2       0       0       0       0       0       0       0       0       0       0       0       0       0       0
Total ram usage:        2 bytes
 Hardware stack levels used:    1
 Hardware stack levels required when called:   14
 This function calls:
		_EditSchedule
		_FindCell
		_RefreshSchedulerIndicator
		_clrInd
 This function is called by:
		_ShowSchedulerMenu
 This function uses a non-reentrant model


 *************** function _RefreshSchedulerIndicator *****************
 Defined at:
		line 1675 in file "prog.c"
 Parameters:    Size  Location     Type
  adress          2  114[BANK1 ] unsigned int 
  New             1  116[BANK1 ] unsigned char 
  CopyFrom        2  117[BANK1 ] unsigned int 
 Auto vars:     Size  Location     Type
  num             3  132[BANK1 ] unsigned char [3]
  num             3  129[BANK1 ] unsigned char [3]
  i               1  144[BANK1 ] unsigned char 
  CellsData       8  121[BANK1 ] unsigned char [8]
  Data            4  137[BANK1 ] unsigned long 
  cell            2  142[BANK1 ] unsigned int 
  CellIsEmpty     1  141[BANK1 ] unsigned char 
 Return value:  Size  Location     Type
                  2  114[BANK1 ] unsigned int 
 Registers used:
		wreg, fsr0l, fsr0h, fsr2l, fsr2h, status,2, status,0, tblptrl, tblptrh, tblptru, prodl, prodh, cstack
 Tracked objects:
		On entry : 
		On exit  : 
		Unchanged: 
 Data sizes:     COMRAM   BANK0   BANK1   BANK2   BANK3   BANK4   BANK5   BANK6   BANK7   BANK8   BANK9  BANK10  BANK11  BANK12  BANK13  BANK14  BANK15
      Params:         0       0       5       0       0       0       0       0       0       0       0       0       0       0       0       0       0
      Locals:         0       0      24       0       0       0       0       0       0       0       0       0       0       0       0       0       0
      Temps:          0       0       2       0       0       0       0       0       0       0       0       0       0       0       0       0       0
      Totals:         0       0      31       0       0       0       0       0       0       0       0       0       0       0       0       0       0
Total ram usage:       31 bytes
 Hardware stack levels used:    1
 Hardware stack levels required when called:   13
 This function calls:
		_FindCell
		_NumericToString
		_OutputString
		_ReadDataOfCell
 This function is called by:
		_Scheduler
		_SchedulerNew
 This function uses a non-reentrant model


 *************** function _FindCell *****************
 Defined at:
		line 1642 in file "prog.c"
 Parameters:    Size  Location     Type
  adressStart     2   88[BANK1 ] unsigned int 
  New             1   90[BANK1 ] unsigned char 
  previous        2   91[BANK1 ] unsigned int 
 Auto vars:     Size  Location     Type
  i               1  111[BANK1 ] unsigned char 
  CellsData       8   94[BANK1 ] unsigned char [8]
  Data            4  106[BANK1 ] unsigned long 
  CellIsEmpty     1  110[BANK1 ] unsigned char 
  adress          2  112[BANK1 ] unsigned int 
  adressNew       2  102[BANK1 ] unsigned int 
 Return value:  Size  Location     Type
                  2   88[BANK1 ] unsigned int 
 Registers used:
		wreg, fsr2l, fsr2h, status,2, status,0, cstack
 Tracked objects:
		On entry : 
		On exit  : 
		Unchanged: 
 Data sizes:     COMRAM   BANK0   BANK1   BANK2   BANK3   BANK4   BANK5   BANK6   BANK7   BANK8   BANK9  BANK10  BANK11  BANK12  BANK13  BANK14  BANK15
      Params:         0       0       5       0       0       0       0       0       0       0       0       0       0       0       0       0       0
      Locals:         0       0      20       0       0       0       0       0       0       0       0       0       0       0       0       0       0
      Temps:          0       0       1       0       0       0       0       0       0       0       0       0       0       0       0       0       0
      Totals:         0       0      26       0       0       0       0       0       0       0       0       0       0       0       0       0       0
Total ram usage:       26 bytes
 Hardware stack levels used:    1
 Hardware stack levels required when called:   12
 This function calls:
		_ReadDataOfCell
 This function is called by:
		_RefreshSchedulerIndicator
		_Scheduler
		_SchedulerNew
 This function uses a non-reentrant model


 *************** function _EditSchedule *****************
 Defined at:
		line 1795 in file "prog.c"
 Parameters:    Size  Location     Type
  adress          2   88[BANK1 ] unsigned int 
  SourceOfReco    2   90[BANK1 ] unsigned int 
 Auto vars:     Size  Location     Type
  j               1  112[BANK2 ] unsigned char 
  f               1  113[BANK2 ] unsigned char 
  ML              1   36[BANK2 ] unsigned char 
  MH              1   35[BANK2 ] unsigned char 
  HL              1   34[BANK2 ] unsigned char 
  HH              1   33[BANK2 ] unsigned char 
  j               1   57[BANK2 ] unsigned char 
  T               4   37[BANK2 ] unsigned int [2]
  OK              1  106[BANK2 ] unsigned char 
  i               1  111[BANK2 ] unsigned char 
  blinking        1  119[BANK2 ] unsigned char 
  i               1  110[BANK2 ] unsigned char 
  temp            2  122[BANK2 ] unsigned int 
  i               1  120[BANK2 ] unsigned char 
  _times         44   62[BANK2 ] struct .[11]
  TimesOutput    22    0[BANK2 ] PTR struct .[11]
		 -> InputText@_input_data(132), EditSchedule@_times(44), 
  Times          16   41[BANK2 ] PTR struct .[8]
		 -> InputText@_input_data(132), EditSchedule@_times(44), 
  CellsData       8   22[BANK2 ] unsigned char [8]
  Data            4  114[BANK2 ] unsigned long 
  TimeStop        2   60[BANK2 ] unsigned int 
  TimeStart       2   58[BANK2 ] unsigned int 
  TargetAdress    2   30[BANK2 ] unsigned int 
  i               1  121[BANK2 ] unsigned char 
  key             1  118[BANK2 ] unsigned char 
  mode            1  109[BANK2 ] unsigned char 
  Signals         1  108[BANK2 ] unsigned char 
  Days            1  107[BANK2 ] unsigned char 
  BeginEditTim    1   32[BANK2 ] unsigned char 
 Return value:  Size  Location     Type
                  1    wreg      unsigned char 
 Registers used:
		wreg, fsr0l, fsr0h, fsr1l, fsr1h, fsr2l, fsr2h, status,2, status,0, prodl, prodh, cstack
 Tracked objects:
		On entry : 
		On exit  : 
		Unchanged: 
 Data sizes:     COMRAM   BANK0   BANK1   BANK2   BANK3   BANK4   BANK5   BANK6   BANK7   BANK8   BANK9  BANK10  BANK11  BANK12  BANK13  BANK14  BANK15
      Params:         0       0       4       0       0       0       0       0       0       0       0       0       0       0       0       0       0
      Locals:         0       0       0     124       0       0       0       0       0       0       0       0       0       0       0       0       0
      Temps:          0       0      20       0       0       0       0       0       0       0       0       0       0       0       0       0       0
      Totals:         0       0      24     124       0       0       0       0       0       0       0       0       0       0       0       0       0
Total ram usage:      148 bytes
 Hardware stack levels used:    1
 Hardware stack levels required when called:   12
 This function calls:
		_ConvertDayToBit
		_InteractiveData_BlinkOFF
		_ItemsToIndicator
		_OutputInteractiveData
		_ParseDataRecord
		_ReadDataOfCell
		_WriteDataOfCell
		___lwdiv
		___lwmod
		___wmul
		_clrInd
		_entNum
		_getNumChar
 This function is called by:
		_ShowSchedulerMenu
		_SchedulerNew
 This function uses a non-reentrant model


 *************** function _WriteDataOfCell *****************
 Defined at:
		line 1769 in file "prog.c"
 Parameters:    Size  Location     Type
  CellsData       2   72[BANK1 ] PTR unsigned char 
		 -> EditSchedule@CellsData(8), 
  Data            2   74[BANK1 ] PTR unsigned long 
		 -> EditSchedule@Data(4), 
  TargetAdress    2   76[BANK1 ] unsigned int 
 Auto vars:     Size  Location     Type
  i               1   79[BANK1 ] unsigned char 
 Return value:  Size  Location     Type
                  1    wreg      void 
 Registers used:
		wreg, fsr1l, fsr1h, fsr2l, fsr2h, status,2, status,0, cstack
 Tracked objects:
		On entry : 
		On exit  : 
		Unchanged: 
 Data sizes:     COMRAM   BANK0   BANK1   BANK2   BANK3   BANK4   BANK5   BANK6   BANK7   BANK8   BANK9  BANK10  BANK11  BANK12  BANK13  BANK14  BANK15
      Params:         0       0       6       0       0       0       0       0       0       0       0       0       0       0       0       0       0
      Locals:         0       0       1       0       0       0       0       0       0       0       0       0       0       0       0       0       0
      Temps:          0       0       1       0       0       0       0       0       0       0       0       0       0       0       0       0       0
      Totals:         0       0       8       0       0       0       0       0       0       0       0       0       0       0       0       0       0
Total ram usage:        8 bytes
 Hardware stack levels used:    1
 Hardware stack levels required when called:   11
 This function calls:
		_WriteArrayToEEPROM
 This function is called by:
		_EditSchedule
 This function uses a non-reentrant model


 *************** function _ItemsToIndicator *****************
 Defined at:
		line 1720 in file "prog.c"
 Parameters:    Size  Location     Type
  items           1    wreg     unsigned char 
  max_i           1   69[BANK1 ] unsigned char 
  firstDigit      1   70[BANK1 ] unsigned char 
 Auto vars:     Size  Location     Type
  items           1   71[BANK1 ] unsigned char 
  i               1   72[BANK1 ] unsigned char 
 Return value:  Size  Location     Type
                  1    wreg      void 
 Registers used:
		wreg, fsr2l, fsr2h, status,2, status,0, prodl, prodh, cstack
 Tracked objects:
		On entry : 
		On exit  : 
		Unchanged: 
 Data sizes:     COMRAM   BANK0   BANK1   BANK2   BANK3   BANK4   BANK5   BANK6   BANK7   BANK8   BANK9  BANK10  BANK11  BANK12  BANK13  BANK14  BANK15
      Params:         0       0       2       0       0       0       0       0       0       0       0       0       0       0       0       0       0
      Locals:         0       0       2       0       0       0       0       0       0       0       0       0       0       0       0       0       0
      Temps:          0       0       0       0       0       0       0       0       0       0       0       0       0       0       0       0       0
      Totals:         0       0       4       0       0       0       0       0       0       0       0       0       0       0       0       0       0
Total ram usage:        4 bytes
 Hardware stack levels used:    1
 Hardware stack levels required when called:   10
 This function calls:
		_getNumChar
		_setDigit
 This function is called by:
		_EditSchedule
 This function uses a non-reentrant model


 *************** function _ConvertDayToBit *****************
 Defined at:
		line 1742 in file "prog.c"
 Parameters:    Size  Location     Type
  DayNumber       1    wreg     unsigned char 
 Auto vars:     Size  Location     Type
  DayNumber       1   59[BANK1 ] unsigned char 
 Return value:  Size  Location     Type
                  1    wreg      unsigned char 
 Registers used:
		wreg, status,2, status,0
 Tracked objects:
		On entry : 
		On exit  : 
		Unchanged: 
 Data sizes:     COMRAM   BANK0   BANK1   BANK2   BANK3   BANK4   BANK5   BANK6   BANK7   BANK8   BANK9  BANK10  BANK11  BANK12  BANK13  BANK14  BANK15
      Params:         0       0       0       0       0       0       0       0       0       0       0       0       0       0       0       0       0
      Locals:         0       0       1       0       0       0       0       0       0       0       0       0       0       0       0       0       0
      Temps:          0       0       0       0       0       0       0       0       0       0       0       0       0       0       0       0       0
      Totals:         0       0       1       0       0       0       0       0       0       0       0       0       0       0       0       0       0
Total ram usage:        1 bytes
 Hardware stack levels used:    1
 Hardware stack levels required when called:    9
 This function calls:
		Nothing
 This function is called by:
		_EditSchedule
 This function uses a non-reentrant model


 *************** function _DeleteDataOfCell *****************
 Defined at:
		line 1789 in file "prog.c"
 Parameters:    Size  Location     Type
  TargetAdress    2   72[BANK1 ] unsigned int 
 Auto vars:     Size  Location     Type
  CellsData       8   74[BANK1 ] unsigned char [8]
 Return value:  Size  Location     Type
                  1    wreg      void 
 Registers used:
		wreg, fsr2l, fsr2h, status,2, status,0, cstack
 Tracked objects:
		On entry : 
		On exit  : 
		Unchanged: 
 Data sizes:     COMRAM   BANK0   BANK1   BANK2   BANK3   BANK4   BANK5   BANK6   BANK7   BANK8   BANK9  BANK10  BANK11  BANK12  BANK13  BANK14  BANK15
      Params:         0       0       2       0       0       0       0       0       0       0       0       0       0       0       0       0       0
      Locals:         0       0       8       0       0       0       0       0       0       0       0       0       0       0       0       0       0
      Temps:          0       0       0       0       0       0       0       0       0       0       0       0       0       0       0       0       0
      Totals:         0       0      10       0       0       0       0       0       0       0       0       0       0       0       0       0       0
Total ram usage:       10 bytes
 Hardware stack levels used:    1
 Hardware stack levels required when called:   11
 This function calls:
		_CleanStringArray
		_WriteArrayToEEPROM
 This function is called by:
		_ShowSchedulerMenu
 This function uses a non-reentrant model


 *************** function _Settings *****************
 Defined at:
		line 3649 in file "prog.c"
 Parameters:    Size  Location     Type
		None
 Auto vars:     Size  Location     Type
  menu_GSM_on_    6  143[BANK1 ] PTR unsigned char [3]
		 -> STR_88(10), STR_87(11), STR_86(12), STR_73(9), 
		 -> STR_72(10), STR_71(14), STR_70(15), STR_69(15), 
		 -> STR_68(15), STR_67(15), STR_66(6), STR_65(6), 
		 -> STR_64(6), STR_56(12), STR_55(8), STR_54(14), 
		 -> STR_53(9), STR_23(16), STR_22(8), STR_21(11), 
		 -> STR_20(9), STR_19(9), NULL(0), 
  GSM_On_Off      1  151[BANK1 ] unsigned char 
  GSM_Conditio    1  150[BANK1 ] unsigned char 
  speed           1  149[BANK1 ] unsigned char 
  num             1  152[BANK1 ] unsigned char 
  menu           12  131[BANK1 ] PTR unsigned char [6]
		 -> STR_88(10), STR_87(11), STR_86(12), STR_73(9), 
		 -> STR_72(10), STR_71(14), STR_70(15), STR_69(15), 
		 -> STR_68(15), STR_67(15), STR_66(6), STR_65(6), 
		 -> STR_64(6), STR_56(12), STR_55(8), STR_54(14), 
		 -> STR_53(9), STR_23(16), STR_22(8), STR_21(11), 
		 -> STR_20(9), STR_19(9), NULL(0), 
  item            1  153[BANK1 ] unsigned char 
 Return value:  Size  Location     Type
                  1    wreg      void 
 Registers used:
		wreg, fsr0l, fsr0h, fsr1l, fsr1h, fsr2l, fsr2h, status,2, status,0, tblptrl, tblptrh, tblptru, prodl, prodh, cstack
 Tracked objects:
		On entry : 
		On exit  : 
		Unchanged: 
 Data sizes:     COMRAM   BANK0   BANK1   BANK2   BANK3   BANK4   BANK5   BANK6   BANK7   BANK8   BANK9  BANK10  BANK11  BANK12  BANK13  BANK14  BANK15
      Params:         0       0       0       0       0       0       0       0       0       0       0       0       0       0       0       0       0
      Locals:         0       0      23       0       0       0       0       0       0       0       0       0       0       0       0       0       0
      Temps:          0       0       0       0       0       0       0       0       0       0       0       0       0       0       0       0       0
      Totals:         0       0      23       0       0       0       0       0       0       0       0       0       0       0       0       0       0
Total ram usage:       23 bytes
 Hardware stack levels used:    1
 Hardware stack levels required when called:   13
 This function calls:
		_EERD
		_EEWR
		_Format_EEPROM_Memory
		_Init_GSM
		_Save_USART_SpeedNumber
		_ShowMenu
		_TimeEdit
		_USART_Speed_Choise
 This function is called by:
		_main2
 This function uses a non-reentrant model


 *************** function _USART_Speed_Choise *****************
 Defined at:
		line 3637 in file "prog.c"
 Parameters:    Size  Location     Type
		None
 Auto vars:     Size  Location     Type
  menu            8   87[BANK1 ] PTR unsigned char [4]
		 -> STR_88(10), STR_87(11), STR_86(12), STR_73(9), 
		 -> STR_72(10), STR_71(14), STR_70(15), STR_69(15), 
		 -> STR_68(15), STR_67(15), STR_66(6), STR_65(6), 
		 -> STR_64(6), STR_56(12), STR_55(8), STR_54(14), 
		 -> STR_53(9), STR_23(16), STR_22(8), STR_21(11), 
		 -> STR_20(9), STR_19(9), NULL(0), 
 Return value:  Size  Location     Type
                  1    wreg      unsigned char 
 Registers used:
		wreg, fsr0l, fsr0h, fsr1l, fsr1h, fsr2l, fsr2h, status,2, status,0, tblptrl, tblptrh, tblptru, prodl, prodh, cstack
 Tracked objects:
		On entry : 
		On exit  : 
		Unchanged: 
 Data sizes:     COMRAM   BANK0   BANK1   BANK2   BANK3   BANK4   BANK5   BANK6   BANK7   BANK8   BANK9  BANK10  BANK11  BANK12  BANK13  BANK14  BANK15
      Params:         0       0       0       0       0       0       0       0       0       0       0       0       0       0       0       0       0
      Locals:         0       0       8       0       0       0       0       0       0       0       0       0       0       0       0       0       0
      Temps:          0       0       0       0       0       0       0       0       0       0       0       0       0       0       0       0       0
      Totals:         0       0       8       0       0       0       0       0       0       0       0       0       0       0       0       0       0
Total ram usage:        8 bytes
 Hardware stack levels used:    1
 Hardware stack levels required when called:   12
 This function calls:
		_Read_USART_SpeedNumber
		_ShowMenu
 This function is called by:
		_WorkingWithGSM
		_Settings
 This function uses a non-reentrant model


 *************** function _TimeEdit *****************
 Defined at:
		line 1269 in file "prog.c"
 Parameters:    Size  Location     Type
		None
 Auto vars:     Size  Location     Type
  MonthDays      12    0[BANK2 ] unsigned char [12]
  month           1   83[BANK2 ] unsigned char 
  t               1  116[BANK2 ] unsigned char 
  i               1  110[BANK2 ] unsigned char 
  i               1  109[BANK2 ] unsigned char 
  i               1  108[BANK2 ] unsigned char 
  _date          40   20[BANK2 ] struct .[10]
  TimeData       33  118[BANK2 ] struct .
  symb_array     20   84[BANK2 ] PTR struct .[10]
		 -> TimeEdit@_date(40), TimeEdit@_time(20), 
  _time          20   60[BANK2 ] struct .[5]
  temp            4  112[BANK2 ] long 
  _weekday        4  104[BANK2 ] struct .[1]
  n               4   12[BANK2 ] long 
  p               1  117[BANK2 ] unsigned char 
  blinking        1  111[BANK2 ] unsigned char 
  symb_array_m    1   82[BANK2 ] unsigned char 
  input           1   81[BANK2 ] unsigned char 
  time_is_chan    1   80[BANK2 ] unsigned char 
 Return value:  Size  Location     Type
                  1    wreg      void 
 Registers used:
		wreg, fsr0l, fsr0h, fsr1l, fsr1h, fsr2l, fsr2h, status,2, status,0, tblptrl, tblptrh, tblptru, prodl, prodh, cstack
 Tracked objects:
		On entry : 
		On exit  : 
		Unchanged: 
 Data sizes:     COMRAM   BANK0   BANK1   BANK2   BANK3   BANK4   BANK5   BANK6   BANK7   BANK8   BANK9  BANK10  BANK11  BANK12  BANK13  BANK14  BANK15
      Params:         0       0       0       0       0       0       0       0       0       0       0       0       0       0       0       0       0
      Locals:         0       0       0     151       0       0       0       0       0       0       0       0       0       0       0       0       0
      Temps:          0       0      12       0       0       0       0       0       0       0       0       0       0       0       0       0       0
      Totals:         0       0      12     151       0       0       0       0       0       0       0       0       0       0       0       0       0
Total ram usage:      163 bytes
 Hardware stack levels used:    1
 Hardware stack levels required when called:   12
 This function calls:
		_GetDayOfWeekByDate
		_ReIndTimeEdit
		_SetTimeSource
		_TimeData_BlinkOFF
		_TimeData_INIT
		_WriteTime
		___aldiv
		___almod
		___lbdiv
		___lbmod
		___lmul
		_clrInd
		_entNum
 This function is called by:
		_Settings
 This function uses a non-reentrant model


 *************** function _entNum *****************
 Defined at:
		line 941 in file "prog.c"
 Parameters:    Size  Location     Type
  borderDown      1    wreg     unsigned char 
  borderUp        1   59[BANK1 ] unsigned char 
 Auto vars:     Size  Location     Type
  borderDown      1   60[BANK1 ] unsigned char 
  KeyValue        1   61[BANK1 ] unsigned char 
 Return value:  Size  Location     Type
                  1    wreg      unsigned char 
 Registers used:
		wreg, status,2, status,0
 Tracked objects:
		On entry : 
		On exit  : 
		Unchanged: 
 Data sizes:     COMRAM   BANK0   BANK1   BANK2   BANK3   BANK4   BANK5   BANK6   BANK7   BANK8   BANK9  BANK10  BANK11  BANK12  BANK13  BANK14  BANK15
      Params:         0       0       1       0       0       0       0       0       0       0       0       0       0       0       0       0       0
      Locals:         0       0       2       0       0       0       0       0       0       0       0       0       0       0       0       0       0
      Temps:          0       0       0       0       0       0       0       0       0       0       0       0       0       0       0       0       0
      Totals:         0       0       3       0       0       0       0       0       0       0       0       0       0       0       0       0       0
Total ram usage:        3 bytes
 Hardware stack levels used:    1
 Hardware stack levels required when called:    9
 This function calls:
		Nothing
 This function is called by:
		_TimeEdit
		_EditSchedule
 This function uses a non-reentrant model


 *************** function _WriteTime *****************
 Defined at:
		line 4023 in file "prog.c"
 Parameters:    Size  Location     Type
  lClock          4   73[BANK1 ] unsigned long 
  days            1   77[BANK1 ] unsigned char 
  months          1   78[BANK1 ] unsigned char 
  years           1   79[BANK1 ] unsigned char 
 Auto vars:     Size  Location     Type
  comand         31   80[BANK1 ] unsigned char [31]
  temp            4  115[BANK1 ] long 
  minutes         1    0        unsigned char 
  hours           1    0        unsigned char 
  week_day        1    0        unsigned char 
  INTCON_BUP      1  114[BANK1 ] volatile unsigned char 
 Return value:  Size  Location     Type
                  1    wreg      void 
 Registers used:
		wreg, fsr1l, fsr1h, fsr2l, fsr2h, status,2, status,0, cstack
 Tracked objects:
		On entry : 
		On exit  : 
		Unchanged: 
 Data sizes:     COMRAM   BANK0   BANK1   BANK2   BANK3   BANK4   BANK5   BANK6   BANK7   BANK8   BANK9  BANK10  BANK11  BANK12  BANK13  BANK14  BANK15
      Params:         0       0       7       0       0       0       0       0       0       0       0       0       0       0       0       0       0
      Locals:         0       0      39       0       0       0       0       0       0       0       0       0       0       0       0       0       0
      Temps:          0       0       0       0       0       0       0       0       0       0       0       0       0       0       0       0       0
      Totals:         0       0      46       0       0       0       0       0       0       0       0       0       0       0       0       0       0
Total ram usage:       46 bytes
 Hardware stack levels used:    1
 Hardware stack levels required when called:   11
 This function calls:
		_DEC_to_BCD
		_I2CInit
		_I2CSend
		_I2CStart
		_I2CStop
		_SendCommandToUSART
		___aldiv
		___almod
		___lbdiv
		___lbmod
		___lldiv
		___llmod
		_getNumChar
 This function is called by:
		_TimeEdit
 This function uses a non-reentrant model


 *************** function ___llmod *****************
 Defined at:
		line 8 in file "/opt/microchip/xc8/v1.37/sources/common/llmod.c"
 Parameters:    Size  Location     Type
  dividend        4   59[BANK1 ] unsigned long 
  divisor         4   63[BANK1 ] unsigned long 
 Auto vars:     Size  Location     Type
  counter         1   67[BANK1 ] unsigned char 
 Return value:  Size  Location     Type
                  4   59[BANK1 ] unsigned long 
 Registers used:
		wreg, status,2, status,0
 Tracked objects:
		On entry : 
		On exit  : 
		Unchanged: 
 Data sizes:     COMRAM   BANK0   BANK1   BANK2   BANK3   BANK4   BANK5   BANK6   BANK7   BANK8   BANK9  BANK10  BANK11  BANK12  BANK13  BANK14  BANK15
      Params:         0       0       8       0       0       0       0       0       0       0       0       0       0       0       0       0       0
      Locals:         0       0       1       0       0       0       0       0       0       0       0       0       0       0       0       0       0
      Temps:          0       0       0       0       0       0       0       0       0       0       0       0       0       0       0       0       0
      Totals:         0       0       9       0       0       0       0       0       0       0       0       0       0       0       0       0       0
Total ram usage:        9 bytes
 Hardware stack levels used:    1
 Hardware stack levels required when called:    9
 This function calls:
		Nothing
 This function is called by:
		_WriteTime
 This function uses a non-reentrant model


 *************** function ___lldiv *****************
 Defined at:
		line 8 in file "/opt/microchip/xc8/v1.37/sources/common/lldiv.c"
 Parameters:    Size  Location     Type
  dividend        4   59[BANK1 ] unsigned long 
  divisor         4   63[BANK1 ] unsigned long 
 Auto vars:     Size  Location     Type
  quotient        4   67[BANK1 ] unsigned long 
  counter         1   71[BANK1 ] unsigned char 
 Return value:  Size  Location     Type
                  4   59[BANK1 ] unsigned long 
 Registers used:
		wreg, status,2, status,0
 Tracked objects:
		On entry : 
		On exit  : 
		Unchanged: 
 Data sizes:     COMRAM   BANK0   BANK1   BANK2   BANK3   BANK4   BANK5   BANK6   BANK7   BANK8   BANK9  BANK10  BANK11  BANK12  BANK13  BANK14  BANK15
      Params:         0       0       8       0       0       0       0       0       0       0       0       0       0       0       0       0       0
      Locals:         0       0       5       0       0       0       0       0       0       0       0       0       0       0       0       0       0
      Temps:          0       0       0       0       0       0       0       0       0       0       0       0       0       0       0       0       0
      Totals:         0       0      13       0       0       0       0       0       0       0       0       0       0       0       0       0       0
Total ram usage:       13 bytes
 Hardware stack levels used:    1
 Hardware stack levels required when called:    9
 This function calls:
		Nothing
 This function is called by:
		_WriteTime
 This function uses a non-reentrant model


 *************** function _I2CStop *****************
 Defined at:
		line 4098 in file "prog.c"
 Parameters:    Size  Location     Type
		None
 Auto vars:     Size  Location     Type
		None
 Return value:  Size  Location     Type
                  1    wreg      void 
 Registers used:
		None
 Tracked objects:
		On entry : 
		On exit  : 
		Unchanged: 
 Data sizes:     COMRAM   BANK0   BANK1   BANK2   BANK3   BANK4   BANK5   BANK6   BANK7   BANK8   BANK9  BANK10  BANK11  BANK12  BANK13  BANK14  BANK15
      Params:         0       0       0       0       0       0       0       0       0       0       0       0       0       0       0       0       0
      Locals:         0       0       0       0       0       0       0       0       0       0       0       0       0       0       0       0       0
      Temps:          0       0       0       0       0       0       0       0       0       0       0       0       0       0       0       0       0
      Totals:         0       0       0       0       0       0       0       0       0       0       0       0       0       0       0       0       0
Total ram usage:        0 bytes
 Hardware stack levels used:    1
 Hardware stack levels required when called:    9
 This function calls:
		Nothing
 This function is called by:
		_WriteTime
 This function uses a non-reentrant model


 *************** function _I2CStart *****************
 Defined at:
		line 4092 in file "prog.c"
 Parameters:    Size  Location     Type
		None
 Auto vars:     Size  Location     Type
		None
 Return value:  Size  Location     Type
                  1    wreg      void 
 Registers used:
		None
 Tracked objects:
		On entry : 
		On exit  : 
		Unchanged: 
 Data sizes:     COMRAM   BANK0   BANK1   BANK2   BANK3   BANK4   BANK5   BANK6   BANK7   BANK8   BANK9  BANK10  BANK11  BANK12  BANK13  BANK14  BANK15
      Params:         0       0       0       0       0       0       0       0       0       0       0       0       0       0       0       0       0
      Locals:         0       0       0       0       0       0       0       0       0       0       0       0       0       0       0       0       0
      Temps:          0       0       0       0       0       0       0       0       0       0       0       0       0       0       0       0       0
      Totals:         0       0       0       0       0       0       0       0       0       0       0       0       0       0       0       0       0
Total ram usage:        0 bytes
 Hardware stack levels used:    1
 Hardware stack levels required when called:    9
 This function calls:
		Nothing
 This function is called by:
		_WriteTime
 This function uses a non-reentrant model


 *************** function _I2CSend *****************
 Defined at:
		line 4121 in file "prog.c"
 Parameters:    Size  Location     Type
  dat             1    wreg     unsigned char 
 Auto vars:     Size  Location     Type
  dat             1   60[BANK1 ] unsigned char 
 Return value:  Size  Location     Type
                  1    wreg      void 
 Registers used:
		wreg, status,2, status,0
 Tracked objects:
		On entry : 
		On exit  : 
		Unchanged: 
 Data sizes:     COMRAM   BANK0   BANK1   BANK2   BANK3   BANK4   BANK5   BANK6   BANK7   BANK8   BANK9  BANK10  BANK11  BANK12  BANK13  BANK14  BANK15
      Params:         0       0       0       0       0       0       0       0       0       0       0       0       0       0       0       0       0
      Locals:         0       0       1       0       0       0       0       0       0       0       0       0       0       0       0       0       0
      Temps:          0       0       1       0       0       0       0       0       0       0       0       0       0       0       0       0       0
      Totals:         0       0       2       0       0       0       0       0       0       0       0       0       0       0       0       0       0
Total ram usage:        2 bytes
 Hardware stack levels used:    1
 Hardware stack levels required when called:    9
 This function calls:
		Nothing
 This function is called by:
		_WriteTime
 This function uses a non-reentrant model


 *************** function _I2CInit *****************
 Defined at:
		line 4084 in file "prog.c"
 Parameters:    Size  Location     Type
		None
 Auto vars:     Size  Location     Type
		None
 Return value:  Size  Location     Type
                  1    wreg      void 
 Registers used:
		wreg, status,2, status,0
 Tracked objects:
		On entry : 
		On exit  : 
		Unchanged: 
 Data sizes:     COMRAM   BANK0   BANK1   BANK2   BANK3   BANK4   BANK5   BANK6   BANK7   BANK8   BANK9  BANK10  BANK11  BANK12  BANK13  BANK14  BANK15
      Params:         0       0       0       0       0       0       0       0       0       0       0       0       0       0       0       0       0
      Locals:         0       0       0       0       0       0       0       0       0       0       0       0       0       0       0       0       0
      Temps:          0       0       0       0       0       0       0       0       0       0       0       0       0       0       0       0       0
      Totals:         0       0       0       0       0       0       0       0       0       0       0       0       0       0       0       0       0
Total ram usage:        0 bytes
 Hardware stack levels used:    1
 Hardware stack levels required when called:    9
 This function calls:
		Nothing
 This function is called by:
		_WriteTime
 This function uses a non-reentrant model


 *************** function _DEC_to_BCD *****************
 Defined at:
		line 3950 in file "prog.c"
 Parameters:    Size  Location     Type
  DEC             1    wreg     unsigned char 
 Auto vars:     Size  Location     Type
  DEC             1   64[BANK1 ] unsigned char 
 Return value:  Size  Location     Type
                  1    wreg      unsigned char 
 Registers used:
		wreg, status,2, status,0, prodl, prodh, cstack
 Tracked objects:
		On entry : 
		On exit  : 
		Unchanged: 
 Data sizes:     COMRAM   BANK0   BANK1   BANK2   BANK3   BANK4   BANK5   BANK6   BANK7   BANK8   BANK9  BANK10  BANK11  BANK12  BANK13  BANK14  BANK15
      Params:         0       0       0       0       0       0       0       0       0       0       0       0       0       0       0       0       0
      Locals:         0       0       1       0       0       0       0       0       0       0       0       0       0       0       0       0       0
      Temps:          0       0       1       0       0       0       0       0       0       0       0       0       0       0       0       0       0
      Totals:         0       0       2       0       0       0       0       0       0       0       0       0       0       0       0       0       0
Total ram usage:        2 bytes
 Hardware stack levels used:    1
 Hardware stack levels required when called:   10
 This function calls:
		___lbdiv
		___lbmod
 This function is called by:
		_WriteTime
 This function uses a non-reentrant model


 *************** function ___lbmod *****************
 Defined at:
		line 4 in file "/opt/microchip/xc8/v1.37/sources/common/lbmod.c"
 Parameters:    Size  Location     Type
  dividend        1    wreg     unsigned char 
  divisor         1   59[BANK1 ] unsigned char 
 Auto vars:     Size  Location     Type
  dividend        1   60[BANK1 ] unsigned char 
  rem             1   62[BANK1 ] unsigned char 
  counter         1   61[BANK1 ] unsigned char 
 Return value:  Size  Location     Type
                  1    wreg      unsigned char 
 Registers used:
		wreg, status,2, status,0
 Tracked objects:
		On entry : 
		On exit  : 
		Unchanged: 
 Data sizes:     COMRAM   BANK0   BANK1   BANK2   BANK3   BANK4   BANK5   BANK6   BANK7   BANK8   BANK9  BANK10  BANK11  BANK12  BANK13  BANK14  BANK15
      Params:         0       0       1       0       0       0       0       0       0       0       0       0       0       0       0       0       0
      Locals:         0       0       3       0       0       0       0       0       0       0       0       0       0       0       0       0       0
      Temps:          0       0       0       0       0       0       0       0       0       0       0       0       0       0       0       0       0
      Totals:         0       0       4       0       0       0       0       0       0       0       0       0       0       0       0       0       0
Total ram usage:        4 bytes
 Hardware stack levels used:    1
 Hardware stack levels required when called:    9
 This function calls:
		Nothing
 This function is called by:
		_TimeToInd
		_TimeEdit
		_DEC_to_BCD
		_WriteTime
 This function uses a non-reentrant model


 *************** function ___lbdiv *****************
 Defined at:
		line 4 in file "/opt/microchip/xc8/v1.37/sources/common/lbdiv.c"
 Parameters:    Size  Location     Type
  dividend        1    wreg     unsigned char 
  divisor         1   59[BANK1 ] unsigned char 
 Auto vars:     Size  Location     Type
  dividend        1   60[BANK1 ] unsigned char 
  quotient        1   62[BANK1 ] unsigned char 
  counter         1   61[BANK1 ] unsigned char 
 Return value:  Size  Location     Type
                  1    wreg      unsigned char 
 Registers used:
		wreg, status,2, status,0
 Tracked objects:
		On entry : 
		On exit  : 
		Unchanged: 
 Data sizes:     COMRAM   BANK0   BANK1   BANK2   BANK3   BANK4   BANK5   BANK6   BANK7   BANK8   BANK9  BANK10  BANK11  BANK12  BANK13  BANK14  BANK15
      Params:         0       0       1       0       0       0       0       0       0       0       0       0       0       0       0       0       0
      Locals:         0       0       3       0       0       0       0       0       0       0       0       0       0       0       0       0       0
      Temps:          0       0       0       0       0       0       0       0       0       0       0       0       0       0       0       0       0
      Totals:         0       0       4       0       0       0       0       0       0       0       0       0       0       0       0       0       0
Total ram usage:        4 bytes
 Hardware stack levels used:    1
 Hardware stack levels required when called:    9
 This function calls:
		Nothing
 This function is called by:
		_TimeToInd
		_TimeEdit
		_DEC_to_BCD
		_WriteTime
 This function uses a non-reentrant model


 *************** function _TimeData_INIT *****************
 Defined at:
		line 1247 in file "prog.c"
 Parameters:    Size  Location     Type
  TimeData        2   59[BANK1 ] PTR struct .
		 -> TimeEdit@TimeData(33), 
 Auto vars:     Size  Location     Type
  i               1   66[BANK1 ] unsigned char 
  i               1   65[BANK1 ] unsigned char 
 Return value:  Size  Location     Type
                  1    wreg      void 
 Registers used:
		wreg, fsr1l, fsr1h, fsr2l, fsr2h, status,2, status,0, prodl, prodh
 Tracked objects:
		On entry : 
		On exit  : 
		Unchanged: 
 Data sizes:     COMRAM   BANK0   BANK1   BANK2   BANK3   BANK4   BANK5   BANK6   BANK7   BANK8   BANK9  BANK10  BANK11  BANK12  BANK13  BANK14  BANK15
      Params:         0       0       2       0       0       0       0       0       0       0       0       0       0       0       0       0       0
      Locals:         0       0       2       0       0       0       0       0       0       0       0       0       0       0       0       0       0
      Temps:          0       0       4       0       0       0       0       0       0       0       0       0       0       0       0       0       0
      Totals:         0       0       8       0       0       0       0       0       0       0       0       0       0       0       0       0       0
Total ram usage:        8 bytes
 Hardware stack levels used:    1
 Hardware stack levels required when called:    9
 This function calls:
		Nothing
 This function is called by:
		_TimeEdit
 This function uses a non-reentrant model


 *************** function _TimeData_BlinkOFF *****************
 Defined at:
		line 1241 in file "prog.c"
 Parameters:    Size  Location     Type
  TimeData        2   65[BANK1 ] PTR struct .
		 -> TimeEdit@TimeData(33), 
 Auto vars:     Size  Location     Type
		None
 Return value:  Size  Location     Type
                  1    wreg      void 
 Registers used:
		wreg, fsr2l, fsr2h, status,2, status,0, prodl, prodh, cstack
 Tracked objects:
		On entry : 
		On exit  : 
		Unchanged: 
 Data sizes:     COMRAM   BANK0   BANK1   BANK2   BANK3   BANK4   BANK5   BANK6   BANK7   BANK8   BANK9  BANK10  BANK11  BANK12  BANK13  BANK14  BANK15
      Params:         0       0       2       0       0       0       0       0       0       0       0       0       0       0       0       0       0
      Locals:         0       0       0       0       0       0       0       0       0       0       0       0       0       0       0       0       0
      Temps:          0       0       0       0       0       0       0       0       0       0       0       0       0       0       0       0       0
      Totals:         0       0       2       0       0       0       0       0       0       0       0       0       0       0       0       0       0
Total ram usage:        2 bytes
 Hardware stack levels used:    1
 Hardware stack levels required when called:   10
 This function calls:
		_InteractiveData_BlinkOFF
 This function is called by:
		_TimeEdit
 This function uses a non-reentrant model


 *************** function _SetTimeSource *****************
 Defined at:
		line 624 in file "prog.c"
 Parameters:    Size  Location     Type
  time_source     1    wreg     unsigned char 
 Auto vars:     Size  Location     Type
  time_source     1   64[BANK1 ] unsigned char 
 Return value:  Size  Location     Type
                  1    wreg      void 
 Registers used:
		wreg, status,2, status,0, cstack
 Tracked objects:
		On entry : 
		On exit  : 
		Unchanged: 
 Data sizes:     COMRAM   BANK0   BANK1   BANK2   BANK3   BANK4   BANK5   BANK6   BANK7   BANK8   BANK9  BANK10  BANK11  BANK12  BANK13  BANK14  BANK15
      Params:         0       0       0       0       0       0       0       0       0       0       0       0       0       0       0       0       0
      Locals:         0       0       1       0       0       0       0       0       0       0       0       0       0       0       0       0       0
      Temps:          0       0       1       0       0       0       0       0       0       0       0       0       0       0       0       0       0
      Totals:         0       0       2       0       0       0       0       0       0       0       0       0       0       0       0       0       0
Total ram usage:        2 bytes
 Hardware stack levels used:    1
 Hardware stack levels required when called:   10
 This function calls:
		_EEWR
 This function is called by:
		_TimeEdit
 This function uses a non-reentrant model


 *************** function _ReIndTimeEdit *****************
 Defined at:
		line 1200 in file "prog.c"
 Parameters:    Size  Location     Type
  TimeData        2   78[BANK1 ] PTR struct .
		 -> TimeEdit@TimeData(33), 
 Auto vars:     Size  Location     Type
  i               1   93[BANK1 ] unsigned char 
  i               1   92[BANK1 ] unsigned char 
  sources_of_t    6   84[BANK1 ] PTR unsigned char [3]
		 -> STR_13(4), STR_12(4), STR_11(4), 
  n               1    0        unsigned char 
  value           1   90[BANK1 ] unsigned char 
 Return value:  Size  Location     Type
                  1    wreg      void 
 Registers used:
		wreg, fsr0l, fsr0h, fsr1l, fsr1h, fsr2l, fsr2h, status,2, status,0, tblptrl, tblptrh, tblptru, prodl, prodh, cstack
 Tracked objects:
		On entry : 
		On exit  : 
		Unchanged: 
 Data sizes:     COMRAM   BANK0   BANK1   BANK2   BANK3   BANK4   BANK5   BANK6   BANK7   BANK8   BANK9  BANK10  BANK11  BANK12  BANK13  BANK14  BANK15
      Params:         0       0       2       0       0       0       0       0       0       0       0       0       0       0       0       0       0
      Locals:         0       0      10       0       0       0       0       0       0       0       0       0       0       0       0       0       0
      Temps:          0       0       4       0       0       0       0       0       0       0       0       0       0       0       0       0       0
      Totals:         0       0      16       0       0       0       0       0       0       0       0       0       0       0       0       0       0
Total ram usage:       16 bytes
 Hardware stack levels used:    1
 Hardware stack levels required when called:   11
 This function calls:
		_GetDayOfWeek
		_OutputInteractiveData
		_OutputString
		_getNumChar
 This function is called by:
		_TimeEdit
 This function uses a non-reentrant model


 *************** function _GetDayOfWeekByDate *****************
 Defined at:
		line 2302 in file "prog.c"
 Parameters:    Size  Location     Type
  _year           1    wreg     unsigned char 
  _mounth         1   79[BANK1 ] unsigned char 
  _day            1   80[BANK1 ] unsigned char 
 Auto vars:     Size  Location     Type
  _year           1   84[BANK1 ] unsigned char 
  century_numb    1    0        const unsigned char 
 Return value:  Size  Location     Type
                  1    wreg      unsigned char 
 Registers used:
		wreg, status,2, status,0, prodl, prodh, cstack
 Tracked objects:
		On entry : 
		On exit  : 
		Unchanged: 
 Data sizes:     COMRAM   BANK0   BANK1   BANK2   BANK3   BANK4   BANK5   BANK6   BANK7   BANK8   BANK9  BANK10  BANK11  BANK12  BANK13  BANK14  BANK15
      Params:         0       0       2       0       0       0       0       0       0       0       0       0       0       0       0       0       0
      Locals:         0       0       2       0       0       0       0       0       0       0       0       0       0       0       0       0       0
      Temps:          0       0       2       0       0       0       0       0       0       0       0       0       0       0       0       0       0
      Totals:         0       0       6       0       0       0       0       0       0       0       0       0       0       0       0       0       0
Total ram usage:        6 bytes
 Hardware stack levels used:    1
 Hardware stack levels required when called:   10
 This function calls:
		___awdiv
		___awmod
		___wmul
 This function is called by:
		_TimeEdit
 This function uses a non-reentrant model


 *************** function ___wmul *****************
 Defined at:
		line 15 in file "/opt/microchip/xc8/v1.37/sources/common/Umul16.c"
 Parameters:    Size  Location     Type
  multiplier      2   59[BANK1 ] unsigned int 
  multiplicand    2   61[BANK1 ] unsigned int 
 Auto vars:     Size  Location     Type
  product         2   63[BANK1 ] unsigned int 
 Return value:  Size  Location     Type
                  2   59[BANK1 ] unsigned int 
 Registers used:
		wreg, status,2, status,0, prodl, prodh
 Tracked objects:
		On entry : 
		On exit  : 
		Unchanged: 
 Data sizes:     COMRAM   BANK0   BANK1   BANK2   BANK3   BANK4   BANK5   BANK6   BANK7   BANK8   BANK9  BANK10  BANK11  BANK12  BANK13  BANK14  BANK15
      Params:         0       0       4       0       0       0       0       0       0       0       0       0       0       0       0       0       0
      Locals:         0       0       2       0       0       0       0       0       0       0       0       0       0       0       0       0       0
      Temps:          0       0       0       0       0       0       0       0       0       0       0       0       0       0       0       0       0
      Totals:         0       0       6       0       0       0       0       0       0       0       0       0       0       0       0       0       0
Total ram usage:        6 bytes
 Hardware stack levels used:    1
 Hardware stack levels required when called:    9
 This function calls:
		Nothing
 This function is called by:
		_EditSchedule
		_GetDayOfWeekByDate
 This function uses a non-reentrant model


 *************** function ___awmod *****************
 Defined at:
		line 8 in file "/opt/microchip/xc8/v1.37/sources/common/awmod.c"
 Parameters:    Size  Location     Type
  dividend        2   73[BANK1 ] int 
  divisor         2   75[BANK1 ] int 
 Auto vars:     Size  Location     Type
  sign            1   78[BANK1 ] unsigned char 
  counter         1   77[BANK1 ] unsigned char 
 Return value:  Size  Location     Type
                  2   73[BANK1 ] int 
 Registers used:
		wreg, status,2, status,0
 Tracked objects:
		On entry : 
		On exit  : 
		Unchanged: 
 Data sizes:     COMRAM   BANK0   BANK1   BANK2   BANK3   BANK4   BANK5   BANK6   BANK7   BANK8   BANK9  BANK10  BANK11  BANK12  BANK13  BANK14  BANK15
      Params:         0       0       4       0       0       0       0       0       0       0       0       0       0       0       0       0       0
      Locals:         0       0       2       0       0       0       0       0       0       0       0       0       0       0       0       0       0
      Temps:          0       0       0       0       0       0       0       0       0       0       0       0       0       0       0       0       0
      Totals:         0       0       6       0       0       0       0       0       0       0       0       0       0       0       0       0       0
Total ram usage:        6 bytes
 Hardware stack levels used:    1
 Hardware stack levels required when called:    9
 This function calls:
		Nothing
 This function is called by:
		_GetDayOfWeekByDate
 This function uses a non-reentrant model


 *************** function ___awdiv *****************
 Defined at:
		line 8 in file "/opt/microchip/xc8/v1.37/sources/common/awdiv.c"
 Parameters:    Size  Location     Type
  dividend        2   65[BANK1 ] int 
  divisor         2   67[BANK1 ] int 
 Auto vars:     Size  Location     Type
  quotient        2   71[BANK1 ] int 
  sign            1   70[BANK1 ] unsigned char 
  counter         1   69[BANK1 ] unsigned char 
 Return value:  Size  Location     Type
                  2   65[BANK1 ] int 
 Registers used:
		wreg, status,2, status,0
 Tracked objects:
		On entry : 
		On exit  : 
		Unchanged: 
 Data sizes:     COMRAM   BANK0   BANK1   BANK2   BANK3   BANK4   BANK5   BANK6   BANK7   BANK8   BANK9  BANK10  BANK11  BANK12  BANK13  BANK14  BANK15
      Params:         0       0       4       0       0       0       0       0       0       0       0       0       0       0       0       0       0
      Locals:         0       0       4       0       0       0       0       0       0       0       0       0       0       0       0       0       0
      Temps:          0       0       0       0       0       0       0       0       0       0       0       0       0       0       0       0       0
      Totals:         0       0       8       0       0       0       0       0       0       0       0       0       0       0       0       0       0
Total ram usage:        8 bytes
 Hardware stack levels used:    1
 Hardware stack levels required when called:    9
 This function calls:
		Nothing
 This function is called by:
		_GetDayOfWeekByDate
 This function uses a non-reentrant model


 *************** function _Save_USART_SpeedNumber *****************
 Defined at:
		line 3630 in file "prog.c"
 Parameters:    Size  Location     Type
  speed           1    wreg     unsigned char 
 Auto vars:     Size  Location     Type
  speed           1   63[BANK1 ] unsigned char 
 Return value:  Size  Location     Type
                  1    wreg      void 
 Registers used:
		wreg, status,2, cstack
 Tracked objects:
		On entry : 
		On exit  : 
		Unchanged: 
 Data sizes:     COMRAM   BANK0   BANK1   BANK2   BANK3   BANK4   BANK5   BANK6   BANK7   BANK8   BANK9  BANK10  BANK11  BANK12  BANK13  BANK14  BANK15
      Params:         0       0       0       0       0       0       0       0       0       0       0       0       0       0       0       0       0
      Locals:         0       0       1       0       0       0       0       0       0       0       0       0       0       0       0       0       0
      Temps:          0       0       0       0       0       0       0       0       0       0       0       0       0       0       0       0       0
      Totals:         0       0       1       0       0       0       0       0       0       0       0       0       0       0       0       0       0
Total ram usage:        1 bytes
 Hardware stack levels used:    1
 Hardware stack levels required when called:   10
 This function calls:
		_EEWR
 This function is called by:
		_WorkingWithGSM
		_Settings
 This function uses a non-reentrant model


 *************** function _Init_GSM *****************
 Defined at:
		line 3302 in file "prog.c"
 Parameters:    Size  Location     Type
  show            1    wreg     unsigned char 
 Auto vars:     Size  Location     Type
  show            1   96[BANK1 ] unsigned char 
 Return value:  Size  Location     Type
                  1    wreg      unsigned char 
 Registers used:
		wreg, fsr0l, fsr0h, fsr1l, fsr1h, fsr2l, fsr2h, status,2, status,0, tblptrl, tblptrh, tblptru, prodl, prodh, cstack
 Tracked objects:
		On entry : 
		On exit  : 
		Unchanged: 
 Data sizes:     COMRAM   BANK0   BANK1   BANK2   BANK3   BANK4   BANK5   BANK6   BANK7   BANK8   BANK9  BANK10  BANK11  BANK12  BANK13  BANK14  BANK15
      Params:         0       0       0       0       0       0       0       0       0       0       0       0       0       0       0       0       0
      Locals:         0       0       1       0       0       0       0       0       0       0       0       0       0       0       0       0       0
      Temps:          0       0       0       0       0       0       0       0       0       0       0       0       0       0       0       0       0
      Totals:         0       0       1       0       0       0       0       0       0       0       0       0       0       0       0       0       0
Total ram usage:        1 bytes
 Hardware stack levels used:    1
 Hardware stack levels required when called:   12
 This function calls:
		_FindIncommingData
		_Init_USART
		_OutputSystemMessage
		_Read_USART_SpeedNumber
		_SendCommandToUSART
		_UserDelay
		_clrInd
 This function is called by:
		_Settings
		_main2
 This function uses a non-reentrant model


 *************** function _UserDelay *****************
 Defined at:
		line 3297 in file "prog.c"
 Parameters:    Size  Location     Type
  value           2   79[BANK1 ] unsigned int 
 Auto vars:     Size  Location     Type
  timestamp       4   81[BANK1 ] unsigned long 
 Return value:  Size  Location     Type
                  1    wreg      void 
 Registers used:
		wreg, status,2, status,0, cstack
 Tracked objects:
		On entry : 
		On exit  : 
		Unchanged: 
 Data sizes:     COMRAM   BANK0   BANK1   BANK2   BANK3   BANK4   BANK5   BANK6   BANK7   BANK8   BANK9  BANK10  BANK11  BANK12  BANK13  BANK14  BANK15
      Params:         0       0       2       0       0       0       0       0       0       0       0       0       0       0       0       0       0
      Locals:         0       0       4       0       0       0       0       0       0       0       0       0       0       0       0       0       0
      Temps:          0       0       0       0       0       0       0       0       0       0       0       0       0       0       0       0       0
      Totals:         0       0       6       0       0       0       0       0       0       0       0       0       0       0       0       0       0
Total ram usage:        6 bytes
 Hardware stack levels used:    1
 Hardware stack levels required when called:   11
 This function calls:
		_getSystemTimePoint
		_testTimePoint
 This function is called by:
		_Init_GSM
		_main2
 This function uses a non-reentrant model


 *************** function _Read_USART_SpeedNumber *****************
 Defined at:
		line 3626 in file "prog.c"
 Parameters:    Size  Location     Type
		None
 Auto vars:     Size  Location     Type
		None
 Return value:  Size  Location     Type
                  1    wreg      unsigned char 
 Registers used:
		wreg, status,2, cstack
 Tracked objects:
		On entry : 
		On exit  : 
		Unchanged: 
 Data sizes:     COMRAM   BANK0   BANK1   BANK2   BANK3   BANK4   BANK5   BANK6   BANK7   BANK8   BANK9  BANK10  BANK11  BANK12  BANK13  BANK14  BANK15
      Params:         0       0       0       0       0       0       0       0       0       0       0       0       0       0       0       0       0
      Locals:         0       0       0       0       0       0       0       0       0       0       0       0       0       0       0       0       0
      Temps:          0       0       0       0       0       0       0       0       0       0       0       0       0       0       0       0       0
      Totals:         0       0       0       0       0       0       0       0       0       0       0       0       0       0       0       0       0
Total ram usage:        0 bytes
 Hardware stack levels used:    1
 Hardware stack levels required when called:   10
 This function calls:
		_EERD
 This function is called by:
		_Init_GSM
		_USART_Speed_Choise
 This function uses a non-reentrant model


 *************** function _Init_USART *****************
 Defined at:
		line 2632 in file "prog.c"
 Parameters:    Size  Location     Type
  SpeedNumber     1    wreg     unsigned char 
 Auto vars:     Size  Location     Type
  SpeedNumber     1   61[BANK1 ] unsigned char 
  _value          2   59[BANK1 ] unsigned int 
 Return value:  Size  Location     Type
                  1    wreg      void 
 Registers used:
		wreg, status,2, status,0
 Tracked objects:
		On entry : 
		On exit  : 
		Unchanged: 
 Data sizes:     COMRAM   BANK0   BANK1   BANK2   BANK3   BANK4   BANK5   BANK6   BANK7   BANK8   BANK9  BANK10  BANK11  BANK12  BANK13  BANK14  BANK15
      Params:         0       0       0       0       0       0       0       0       0       0       0       0       0       0       0       0       0
      Locals:         0       0       3       0       0       0       0       0       0       0       0       0       0       0       0       0       0
      Temps:          0       0       0       0       0       0       0       0       0       0       0       0       0       0       0       0       0
      Totals:         0       0       3       0       0       0       0       0       0       0       0       0       0       0       0       0       0
Total ram usage:        3 bytes
 Hardware stack levels used:    1
 Hardware stack levels required when called:    9
 This function calls:
		Nothing
 This function is called by:
		_WorkingWithGSM
		_Init_GSM
 This function uses a non-reentrant model


 *************** function _SendSMS *****************
 Defined at:
		line 4170 in file "prog.c"
 Parameters:    Size  Location     Type
  PhoneNumber     2  137[BANK1 ] PTR unsigned char 
		 -> STR_89(14), active_phone(14), 
  Text            2  139[BANK1 ] PTR unsigned char 
		 -> GetSystemInfo@info(73), 
 Auto vars:     Size  Location     Type
  command        12  143[BANK1 ] unsigned char [12]
  y               4  155[BANK1 ] unsigned char [4]
  tt              4  159[BANK1 ] unsigned long 
  e               3  166[BANK1 ] unsigned char [3]
  tempString      3  163[BANK1 ] unsigned char [3]
  sc_len          2  179[BANK1 ] unsigned int 
  pn              2  177[BANK1 ] PTR unsigned char 
		 -> STR_89(14), active_phone(14), 
  l               2  171[BANK1 ] unsigned int 
  myNumber        2  169[BANK1 ] PTR unsigned char 
		 -> EncodePhoneNumberToPDU@encoded(15), 
 Return value:  Size  Location     Type
                  1    wreg      void 
 Registers used:
		wreg, fsr0l, fsr0h, fsr1l, fsr1h, fsr2l, fsr2h, status,2, status,0, tblptrl, tblptrh, tblptru, cstack
 Tracked objects:
		On entry : 
		On exit  : 
		Unchanged: 
 Data sizes:     COMRAM   BANK0   BANK1   BANK2   BANK3   BANK4   BANK5   BANK6   BANK7   BANK8   BANK9  BANK10  BANK11  BANK12  BANK13  BANK14  BANK15
      Params:         0       0       4       0       0       0       0       0       0       0       0       0       0       0       0       0       0
      Locals:         0       0      38       0       0       0       0       0       0       0       0       0       0       0       0       0       0
      Temps:          0       0       2       0       0       0       0       0       0       0       0       0       0       0       0       0       0
      Totals:         0       0      44       0       0       0       0       0       0       0       0       0       0       0       0       0       0
Total ram usage:       44 bytes
 Hardware stack levels used:    1
 Hardware stack levels required when called:   12
 This function calls:
		_CleanStringArray
		_EncodePhoneNumberToPDU
		_FindIncommingData
		_NumericToHEXString
		_NumericToString
		_SendCommandToUSART
		_cp1251_to_unicode
		_getSystemTimePoint
		_strcat
		_strlen
		_testTimePoint
 This function is called by:
		_main2
 This function uses a non-reentrant model


 *************** function _cp1251_to_unicode *****************
 Defined at:
		line 4158 in file "prog.c"
 Parameters:    Size  Location     Type
  dest            2   83[BANK1 ] PTR unsigned char 
		 -> SMS(512), 
  src             2   85[BANK1 ] PTR unsigned char 
		 -> GetSystemInfo@info(73), 
  eof             2   87[BANK1 ] PTR unsigned char 
		 -> SMS(512), 
 Auto vars:     Size  Location     Type
  t               5   89[BANK1 ] unsigned char [5]
  a               2   94[BANK1 ] unsigned int 
 Return value:  Size  Location     Type
                  1    wreg      void 
 Registers used:
		wreg, fsr0l, fsr0h, fsr1l, fsr1h, fsr2l, fsr2h, status,2, status,0, tblptrl, tblptrh, tblptru, cstack
 Tracked objects:
		On entry : 
		On exit  : 
		Unchanged: 
 Data sizes:     COMRAM   BANK0   BANK1   BANK2   BANK3   BANK4   BANK5   BANK6   BANK7   BANK8   BANK9  BANK10  BANK11  BANK12  BANK13  BANK14  BANK15
      Params:         0       0       6       0       0       0       0       0       0       0       0       0       0       0       0       0       0
      Locals:         0       0       7       0       0       0       0       0       0       0       0       0       0       0       0       0       0
      Temps:          0       0       0       0       0       0       0       0       0       0       0       0       0       0       0       0       0
      Totals:         0       0      13       0       0       0       0       0       0       0       0       0       0       0       0       0       0
Total ram usage:       13 bytes
 Hardware stack levels used:    1
 Hardware stack levels required when called:   11
 This function calls:
		_GetUnicodeSymbol
		_NumericToHEXString
		_strcat
 This function is called by:
		_SendSMS
 This function uses a non-reentrant model


 *************** function _NumericToHEXString *****************
 Defined at:
		line 972 in file "prog.c"
 Parameters:    Size  Location     Type
  n               4   73[BANK1 ] long 
  mySring         2   77[BANK1 ] PTR unsigned char 
		 -> SendSMS@e(3), SendSMS@tempString(3), cp1251_to_unicode@t(5), 
  size            1   79[BANK1 ] unsigned char 
 Auto vars:     Size  Location     Type
  displacement    1   82[BANK1 ] unsigned char 
 Return value:  Size  Location     Type
                  1    wreg      void 
 Registers used:
		wreg, fsr2l, fsr2h, status,2, status,0, cstack
 Tracked objects:
		On entry : 
		On exit  : 
		Unchanged: 
 Data sizes:     COMRAM   BANK0   BANK1   BANK2   BANK3   BANK4   BANK5   BANK6   BANK7   BANK8   BANK9  BANK10  BANK11  BANK12  BANK13  BANK14  BANK15
      Params:         0       0       7       0       0       0       0       0       0       0       0       0       0       0       0       0       0
      Locals:         0       0       1       0       0       0       0       0       0       0       0       0       0       0       0       0       0
      Temps:          0       0       2       0       0       0       0       0       0       0       0       0       0       0       0       0       0
      Totals:         0       0      10       0       0       0       0       0       0       0       0       0       0       0       0       0       0
Total ram usage:       10 bytes
 Hardware stack levels used:    1
 Hardware stack levels required when called:   10
 This function calls:
		___aldiv
		_getNumChar
 This function is called by:
		_cp1251_to_unicode
		_SendSMS
 This function uses a non-reentrant model


 *************** function _GetUnicodeSymbol *****************
 Defined at:
		line 357 in file "prog.c"
 Parameters:    Size  Location     Type
  symb            1    wreg     unsigned char 
 Auto vars:     Size  Location     Type
  symb            1   61[BANK1 ] unsigned char 
 Return value:  Size  Location     Type
                  2   59[BANK1 ] unsigned int 
 Registers used:
		wreg, status,2, status,0
 Tracked objects:
		On entry : 
		On exit  : 
		Unchanged: 
 Data sizes:     COMRAM   BANK0   BANK1   BANK2   BANK3   BANK4   BANK5   BANK6   BANK7   BANK8   BANK9  BANK10  BANK11  BANK12  BANK13  BANK14  BANK15
      Params:         0       0       2       0       0       0       0       0       0       0       0       0       0       0       0       0       0
      Locals:         0       0       1       0       0       0       0       0       0       0       0       0       0       0       0       0       0
      Temps:          0       0       0       0       0       0       0       0       0       0       0       0       0       0       0       0       0
      Totals:         0       0       3       0       0       0       0       0       0       0       0       0       0       0       0       0       0
Total ram usage:        3 bytes
 Hardware stack levels used:    1
 Hardware stack levels required when called:    9
 This function calls:
		Nothing
 This function is called by:
		_cp1251_to_unicode
 This function uses a non-reentrant model


 *************** function _FindIncommingData *****************
 Defined at:
		line 2838 in file "prog.c"
 Parameters:    Size  Location     Type
  regexp          2   66[BANK1 ] PTR unsigned char 
		 -> STR_98(3), STR_41(3), StandardAnswer_OK(3), 
  container       2   68[BANK1 ] PTR unsigned char 
		 -> NULL(0), 
  history_inde    2   70[BANK1 ] int 
 Auto vars:     Size  Location     Type
  a               2   82[BANK1 ] unsigned int 
  s0              2   86[BANK1 ] unsigned int 
  s1              2   74[BANK1 ] unsigned int 
  j               2   94[BANK1 ] unsigned int 
  last_s          2   92[BANK1 ] unsigned int 
  not_found       2   80[BANK1 ] unsigned int 
  i               2   88[BANK1 ] unsigned int 
  pointer         2   90[BANK1 ] PTR unsigned char 
		 -> buff_string_11(256), buff_string_10(256), buff_string_9(256), buff_string_8(256), 
  end_of_regex    2   84[BANK1 ] PTR unsigned char 
		 -> STR_98(3), STR_41(3), StandardAnswer_OK(3), 
  finish_index    2   78[BANK1 ] unsigned int 
  start_index     2   76[BANK1 ] unsigned int 
 Return value:  Size  Location     Type
                  1    wreg      unsigned char 
 Registers used:
		wreg, fsr1l, fsr1h, fsr2l, fsr2h, status,2, status,0, tblptrl, tblptrh, tblptru, cstack
 Tracked objects:
		On entry : 
		On exit  : 
		Unchanged: 
 Data sizes:     COMRAM   BANK0   BANK1   BANK2   BANK3   BANK4   BANK5   BANK6   BANK7   BANK8   BANK9  BANK10  BANK11  BANK12  BANK13  BANK14  BANK15
      Params:         0       0       6       0       0       0       0       0       0       0       0       0       0       0       0       0       0
      Locals:         0       0      22       0       0       0       0       0       0       0       0       0       0       0       0       0       0
      Temps:          0       0       2       0       0       0       0       0       0       0       0       0       0       0       0       0       0
      Totals:         0       0      30       0       0       0       0       0       0       0       0       0       0       0       0       0       0
Total ram usage:       30 bytes
 Hardware stack levels used:    1
 Hardware stack levels required when called:   10
 This function calls:
		_CleanStringArray
		_GetStringLength
 This function is called by:
		_Init_GSM
		_SendSMS
 This function uses a non-reentrant model


 *************** function _GetStringLength *****************
 Defined at:
		line 2885 in file "prog.c"
 Parameters:    Size  Location     Type
  container       2   59[BANK1 ] PTR unsigned char 
		 -> STR_98(3), STR_41(3), StandardAnswer_OK(3), 
 Auto vars:     Size  Location     Type
  i               2   61[BANK1 ] unsigned int 
 Return value:  Size  Location     Type
                  2   59[BANK1 ] unsigned int 
 Registers used:
		wreg, status,2, status,0, tblptrl, tblptrh, tblptru
 Tracked objects:
		On entry : 
		On exit  : 
		Unchanged: 
 Data sizes:     COMRAM   BANK0   BANK1   BANK2   BANK3   BANK4   BANK5   BANK6   BANK7   BANK8   BANK9  BANK10  BANK11  BANK12  BANK13  BANK14  BANK15
      Params:         0       0       2       0       0       0       0       0       0       0       0       0       0       0       0       0       0
      Locals:         0       0       2       0       0       0       0       0       0       0       0       0       0       0       0       0       0
      Temps:          0       0       0       0       0       0       0       0       0       0       0       0       0       0       0       0       0
      Totals:         0       0       4       0       0       0       0       0       0       0       0       0       0       0       0       0       0
Total ram usage:        4 bytes
 Hardware stack levels used:    1
 Hardware stack levels required when called:    9
 This function calls:
		Nothing
 This function is called by:
		_FindIncommingData
 This function uses a non-reentrant model


 *************** function _EncodePhoneNumberToPDU *****************
 Defined at:
		line 4137 in file "prog.c"
 Parameters:    Size  Location     Type
  phone_number    2   68[BANK1 ] PTR unsigned char 
		 -> STR_89(14), active_phone(14), 
 Auto vars:     Size  Location     Type
  i               1   89[BANK1 ] unsigned char 
  encoded        15   72[BANK1 ] unsigned char [15]
  temp            1   88[BANK1 ] unsigned char 
  number_legth    1   87[BANK1 ] unsigned char 
 Return value:  Size  Location     Type
                  2   68[BANK1 ] PTR unsigned char 
 Registers used:
		wreg, fsr0l, fsr0h, fsr1l, fsr1h, fsr2l, fsr2h, status,2, status,0, tblptrl, tblptrh, tblptru, cstack
 Tracked objects:
		On entry : 
		On exit  : 
		Unchanged: 
 Data sizes:     COMRAM   BANK0   BANK1   BANK2   BANK3   BANK4   BANK5   BANK6   BANK7   BANK8   BANK9  BANK10  BANK11  BANK12  BANK13  BANK14  BANK15
      Params:         0       0       2       0       0       0       0       0       0       0       0       0       0       0       0       0       0
      Locals:         0       0      18       0       0       0       0       0       0       0       0       0       0       0       0       0       0
      Temps:          0       0       2       0       0       0       0       0       0       0       0       0       0       0       0       0       0
      Totals:         0       0      22       0       0       0       0       0       0       0       0       0       0       0       0       0       0
Total ram usage:       22 bytes
 Hardware stack levels used:    1
 Hardware stack levels required when called:   10
 This function calls:
		_strcat
		_strcpy
		_strlen
 This function is called by:
		_SendSMS
 This function uses a non-reentrant model


 *************** function _strlen *****************
 Defined at:
		line 4 in file "/opt/microchip/xc8/v1.37/sources/common/strlen.c"
 Parameters:    Size  Location     Type
  s               2   59[BANK1 ] PTR const unsigned char 
		 -> SMS(512), STR_89(14), GetSystemInfo@info(73), active_phone(14), 
 Auto vars:     Size  Location     Type
  cp              2   61[BANK1 ] PTR const unsigned char 
		 -> SMS(512), STR_89(14), GetSystemInfo@info(73), active_phone(14), 
 Return value:  Size  Location     Type
                  2   59[BANK1 ] unsigned int 
 Registers used:
		wreg, fsr0l, fsr0h, status,2, status,0, tblptrl, tblptrh, tblptru
 Tracked objects:
		On entry : 
		On exit  : 
		Unchanged: 
 Data sizes:     COMRAM   BANK0   BANK1   BANK2   BANK3   BANK4   BANK5   BANK6   BANK7   BANK8   BANK9  BANK10  BANK11  BANK12  BANK13  BANK14  BANK15
      Params:         0       0       2       0       0       0       0       0       0       0       0       0       0       0       0       0       0
      Locals:         0       0       2       0       0       0       0       0       0       0       0       0       0       0       0       0       0
      Temps:          0       0       0       0       0       0       0       0       0       0       0       0       0       0       0       0       0
      Totals:         0       0       4       0       0       0       0       0       0       0       0       0       0       0       0       0       0
Total ram usage:        4 bytes
 Hardware stack levels used:    1
 Hardware stack levels required when called:    9
 This function calls:
		Nothing
 This function is called by:
		_EncodePhoneNumberToPDU
		_SendSMS
 This function uses a non-reentrant model


 *************** function _strcpy *****************
 Defined at:
		line 8 in file "/opt/microchip/xc8/v1.37/sources/common/strcpy.c"
 Parameters:    Size  Location     Type
  to              2   59[BANK1 ] PTR unsigned char 
		 -> EncodePhoneNumberToPDU@encoded(15), active_phone(14), 
  from            2   61[BANK1 ] PTR const unsigned char 
		 -> STR_89(14), active_phone(14), container.phone(14), FindPhoneContactByNumber@container(33), 
		 -> NULL(0), 
 Auto vars:     Size  Location     Type
  cp              2   63[BANK1 ] PTR unsigned char 
		 -> EncodePhoneNumberToPDU@encoded(15), active_phone(14), 
 Return value:  Size  Location     Type
                  2   59[BANK1 ] PTR unsigned char 
 Registers used:
		wreg, fsr0l, fsr0h, fsr2l, fsr2h, status,2, status,0, tblptrl, tblptrh, tblptru
 Tracked objects:
		On entry : 
		On exit  : 
		Unchanged: 
 Data sizes:     COMRAM   BANK0   BANK1   BANK2   BANK3   BANK4   BANK5   BANK6   BANK7   BANK8   BANK9  BANK10  BANK11  BANK12  BANK13  BANK14  BANK15
      Params:         0       0       4       0       0       0       0       0       0       0       0       0       0       0       0       0       0
      Locals:         0       0       2       0       0       0       0       0       0       0       0       0       0       0       0       0       0
      Temps:          0       0       0       0       0       0       0       0       0       0       0       0       0       0       0       0       0
      Totals:         0       0       6       0       0       0       0       0       0       0       0       0       0       0       0       0       0
Total ram usage:        6 bytes
 Hardware stack levels used:    1
 Hardware stack levels required when called:    9
 This function calls:
		Nothing
 This function is called by:
		_EncodePhoneNumberToPDU
 This function uses a non-reentrant model


 *************** function _PhonebookEdit *****************
 Defined at:
		line 3467 in file "prog.c"
 Parameters:    Size  Location     Type
		None
 Auto vars:     Size  Location     Type
  aaa            33   10[BANK10] struct .
  i               1   60[BANK10] unsigned char 
  number          2   51[BANK10] PTR unsigned char 
		 -> InputText@ret_string(33), NULL(0), 
  input_props     1   50[BANK10] struct .
  field           2   56[BANK10] PTR unsigned char 
		 -> InputText@ret_string(33), NULL(0), 
  input_props     1   54[BANK10] struct .
  menu           10    0[BANK10] PTR unsigned char [5]
		 -> STR_88(10), STR_87(11), STR_86(12), STR_73(9), 
		 -> STR_72(10), STR_71(14), STR_70(15), STR_69(15), 
		 -> STR_68(15), STR_67(15), STR_66(6), STR_65(6), 
		 -> STR_64(6), STR_56(12), STR_55(8), STR_54(14), 
		 -> STR_53(9), STR_23(16), STR_22(8), STR_21(11), 
		 -> STR_20(9), STR_19(9), NULL(0), 
  result          1   55[BANK10] unsigned char 
  num_cell        3   43[BANK10] unsigned char [3]
  Contact        33   61[BANK10] struct .
  cell            2   58[BANK10] unsigned int 
  read            1   53[BANK10] unsigned char 
 Return value:  Size  Location     Type
                  1    wreg      void 
 Registers used:
		wreg, fsr0l, fsr0h, fsr1l, fsr1h, fsr2l, fsr2h, status,2, status,0, tblptrl, tblptrh, tblptru, prodl, prodh, cstack
 Tracked objects:
		On entry : 
		On exit  : 
		Unchanged: 
 Data sizes:     COMRAM   BANK0   BANK1   BANK2   BANK3   BANK4   BANK5   BANK6   BANK7   BANK8   BANK9  BANK10  BANK11  BANK12  BANK13  BANK14  BANK15
      Params:         0       0       0       0       0       0       0       0       0       0       0       0       0       0       0       0       0
      Locals:         0       0       0       0       0       0       0       0       0       0       0      94       0       0       0       0       0
      Temps:          0       0       2       0       0       0       0       0       0       0       0       0       0       0       0       0       0
      Totals:         0       0       2       0       0       0       0       0       0       0       0      94       0       0       0       0       0
Total ram usage:       96 bytes
 Hardware stack levels used:    1
 Hardware stack levels required when called:   13
 This function calls:
		_FillPhonebookCellFromEEPROM
		_Format_EEPROM_Memory
		_InputText
		_NumericToString
		_OutputString
		_OutputSystemMessage
		_Select_OK_NO
		_SendCommandToUSART
		_ShowMenu
		_TelephoneCall
		_WritePhonebookCellToEEPROM
		___lwdiv
		_clrInd
 This function is called by:
		_main2
 This function uses a non-reentrant model


 *************** function _WritePhonebookCellToEEPROM *****************
 Defined at:
		line 1494 in file "prog.c"
 Parameters:    Size  Location     Type
  container       2   72[BANK1 ] PTR struct .
		 -> PhonebookEdit@aaa(33), PhonebookEdit@Contact(33), 
  adress_start    2   74[BANK1 ] unsigned int 
 Auto vars:     Size  Location     Type
		None
 Return value:  Size  Location     Type
                  1    wreg      void 
 Registers used:
		wreg, fsr2l, fsr2h, status,2, status,0, cstack
 Tracked objects:
		On entry : 
		On exit  : 
		Unchanged: 
 Data sizes:     COMRAM   BANK0   BANK1   BANK2   BANK3   BANK4   BANK5   BANK6   BANK7   BANK8   BANK9  BANK10  BANK11  BANK12  BANK13  BANK14  BANK15
      Params:         0       0       4       0       0       0       0       0       0       0       0       0       0       0       0       0       0
      Locals:         0       0       0       0       0       0       0       0       0       0       0       0       0       0       0       0       0
      Temps:          0       0       0       0       0       0       0       0       0       0       0       0       0       0       0       0       0
      Totals:         0       0       4       0       0       0       0       0       0       0       0       0       0       0       0       0       0
Total ram usage:        4 bytes
 Hardware stack levels used:    1
 Hardware stack levels required when called:   11
 This function calls:
		_WriteArrayToEEPROM
 This function is called by:
		_PhonebookEdit
 This function uses a non-reentrant model


 *************** function _WriteArrayToEEPROM *****************
 Defined at:
		line 1488 in file "prog.c"
 Parameters:    Size  Location     Type
  container       2   63[BANK1 ] PTR unsigned char 
		 -> PhonebookEdit@aaa(33), PhonebookEdit@Contact(33), EditSchedule@CellsData(8), DeleteDataOfCell@CellsData(8), 
  adress_start    2   65[BANK1 ] unsigned int 
  quantity        2   67[BANK1 ] unsigned int 
 Auto vars:     Size  Location     Type
  i               1   71[BANK1 ] unsigned char 
 Return value:  Size  Location     Type
                  1    wreg      void 
 Registers used:
		wreg, fsr2l, fsr2h, status,2, status,0, cstack
 Tracked objects:
		On entry : 
		On exit  : 
		Unchanged: 
 Data sizes:     COMRAM   BANK0   BANK1   BANK2   BANK3   BANK4   BANK5   BANK6   BANK7   BANK8   BANK9  BANK10  BANK11  BANK12  BANK13  BANK14  BANK15
      Params:         0       0       6       0       0       0       0       0       0       0       0       0       0       0       0       0       0
      Locals:         0       0       1       0       0       0       0       0       0       0       0       0       0       0       0       0       0
      Temps:          0       0       2       0       0       0       0       0       0       0       0       0       0       0       0       0       0
      Totals:         0       0       9       0       0       0       0       0       0       0       0       0       0       0       0       0       0
Total ram usage:        9 bytes
 Hardware stack levels used:    1
 Hardware stack levels required when called:   10
 This function calls:
		_EEWR
 This function is called by:
		_WritePhonebookCellToEEPROM
		_WriteDataOfCell
		_DeleteDataOfCell
 This function uses a non-reentrant model


 *************** function _TelephoneCall *****************
 Defined at:
		line 3357 in file "prog.c"
 Parameters:    Size  Location     Type
  phone_number    2   62[BANK1 ] PTR unsigned char 
		 -> PhonebookEdit@Contact(33), InputText@ret_string(33), NULL(0), 
 Auto vars:     Size  Location     Type
  command        18   66[BANK1 ] volatile unsigned char [
  i               1   84[BANK1 ] unsigned char 
 Return value:  Size  Location     Type
                  1    wreg      void 
 Registers used:
		wreg, fsr1l, fsr1h, fsr2l, fsr2h, status,2, status,0, cstack
 Tracked objects:
		On entry : 
		On exit  : 
		Unchanged: 
 Data sizes:     COMRAM   BANK0   BANK1   BANK2   BANK3   BANK4   BANK5   BANK6   BANK7   BANK8   BANK9  BANK10  BANK11  BANK12  BANK13  BANK14  BANK15
      Params:         0       0       2       0       0       0       0       0       0       0       0       0       0       0       0       0       0
      Locals:         0       0      19       0       0       0       0       0       0       0       0       0       0       0       0       0       0
      Temps:          0       0       2       0       0       0       0       0       0       0       0       0       0       0       0       0       0
      Totals:         0       0      23       0       0       0       0       0       0       0       0       0       0       0       0       0       0
Total ram usage:       23 bytes
 Hardware stack levels used:    1
 Hardware stack levels required when called:   10
 This function calls:
		_SendCommandToUSART
 This function is called by:
		_PhonebookEdit
 This function uses a non-reentrant model


 *************** function _SendCommandToUSART *****************
 Defined at:
		line 3217 in file "prog.c"
 Parameters:    Size  Location     Type
  command         2   59[BANK1 ] PTR unsigned char 
		 -> SendSMS@command(12), SMS(512), WriteTime@comand(31), STR_90(9), 
		 -> STR_63(5), STR_61(4), TelephoneCall@command(18), STR_48(10), 
		 -> STR_46(10), STR_44(5), STR_42(2), STR_39(3), 
		 -> STR_38(3), InputText@ret_string(33), STR_35(5), STR_34(4), 
		 -> STR_32(5), NULL(0), 
  wait            1   61[BANK1 ] unsigned char 
 Auto vars:     Size  Location     Type
		None
 Return value:  Size  Location     Type
                  1    wreg      void 
 Registers used:
		wreg, status,2, status,0
 Tracked objects:
		On entry : 
		On exit  : 
		Unchanged: 
 Data sizes:     COMRAM   BANK0   BANK1   BANK2   BANK3   BANK4   BANK5   BANK6   BANK7   BANK8   BANK9  BANK10  BANK11  BANK12  BANK13  BANK14  BANK15
      Params:         0       0       3       0       0       0       0       0       0       0       0       0       0       0       0       0       0
      Locals:         0       0       0       0       0       0       0       0       0       0       0       0       0       0       0       0       0
      Temps:          0       0       0       0       0       0       0       0       0       0       0       0       0       0       0       0       0
      Totals:         0       0       3       0       0       0       0       0       0       0       0       0       0       0       0       0       0
Total ram usage:        3 bytes
 Hardware stack levels used:    1
 Hardware stack levels required when called:    9
 This function calls:
		Nothing
 This function is called by:
		_WorkingWithGSM
		_Init_GSM
		_TelephoneCall
		_PhonebookEdit
		_WriteTime
		_SendSMS
 This function uses a non-reentrant model


 *************** function _ShowMenu *****************
 Defined at:
		line 3393 in file "prog.c"
 Parameters:    Size  Location     Type
  menu            2   78[BANK1 ] PTR PTR unsigned char 
		 -> main2@menu(8), Settings@menu_GSM_on_off(6), Settings@menu(12), USART_Speed_Choise@menu(8), 
		 -> PhonebookEdit@menu(10), ShowSchedulerMenu@menu(12), 
  item            1   80[BANK1 ] unsigned char 
 Auto vars:     Size  Location     Type
  item_max        1   86[BANK1 ] unsigned char 
  result          1   85[BANK1 ] unsigned char 
 Return value:  Size  Location     Type
                  1    wreg      unsigned char 
 Registers used:
		wreg, fsr0l, fsr0h, fsr2l, fsr2h, status,2, status,0, tblptrl, tblptrh, tblptru, prodl, prodh, cstack
 Tracked objects:
		On entry : 
		On exit  : 
		Unchanged: 
 Data sizes:     COMRAM   BANK0   BANK1   BANK2   BANK3   BANK4   BANK5   BANK6   BANK7   BANK8   BANK9  BANK10  BANK11  BANK12  BANK13  BANK14  BANK15
      Params:         0       0       3       0       0       0       0       0       0       0       0       0       0       0       0       0       0
      Locals:         0       0       2       0       0       0       0       0       0       0       0       0       0       0       0       0       0
      Temps:          0       0       4       0       0       0       0       0       0       0       0       0       0       0       0       0       0
      Totals:         0       0       9       0       0       0       0       0       0       0       0       0       0       0       0       0       0
Total ram usage:        9 bytes
 Hardware stack levels used:    1
 Hardware stack levels required when called:   11
 This function calls:
		_OutputString
		_clrInd
 This function is called by:
		_ShowSchedulerMenu
		_PhonebookEdit
		_USART_Speed_Choise
		_Settings
		_main2
 This function uses a non-reentrant model


 *************** function _InputText *****************
 Defined at:
		line 2995 in file "prog.c"
 Parameters:    Size  Location     Type
  text            2  129[BANK1 ] PTR unsigned char 
		 -> Contact.phone(14), Contact.name(17), PhonebookEdit@Contact(33), NULL(0), 
  _props          2  131[BANK1 ] PTR struct .
		 -> PhonebookEdit@input_props_2197(1), PhonebookEdit@input_props(1), NULL(0), 
  capacity        1  133[BANK1 ] unsigned char 
 Auto vars:     Size  Location     Type
  i               1  127[BANK3 ] unsigned char 
  i               1  248[BANK2 ] unsigned char 
  temp            2  246[BANK2 ] PTR struct .
		 -> InputText@_input_data(132), EditSchedule@_times(44), 
  ret_string     33  156[BANK1 ] unsigned char [33]
  i               1  130[BANK3 ] unsigned char 
  temp            2  128[BANK3 ] PTR struct .
		 -> InputText@_input_data(132), EditSchedule@_times(44), 
  i               1  126[BANK3 ] unsigned char 
  i               1  133[BANK3 ] unsigned char 
  _input_data   132   87[BANK2 ] struct .[33]
  InputData      66    0[BANK3 ] PTR struct .[33]
		 -> InputText@_input_data(132), EditSchedule@_times(44), 
  symbols        60   66[BANK3 ] PTR unsigned char [30]
		 -> InputText@s_29(2), InputText@s_28(2), InputText@s_27(2), InputText@s_26(2), 
		 -> InputText@s_25(2), InputText@s_24(2), InputText@s_23(2), InputText@s_22(2), 
		 -> InputText@s_21(2), InputText@s_20(3), InputText@s_19(6), InputText@s_18(6), 
		 -> InputText@s_17(6), InputText@s_16(6), InputText@s_15(6), InputText@s_14(6), 
		 -> InputText@s_13(6), InputText@s_12(6), InputText@s_9(6), InputText@s_8(5), 
		 -> InputText@s_7(6), InputText@s_6(5), InputText@s_5(5), InputText@s_4(5), 
		 -> InputText@s_3(5), InputText@s_2(5), InputText@s_1(18), InputText@s_0(3), 
  s_1            18  138[BANK1 ] unsigned char [18]
  s_19            6   48[BANK2 ] unsigned char [6]
  s_18            6   42[BANK2 ] unsigned char [6]
  s_17            6   36[BANK2 ] unsigned char [6]
  s_16            6   30[BANK2 ] unsigned char [6]
  s_15            6   24[BANK2 ] unsigned char [6]
  s_14            6   18[BANK2 ] unsigned char [6]
  s_13            6   12[BANK2 ] unsigned char [6]
  s_12            6    6[BANK2 ] unsigned char [6]
  s_9             6    0[BANK2 ] unsigned char [6]
  s_7             6  189[BANK1 ] unsigned char [6]
  s_8             5   79[BANK2 ] unsigned char [5]
  s_6             5   74[BANK2 ] unsigned char [5]
  s_5             5   69[BANK2 ] unsigned char [5]
  s_4             5   64[BANK2 ] unsigned char [5]
  s_3             5   59[BANK2 ] unsigned char [5]
  s_2             5   54[BANK2 ] unsigned char [5]
  time_point      4  240[BANK2 ] unsigned long 
  s_0             3  219[BANK2 ] unsigned char [3]
  s_20            3   84[BANK2 ] unsigned char [3]
  cur_char        2  244[BANK2 ] PTR unsigned char 
		 -> InputText@s_29(2), InputText@s_28(2), InputText@s_27(2), InputText@s_26(2), 
		 -> InputText@s_25(2), InputText@s_24(2), InputText@s_23(2), InputText@s_22(2), 
		 -> InputText@s_21(2), InputText@s_20(3), InputText@s_19(6), InputText@s_18(6), 
		 -> InputText@s_17(6), InputText@s_16(6), InputText@s_15(6), InputText@s_14(6), 
		 -> InputText@s_13(6), InputText@s_12(6), InputText@s_9(6), InputText@s_8(5), 
		 -> InputText@s_7(6), InputText@s_6(5), InputText@s_5(5), InputText@s_4(5), 
		 -> InputText@s_3(5), InputText@s_2(5), InputText@s_1(18), InputText@s_0(3), 
  s_29            2  238[BANK2 ] unsigned char [2]
  s_28            2  236[BANK2 ] unsigned char [2]
  s_27            2  234[BANK2 ] unsigned char [2]
  s_26            2  232[BANK2 ] unsigned char [2]
  s_25            2  230[BANK2 ] unsigned char [2]
  s_24            2  228[BANK2 ] unsigned char [2]
  s_23            2  226[BANK2 ] unsigned char [2]
  s_22            2  224[BANK2 ] unsigned char [2]
  s_21            2  222[BANK2 ] unsigned char [2]
  active_cell     1  134[BANK3 ] unsigned char 
  props           1  132[BANK3 ] struct .
  lastKeyCode     1  131[BANK3 ] unsigned char 
 Return value:  Size  Location     Type
                  2  129[BANK1 ] PTR unsigned char 
 Registers used:
		wreg, fsr0l, fsr0h, fsr1l, fsr1h, fsr2l, fsr2h, status,2, status,0, tblptrl, tblptrh, tblptru, prodl, prodh, cstack
 Tracked objects:
		On entry : 
		On exit  : 
		Unchanged: 
 Data sizes:     COMRAM   BANK0   BANK1   BANK2   BANK3   BANK4   BANK5   BANK6   BANK7   BANK8   BANK9  BANK10  BANK11  BANK12  BANK13  BANK14  BANK15
      Params:         0       0       5       0       0       0       0       0       0       0       0       0       0       0       0       0       0
      Locals:         0       0      57     249     135       0       0       0       0       0       0       0       0       0       0       0       0
      Temps:          0       0       4       0       0       0       0       0       0       0       0       0       0       0       0       0       0
      Totals:         0       0      66     249     135       0       0       0       0       0       0       0       0       0       0       0       0
Total ram usage:      450 bytes
 Hardware stack levels used:    1
 Hardware stack levels required when called:   12
 This function calls:
		_CheckoutRegisterOfSymbol
		_InteractiveData_BlinkOFF
		_OutputInteractiveData
		__setInputTextProps
		_clrInd
		_getSystemTimePoint
		_system_BlinkReset
		_testTimePoint
 This function is called by:
		_WorkingWithGSM
		_PhonebookEdit
 This function uses a non-reentrant model


 *************** function _testTimePoint *****************
 Defined at:
		line 2505 in file "prog.c"
 Parameters:    Size  Location     Type
  point           4   63[BANK1 ] unsigned long 
  value           4   67[BANK1 ] unsigned long 
 Auto vars:     Size  Location     Type
  _point          4   75[BANK1 ] unsigned long 
 Return value:  Size  Location     Type
                  1    wreg      unsigned char 
 Registers used:
		wreg, status,2, status,0, cstack
 Tracked objects:
		On entry : 
		On exit  : 
		Unchanged: 
 Data sizes:     COMRAM   BANK0   BANK1   BANK2   BANK3   BANK4   BANK5   BANK6   BANK7   BANK8   BANK9  BANK10  BANK11  BANK12  BANK13  BANK14  BANK15
      Params:         0       0       8       0       0       0       0       0       0       0       0       0       0       0       0       0       0
      Locals:         0       0       4       0       0       0       0       0       0       0       0       0       0       0       0       0       0
      Temps:          0       0       4       0       0       0       0       0       0       0       0       0       0       0       0       0       0
      Totals:         0       0      16       0       0       0       0       0       0       0       0       0       0       0       0       0       0
Total ram usage:       16 bytes
 Hardware stack levels used:    1
 Hardware stack levels required when called:   10
 This function calls:
		_getSystemTimePoint
 This function is called by:
		_InputText
		_UserDelay
		_SendSMS
 This function uses a non-reentrant model


 *************** function _getSystemTimePoint *****************
 Defined at:
		line 2501 in file "prog.c"
 Parameters:    Size  Location     Type
		None
 Auto vars:     Size  Location     Type
		None
 Return value:  Size  Location     Type
                  4   59[BANK1 ] unsigned long 
 Registers used:
		None
 Tracked objects:
		On entry : 
		On exit  : 
		Unchanged: 
 Data sizes:     COMRAM   BANK0   BANK1   BANK2   BANK3   BANK4   BANK5   BANK6   BANK7   BANK8   BANK9  BANK10  BANK11  BANK12  BANK13  BANK14  BANK15
      Params:         0       0       4       0       0       0       0       0       0       0       0       0       0       0       0       0       0
      Locals:         0       0       0       0       0       0       0       0       0       0       0       0       0       0       0       0       0
      Temps:          0       0       0       0       0       0       0       0       0       0       0       0       0       0       0       0       0
      Totals:         0       0       4       0       0       0       0       0       0       0       0       0       0       0       0       0       0
Total ram usage:        4 bytes
 Hardware stack levels used:    1
 Hardware stack levels required when called:    9
 This function calls:
		Nothing
 This function is called by:
		_testTimePoint
		_InputText
		_UserDelay
		_SendSMS
 This function uses a non-reentrant model


 *************** function _system_BlinkReset *****************
 Defined at:
		line 2515 in file "prog.c"
 Parameters:    Size  Location     Type
  val             1    wreg     unsigned char 
 Auto vars:     Size  Location     Type
  val             1   59[BANK1 ] unsigned char 
 Return value:  Size  Location     Type
                  1    wreg      void 
 Registers used:
		wreg, status,2
 Tracked objects:
		On entry : 
		On exit  : 
		Unchanged: 
 Data sizes:     COMRAM   BANK0   BANK1   BANK2   BANK3   BANK4   BANK5   BANK6   BANK7   BANK8   BANK9  BANK10  BANK11  BANK12  BANK13  BANK14  BANK15
      Params:         0       0       0       0       0       0       0       0       0       0       0       0       0       0       0       0       0
      Locals:         0       0       1       0       0       0       0       0       0       0       0       0       0       0       0       0       0
      Temps:          0       0       0       0       0       0       0       0       0       0       0       0       0       0       0       0       0
      Totals:         0       0       1       0       0       0       0       0       0       0       0       0       0       0       0       0       0
Total ram usage:        1 bytes
 Hardware stack levels used:    1
 Hardware stack levels required when called:    9
 This function calls:
		Nothing
 This function is called by:
		_InputText
 This function uses a non-reentrant model


 *************** function __setInputTextProps *****************
 Defined at:
		line 2945 in file "prog.c"
 Parameters:    Size  Location     Type
  _props          2   78[BANK1 ] PTR struct .
		 -> InputText@props(1), 
 Auto vars:     Size  Location     Type
  i               1  127[BANK1 ] unsigned char 
  i               1  126[BANK1 ] unsigned char 
  source_L       22   82[BANK1 ] const unsigned char [22]
  source_A       10  104[BANK1 ] const unsigned char [10]
  Lang            8  114[BANK1 ] unsigned char [8]
  Aa              4  122[BANK1 ] unsigned char [4]
  props           1  128[BANK1 ] struct .
 Return value:  Size  Location     Type
                  1    wreg      void 
 Registers used:
		wreg, fsr0l, fsr0h, fsr1l, fsr1h, fsr2l, fsr2h, status,2, status,0, tblptrl, tblptrh, tblptru, prodl, prodh, cstack
 Tracked objects:
		On entry : 
		On exit  : 
		Unchanged: 
 Data sizes:     COMRAM   BANK0   BANK1   BANK2   BANK3   BANK4   BANK5   BANK6   BANK7   BANK8   BANK9  BANK10  BANK11  BANK12  BANK13  BANK14  BANK15
      Params:         0       0       2       0       0       0       0       0       0       0       0       0       0       0       0       0       0
      Locals:         0       0      47       0       0       0       0       0       0       0       0       0       0       0       0       0       0
      Temps:          0       0       2       0       0       0       0       0       0       0       0       0       0       0       0       0       0
      Totals:         0       0      51       0       0       0       0       0       0       0       0       0       0       0       0       0       0
Total ram usage:       51 bytes
 Hardware stack levels used:    1
 Hardware stack levels required when called:   11
 This function calls:
		_OutputString
		_clrInd
 This function is called by:
		_InputText
 This function uses a non-reentrant model


 *************** function _OutputInteractiveData *****************
 Defined at:
		line 1188 in file "prog.c"
 Parameters:    Size  Location     Type
  data            2   69[BANK1 ] PTR PTR struct .
		 -> InputText@InputData(66), EditSchedule@TimesOutput(22), TimeEdit@TimeData(33), 
  length          1   71[BANK1 ] unsigned char 
  start_symbol    1   72[BANK1 ] unsigned char 
 Auto vars:     Size  Location     Type
  s               1   76[BANK1 ] unsigned char 
  line            1   75[BANK1 ] unsigned char 
  i               1   77[BANK1 ] unsigned char 
 Return value:  Size  Location     Type
                  1    wreg      void 
 Registers used:
		wreg, fsr1l, fsr1h, fsr2l, fsr2h, status,2, status,0, prodl, prodh, cstack
 Tracked objects:
		On entry : 
		On exit  : 
		Unchanged: 
 Data sizes:     COMRAM   BANK0   BANK1   BANK2   BANK3   BANK4   BANK5   BANK6   BANK7   BANK8   BANK9  BANK10  BANK11  BANK12  BANK13  BANK14  BANK15
      Params:         0       0       4       0       0       0       0       0       0       0       0       0       0       0       0       0       0
      Locals:         0       0       3       0       0       0       0       0       0       0       0       0       0       0       0       0       0
      Temps:          0       0       2       0       0       0       0       0       0       0       0       0       0       0       0       0       0
      Totals:         0       0       9       0       0       0       0       0       0       0       0       0       0       0       0       0       0
Total ram usage:        9 bytes
 Hardware stack levels used:    1
 Hardware stack levels required when called:   10
 This function calls:
		_setBlink
		_setDigit
 This function is called by:
		_ReIndTimeEdit
		_EditSchedule
		_InputText
 This function uses a non-reentrant model


 *************** function _setBlink *****************
 Defined at:
		line 329 in file "prog.c"
 Parameters:    Size  Location     Type
  line            1    wreg     unsigned char 
  symbol          1   59[BANK1 ] unsigned char 
  value           1   60[BANK1 ] unsigned char 
 Auto vars:     Size  Location     Type
  line            1   63[BANK1 ] unsigned char 
 Return value:  Size  Location     Type
                  1    wreg      void 
 Registers used:
		wreg, fsr2l, fsr2h, status,2, status,0, prodl, prodh
 Tracked objects:
		On entry : 
		On exit  : 
		Unchanged: 
 Data sizes:     COMRAM   BANK0   BANK1   BANK2   BANK3   BANK4   BANK5   BANK6   BANK7   BANK8   BANK9  BANK10  BANK11  BANK12  BANK13  BANK14  BANK15
      Params:         0       0       2       0       0       0       0       0       0       0       0       0       0       0       0       0       0
      Locals:         0       0       1       0       0       0       0       0       0       0       0       0       0       0       0       0       0
      Temps:          0       0       2       0       0       0       0       0       0       0       0       0       0       0       0       0       0
      Totals:         0       0       5       0       0       0       0       0       0       0       0       0       0       0       0       0       0
Total ram usage:        5 bytes
 Hardware stack levels used:    1
 Hardware stack levels required when called:    9
 This function calls:
		Nothing
 This function is called by:
		_OutputInteractiveData
 This function uses a non-reentrant model


 *************** function _InteractiveData_BlinkOFF *****************
 Defined at:
		line 1235 in file "prog.c"
 Parameters:    Size  Location     Type
  InteractiveD    2   59[BANK1 ] PTR PTR struct .
		 -> InputText@InputData(66), EditSchedule@Times(16), TimeEdit@TimeData(33), 
  leght           1   61[BANK1 ] unsigned char 
 Auto vars:     Size  Location     Type
  i               1   64[BANK1 ] unsigned char 
 Return value:  Size  Location     Type
                  1    wreg      void 
 Registers used:
		wreg, fsr2l, fsr2h, status,2, status,0, prodl, prodh
 Tracked objects:
		On entry : 
		On exit  : 
		Unchanged: 
 Data sizes:     COMRAM   BANK0   BANK1   BANK2   BANK3   BANK4   BANK5   BANK6   BANK7   BANK8   BANK9  BANK10  BANK11  BANK12  BANK13  BANK14  BANK15
      Params:         0       0       3       0       0       0       0       0       0       0       0       0       0       0       0       0       0
      Locals:         0       0       1       0       0       0       0       0       0       0       0       0       0       0       0       0       0
      Temps:          0       0       2       0       0       0       0       0       0       0       0       0       0       0       0       0       0
      Totals:         0       0       6       0       0       0       0       0       0       0       0       0       0       0       0       0       0
Total ram usage:        6 bytes
 Hardware stack levels used:    1
 Hardware stack levels required when called:    9
 This function calls:
		Nothing
 This function is called by:
		_TimeData_BlinkOFF
		_EditSchedule
		_InputText
 This function uses a non-reentrant model


 *************** function _CheckoutRegisterOfSymbol *****************
 Defined at:
		line 817 in file "prog.c"
 Parameters:    Size  Location     Type
  dig             1    wreg     unsigned char 
 Auto vars:     Size  Location     Type
  dig             1   59[BANK1 ] unsigned char 
 Return value:  Size  Location     Type
                  1    wreg      unsigned char 
 Registers used:
		wreg, status,2, status,0
 Tracked objects:
		On entry : 
		On exit  : 
		Unchanged: 
 Data sizes:     COMRAM   BANK0   BANK1   BANK2   BANK3   BANK4   BANK5   BANK6   BANK7   BANK8   BANK9  BANK10  BANK11  BANK12  BANK13  BANK14  BANK15
      Params:         0       0       0       0       0       0       0       0       0       0       0       0       0       0       0       0       0
      Locals:         0       0       1       0       0       0       0       0       0       0       0       0       0       0       0       0       0
      Temps:          0       0       0       0       0       0       0       0       0       0       0       0       0       0       0       0       0
      Totals:         0       0       1       0       0       0       0       0       0       0       0       0       0       0       0       0       0
Total ram usage:        1 bytes
 Hardware stack levels used:    1
 Hardware stack levels required when called:    9
 This function calls:
		Nothing
 This function is called by:
		_InputText
 This function uses a non-reentrant model


 *************** function _Format_EEPROM_Memory *****************
 Defined at:
		line 2181 in file "prog.c"
 Parameters:    Size  Location     Type
  first_cell      2   80[BANK1 ] unsigned int 
  last_cell       2   82[BANK1 ] unsigned int 
  interactive     1   84[BANK1 ] unsigned char 
 Auto vars:     Size  Location     Type
  i               2   89[BANK1 ] unsigned int 
 Return value:  Size  Location     Type
                  1    wreg      void 
 Registers used:
		wreg, fsr0l, fsr0h, fsr2l, fsr2h, status,2, status,0, tblptrl, tblptrh, tblptru, prodl, prodh, cstack
 Tracked objects:
		On entry : 
		On exit  : 
		Unchanged: 
 Data sizes:     COMRAM   BANK0   BANK1   BANK2   BANK3   BANK4   BANK5   BANK6   BANK7   BANK8   BANK9  BANK10  BANK11  BANK12  BANK13  BANK14  BANK15
      Params:         0       0       5       0       0       0       0       0       0       0       0       0       0       0       0       0       0
      Locals:         0       0       2       0       0       0       0       0       0       0       0       0       0       0       0       0       0
      Temps:          0       0       4       0       0       0       0       0       0       0       0       0       0       0       0       0       0
      Totals:         0       0      11       0       0       0       0       0       0       0       0       0       0       0       0       0       0
Total ram usage:       11 bytes
 Hardware stack levels used:    1
 Hardware stack levels required when called:   12
 This function calls:
		_EEWR
		_OutputSystemMessage
		_Select_OK_NO
 This function is called by:
		_ShowSchedulerMenu
		_PhonebookEdit
		_Settings
 This function uses a non-reentrant model


 *************** function _Select_OK_NO *****************
 Defined at:
		line 3373 in file "prog.c"
 Parameters:    Size  Location     Type
  text            2   78[BANK1 ] PTR unsigned char 
		 -> STR_62(17), STR_58(27), STR_57(15), STR_28(33), 
		 -> STR_27(17), STR_24(30), 
 Auto vars:     Size  Location     Type
		None
 Return value:  Size  Location     Type
                  1    wreg      unsigned char 
 Registers used:
		wreg, fsr0l, fsr0h, fsr2l, fsr2h, status,2, status,0, tblptrl, tblptrh, tblptru, prodl, prodh, cstack
 Tracked objects:
		On entry : 
		On exit  : 
		Unchanged: 
 Data sizes:     COMRAM   BANK0   BANK1   BANK2   BANK3   BANK4   BANK5   BANK6   BANK7   BANK8   BANK9  BANK10  BANK11  BANK12  BANK13  BANK14  BANK15
      Params:         0       0       2       0       0       0       0       0       0       0       0       0       0       0       0       0       0
      Locals:         0       0       0       0       0       0       0       0       0       0       0       0       0       0       0       0       0
      Temps:          0       0       0       0       0       0       0       0       0       0       0       0       0       0       0       0       0
      Totals:         0       0       2       0       0       0       0       0       0       0       0       0       0       0       0       0       0
Total ram usage:        2 bytes
 Hardware stack levels used:    1
 Hardware stack levels required when called:   11
 This function calls:
		_OutputString
		_clrInd
 This function is called by:
		_ShowSchedulerMenu
		_Format_EEPROM_Memory
		_PhonebookEdit
 This function uses a non-reentrant model


 *************** function _clrInd *****************
 Defined at:
		line 339 in file "prog.c"
 Parameters:    Size  Location     Type
		None
 Auto vars:     Size  Location     Type
  symb            1   62[BANK1 ] unsigned char 
  line            1   61[BANK1 ] unsigned char 
 Return value:  Size  Location     Type
                  1    wreg      void 
 Registers used:
		wreg, fsr2l, fsr2h, status,2, status,0, prodl, prodh
 Tracked objects:
		On entry : 
		On exit  : 
		Unchanged: 
 Data sizes:     COMRAM   BANK0   BANK1   BANK2   BANK3   BANK4   BANK5   BANK6   BANK7   BANK8   BANK9  BANK10  BANK11  BANK12  BANK13  BANK14  BANK15
      Params:         0       0       0       0       0       0       0       0       0       0       0       0       0       0       0       0       0
      Locals:         0       0       2       0       0       0       0       0       0       0       0       0       0       0       0       0       0
      Temps:          0       0       2       0       0       0       0       0       0       0       0       0       0       0       0       0       0
      Totals:         0       0       4       0       0       0       0       0       0       0       0       0       0       0       0       0       0
Total ram usage:        4 bytes
 Hardware stack levels used:    1
 Hardware stack levels required when called:    9
 This function calls:
		Nothing
 This function is called by:
		_TimeToInd
		_TimeEdit
		_EditSchedule
		_ShowSchedulerMenu
		_Scheduler
		_SchedulerNew
		_main
		__setInputTextProps
		_InputText
		_WorkingWithGSM
		_Init_GSM
		_Select_OK_NO
		_ShowMenu
		_PhonebookEdit
		_main2
 This function uses a non-reentrant model


 *************** function _OutputString *****************
 Defined at:
		line 2765 in file "prog.c"
 Parameters:    Size  Location     Type
  stringData      2   69[BANK1 ] PTR unsigned char 
		 -> STR_88(10), STR_87(11), STR_86(12), STR_73(9), 
		 -> STR_72(10), STR_71(14), STR_70(15), STR_69(15), 
		 -> STR_68(15), STR_67(15), STR_66(6), STR_65(6), 
		 -> STR_64(6), STR_62(17), STR_58(27), STR_57(15), 
		 -> STR_56(12), STR_55(8), STR_54(14), STR_53(9), 
		 -> STR_52(14), STR_51(17), PhonebookEdit@num_cell(3), PhonebookEdit@Contact(33), 
		 -> STR_50(2), testSystemTimer@string(17), WorkingWithGSM@myOutputString(33), _setInputTextProps@Lang(8), 
		 -> _setInputTextProps@Aa(4), drowText@cutedString(17), STR_28(33), STR_27(17), 
		 -> STR_24(30), STR_23(16), STR_22(8), STR_21(11), 
		 -> STR_20(9), STR_19(9), STR_18(8), STR_17(7), 
		 -> RefreshSchedulerIndicator@num_1574(3), STR_16(13), STR_15(3), RefreshSchedulerIndicator@num(3), 
		 -> STR_14(5), STR_13(4), STR_12(4), STR_11(4), 
		 -> STR_10(17), TimeToInd@DataArrayOfLine2(13), TimeToInd@DataArray(17), STR_9(17), 
		 -> TimeToInd@TimeData(9), TimeToInd@D(4), STR_8(3), STR_7(3), 
		 -> STR_6(3), STR_5(3), STR_4(3), STR_3(3), 
		 -> STR_2(3), STR_1(3), NULL(0), 
  line            1   71[BANK1 ] unsigned char 
  position        1   72[BANK1 ] unsigned char 
  transfer_lin    1   73[BANK1 ] unsigned char 
 Auto vars:     Size  Location     Type
  i               1   77[BANK1 ] unsigned char 
  cont            1   76[BANK1 ] unsigned char 
 Return value:  Size  Location     Type
                  1    wreg      void 
 Registers used:
		wreg, fsr0l, fsr0h, fsr2l, fsr2h, status,2, status,0, tblptrl, tblptrh, tblptru, prodl, prodh, cstack
 Tracked objects:
		On entry : 
		On exit  : 
		Unchanged: 
 Data sizes:     COMRAM   BANK0   BANK1   BANK2   BANK3   BANK4   BANK5   BANK6   BANK7   BANK8   BANK9  BANK10  BANK11  BANK12  BANK13  BANK14  BANK15
      Params:         0       0       5       0       0       0       0       0       0       0       0       0       0       0       0       0       0
      Locals:         0       0       2       0       0       0       0       0       0       0       0       0       0       0       0       0       0
      Temps:          0       0       2       0       0       0       0       0       0       0       0       0       0       0       0       0       0
      Totals:         0       0       9       0       0       0       0       0       0       0       0       0       0       0       0       0       0
Total ram usage:        9 bytes
 Hardware stack levels used:    1
 Hardware stack levels required when called:   10
 This function calls:
		_setDigit
 This function is called by:
		_TimeToInd
		_ReIndTimeEdit
		_RefreshSchedulerIndicator
		__setInputTextProps
		_WorkingWithGSM
		_Select_OK_NO
		_ShowMenu
		_PhonebookEdit
 This function uses a non-reentrant model


 *************** function _setDigit *****************
 Defined at:
		line 321 in file "prog.c"
 Parameters:    Size  Location     Type
  line            1    wreg     unsigned char 
  symbol          1   60[BANK1 ] unsigned char 
  data            1   61[BANK1 ] unsigned char 
 Auto vars:     Size  Location     Type
  line            1   68[BANK1 ] unsigned char 
  value           1   67[BANK1 ] unsigned char 
  value0          1   66[BANK1 ] unsigned char 
 Return value:  Size  Location     Type
                  1    wreg      void 
 Registers used:
		wreg, fsr2l, fsr2h, status,2, status,0, prodl, prodh
 Tracked objects:
		On entry : 
		On exit  : 
		Unchanged: 
 Data sizes:     COMRAM   BANK0   BANK1   BANK2   BANK3   BANK4   BANK5   BANK6   BANK7   BANK8   BANK9  BANK10  BANK11  BANK12  BANK13  BANK14  BANK15
      Params:         0       0       2       0       0       0       0       0       0       0       0       0       0       0       0       0       0
      Locals:         0       0       5       0       0       0       0       0       0       0       0       0       0       0       0       0       0
      Temps:          0       0       2       0       0       0       0       0       0       0       0       0       0       0       0       0       0
      Totals:         0       0       9       0       0       0       0       0       0       0       0       0       0       0       0       0       0
Total ram usage:        9 bytes
 Hardware stack levels used:    1
 Hardware stack levels required when called:    9
 This function calls:
		Nothing
 This function is called by:
		_OutputInteractiveData
		_ItemsToIndicator
		_OutputString
 This function uses a non-reentrant model


 *************** function _OutputSystemMessage *****************
 Defined at:
		line 2785 in file "prog.c"
 Parameters:    Size  Location     Type
  stringData      2   59[BANK1 ] PTR unsigned char 
		 -> STR_60(8), STR_59(20), STR_49(31), STR_47(27), 
		 -> STR_45(23), STR_43(20), STR_40(23), STR_37(26), 
		 -> STR_36(11), ProcessIncommingUartData@msg(33), STR_30(8), STR_29(20), 
		 -> STR_26(8), STR_25(20), 
 Auto vars:     Size  Location     Type
  position        1    0        unsigned char 
  s               1   67[BANK1 ] unsigned char 
  symb            1   70[BANK1 ] unsigned char 
  l               1   68[BANK1 ] unsigned char 
  line            1   69[BANK1 ] unsigned char 
  i               2   65[BANK1 ] unsigned int 
 Return value:  Size  Location     Type
                  1    wreg      void 
 Registers used:
		wreg, fsr0l, fsr0h, fsr2l, fsr2h, status,2, status,0, tblptrl, tblptrh, tblptru, prodl, prodh
 Tracked objects:
		On entry : 
		On exit  : 
		Unchanged: 
 Data sizes:     COMRAM   BANK0   BANK1   BANK2   BANK3   BANK4   BANK5   BANK6   BANK7   BANK8   BANK9  BANK10  BANK11  BANK12  BANK13  BANK14  BANK15
      Params:         0       0       2       0       0       0       0       0       0       0       0       0       0       0       0       0       0
      Locals:         0       0       6       0       0       0       0       0       0       0       0       0       0       0       0       0       0
      Temps:          0       0       4       0       0       0       0       0       0       0       0       0       0       0       0       0       0
      Totals:         0       0      12       0       0       0       0       0       0       0       0       0       0       0       0       0       0
Total ram usage:       12 bytes
 Hardware stack levels used:    1
 Hardware stack levels required when called:    9
 This function calls:
		Nothing
 This function is called by:
		_ShowSchedulerMenu
		_Format_EEPROM_Memory
		_Init_GSM
		_PhonebookEdit
 This function uses a non-reentrant model


 *************** function _EEWR *****************
 Defined at:
		line 1151 in file "prog.c"
 Parameters:    Size  Location     Type
  adress          2   59[BANK1 ] unsigned int 
  data            1   61[BANK1 ] unsigned char 
 Auto vars:     Size  Location     Type
  INTCON_BUP      1   62[BANK1 ] volatile unsigned char 
 Return value:  Size  Location     Type
                  1    wreg      void 
 Registers used:
		wreg, status,2
 Tracked objects:
		On entry : 
		On exit  : 
		Unchanged: 
 Data sizes:     COMRAM   BANK0   BANK1   BANK2   BANK3   BANK4   BANK5   BANK6   BANK7   BANK8   BANK9  BANK10  BANK11  BANK12  BANK13  BANK14  BANK15
      Params:         0       0       3       0       0       0       0       0       0       0       0       0       0       0       0       0       0
      Locals:         0       0       1       0       0       0       0       0       0       0       0       0       0       0       0       0       0
      Temps:          0       0       0       0       0       0       0       0       0       0       0       0       0       0       0       0       0
      Totals:         0       0       4       0       0       0       0       0       0       0       0       0       0       0       0       0       0
Total ram usage:        4 bytes
 Hardware stack levels used:    1
 Hardware stack levels required when called:    9
 This function calls:
		Nothing
 This function is called by:
		_SetTimeSource
		_WriteArrayToEEPROM
		_Format_EEPROM_Memory
		_Save_USART_SpeedNumber
		_Settings
		_main2
 This function uses a non-reentrant model


 *************** function _FillPhonebookCellFromEEPROM *****************
 Defined at:
		line 1465 in file "prog.c"
 Parameters:    Size  Location     Type
  container       2   72[BANK1 ] PTR struct .
		 -> PhonebookEdit@Contact(33), FindPhoneContactByNumber@container(33), 
  adress_start    2   74[BANK1 ] unsigned int 
 Auto vars:     Size  Location     Type
		None
 Return value:  Size  Location     Type
                  1    wreg      void 
 Registers used:
		wreg, fsr2l, fsr2h, status,2, status,0, cstack
 Tracked objects:
		On entry : 
		On exit  : 
		Unchanged: 
 Data sizes:     COMRAM   BANK0   BANK1   BANK2   BANK3   BANK4   BANK5   BANK6   BANK7   BANK8   BANK9  BANK10  BANK11  BANK12  BANK13  BANK14  BANK15
      Params:         0       0       4       0       0       0       0       0       0       0       0       0       0       0       0       0       0
      Locals:         0       0       0       0       0       0       0       0       0       0       0       0       0       0       0       0       0
      Temps:          0       0       0       0       0       0       0       0       0       0       0       0       0       0       0       0       0
      Totals:         0       0       4       0       0       0       0       0       0       0       0       0       0       0       0       0       0
Total ram usage:        4 bytes
 Hardware stack levels used:    1
 Hardware stack levels required when called:   11
 This function calls:
		_FillArrayFromEEPROM
 This function is called by:
		_PhonebookEdit
 This function uses a non-reentrant model


 *************** function _GetSystemInfo *****************
 Defined at:
		line 3700 in file "prog.c"
 Parameters:    Size  Location     Type
		None
 Auto vars:     Size  Location     Type
  i               1  149[BANK2 ] unsigned char 
  DataArray      19   81[BANK2 ] unsigned char [19]
  CellsData       8   73[BANK2 ] unsigned char [8]
  sss             5  110[BANK2 ] unsigned char [5]
  Data            4  132[BANK2 ] unsigned long 
  h_2             3  124[BANK2 ] unsigned char [3]
  m_2             3  121[BANK2 ] unsigned char [3]
  h_1             3  118[BANK2 ] unsigned char [3]
  m_1             3  115[BANK2 ] unsigned char [3]
  Time            2  140[BANK2 ] unsigned int 
  TimeStop        2  138[BANK2 ] unsigned int 
  TimeStart       2  127[BANK2 ] unsigned int 
  Day             1  131[BANK2 ] unsigned char 
  Signals         1  130[BANK2 ] unsigned char 
  Days            1  129[BANK2 ] unsigned char 
  i               1  147[BANK2 ] unsigned char 
  cTime           4  142[BANK2 ] long 
  NextCell        2  136[BANK2 ] unsigned int 
  i               1  148[BANK2 ] unsigned char 
  s_auto          5  100[BANK2 ] unsigned char [5]
  info           73    0[BANK2 ] unsigned char [73]
  s_hand          5  105[BANK2 ] unsigned char [5]
  d               1  146[BANK2 ] unsigned char 
 Return value:  Size  Location     Type
                  2  131[BANK1 ] PTR unsigned char 
 Registers used:
		wreg, fsr0l, fsr0h, fsr1l, fsr1h, fsr2l, fsr2h, status,2, status,0, tblptrl, tblptrh, tblptru, cstack
 Tracked objects:
		On entry : 
		On exit  : 
		Unchanged: 
 Data sizes:     COMRAM   BANK0   BANK1   BANK2   BANK3   BANK4   BANK5   BANK6   BANK7   BANK8   BANK9  BANK10  BANK11  BANK12  BANK13  BANK14  BANK15
      Params:         0       0       2       0       0       0       0       0       0       0       0       0       0       0       0       0       0
      Locals:         0       0       0     150       0       0       0       0       0       0       0       0       0       0       0       0       0
      Temps:          0       0       4       0       0       0       0       0       0       0       0       0       0       0       0       0       0
      Totals:         0       0       6     150       0       0       0       0       0       0       0       0       0       0       0       0       0
Total ram usage:      156 bytes
 Hardware stack levels used:    1
 Hardware stack levels required when called:   13
 This function calls:
		_CleanStringArray
		_FindNextTimeStart
		_GetDayOfWeek
		_NumericToString
		_ParseDataRecord
		_ParseTime
		_ReadDataOfCell
		___lwdiv
		___lwmod
		_getNumChar
		_strcat
 This function is called by:
		_main2
 This function uses a non-reentrant model


 *************** function _strcat *****************
 Defined at:
		line 8 in file "/opt/microchip/xc8/v1.37/sources/common/strcat.c"
 Parameters:    Size  Location     Type
  to              2   62[BANK1 ] PTR unsigned char 
		 -> SendSMS@command(12), SMS(512), EncodePhoneNumberToPDU@encoded(15), GetSystemInfo@DataArray(19), 
		 -> GetSystemInfo@info(73), ProcessIncommingUartData@msg(33), 
  from            2   64[BANK1 ] PTR const unsigned char 
		 -> SendSMS@y(4), STR_97(2), SendSMS@e(3), STR_96(3), 
		 -> STR_95(3), STR_94(3), SendSMS@tempString(3), STR_93(5), 
		 -> STR_92(3), cp1251_to_unicode@t(5), STR_91(2), EncodePhoneNumberToPDU@encoded(15), 
		 -> STR_85(8), GetSystemInfo@sss(5), STR_84(2), STR_83(2), 
		 -> STR_82(2), STR_81(2), STR_80(2), GetSystemInfo@h_2(3), 
		 -> GetSystemInfo@m_2(3), GetSystemInfo@h_1(3), GetSystemInfo@m_1(3), GetSystemInfo@DataArray(19), 
		 -> STR_79(13), STR_78(20), STR_77(18), GetSystemInfo@s_hand(5), 
		 -> STR_76(7), GetSystemInfo@s_auto(5), STR_75(7), STR_74(13), 
		 -> STR_33(20), ProcessIncommingUartData@number(11), STR_8(3), STR_7(3), 
		 -> STR_6(3), STR_5(3), STR_4(3), STR_3(3), 
		 -> STR_2(3), STR_1(3), 
 Auto vars:     Size  Location     Type
  cp              2   66[BANK1 ] PTR unsigned char 
		 -> SendSMS@command(12), SMS(512), EncodePhoneNumberToPDU@encoded(15), GetSystemInfo@DataArray(19), 
		 -> GetSystemInfo@info(73), ProcessIncommingUartData@msg(33), 
 Return value:  Size  Location     Type
                  2   62[BANK1 ] PTR unsigned char 
 Registers used:
		wreg, fsr0l, fsr0h, fsr2l, fsr2h, status,2, status,0, tblptrl, tblptrh, tblptru
 Tracked objects:
		On entry : 
		On exit  : 
		Unchanged: 
 Data sizes:     COMRAM   BANK0   BANK1   BANK2   BANK3   BANK4   BANK5   BANK6   BANK7   BANK8   BANK9  BANK10  BANK11  BANK12  BANK13  BANK14  BANK15
      Params:         0       0       4       0       0       0       0       0       0       0       0       0       0       0       0       0       0
      Locals:         0       0       2       0       0       0       0       0       0       0       0       0       0       0       0       0       0
      Temps:          0       0       0       0       0       0       0       0       0       0       0       0       0       0       0       0       0
      Totals:         0       0       6       0       0       0       0       0       0       0       0       0       0       0       0       0       0
Total ram usage:        6 bytes
 Hardware stack levels used:    1
 Hardware stack levels required when called:    9
 This function calls:
		Nothing
 This function is called by:
		_GetSystemInfo
		_EncodePhoneNumberToPDU
		_cp1251_to_unicode
		_SendSMS
 This function uses a non-reentrant model


 *************** function _ParseTime *****************
 Defined at:
		line 2114 in file "prog.c"
 Parameters:    Size  Location     Type
  TimeValue       4   73[BANK1 ] long 
  Time            2   77[BANK1 ] PTR unsigned int 
		 -> GetSystemInfo@Time(2), TimeToInd@Time(2), 
  Day             2   79[BANK1 ] PTR unsigned char 
		 -> GetSystemInfo@Day(1), TimeToInd@Day(1), 
 Auto vars:     Size  Location     Type
  DayTime         2   81[BANK1 ] unsigned int 
 Return value:  Size  Location     Type
                  1    wreg      void 
 Registers used:
		wreg, fsr2l, fsr2h, status,2, status,0, cstack
 Tracked objects:
		On entry : 
		On exit  : 
		Unchanged: 
 Data sizes:     COMRAM   BANK0   BANK1   BANK2   BANK3   BANK4   BANK5   BANK6   BANK7   BANK8   BANK9  BANK10  BANK11  BANK12  BANK13  BANK14  BANK15
      Params:         0       0       8       0       0       0       0       0       0       0       0       0       0       0       0       0       0
      Locals:         0       0       2       0       0       0       0       0       0       0       0       0       0       0       0       0       0
      Temps:          0       0       0       0       0       0       0       0       0       0       0       0       0       0       0       0       0
      Totals:         0       0      10       0       0       0       0       0       0       0       0       0       0       0       0       0       0
Total ram usage:       10 bytes
 Hardware stack levels used:    1
 Hardware stack levels required when called:   10
 This function calls:
		___aldiv
		___lwdiv
		___lwmod
 This function is called by:
		_TimeToInd
		_GetSystemInfo
 This function uses a non-reentrant model


 *************** function ___lwmod *****************
 Defined at:
		line 8 in file "/opt/microchip/xc8/v1.37/sources/common/lwmod.c"
 Parameters:    Size  Location     Type
  dividend        2   59[BANK1 ] unsigned int 
  divisor         2   61[BANK1 ] unsigned int 
 Auto vars:     Size  Location     Type
  counter         1   63[BANK1 ] unsigned char 
 Return value:  Size  Location     Type
                  2   59[BANK1 ] unsigned int 
 Registers used:
		wreg, status,2, status,0
 Tracked objects:
		On entry : 
		On exit  : 
		Unchanged: 
 Data sizes:     COMRAM   BANK0   BANK1   BANK2   BANK3   BANK4   BANK5   BANK6   BANK7   BANK8   BANK9  BANK10  BANK11  BANK12  BANK13  BANK14  BANK15
      Params:         0       0       4       0       0       0       0       0       0       0       0       0       0       0       0       0       0
      Locals:         0       0       1       0       0       0       0       0       0       0       0       0       0       0       0       0       0
      Temps:          0       0       0       0       0       0       0       0       0       0       0       0       0       0       0       0       0
      Totals:         0       0       5       0       0       0       0       0       0       0       0       0       0       0       0       0       0
Total ram usage:        5 bytes
 Hardware stack levels used:    1
 Hardware stack levels required when called:    9
 This function calls:
		Nothing
 This function is called by:
		_TimeToInd
		_EditSchedule
		_ParseTime
		_GetSystemInfo
 This function uses a non-reentrant model


 *************** function ___lwdiv *****************
 Defined at:
		line 8 in file "/opt/microchip/xc8/v1.37/sources/common/lwdiv.c"
 Parameters:    Size  Location     Type
  dividend        2   59[BANK1 ] unsigned int 
  divisor         2   61[BANK1 ] unsigned int 
 Auto vars:     Size  Location     Type
  quotient        2   64[BANK1 ] unsigned int 
  counter         1   63[BANK1 ] unsigned char 
 Return value:  Size  Location     Type
                  2   59[BANK1 ] unsigned int 
 Registers used:
		wreg, status,2, status,0
 Tracked objects:
		On entry : 
		On exit  : 
		Unchanged: 
 Data sizes:     COMRAM   BANK0   BANK1   BANK2   BANK3   BANK4   BANK5   BANK6   BANK7   BANK8   BANK9  BANK10  BANK11  BANK12  BANK13  BANK14  BANK15
      Params:         0       0       4       0       0       0       0       0       0       0       0       0       0       0       0       0       0
      Locals:         0       0       3       0       0       0       0       0       0       0       0       0       0       0       0       0       0
      Temps:          0       0       0       0       0       0       0       0       0       0       0       0       0       0       0       0       0
      Totals:         0       0       7       0       0       0       0       0       0       0       0       0       0       0       0       0       0
Total ram usage:        7 bytes
 Hardware stack levels used:    1
 Hardware stack levels required when called:    9
 This function calls:
		Nothing
 This function is called by:
		_TimeToInd
		_EditSchedule
		_ParseTime
		_PhonebookEdit
		_GetSystemInfo
 This function uses a non-reentrant model


 *************** function _NumericToString *****************
 Defined at:
		line 951 in file "prog.c"
 Parameters:    Size  Location     Type
  n               4   73[BANK1 ] long 
  mySring         2   77[BANK1 ] PTR unsigned char 
		 -> SendSMS@y(4), GetSystemInfo@h_2(3), GetSystemInfo@m_2(3), GetSystemInfo@h_1(3), 
		 -> GetSystemInfo@m_1(3), PhonebookEdit@num_cell(3), testSystemTimer@string(17), RefreshSchedulerIndicator@num_1574(3), 
		 -> RefreshSchedulerIndicator@num(3), 
  size            1   79[BANK1 ] unsigned char 
 Auto vars:     Size  Location     Type
  displacement    1   83[BANK1 ] unsigned char 
  negative        1   82[BANK1 ] unsigned char 
 Return value:  Size  Location     Type
                  1    wreg      void 
 Registers used:
		wreg, fsr2l, fsr2h, status,2, status,0, cstack
 Tracked objects:
		On entry : 
		On exit  : 
		Unchanged: 
 Data sizes:     COMRAM   BANK0   BANK1   BANK2   BANK3   BANK4   BANK5   BANK6   BANK7   BANK8   BANK9  BANK10  BANK11  BANK12  BANK13  BANK14  BANK15
      Params:         0       0       7       0       0       0       0       0       0       0       0       0       0       0       0       0       0
      Locals:         0       0       2       0       0       0       0       0       0       0       0       0       0       0       0       0       0
      Temps:          0       0       2       0       0       0       0       0       0       0       0       0       0       0       0       0       0
      Totals:         0       0      11       0       0       0       0       0       0       0       0       0       0       0       0       0       0
Total ram usage:       11 bytes
 Hardware stack levels used:    1
 Hardware stack levels required when called:   10
 This function calls:
		___aldiv
		___almod
		___lmul
		_getNumChar
 This function is called by:
		_RefreshSchedulerIndicator
		_PhonebookEdit
		_GetSystemInfo
		_SendSMS
 This function uses a non-reentrant model


 *************** function _getNumChar *****************
 Defined at:
		line 2743 in file "prog.c"
 Parameters:    Size  Location     Type
  num             1    wreg     unsigned char 
 Auto vars:     Size  Location     Type
  num             1   59[BANK1 ] unsigned char 
 Return value:  Size  Location     Type
                  1    wreg      unsigned char 
 Registers used:
		wreg, status,2, status,0
 Tracked objects:
		On entry : 
		On exit  : 
		Unchanged: 
 Data sizes:     COMRAM   BANK0   BANK1   BANK2   BANK3   BANK4   BANK5   BANK6   BANK7   BANK8   BANK9  BANK10  BANK11  BANK12  BANK13  BANK14  BANK15
      Params:         0       0       0       0       0       0       0       0       0       0       0       0       0       0       0       0       0
      Locals:         0       0       1       0       0       0       0       0       0       0       0       0       0       0       0       0       0
      Temps:          0       0       0       0       0       0       0       0       0       0       0       0       0       0       0       0       0
      Totals:         0       0       1       0       0       0       0       0       0       0       0       0       0       0       0       0       0
Total ram usage:        1 bytes
 Hardware stack levels used:    1
 Hardware stack levels required when called:    9
 This function calls:
		Nothing
 This function is called by:
		_NumericToString
		_NumericToHEXString
		_TimeToInd
		_ReIndTimeEdit
		_ItemsToIndicator
		_EditSchedule
		_GetSystemInfo
		_WriteTime
 This function uses a non-reentrant model


 *************** function ___almod *****************
 Defined at:
		line 8 in file "/opt/microchip/xc8/v1.37/sources/common/almod.c"
 Parameters:    Size  Location     Type
  dividend        4   59[BANK1 ] long 
  divisor         4   63[BANK1 ] long 
 Auto vars:     Size  Location     Type
  sign            1   68[BANK1 ] unsigned char 
  counter         1   67[BANK1 ] unsigned char 
 Return value:  Size  Location     Type
                  4   59[BANK1 ] long 
 Registers used:
		wreg, status,2, status,0
 Tracked objects:
		On entry : 
		On exit  : 
		Unchanged: 
 Data sizes:     COMRAM   BANK0   BANK1   BANK2   BANK3   BANK4   BANK5   BANK6   BANK7   BANK8   BANK9  BANK10  BANK11  BANK12  BANK13  BANK14  BANK15
      Params:         0       0       8       0       0       0       0       0       0       0       0       0       0       0       0       0       0
      Locals:         0       0       2       0       0       0       0       0       0       0       0       0       0       0       0       0       0
      Temps:          0       0       0       0       0       0       0       0       0       0       0       0       0       0       0       0       0
      Totals:         0       0      10       0       0       0       0       0       0       0       0       0       0       0       0       0       0
Total ram usage:       10 bytes
 Hardware stack levels used:    1
 Hardware stack levels required when called:    9
 This function calls:
		Nothing
 This function is called by:
		_NumericToString
		_TimeToInd
		_TimeEdit
		_WriteTime
 This function uses a non-reentrant model


 *************** function ___aldiv *****************
 Defined at:
		line 8 in file "/opt/microchip/xc8/v1.37/sources/common/aldiv.c"
 Parameters:    Size  Location     Type
  dividend        4   59[BANK1 ] long 
  divisor         4   63[BANK1 ] long 
 Auto vars:     Size  Location     Type
  quotient        4   69[BANK1 ] long 
  sign            1   68[BANK1 ] unsigned char 
  counter         1   67[BANK1 ] unsigned char 
 Return value:  Size  Location     Type
                  4   59[BANK1 ] long 
 Registers used:
		wreg, status,2, status,0
 Tracked objects:
		On entry : 
		On exit  : 
		Unchanged: 
 Data sizes:     COMRAM   BANK0   BANK1   BANK2   BANK3   BANK4   BANK5   BANK6   BANK7   BANK8   BANK9  BANK10  BANK11  BANK12  BANK13  BANK14  BANK15
      Params:         0       0       8       0       0       0       0       0       0       0       0       0       0       0       0       0       0
      Locals:         0       0       6       0       0       0       0       0       0       0       0       0       0       0       0       0       0
      Temps:          0       0       0       0       0       0       0       0       0       0       0       0       0       0       0       0       0
      Totals:         0       0      14       0       0       0       0       0       0       0       0       0       0       0       0       0       0
Total ram usage:       14 bytes
 Hardware stack levels used:    1
 Hardware stack levels required when called:    9
 This function calls:
		Nothing
 This function is called by:
		_NumericToString
		_NumericToHEXString
		_TimeToInd
		_TimeEdit
		_ParseTime
		_WriteTime
 This function uses a non-reentrant model


 *************** function _GetDayOfWeek *****************
 Defined at:
		line 984 in file "prog.c"
 Parameters:    Size  Location     Type
  day             1    wreg     unsigned char 
 Auto vars:     Size  Location     Type
  day             1   61[BANK1 ] unsigned char 
 Return value:  Size  Location     Type
                  2   59[BANK1 ] PTR unsigned char 
 Registers used:
		wreg, status,2, status,0
 Tracked objects:
		On entry : 
		On exit  : 
		Unchanged: 
 Data sizes:     COMRAM   BANK0   BANK1   BANK2   BANK3   BANK4   BANK5   BANK6   BANK7   BANK8   BANK9  BANK10  BANK11  BANK12  BANK13  BANK14  BANK15
      Params:         0       0       2       0       0       0       0       0       0       0       0       0       0       0       0       0       0
      Locals:         0       0       1       0       0       0       0       0       0       0       0       0       0       0       0       0       0
      Temps:          0       0       0       0       0       0       0       0       0       0       0       0       0       0       0       0       0
      Totals:         0       0       3       0       0       0       0       0       0       0       0       0       0       0       0       0       0
Total ram usage:        3 bytes
 Hardware stack levels used:    1
 Hardware stack levels required when called:    9
 This function calls:
		Nothing
 This function is called by:
		_TimeToInd
		_ReIndTimeEdit
		_GetSystemInfo
 This function uses a non-reentrant model


 *************** function _FindNextTimeStart *****************
 Defined at:
		line 2132 in file "prog.c"
 Parameters:    Size  Location     Type
  TimeFrom        2   88[BANK1 ] PTR unsigned long 
		 -> GetSystemInfo@cTime(4), NearTimeStart(4), 
 Auto vars:     Size  Location     Type
  TimeOfSignal    4  120[BANK1 ] unsigned long 
  DayOn           1  106[BANK1 ] unsigned char 
  DayIndex        1  126[BANK1 ] unsigned char 
  CellsData       8   94[BANK1 ] unsigned char [8]
  Data            4  127[BANK1 ] unsigned long 
  TimeStart       2  115[BANK1 ] unsigned int 
  TimeStop        2  109[BANK1 ] unsigned int 
  Days            1  119[BANK1 ] unsigned char 
  Signals         1  118[BANK1 ] unsigned char 
  LastFoundTim    4  111[BANK1 ] unsigned long 
  adress          2  124[BANK1 ] unsigned int 
  adressStart     2  107[BANK1 ] unsigned int 
  TimeIsFound     1  117[BANK1 ] unsigned char 
 Return value:  Size  Location     Type
                  2   88[BANK1 ] unsigned int 
 Registers used:
		wreg, fsr2l, fsr2h, status,2, status,0, cstack
 Tracked objects:
		On entry : 
		On exit  : 
		Unchanged: 
 Data sizes:     COMRAM   BANK0   BANK1   BANK2   BANK3   BANK4   BANK5   BANK6   BANK7   BANK8   BANK9  BANK10  BANK11  BANK12  BANK13  BANK14  BANK15
      Params:         0       0       2       0       0       0       0       0       0       0       0       0       0       0       0       0       0
      Locals:         0       0      37       0       0       0       0       0       0       0       0       0       0       0       0       0       0
      Temps:          0       0       4       0       0       0       0       0       0       0       0       0       0       0       0       0       0
      Totals:         0       0      43       0       0       0       0       0       0       0       0       0       0       0       0       0       0
Total ram usage:       43 bytes
 Hardware stack levels used:    1
 Hardware stack levels required when called:   12
 This function calls:
		_ParseDataRecord
		_ReadDataOfCell
		___lmul
 This function is called by:
		_TimeToInd
		_GetSystemInfo
		_main2
 This function uses a non-reentrant model


 *************** function ___lmul *****************
 Defined at:
		line 15 in file "/opt/microchip/xc8/v1.37/sources/common/Umul32.c"
 Parameters:    Size  Location     Type
  multiplier      4   59[BANK1 ] unsigned long 
  multiplicand    4   63[BANK1 ] unsigned long 
 Auto vars:     Size  Location     Type
  product         4   67[BANK1 ] unsigned long 
 Return value:  Size  Location     Type
                  4   59[BANK1 ] unsigned long 
 Registers used:
		wreg, status,2, status,0
 Tracked objects:
		On entry : 
		On exit  : 
		Unchanged: 
 Data sizes:     COMRAM   BANK0   BANK1   BANK2   BANK3   BANK4   BANK5   BANK6   BANK7   BANK8   BANK9  BANK10  BANK11  BANK12  BANK13  BANK14  BANK15
      Params:         0       0       8       0       0       0       0       0       0       0       0       0       0       0       0       0       0
      Locals:         0       0       4       0       0       0       0       0       0       0       0       0       0       0       0       0       0
      Temps:          0       0       0       0       0       0       0       0       0       0       0       0       0       0       0       0       0
      Totals:         0       0      12       0       0       0       0       0       0       0       0       0       0       0       0       0       0
Total ram usage:       12 bytes
 Hardware stack levels used:    1
 Hardware stack levels required when called:    9
 This function calls:
		Nothing
 This function is called by:
		_NumericToString
		_TimeEdit
		_FindNextTimeStart
		_main
 This function uses a non-reentrant model


 *************** function _ReadDataOfCell *****************
 Defined at:
		line 1755 in file "prog.c"
 Parameters:    Size  Location     Type
  CellsData       2   72[BANK1 ] PTR unsigned char 
		 -> GetSystemInfo@CellsData(8), FindNextTimeStart@CellsData(8), EditSchedule@CellsData(8), RefreshSchedulerIndicator@CellsData(8), 
		 -> FindCell@CellsData(8), TimeToInd@CellsData(8), 
  Data            2   74[BANK1 ] PTR unsigned long 
		 -> GetSystemInfo@Data(4), FindNextTimeStart@Data(4), EditSchedule@Data(4), RefreshSchedulerIndicator@Data(4), 
		 -> FindCell@Data(4), TimeToInd@Data(4), 
  TargetAdress    2   76[BANK1 ] unsigned int 
 Auto vars:     Size  Location     Type
  i               2   86[BANK1 ] int 
 Return value:  Size  Location     Type
                  1    wreg      void 
 Registers used:
		wreg, fsr2l, fsr2h, status,2, status,0, cstack
 Tracked objects:
		On entry : 
		On exit  : 
		Unchanged: 
 Data sizes:     COMRAM   BANK0   BANK1   BANK2   BANK3   BANK4   BANK5   BANK6   BANK7   BANK8   BANK9  BANK10  BANK11  BANK12  BANK13  BANK14  BANK15
      Params:         0       0       6       0       0       0       0       0       0       0       0       0       0       0       0       0       0
      Locals:         0       0       2       0       0       0       0       0       0       0       0       0       0       0       0       0       0
      Temps:          0       0       8       0       0       0       0       0       0       0       0       0       0       0       0       0       0
      Totals:         0       0      16       0       0       0       0       0       0       0       0       0       0       0       0       0       0
Total ram usage:       16 bytes
 Hardware stack levels used:    1
 Hardware stack levels required when called:   11
 This function calls:
		_FillArrayFromEEPROM
 This function is called by:
		_TimeToInd
		_FindCell
		_RefreshSchedulerIndicator
		_EditSchedule
		_FindNextTimeStart
		_GetSystemInfo
 This function uses a non-reentrant model


 *************** function _FillArrayFromEEPROM *****************
 Defined at:
		line 1459 in file "prog.c"
 Parameters:    Size  Location     Type
  container       2   63[BANK1 ] PTR unsigned char 
		 -> GetSystemInfo@CellsData(8), PhonebookEdit@Contact(33), FindPhoneContactByNumber@container(33), FindNextTimeStart@CellsData(8), 
		 -> EditSchedule@CellsData(8), RefreshSchedulerIndicator@CellsData(8), FindCell@CellsData(8), TimeToInd@CellsData(8), 
  adress_start    2   65[BANK1 ] unsigned int 
  quantity        2   67[BANK1 ] unsigned int 
 Auto vars:     Size  Location     Type
  i               1   71[BANK1 ] unsigned char 
 Return value:  Size  Location     Type
                  1    wreg      void 
 Registers used:
		wreg, fsr2l, fsr2h, status,2, status,0, cstack
 Tracked objects:
		On entry : 
		On exit  : 
		Unchanged: 
 Data sizes:     COMRAM   BANK0   BANK1   BANK2   BANK3   BANK4   BANK5   BANK6   BANK7   BANK8   BANK9  BANK10  BANK11  BANK12  BANK13  BANK14  BANK15
      Params:         0       0       6       0       0       0       0       0       0       0       0       0       0       0       0       0       0
      Locals:         0       0       1       0       0       0       0       0       0       0       0       0       0       0       0       0       0
      Temps:          0       0       2       0       0       0       0       0       0       0       0       0       0       0       0       0       0
      Totals:         0       0       9       0       0       0       0       0       0       0       0       0       0       0       0       0       0
Total ram usage:        9 bytes
 Hardware stack levels used:    1
 Hardware stack levels required when called:   10
 This function calls:
		_EERD
 This function is called by:
		_FillPhonebookCellFromEEPROM
		_ReadDataOfCell
 This function uses a non-reentrant model


 *************** function _ParseDataRecord *****************
 Defined at:
		line 2120 in file "prog.c"
 Parameters:    Size  Location     Type
  Data            4   59[BANK1 ] unsigned long 
  TimeStart       2   63[BANK1 ] PTR unsigned int 
		 -> GetSystemInfo@TimeStart(2), FindNextTimeStart@TimeStart(2), EditSchedule@TimeStart(2), TimeToInd@TimeStart(2), 
  TimeStop        2   65[BANK1 ] PTR unsigned int 
		 -> GetSystemInfo@TimeStop(2), FindNextTimeStart@TimeStop(2), EditSchedule@TimeStop(2), TimeToInd@TimeStop(2), 
  Days            2   67[BANK1 ] PTR unsigned char 
		 -> GetSystemInfo@Days(1), FindNextTimeStart@Days(1), EditSchedule@Days(1), TimeToInd@Days(1), 
  Signals         2   69[BANK1 ] PTR unsigned char 
		 -> GetSystemInfo@Signals(1), FindNextTimeStart@Signals(1), EditSchedule@Signals(1), TimeToInd@Signals(1), 
 Auto vars:     Size  Location     Type
		None
 Return value:  Size  Location     Type
                  1    wreg      void 
 Registers used:
		wreg, fsr2l, fsr2h, status,2, status,0
 Tracked objects:
		On entry : 
		On exit  : 
		Unchanged: 
 Data sizes:     COMRAM   BANK0   BANK1   BANK2   BANK3   BANK4   BANK5   BANK6   BANK7   BANK8   BANK9  BANK10  BANK11  BANK12  BANK13  BANK14  BANK15
      Params:         0       0      12       0       0       0       0       0       0       0       0       0       0       0       0       0       0
      Locals:         0       0       0       0       0       0       0       0       0       0       0       0       0       0       0       0       0
      Temps:          0       0       4       0       0       0       0       0       0       0       0       0       0       0       0       0       0
      Totals:         0       0      16       0       0       0       0       0       0       0       0       0       0       0       0       0       0
Total ram usage:       16 bytes
 Hardware stack levels used:    1
 Hardware stack levels required when called:    9
 This function calls:
		Nothing
 This function is called by:
		_TimeToInd
		_EditSchedule
		_FindNextTimeStart
		_GetSystemInfo
 This function uses a non-reentrant model


 *************** function _CleanStringArray *****************
 Defined at:
		line 1777 in file "prog.c"
 Parameters:    Size  Location     Type
  myArray         2   59[BANK1 ] PTR unsigned char 
		 -> SMS(512), GetSystemInfo@DataArray(19), GetSystemInfo@info(73), buff_string_11(256), 
		 -> buff_string_10(256), buff_string_9(256), buff_string_8(256), active_phone(14), 
		 -> ProcessIncommingUartData@msg(33), ProcessIncommingUartData@number(11), Incomming_DTMF_Data(8), Incomming_Call_Data(36), 
		 -> Clock_from_GSM(30), DeleteDataOfCell@CellsData(8), 
  size            2   61[BANK1 ] unsigned int 
  settingData     1   63[BANK1 ] unsigned char 
 Auto vars:     Size  Location     Type
  i               2   64[BANK1 ] unsigned int 
 Return value:  Size  Location     Type
                  1    wreg      void 
 Registers used:
		wreg, fsr2l, fsr2h, status,2, status,0
 Tracked objects:
		On entry : 
		On exit  : 
		Unchanged: 
 Data sizes:     COMRAM   BANK0   BANK1   BANK2   BANK3   BANK4   BANK5   BANK6   BANK7   BANK8   BANK9  BANK10  BANK11  BANK12  BANK13  BANK14  BANK15
      Params:         0       0       5       0       0       0       0       0       0       0       0       0       0       0       0       0       0
      Locals:         0       0       2       0       0       0       0       0       0       0       0       0       0       0       0       0       0
      Temps:          0       0       0       0       0       0       0       0       0       0       0       0       0       0       0       0       0
      Totals:         0       0       7       0       0       0       0       0       0       0       0       0       0       0       0       0       0
Total ram usage:        7 bytes
 Hardware stack levels used:    1
 Hardware stack levels required when called:    9
 This function calls:
		Nothing
 This function is called by:
		_DeleteDataOfCell
		_main
		_FindIncommingData
		_GetSystemInfo
		_main2
		_SendSMS
 This function uses a non-reentrant model


 *************** function _FillMinutes *****************
 Defined at:
		line 2246 in file "prog.c"
 Parameters:    Size  Location     Type
		None
 Auto vars:     Size  Location     Type
		None
 Return value:  Size  Location     Type
                  1    wreg      void 
 Registers used:
		wreg, status,2, status,0
 Tracked objects:
		On entry : 
		On exit  : 
		Unchanged: 
 Data sizes:     COMRAM   BANK0   BANK1   BANK2   BANK3   BANK4   BANK5   BANK6   BANK7   BANK8   BANK9  BANK10  BANK11  BANK12  BANK13  BANK14  BANK15
      Params:         0       0       0       0       0       0       0       0       0       0       0       0       0       0       0       0       0
      Locals:         0       0       0       0       0       0       0       0       0       0       0       0       0       0       0       0       0
      Temps:          0       0       0       0       0       0       0       0       0       0       0       0       0       0       0       0       0
      Totals:         0       0       0       0       0       0       0       0       0       0       0       0       0       0       0       0       0
Total ram usage:        0 bytes
 Hardware stack levels used:    1
 Hardware stack levels required when called:    9
 This function calls:
		Nothing
 This function is called by:
		_main2
 This function uses a non-reentrant model


 *************** function _GetTimeSource *****************
 Defined at:
		line 619 in file "prog.c"
 Parameters:    Size  Location     Type
		None
 Auto vars:     Size  Location     Type
		None
 Return value:  Size  Location     Type
                  1    wreg      unsigned char 
 Registers used:
		wreg, status,2, status,0, cstack
 Tracked objects:
		On entry : 
		On exit  : 
		Unchanged: 
 Data sizes:     COMRAM   BANK0   BANK1   BANK2   BANK3   BANK4   BANK5   BANK6   BANK7   BANK8   BANK9  BANK10  BANK11  BANK12  BANK13  BANK14  BANK15
      Params:         0       0       0       0       0       0       0       0       0       0       0       0       0       0       0       0       0
      Locals:         0       0       0       0       0       0       0       0       0       0       0       0       0       0       0       0       0
      Temps:          0       0       1       0       0       0       0       0       0       0       0       0       0       0       0       0       0
      Totals:         0       0       1       0       0       0       0       0       0       0       0       0       0       0       0       0       0
Total ram usage:        1 bytes
 Hardware stack levels used:    1
 Hardware stack levels required when called:   10
 This function calls:
		_EERD
 This function is called by:
		_main
 This function uses a non-reentrant model


 *************** function _EERD *****************
 Defined at:
		line 1172 in file "prog.c"
 Parameters:    Size  Location     Type
  adress          2   59[BANK1 ] unsigned int 
 Auto vars:     Size  Location     Type
  EEDATA_BUP      1   62[BANK1 ] volatile unsigned char 
  INTCON_BUP      1   61[BANK1 ] volatile unsigned char 
 Return value:  Size  Location     Type
                  1    wreg      unsigned char 
 Registers used:
		wreg, status,2
 Tracked objects:
		On entry : 
		On exit  : 
		Unchanged: 
 Data sizes:     COMRAM   BANK0   BANK1   BANK2   BANK3   BANK4   BANK5   BANK6   BANK7   BANK8   BANK9  BANK10  BANK11  BANK12  BANK13  BANK14  BANK15
      Params:         0       0       2       0       0       0       0       0       0       0       0       0       0       0       0       0       0
      Locals:         0       0       2       0       0       0       0       0       0       0       0       0       0       0       0       0       0
      Temps:          0       0       0       0       0       0       0       0       0       0       0       0       0       0       0       0       0
      Totals:         0       0       4       0       0       0       0       0       0       0       0       0       0       0       0       0       0
Total ram usage:        4 bytes
 Hardware stack levels used:    1
 Hardware stack levels required when called:    9
 This function calls:
		Nothing
 This function is called by:
		_GetTimeSource
		_FillArrayFromEEPROM
		_main
		_Read_USART_SpeedNumber
		_Settings
		_main2
 This function uses a non-reentrant model


 *************** function _F_l *****************
 Defined at:
		line 2528 in file "prog.c"
 Parameters:    Size  Location     Type
		None
 Auto vars:     Size  Location     Type
  digit           1   80[BANK0 ] unsigned char 
  symbol          2   87[BANK0 ] int 
  a               2   83[BANK0 ] int 
  _KeyIndex       1   82[BANK0 ] unsigned char 
  data_temp       1   81[BANK0 ] unsigned char 
  line            1   89[BANK0 ] unsigned char 
  digsAtrib       2   85[BANK0 ] PTR struct .
		 -> digitsAtrib_system_message(32), digitsAtrib(32), 
  digs            2   78[BANK0 ] PTR unsigned char 
		 -> digits_system_message(32), digits(32), 
  MinuteAgo       1   77[BANK0 ] unsigned char 
 Return value:  Size  Location     Type
                  1    wreg      void 
 Registers used:
		wreg, fsr0l, fsr0h, fsr1l, fsr1h, fsr2l, fsr2h, status,2, status,0, tblptrl, tblptrh, tblptru, prodl, prodh, cstack
 Tracked objects:
		On entry : 
		On exit  : 
		Unchanged: 
 Data sizes:     COMRAM   BANK0   BANK1   BANK2   BANK3   BANK4   BANK5   BANK6   BANK7   BANK8   BANK9  BANK10  BANK11  BANK12  BANK13  BANK14  BANK15
      Params:         0       0       0       0       0       0       0       0       0       0       0       0       0       0       0       0       0
      Locals:         0      13       0       0       0       0       0       0       0       0       0       0       0       0       0       0       0
      Temps:          0      19       0       0       0       0       0       0       0       0       0       0       0       0       0       0       0
      Totals:         0      32       0       0       0       0       0       0       0       0       0       0       0       0       0       0       0
Total ram usage:       32 bytes
 Hardware stack levels used:    1
 Hardware stack levels required when called:    8
 This function calls:
		_ConvKeyNum
		_ProcessIncommingUartData
		_ProcessSystemMessageShowing
		_ReadTime
		_SendSymbolToLCD
		_SignalsOnOff
		_getLcdCodeOfChar
		i1_FillMinutes
		i1_lcd_send_byte
 This function is called by:
		Interrupt level 1
 This function uses a non-reentrant model


 *************** function i1_lcd_send_byte *****************
 Defined at:
		line 1549 in file "prog.c"
 Parameters:    Size  Location     Type
  data            1    wreg     unsigned char 
 Auto vars:     Size  Location     Type
  data            1   30[COMRAM] unsigned char 
 Return value:  Size  Location     Type
                  1    wreg      void 
 Registers used:
		wreg, status,2, status,0, prodl, prodh, cstack
 Tracked objects:
		On entry : 
		On exit  : 
		Unchanged: 
 Data sizes:     COMRAM   BANK0   BANK1   BANK2   BANK3   BANK4   BANK5   BANK6   BANK7   BANK8   BANK9  BANK10  BANK11  BANK12  BANK13  BANK14  BANK15
      Params:         0       0       0       0       0       0       0       0       0       0       0       0       0       0       0       0       0
      Locals:         1       0       0       0       0       0       0       0       0       0       0       0       0       0       0       0       0
      Temps:          0       0       0       0       0       0       0       0       0       0       0       0       0       0       0       0       0
      Totals:         1       0       0       0       0       0       0       0       0       0       0       0       0       0       0       0       0
Total ram usage:        1 bytes
 Hardware stack levels used:    1
 Hardware stack levels required when called:    4
 This function calls:
		i1_lcd_send_initial_half_byte
 This function is called by:
		_F_l
 This function uses a non-reentrant model


 *************** function i1_lcd_send_initial_half_byte *****************
 Defined at:
		line 1542 in file "prog.c"
 Parameters:    Size  Location     Type
  data            1    wreg     unsigned char 
 Auto vars:     Size  Location     Type
  data            1   27[COMRAM] unsigned char 
 Return value:  Size  Location     Type
                  1    wreg      void 
 Registers used:
		wreg, status,2, status,0, prodl, prodh
 Tracked objects:
		On entry : 
		On exit  : 
		Unchanged: 
 Data sizes:     COMRAM   BANK0   BANK1   BANK2   BANK3   BANK4   BANK5   BANK6   BANK7   BANK8   BANK9  BANK10  BANK11  BANK12  BANK13  BANK14  BANK15
      Params:         0       0       0       0       0       0       0       0       0       0       0       0       0       0       0       0       0
      Locals:         3       0       0       0       0       0       0       0       0       0       0       0       0       0       0       0       0
      Temps:          0       0       0       0       0       0       0       0       0       0       0       0       0       0       0       0       0
      Totals:         3       0       0       0       0       0       0       0       0       0       0       0       0       0       0       0       0
Total ram usage:        3 bytes
 Hardware stack levels used:    1
 Hardware stack levels required when called:    3
 This function calls:
		Nothing
 This function is called by:
		i1_lcd_send_byte
 This function uses a non-reentrant model


 *************** function i1_FillMinutes *****************
 Defined at:
		line 2246 in file "prog.c"
 Parameters:    Size  Location     Type
		None
 Auto vars:     Size  Location     Type
		None
 Return value:  Size  Location     Type
                  1    wreg      void 
 Registers used:
		wreg, status,2, status,0
 Tracked objects:
		On entry : 
		On exit  : 
		Unchanged: 
 Data sizes:     COMRAM   BANK0   BANK1   BANK2   BANK3   BANK4   BANK5   BANK6   BANK7   BANK8   BANK9  BANK10  BANK11  BANK12  BANK13  BANK14  BANK15
      Params:         0       0       0       0       0       0       0       0       0       0       0       0       0       0       0       0       0
      Locals:         0       0       0       0       0       0       0       0       0       0       0       0       0       0       0       0       0
      Temps:          0       0       0       0       0       0       0       0       0       0       0       0       0       0       0       0       0
      Totals:         0       0       0       0       0       0       0       0       0       0       0       0       0       0       0       0       0
Total ram usage:        0 bytes
 Hardware stack levels used:    1
 Hardware stack levels required when called:    3
 This function calls:
		Nothing
 This function is called by:
		_F_l
 This function uses a non-reentrant model


 *************** function _getLcdCodeOfChar *****************
 Defined at:
		line 629 in file "prog.c"
 Parameters:    Size  Location     Type
  dig             1    wreg     unsigned char 
 Auto vars:     Size  Location     Type
  dig             1   27[COMRAM] unsigned char 
 Return value:  Size  Location     Type
                  1    wreg      unsigned char 
 Registers used:
		wreg, status,2, status,0
 Tracked objects:
		On entry : 
		On exit  : 
		Unchanged: 
 Data sizes:     COMRAM   BANK0   BANK1   BANK2   BANK3   BANK4   BANK5   BANK6   BANK7   BANK8   BANK9  BANK10  BANK11  BANK12  BANK13  BANK14  BANK15
      Params:         0       0       0       0       0       0       0       0       0       0       0       0       0       0       0       0       0
      Locals:         1       0       0       0       0       0       0       0       0       0       0       0       0       0       0       0       0
      Temps:          0       0       0       0       0       0       0       0       0       0       0       0       0       0       0       0       0
      Totals:         1       0       0       0       0       0       0       0       0       0       0       0       0       0       0       0       0
Total ram usage:        1 bytes
 Hardware stack levels used:    1
 Hardware stack levels required when called:    3
 This function calls:
		Nothing
 This function is called by:
		_F_l
 This function uses a non-reentrant model


 *************** function _SignalsOnOff *****************
 Defined at:
		line 2195 in file "prog.c"
 Parameters:    Size  Location     Type
		None
 Auto vars:     Size  Location     Type
  DayTime         2   16[BANK0 ] unsigned int 
  ThisTime        2   14[BANK0 ] unsigned int 
  ThisDay         1   20[BANK0 ] unsigned char 
  TimeStop        2   10[BANK0 ] unsigned int 
  TimeStart       2    8[BANK0 ] unsigned int 
  Signals         1   19[BANK0 ] unsigned char 
  Days            1   18[BANK0 ] unsigned char 
  Data            1   21[BANK0 ] unsigned char 
  CellsData       8    0[BANK0 ] unsigned char [8]
  Data            4   22[BANK0 ] unsigned long 
 Return value:  Size  Location     Type
                  1    wreg      void 
 Registers used:
		wreg, fsr2l, fsr2h, status,2, status,0, prodl, prodh, cstack
 Tracked objects:
		On entry : 
		On exit  : 
		Unchanged: 
 Data sizes:     COMRAM   BANK0   BANK1   BANK2   BANK3   BANK4   BANK5   BANK6   BANK7   BANK8   BANK9  BANK10  BANK11  BANK12  BANK13  BANK14  BANK15
      Params:         0       0       0       0       0       0       0       0       0       0       0       0       0       0       0       0       0
      Locals:         0      26       0       0       0       0       0       0       0       0       0       0       0       0       0       0       0
      Temps:          1       0       0       0       0       0       0       0       0       0       0       0       0       0       0       0       0
      Totals:         1      26       0       0       0       0       0       0       0       0       0       0       0       0       0       0       0
Total ram usage:       27 bytes
 Hardware stack levels used:    1
 Hardware stack levels required when called:    6
 This function calls:
		_ReadDataOfCell_interr
		i1_ConvertDayToBit
		i1_EEWR
		i1___aldiv
		i1___lwdiv
		i1___lwmod
 This function is called by:
		_F_l
 This function uses a non-reentrant model


 *************** function i1___lwmod *****************
 Defined at:
		line 8 in file "/opt/microchip/xc8/v1.37/sources/common/lwmod.c"
 Parameters:    Size  Location     Type
  dividend        2   27[COMRAM] unsigned int 
  divisor         2   29[COMRAM] unsigned int 
 Auto vars:     Size  Location     Type
  __lwmod         1   31[COMRAM] unsigned char 
 Return value:  Size  Location     Type
                  2   27[COMRAM] unsigned int 
 Registers used:
		wreg, status,2, status,0
 Tracked objects:
		On entry : 
		On exit  : 
		Unchanged: 
 Data sizes:     COMRAM   BANK0   BANK1   BANK2   BANK3   BANK4   BANK5   BANK6   BANK7   BANK8   BANK9  BANK10  BANK11  BANK12  BANK13  BANK14  BANK15
      Params:         4       0       0       0       0       0       0       0       0       0       0       0       0       0       0       0       0
      Locals:         1       0       0       0       0       0       0       0       0       0       0       0       0       0       0       0       0
      Temps:          0       0       0       0       0       0       0       0       0       0       0       0       0       0       0       0       0
      Totals:         5       0       0       0       0       0       0       0       0       0       0       0       0       0       0       0       0
Total ram usage:        5 bytes
 Hardware stack levels used:    1
 Hardware stack levels required when called:    3
 This function calls:
		Nothing
 This function is called by:
		_SignalsOnOff
 This function uses a non-reentrant model


 *************** function i1___lwdiv *****************
 Defined at:
		line 8 in file "/opt/microchip/xc8/v1.37/sources/common/lwdiv.c"
 Parameters:    Size  Location     Type
  dividend        2   27[COMRAM] unsigned int 
  divisor         2   29[COMRAM] unsigned int 
 Auto vars:     Size  Location     Type
  __lwdiv         2   32[COMRAM] unsigned int 
  __lwdiv         1   31[COMRAM] unsigned char 
 Return value:  Size  Location     Type
                  2   27[COMRAM] unsigned int 
 Registers used:
		wreg, status,2, status,0
 Tracked objects:
		On entry : 
		On exit  : 
		Unchanged: 
 Data sizes:     COMRAM   BANK0   BANK1   BANK2   BANK3   BANK4   BANK5   BANK6   BANK7   BANK8   BANK9  BANK10  BANK11  BANK12  BANK13  BANK14  BANK15
      Params:         4       0       0       0       0       0       0       0       0       0       0       0       0       0       0       0       0
      Locals:         3       0       0       0       0       0       0       0       0       0       0       0       0       0       0       0       0
      Temps:          0       0       0       0       0       0       0       0       0       0       0       0       0       0       0       0       0
      Totals:         7       0       0       0       0       0       0       0       0       0       0       0       0       0       0       0       0
Total ram usage:        7 bytes
 Hardware stack levels used:    1
 Hardware stack levels required when called:    3
 This function calls:
		Nothing
 This function is called by:
		_SignalsOnOff
 This function uses a non-reentrant model


 *************** function i1_ConvertDayToBit *****************
 Defined at:
		line 1742 in file "prog.c"
 Parameters:    Size  Location     Type
  DayNumber       1    wreg     unsigned char 
 Auto vars:     Size  Location     Type
  DayNumber       1   27[COMRAM] unsigned char 
 Return value:  Size  Location     Type
                  1    wreg      unsigned char 
 Registers used:
		wreg, status,2, status,0
 Tracked objects:
		On entry : 
		On exit  : 
		Unchanged: 
 Data sizes:     COMRAM   BANK0   BANK1   BANK2   BANK3   BANK4   BANK5   BANK6   BANK7   BANK8   BANK9  BANK10  BANK11  BANK12  BANK13  BANK14  BANK15
      Params:         0       0       0       0       0       0       0       0       0       0       0       0       0       0       0       0       0
      Locals:         1       0       0       0       0       0       0       0       0       0       0       0       0       0       0       0       0
      Temps:          0       0       0       0       0       0       0       0       0       0       0       0       0       0       0       0       0
      Totals:         1       0       0       0       0       0       0       0       0       0       0       0       0       0       0       0       0
Total ram usage:        1 bytes
 Hardware stack levels used:    1
 Hardware stack levels required when called:    3
 This function calls:
		Nothing
 This function is called by:
		_SignalsOnOff
 This function uses a non-reentrant model


 *************** function _ReadDataOfCell_interr *****************
 Defined at:
		line 1762 in file "prog.c"
 Parameters:    Size  Location     Type
  CellsData       1    wreg     PTR unsigned char 
		 -> SignalsOnOff@CellsData(8), 
  Data            1   39[COMRAM] PTR unsigned long 
		 -> SignalsOnOff@Data(4), 
  TargetAdress    2   40[COMRAM] unsigned int 
 Auto vars:     Size  Location     Type
  CellsData       1   50[COMRAM] PTR unsigned char 
		 -> SignalsOnOff@CellsData(8), 
  i               2   51[COMRAM] int 
 Return value:  Size  Location     Type
                  1    wreg      void 
 Registers used:
		wreg, fsr2l, fsr2h, status,2, status,0, cstack
 Tracked objects:
		On entry : 
		On exit  : 
		Unchanged: 
 Data sizes:     COMRAM   BANK0   BANK1   BANK2   BANK3   BANK4   BANK5   BANK6   BANK7   BANK8   BANK9  BANK10  BANK11  BANK12  BANK13  BANK14  BANK15
      Params:         3       0       0       0       0       0       0       0       0       0       0       0       0       0       0       0       0
      Locals:         3       0       0       0       0       0       0       0       0       0       0       0       0       0       0       0       0
      Temps:          8       0       0       0       0       0       0       0       0       0       0       0       0       0       0       0       0
      Totals:        14       0       0       0       0       0       0       0       0       0       0       0       0       0       0       0       0
Total ram usage:       14 bytes
 Hardware stack levels used:    1
 Hardware stack levels required when called:    5
 This function calls:
		_FillArrayFromEEPROM_interr
 This function is called by:
		_SignalsOnOff
 This function uses a non-reentrant model


 *************** function _FillArrayFromEEPROM_interr *****************
 Defined at:
		line 1475 in file "prog.c"
 Parameters:    Size  Location     Type
  container       1    wreg     PTR unsigned char 
		 -> SignalsOnOff@CellsData(8), 
  adress_start    2   31[COMRAM] unsigned int 
  quantity        2   33[COMRAM] unsigned int 
 Auto vars:     Size  Location     Type
  container       1   37[COMRAM] PTR unsigned char 
		 -> SignalsOnOff@CellsData(8), 
  i               1   38[COMRAM] unsigned char 
 Return value:  Size  Location     Type
                  1    wreg      void 
 Registers used:
		wreg, fsr2l, fsr2h, status,2, status,0, cstack
 Tracked objects:
		On entry : 
		On exit  : 
		Unchanged: 
 Data sizes:     COMRAM   BANK0   BANK1   BANK2   BANK3   BANK4   BANK5   BANK6   BANK7   BANK8   BANK9  BANK10  BANK11  BANK12  BANK13  BANK14  BANK15
      Params:         4       0       0       0       0       0       0       0       0       0       0       0       0       0       0       0       0
      Locals:         2       0       0       0       0       0       0       0       0       0       0       0       0       0       0       0       0
      Temps:          2       0       0       0       0       0       0       0       0       0       0       0       0       0       0       0       0
      Totals:         8       0       0       0       0       0       0       0       0       0       0       0       0       0       0       0       0
Total ram usage:        8 bytes
 Hardware stack levels used:    1
 Hardware stack levels required when called:    4
 This function calls:
		i1_EERD
 This function is called by:
		_ReadDataOfCell_interr
 This function uses a non-reentrant model


 *************** function _SendSymbolToLCD *****************
 Defined at:
		line 1515 in file "prog.c"
 Parameters:    Size  Location     Type
  Symb            1    wreg     unsigned char 
 Auto vars:     Size  Location     Type
  Symb            1   34[COMRAM] unsigned char 
 Return value:  Size  Location     Type
                  1    wreg      void 
 Registers used:
		wreg, status,2, status,0, prodl, prodh, cstack
 Tracked objects:
		On entry : 
		On exit  : 
		Unchanged: 
 Data sizes:     COMRAM   BANK0   BANK1   BANK2   BANK3   BANK4   BANK5   BANK6   BANK7   BANK8   BANK9  BANK10  BANK11  BANK12  BANK13  BANK14  BANK15
      Params:         0       0       0       0       0       0       0       0       0       0       0       0       0       0       0       0       0
      Locals:         5       0       0       0       0       0       0       0       0       0       0       0       0       0       0       0       0
      Temps:          0       0       0       0       0       0       0       0       0       0       0       0       0       0       0       0       0
      Totals:         5       0       0       0       0       0       0       0       0       0       0       0       0       0       0       0       0
Total ram usage:        5 bytes
 Hardware stack levels used:    1
 Hardware stack levels required when called:    4
 This function calls:
		_delay
 This function is called by:
		_F_l
 This function uses a non-reentrant model


 *************** function _delay *****************
 Defined at:
		line 1504 in file "prog.c"
 Parameters:    Size  Location     Type
  del             1    wreg     unsigned char 
  count           2   27[COMRAM] unsigned int 
 Auto vars:     Size  Location     Type
  del             1   29[COMRAM] unsigned char 
 Return value:  Size  Location     Type
                  1    wreg      void 
 Registers used:
		wreg, status,2, status,0
 Tracked objects:
		On entry : 
		On exit  : 
		Unchanged: 
 Data sizes:     COMRAM   BANK0   BANK1   BANK2   BANK3   BANK4   BANK5   BANK6   BANK7   BANK8   BANK9  BANK10  BANK11  BANK12  BANK13  BANK14  BANK15
      Params:         2       0       0       0       0       0       0       0       0       0       0       0       0       0       0       0       0
      Locals:         1       0       0       0       0       0       0       0       0       0       0       0       0       0       0       0       0
      Temps:          0       0       0       0       0       0       0       0       0       0       0       0       0       0       0       0       0
      Totals:         3       0       0       0       0       0       0       0       0       0       0       0       0       0       0       0       0
Total ram usage:        3 bytes
 Hardware stack levels used:    1
 Hardware stack levels required when called:    3
 This function calls:
		Nothing
 This function is called by:
		_SendSymbolToLCD
 This function uses a non-reentrant model


 *************** function _ReadTime *****************
 Defined at:
		line 3957 in file "prog.c"
 Parameters:    Size  Location     Type
		None
 Auto vars:     Size  Location     Type
  I               1    0        unsigned char 
  Seconds         1    0        unsigned char 
 Return value:  Size  Location     Type
                  1    wreg      void 
 Registers used:
		wreg, status,2, status,0, cstack
 Tracked objects:
		On entry : 
		On exit  : 
		Unchanged: 
 Data sizes:     COMRAM   BANK0   BANK1   BANK2   BANK3   BANK4   BANK5   BANK6   BANK7   BANK8   BANK9  BANK10  BANK11  BANK12  BANK13  BANK14  BANK15
      Params:         0       0       0       0       0       0       0       0       0       0       0       0       0       0       0       0       0
      Locals:         6       0       0       0       0       0       0       0       0       0       0       0       0       0       0       0       0
      Temps:          0       0       0       0       0       0       0       0       0       0       0       0       0       0       0       0       0
      Totals:         6       0       0       0       0       0       0       0       0       0       0       0       0       0       0       0       0
Total ram usage:        6 bytes
 Hardware stack levels used:    1
 Hardware stack levels required when called:    5
 This function calls:
		_BCD_to_DEC
		_I2CAck
		_I2CNak
		_I2CRead
		_I2CRestart
		i1_EERD
		i1_I2CInit
		i1_I2CSend
		i1_I2CStart
		i1_I2CStop
		i1_SendCommandToUSART
		i1___lmul
		i1_getSystemTimePoint
		i1_testTimePoint
 This function is called by:
		_F_l
 This function uses a non-reentrant model


 *************** function i1_I2CStop *****************
 Defined at:
		line 4098 in file "prog.c"
 Parameters:    Size  Location     Type
		None
 Auto vars:     Size  Location     Type
		None
 Return value:  Size  Location     Type
                  1    wreg      void 
 Registers used:
		None
 Tracked objects:
		On entry : 
		On exit  : 
		Unchanged: 
 Data sizes:     COMRAM   BANK0   BANK1   BANK2   BANK3   BANK4   BANK5   BANK6   BANK7   BANK8   BANK9  BANK10  BANK11  BANK12  BANK13  BANK14  BANK15
      Params:         0       0       0       0       0       0       0       0       0       0       0       0       0       0       0       0       0
      Locals:         0       0       0       0       0       0       0       0       0       0       0       0       0       0       0       0       0
      Temps:          0       0       0       0       0       0       0       0       0       0       0       0       0       0       0       0       0
      Totals:         0       0       0       0       0       0       0       0       0       0       0       0       0       0       0       0       0
Total ram usage:        0 bytes
 Hardware stack levels used:    1
 Hardware stack levels required when called:    3
 This function calls:
		Nothing
 This function is called by:
		_ReadTime
 This function uses a non-reentrant model


 *************** function i1_I2CStart *****************
 Defined at:
		line 4092 in file "prog.c"
 Parameters:    Size  Location     Type
		None
 Auto vars:     Size  Location     Type
		None
 Return value:  Size  Location     Type
                  1    wreg      void 
 Registers used:
		None
 Tracked objects:
		On entry : 
		On exit  : 
		Unchanged: 
 Data sizes:     COMRAM   BANK0   BANK1   BANK2   BANK3   BANK4   BANK5   BANK6   BANK7   BANK8   BANK9  BANK10  BANK11  BANK12  BANK13  BANK14  BANK15
      Params:         0       0       0       0       0       0       0       0       0       0       0       0       0       0       0       0       0
      Locals:         0       0       0       0       0       0       0       0       0       0       0       0       0       0       0       0       0
      Temps:          0       0       0       0       0       0       0       0       0       0       0       0       0       0       0       0       0
      Totals:         0       0       0       0       0       0       0       0       0       0       0       0       0       0       0       0       0
Total ram usage:        0 bytes
 Hardware stack levels used:    1
 Hardware stack levels required when called:    3
 This function calls:
		Nothing
 This function is called by:
		_ReadTime
 This function uses a non-reentrant model


 *************** function i1_I2CSend *****************
 Defined at:
		line 4121 in file "prog.c"
 Parameters:    Size  Location     Type
  dat             1    wreg     unsigned char 
 Auto vars:     Size  Location     Type
  dat             1   28[COMRAM] unsigned char 
 Return value:  Size  Location     Type
                  1    wreg      void 
 Registers used:
		wreg, status,2, status,0
 Tracked objects:
		On entry : 
		On exit  : 
		Unchanged: 
 Data sizes:     COMRAM   BANK0   BANK1   BANK2   BANK3   BANK4   BANK5   BANK6   BANK7   BANK8   BANK9  BANK10  BANK11  BANK12  BANK13  BANK14  BANK15
      Params:         0       0       0       0       0       0       0       0       0       0       0       0       0       0       0       0       0
      Locals:         1       0       0       0       0       0       0       0       0       0       0       0       0       0       0       0       0
      Temps:          1       0       0       0       0       0       0       0       0       0       0       0       0       0       0       0       0
      Totals:         2       0       0       0       0       0       0       0       0       0       0       0       0       0       0       0       0
Total ram usage:        2 bytes
 Hardware stack levels used:    1
 Hardware stack levels required when called:    3
 This function calls:
		Nothing
 This function is called by:
		_ReadTime
 This function uses a non-reentrant model


 *************** function i1_I2CInit *****************
 Defined at:
		line 4084 in file "prog.c"
 Parameters:    Size  Location     Type
		None
 Auto vars:     Size  Location     Type
		None
 Return value:  Size  Location     Type
                  1    wreg      void 
 Registers used:
		wreg, status,2, status,0
 Tracked objects:
		On entry : 
		On exit  : 
		Unchanged: 
 Data sizes:     COMRAM   BANK0   BANK1   BANK2   BANK3   BANK4   BANK5   BANK6   BANK7   BANK8   BANK9  BANK10  BANK11  BANK12  BANK13  BANK14  BANK15
      Params:         0       0       0       0       0       0       0       0       0       0       0       0       0       0       0       0       0
      Locals:         0       0       0       0       0       0       0       0       0       0       0       0       0       0       0       0       0
      Temps:          0       0       0       0       0       0       0       0       0       0       0       0       0       0       0       0       0
      Totals:         0       0       0       0       0       0       0       0       0       0       0       0       0       0       0       0       0
Total ram usage:        0 bytes
 Hardware stack levels used:    1
 Hardware stack levels required when called:    3
 This function calls:
		Nothing
 This function is called by:
		_ReadTime
 This function uses a non-reentrant model


 *************** function _I2CRestart *****************
 Defined at:
		line 4104 in file "prog.c"
 Parameters:    Size  Location     Type
		None
 Auto vars:     Size  Location     Type
		None
 Return value:  Size  Location     Type
                  1    wreg      void 
 Registers used:
		None
 Tracked objects:
		On entry : 
		On exit  : 
		Unchanged: 
 Data sizes:     COMRAM   BANK0   BANK1   BANK2   BANK3   BANK4   BANK5   BANK6   BANK7   BANK8   BANK9  BANK10  BANK11  BANK12  BANK13  BANK14  BANK15
      Params:         0       0       0       0       0       0       0       0       0       0       0       0       0       0       0       0       0
      Locals:         0       0       0       0       0       0       0       0       0       0       0       0       0       0       0       0       0
      Temps:          0       0       0       0       0       0       0       0       0       0       0       0       0       0       0       0       0
      Totals:         0       0       0       0       0       0       0       0       0       0       0       0       0       0       0       0       0
Total ram usage:        0 bytes
 Hardware stack levels used:    1
 Hardware stack levels required when called:    3
 This function calls:
		Nothing
 This function is called by:
		_ReadTime
 This function uses a non-reentrant model


 *************** function _I2CRead *****************
 Defined at:
		line 4127 in file "prog.c"
 Parameters:    Size  Location     Type
		None
 Auto vars:     Size  Location     Type
  temp            1   28[COMRAM] unsigned char 
 Return value:  Size  Location     Type
                  1    wreg      unsigned char 
 Registers used:
		wreg, status,2, status,0
 Tracked objects:
		On entry : 
		On exit  : 
		Unchanged: 
 Data sizes:     COMRAM   BANK0   BANK1   BANK2   BANK3   BANK4   BANK5   BANK6   BANK7   BANK8   BANK9  BANK10  BANK11  BANK12  BANK13  BANK14  BANK15
      Params:         0       0       0       0       0       0       0       0       0       0       0       0       0       0       0       0       0
      Locals:         1       0       0       0       0       0       0       0       0       0       0       0       0       0       0       0       0
      Temps:          1       0       0       0       0       0       0       0       0       0       0       0       0       0       0       0       0
      Totals:         2       0       0       0       0       0       0       0       0       0       0       0       0       0       0       0       0
Total ram usage:        2 bytes
 Hardware stack levels used:    1
 Hardware stack levels required when called:    3
 This function calls:
		Nothing
 This function is called by:
		_ReadTime
 This function uses a non-reentrant model


 *************** function _I2CNak *****************
 Defined at:
		line 4115 in file "prog.c"
 Parameters:    Size  Location     Type
		None
 Auto vars:     Size  Location     Type
		None
 Return value:  Size  Location     Type
                  1    wreg      void 
 Registers used:
		None
 Tracked objects:
		On entry : 
		On exit  : 
		Unchanged: 
 Data sizes:     COMRAM   BANK0   BANK1   BANK2   BANK3   BANK4   BANK5   BANK6   BANK7   BANK8   BANK9  BANK10  BANK11  BANK12  BANK13  BANK14  BANK15
      Params:         0       0       0       0       0       0       0       0       0       0       0       0       0       0       0       0       0
      Locals:         0       0       0       0       0       0       0       0       0       0       0       0       0       0       0       0       0
      Temps:          0       0       0       0       0       0       0       0       0       0       0       0       0       0       0       0       0
      Totals:         0       0       0       0       0       0       0       0       0       0       0       0       0       0       0       0       0
Total ram usage:        0 bytes
 Hardware stack levels used:    1
 Hardware stack levels required when called:    3
 This function calls:
		Nothing
 This function is called by:
		_ReadTime
 This function uses a non-reentrant model


 *************** function _I2CAck *****************
 Defined at:
		line 4109 in file "prog.c"
 Parameters:    Size  Location     Type
		None
 Auto vars:     Size  Location     Type
		None
 Return value:  Size  Location     Type
                  1    wreg      void 
 Registers used:
		None
 Tracked objects:
		On entry : 
		On exit  : 
		Unchanged: 
 Data sizes:     COMRAM   BANK0   BANK1   BANK2   BANK3   BANK4   BANK5   BANK6   BANK7   BANK8   BANK9  BANK10  BANK11  BANK12  BANK13  BANK14  BANK15
      Params:         0       0       0       0       0       0       0       0       0       0       0       0       0       0       0       0       0
      Locals:         0       0       0       0       0       0       0       0       0       0       0       0       0       0       0       0       0
      Temps:          0       0       0       0       0       0       0       0       0       0       0       0       0       0       0       0       0
      Totals:         0       0       0       0       0       0       0       0       0       0       0       0       0       0       0       0       0
Total ram usage:        0 bytes
 Hardware stack levels used:    1
 Hardware stack levels required when called:    3
 This function calls:
		Nothing
 This function is called by:
		_ReadTime
 This function uses a non-reentrant model


 *************** function _BCD_to_DEC *****************
 Defined at:
		line 3946 in file "prog.c"
 Parameters:    Size  Location     Type
  BCD             1    wreg     unsigned char 
 Auto vars:     Size  Location     Type
  BCD             1   28[COMRAM] unsigned char 
 Return value:  Size  Location     Type
                  1    wreg      unsigned char 
 Registers used:
		wreg, status,2, status,0, prodl, prodh
 Tracked objects:
		On entry : 
		On exit  : 
		Unchanged: 
 Data sizes:     COMRAM   BANK0   BANK1   BANK2   BANK3   BANK4   BANK5   BANK6   BANK7   BANK8   BANK9  BANK10  BANK11  BANK12  BANK13  BANK14  BANK15
      Params:         0       0       0       0       0       0       0       0       0       0       0       0       0       0       0       0       0
      Locals:         1       0       0       0       0       0       0       0       0       0       0       0       0       0       0       0       0
      Temps:          1       0       0       0       0       0       0       0       0       0       0       0       0       0       0       0       0
      Totals:         2       0       0       0       0       0       0       0       0       0       0       0       0       0       0       0       0
Total ram usage:        2 bytes
 Hardware stack levels used:    1
 Hardware stack levels required when called:    3
 This function calls:
		Nothing
 This function is called by:
		_ReadTime
 This function uses a non-reentrant model


 *************** function _ProcessSystemMessageShowing *****************
 Defined at:
		line 2521 in file "prog.c"
 Parameters:    Size  Location     Type
		None
 Auto vars:     Size  Location     Type
		None
 Return value:  Size  Location     Type
                  1    wreg      void 
 Registers used:
		None
 Tracked objects:
		On entry : 
		On exit  : 
		Unchanged: 
 Data sizes:     COMRAM   BANK0   BANK1   BANK2   BANK3   BANK4   BANK5   BANK6   BANK7   BANK8   BANK9  BANK10  BANK11  BANK12  BANK13  BANK14  BANK15
      Params:         0       0       0       0       0       0       0       0       0       0       0       0       0       0       0       0       0
      Locals:         0       0       0       0       0       0       0       0       0       0       0       0       0       0       0       0       0
      Temps:          0       0       0       0       0       0       0       0       0       0       0       0       0       0       0       0       0
      Totals:         0       0       0       0       0       0       0       0       0       0       0       0       0       0       0       0       0
Total ram usage:        0 bytes
 Hardware stack levels used:    1
 Hardware stack levels required when called:    3
 This function calls:
		Nothing
 This function is called by:
		_F_l
 This function uses a non-reentrant model


 *************** function _ProcessIncommingUartData *****************
 Defined at:
		line 2315 in file "prog.c"
 Parameters:    Size  Location     Type
		None
 Auto vars:     Size  Location     Type
  tt              4   44[BANK1 ] unsigned long 
  msg            33    0[BANK1 ] unsigned char [33]
  i               1   58[BANK1 ] unsigned char 
  number         11   33[BANK1 ] unsigned char [11]
  contact         2   56[BANK1 ] PTR struct .
		 -> FindPhoneContactByNumber@container(33), NULL(0), 
  tClock          4   52[BANK1 ] long 
 Return value:  Size  Location     Type
                  1    wreg      void 
 Registers used:
		wreg, fsr0l, fsr0h, fsr1l, fsr1h, fsr2l, fsr2h, status,2, status,0, tblptrl, tblptrh, tblptru, prodl, prodh, cstack
 Tracked objects:
		On entry : 
		On exit  : 
		Unchanged: 
 Data sizes:     COMRAM   BANK0   BANK1   BANK2   BANK3   BANK4   BANK5   BANK6   BANK7   BANK8   BANK9  BANK10  BANK11  BANK12  BANK13  BANK14  BANK15
      Params:         0       0       0       0       0       0       0       0       0       0       0       0       0       0       0       0       0
      Locals:         0       0      59       0       0       0       0       0       0       0       0       0       0       0       0       0       0
      Temps:          0      21       0       0       0       0       0       0       0       0       0       0       0       0       0       0       0
      Totals:         0      21      59       0       0       0       0       0       0       0       0       0       0       0       0       0       0
Total ram usage:       80 bytes
 Hardware stack levels used:    1
 Hardware stack levels required when called:    7
 This function calls:
		_CalculateClockDelta
		_FindPhoneContactByNumber
		_GetNumericFromString
		__FindIncommingData_interrupt
		__getContainer_Clock_from_GSM
		__getContainer_Incomming_Call_Data
		__getContainer_Incomming_DTMF_Data
		i1_CleanStringArray
		i1_EEWR
		i1_GetDayOfWeekByDate
		i1_OutputSystemMessage
		i1_SendCommandToUSART
		i1___lmul
		i1_getSystemTimePoint
		i1_strcat
		i1_strcpy
		i1_testTimePoint
 This function is called by:
		_F_l
 This function uses a non-reentrant model


 *************** function i1_testTimePoint *****************
 Defined at:
		line 2505 in file "prog.c"
 Parameters:    Size  Location     Type
  point           4   31[COMRAM] unsigned long 
  value           4   35[COMRAM] unsigned long 
 Auto vars:     Size  Location     Type
  testTimePoin    4   43[COMRAM] unsigned long 
 Return value:  Size  Location     Type
                  1    wreg      unsigned char 
 Registers used:
		wreg, status,2, status,0, cstack
 Tracked objects:
		On entry : 
		On exit  : 
		Unchanged: 
 Data sizes:     COMRAM   BANK0   BANK1   BANK2   BANK3   BANK4   BANK5   BANK6   BANK7   BANK8   BANK9  BANK10  BANK11  BANK12  BANK13  BANK14  BANK15
      Params:         8       0       0       0       0       0       0       0       0       0       0       0       0       0       0       0       0
      Locals:         4       0       0       0       0       0       0       0       0       0       0       0       0       0       0       0       0
      Temps:          4       0       0       0       0       0       0       0       0       0       0       0       0       0       0       0       0
      Totals:        16       0       0       0       0       0       0       0       0       0       0       0       0       0       0       0       0
Total ram usage:       16 bytes
 Hardware stack levels used:    1
 Hardware stack levels required when called:    4
 This function calls:
		i1_getSystemTimePoint
 This function is called by:
		_ProcessIncommingUartData
		_ReadTime
 This function uses a non-reentrant model


 *************** function i1_getSystemTimePoint *****************
 Defined at:
		line 2501 in file "prog.c"
 Parameters:    Size  Location     Type
		None
 Auto vars:     Size  Location     Type
		None
 Return value:  Size  Location     Type
                  4   27[COMRAM] unsigned long 
 Registers used:
		None
 Tracked objects:
		On entry : 
		On exit  : 
		Unchanged: 
 Data sizes:     COMRAM   BANK0   BANK1   BANK2   BANK3   BANK4   BANK5   BANK6   BANK7   BANK8   BANK9  BANK10  BANK11  BANK12  BANK13  BANK14  BANK15
      Params:         4       0       0       0       0       0       0       0       0       0       0       0       0       0       0       0       0
      Locals:         0       0       0       0       0       0       0       0       0       0       0       0       0       0       0       0       0
      Temps:          0       0       0       0       0       0       0       0       0       0       0       0       0       0       0       0       0
      Totals:         4       0       0       0       0       0       0       0       0       0       0       0       0       0       0       0       0
Total ram usage:        4 bytes
 Hardware stack levels used:    1
 Hardware stack levels required when called:    3
 This function calls:
		Nothing
 This function is called by:
		_ProcessIncommingUartData
		_ReadTime
		i1_testTimePoint
 This function uses a non-reentrant model


 *************** function i1_strcpy *****************
 Defined at:
		line 8 in file "/opt/microchip/xc8/v1.37/sources/common/strcpy.c"
 Parameters:    Size  Location     Type
  to              2   27[COMRAM] PTR unsigned char 
		 -> EncodePhoneNumberToPDU@encoded(15), active_phone(14), 
  from            2   29[COMRAM] PTR const unsigned char 
		 -> STR_89(14), active_phone(14), container.phone(14), FindPhoneContactByNumber@container(33), 
		 -> NULL(0), 
 Auto vars:     Size  Location     Type
  strcpy          2   31[COMRAM] PTR unsigned char 
		 -> EncodePhoneNumberToPDU@encoded(15), active_phone(14), 
 Return value:  Size  Location     Type
                  2   27[COMRAM] PTR unsigned char 
 Registers used:
		wreg, fsr0l, fsr0h, fsr2l, fsr2h, status,2, status,0, tblptrl, tblptrh, tblptru
 Tracked objects:
		On entry : 
		On exit  : 
		Unchanged: 
 Data sizes:     COMRAM   BANK0   BANK1   BANK2   BANK3   BANK4   BANK5   BANK6   BANK7   BANK8   BANK9  BANK10  BANK11  BANK12  BANK13  BANK14  BANK15
      Params:         4       0       0       0       0       0       0       0       0       0       0       0       0       0       0       0       0
      Locals:         2       0       0       0       0       0       0       0       0       0       0       0       0       0       0       0       0
      Temps:          0       0       0       0       0       0       0       0       0       0       0       0       0       0       0       0       0
      Totals:         6       0       0       0       0       0       0       0       0       0       0       0       0       0       0       0       0
Total ram usage:        6 bytes
 Hardware stack levels used:    1
 Hardware stack levels required when called:    3
 This function calls:
		Nothing
 This function is called by:
		_ProcessIncommingUartData
 This function uses a non-reentrant model


 *************** function i1_strcat *****************
 Defined at:
		line 8 in file "/opt/microchip/xc8/v1.37/sources/common/strcat.c"
 Parameters:    Size  Location     Type
  to              2   27[COMRAM] PTR unsigned char 
		 -> SendSMS@command(12), SMS(512), EncodePhoneNumberToPDU@encoded(15), GetSystemInfo@DataArray(19), 
		 -> GetSystemInfo@info(73), ProcessIncommingUartData@msg(33), 
  from            2   29[COMRAM] PTR const unsigned char 
		 -> SendSMS@y(4), STR_97(2), SendSMS@e(3), STR_96(3), 
		 -> STR_95(3), STR_94(3), SendSMS@tempString(3), STR_93(5), 
		 -> STR_92(3), cp1251_to_unicode@t(5), STR_91(2), EncodePhoneNumberToPDU@encoded(15), 
		 -> STR_85(8), GetSystemInfo@sss(5), STR_84(2), STR_83(2), 
		 -> STR_82(2), STR_81(2), STR_80(2), GetSystemInfo@h_2(3), 
		 -> GetSystemInfo@m_2(3), GetSystemInfo@h_1(3), GetSystemInfo@m_1(3), GetSystemInfo@DataArray(19), 
		 -> STR_79(13), STR_78(20), STR_77(18), GetSystemInfo@s_hand(5), 
		 -> STR_76(7), GetSystemInfo@s_auto(5), STR_75(7), STR_74(13), 
		 -> STR_33(20), ProcessIncommingUartData@number(11), STR_8(3), STR_7(3), 
		 -> STR_6(3), STR_5(3), STR_4(3), STR_3(3), 
		 -> STR_2(3), STR_1(3), 
 Auto vars:     Size  Location     Type
  strcat          2   31[COMRAM] PTR unsigned char 
		 -> SendSMS@command(12), SMS(512), EncodePhoneNumberToPDU@encoded(15), GetSystemInfo@DataArray(19), 
		 -> GetSystemInfo@info(73), ProcessIncommingUartData@msg(33), 
 Return value:  Size  Location     Type
                  2   27[COMRAM] PTR unsigned char 
 Registers used:
		wreg, fsr0l, fsr0h, fsr2l, fsr2h, status,2, status,0, tblptrl, tblptrh, tblptru
 Tracked objects:
		On entry : 
		On exit  : 
		Unchanged: 
 Data sizes:     COMRAM   BANK0   BANK1   BANK2   BANK3   BANK4   BANK5   BANK6   BANK7   BANK8   BANK9  BANK10  BANK11  BANK12  BANK13  BANK14  BANK15
      Params:         4       0       0       0       0       0       0       0       0       0       0       0       0       0       0       0       0
      Locals:         2       0       0       0       0       0       0       0       0       0       0       0       0       0       0       0       0
      Temps:          0       0       0       0       0       0       0       0       0       0       0       0       0       0       0       0       0
      Totals:         6       0       0       0       0       0       0       0       0       0       0       0       0       0       0       0       0
Total ram usage:        6 bytes
 Hardware stack levels used:    1
 Hardware stack levels required when called:    3
 This function calls:
		Nothing
 This function is called by:
		_ProcessIncommingUartData
 This function uses a non-reentrant model


 *************** function i1___lmul *****************
 Defined at:
		line 15 in file "/opt/microchip/xc8/v1.37/sources/common/Umul32.c"
 Parameters:    Size  Location     Type
  multiplier      4   53[COMRAM] unsigned long 
  multiplicand    4   57[COMRAM] unsigned long 
 Auto vars:     Size  Location     Type
  __lmul          4   61[COMRAM] unsigned long 
 Return value:  Size  Location     Type
                  4   53[COMRAM] unsigned long 
 Registers used:
		wreg, status,2, status,0
 Tracked objects:
		On entry : 
		On exit  : 
		Unchanged: 
 Data sizes:     COMRAM   BANK0   BANK1   BANK2   BANK3   BANK4   BANK5   BANK6   BANK7   BANK8   BANK9  BANK10  BANK11  BANK12  BANK13  BANK14  BANK15
      Params:         8       0       0       0       0       0       0       0       0       0       0       0       0       0       0       0       0
      Locals:         4       0       0       0       0       0       0       0       0       0       0       0       0       0       0       0       0
      Temps:          0       0       0       0       0       0       0       0       0       0       0       0       0       0       0       0       0
      Totals:        12       0       0       0       0       0       0       0       0       0       0       0       0       0       0       0       0
Total ram usage:       12 bytes
 Hardware stack levels used:    1
 Hardware stack levels required when called:    3
 This function calls:
		Nothing
 This function is called by:
		_ProcessIncommingUartData
		_ReadTime
 This function uses a non-reentrant model


 *************** function i1_SendCommandToUSART *****************
 Defined at:
		line 3217 in file "prog.c"
 Parameters:    Size  Location     Type
  command         2   27[COMRAM] PTR unsigned char 
		 -> SendSMS@command(12), SMS(512), WriteTime@comand(31), STR_90(9), 
		 -> STR_63(5), STR_61(4), TelephoneCall@command(18), STR_48(10), 
		 -> STR_46(10), STR_44(5), STR_42(2), STR_39(3), 
		 -> STR_38(3), InputText@ret_string(33), STR_35(5), STR_34(4), 
		 -> STR_32(5), NULL(0), 
  wait            1   29[COMRAM] unsigned char 
 Auto vars:     Size  Location     Type
		None
 Return value:  Size  Location     Type
                  1    wreg      void 
 Registers used:
		wreg, status,2, status,0
 Tracked objects:
		On entry : 
		On exit  : 
		Unchanged: 
 Data sizes:     COMRAM   BANK0   BANK1   BANK2   BANK3   BANK4   BANK5   BANK6   BANK7   BANK8   BANK9  BANK10  BANK11  BANK12  BANK13  BANK14  BANK15
      Params:         3       0       0       0       0       0       0       0       0       0       0       0       0       0       0       0       0
      Locals:         0       0       0       0       0       0       0       0       0       0       0       0       0       0       0       0       0
      Temps:          0       0       0       0       0       0       0       0       0       0       0       0       0       0       0       0       0
      Totals:         3       0       0       0       0       0       0       0       0       0       0       0       0       0       0       0       0
Total ram usage:        3 bytes
 Hardware stack levels used:    1
 Hardware stack levels required when called:    3
 This function calls:
		Nothing
 This function is called by:
		_ProcessIncommingUartData
		_ReadTime
 This function uses a non-reentrant model


 *************** function i1_OutputSystemMessage *****************
 Defined at:
		line 2785 in file "prog.c"
 Parameters:    Size  Location     Type
  stringData      2   27[COMRAM] PTR unsigned char 
		 -> STR_60(8), STR_59(20), STR_49(31), STR_47(27), 
		 -> STR_45(23), STR_43(20), STR_40(23), STR_37(26), 
		 -> STR_36(11), ProcessIncommingUartData@msg(33), STR_30(8), STR_29(20), 
		 -> STR_26(8), STR_25(20), 
 Auto vars:     Size  Location     Type
  OutputSystem    2   33[COMRAM] unsigned int 
  OutputSystem    1   38[COMRAM] unsigned char 
  OutputSystem    1   37[COMRAM] unsigned char 
  OutputSystem    1   36[COMRAM] unsigned char 
  OutputSystem    1   35[COMRAM] unsigned char 
  OutputSystem    1    0        unsigned char 
 Return value:  Size  Location     Type
                  1    wreg      void 
 Registers used:
		wreg, fsr0l, fsr0h, fsr2l, fsr2h, status,2, status,0, tblptrl, tblptrh, tblptru, prodl, prodh
 Tracked objects:
		On entry : 
		On exit  : 
		Unchanged: 
 Data sizes:     COMRAM   BANK0   BANK1   BANK2   BANK3   BANK4   BANK5   BANK6   BANK7   BANK8   BANK9  BANK10  BANK11  BANK12  BANK13  BANK14  BANK15
      Params:         2       0       0       0       0       0       0       0       0       0       0       0       0       0       0       0       0
      Locals:         6       0       0       0       0       0       0       0       0       0       0       0       0       0       0       0       0
      Temps:          4       0       0       0       0       0       0       0       0       0       0       0       0       0       0       0       0
      Totals:        12       0       0       0       0       0       0       0       0       0       0       0       0       0       0       0       0
Total ram usage:       12 bytes
 Hardware stack levels used:    1
 Hardware stack levels required when called:    3
 This function calls:
		Nothing
 This function is called by:
		_ProcessIncommingUartData
 This function uses a non-reentrant model


 *************** function i1_GetDayOfWeekByDate *****************
 Defined at:
		line 2302 in file "prog.c"
 Parameters:    Size  Location     Type
  _year           1    wreg     unsigned char 
  _mounth         1   47[COMRAM] unsigned char 
  _day            1   48[COMRAM] unsigned char 
 Auto vars:     Size  Location     Type
  _year           1   52[COMRAM] unsigned char 
  GetDayOfWeek    1    0        const unsigned char 
 Return value:  Size  Location     Type
                  1    wreg      unsigned char 
 Registers used:
		wreg, status,2, status,0, prodl, prodh, cstack
 Tracked objects:
		On entry : 
		On exit  : 
		Unchanged: 
 Data sizes:     COMRAM   BANK0   BANK1   BANK2   BANK3   BANK4   BANK5   BANK6   BANK7   BANK8   BANK9  BANK10  BANK11  BANK12  BANK13  BANK14  BANK15
      Params:         2       0       0       0       0       0       0       0       0       0       0       0       0       0       0       0       0
      Locals:         2       0       0       0       0       0       0       0       0       0       0       0       0       0       0       0       0
      Temps:          2       0       0       0       0       0       0       0       0       0       0       0       0       0       0       0       0
      Totals:         6       0       0       0       0       0       0       0       0       0       0       0       0       0       0       0       0
Total ram usage:        6 bytes
 Hardware stack levels used:    1
 Hardware stack levels required when called:    4
 This function calls:
		i1___awdiv
		i1___awmod
		i1___wmul
 This function is called by:
		_ProcessIncommingUartData
 This function uses a non-reentrant model


 *************** function i1___wmul *****************
 Defined at:
		line 15 in file "/opt/microchip/xc8/v1.37/sources/common/Umul16.c"
 Parameters:    Size  Location     Type
  multiplier      2   27[COMRAM] unsigned int 
  multiplicand    2   29[COMRAM] unsigned int 
 Auto vars:     Size  Location     Type
  __wmul          2   31[COMRAM] unsigned int 
 Return value:  Size  Location     Type
                  2   27[COMRAM] unsigned int 
 Registers used:
		wreg, status,2, status,0, prodl, prodh
 Tracked objects:
		On entry : 
		On exit  : 
		Unchanged: 
 Data sizes:     COMRAM   BANK0   BANK1   BANK2   BANK3   BANK4   BANK5   BANK6   BANK7   BANK8   BANK9  BANK10  BANK11  BANK12  BANK13  BANK14  BANK15
      Params:         4       0       0       0       0       0       0       0       0       0       0       0       0       0       0       0       0
      Locals:         2       0       0       0       0       0       0       0       0       0       0       0       0       0       0       0       0
      Temps:          0       0       0       0       0       0       0       0       0       0       0       0       0       0       0       0       0
      Totals:         6       0       0       0       0       0       0       0       0       0       0       0       0       0       0       0       0
Total ram usage:        6 bytes
 Hardware stack levels used:    1
 Hardware stack levels required when called:    3
 This function calls:
		Nothing
 This function is called by:
		i1_GetDayOfWeekByDate
 This function uses a non-reentrant model


 *************** function i1___awmod *****************
 Defined at:
		line 8 in file "/opt/microchip/xc8/v1.37/sources/common/awmod.c"
 Parameters:    Size  Location     Type
  dividend        2   41[COMRAM] int 
  divisor         2   43[COMRAM] int 
 Auto vars:     Size  Location     Type
  __awmod         1   46[COMRAM] unsigned char 
  __awmod         1   45[COMRAM] unsigned char 
 Return value:  Size  Location     Type
                  2   41[COMRAM] int 
 Registers used:
		wreg, status,2, status,0
 Tracked objects:
		On entry : 
		On exit  : 
		Unchanged: 
 Data sizes:     COMRAM   BANK0   BANK1   BANK2   BANK3   BANK4   BANK5   BANK6   BANK7   BANK8   BANK9  BANK10  BANK11  BANK12  BANK13  BANK14  BANK15
      Params:         4       0       0       0       0       0       0       0       0       0       0       0       0       0       0       0       0
      Locals:         2       0       0       0       0       0       0       0       0       0       0       0       0       0       0       0       0
      Temps:          0       0       0       0       0       0       0       0       0       0       0       0       0       0       0       0       0
      Totals:         6       0       0       0       0       0       0       0       0       0       0       0       0       0       0       0       0
Total ram usage:        6 bytes
 Hardware stack levels used:    1
 Hardware stack levels required when called:    3
 This function calls:
		Nothing
 This function is called by:
		i1_GetDayOfWeekByDate
 This function uses a non-reentrant model


 *************** function i1___awdiv *****************
 Defined at:
		line 8 in file "/opt/microchip/xc8/v1.37/sources/common/awdiv.c"
 Parameters:    Size  Location     Type
  dividend        2   33[COMRAM] int 
  divisor         2   35[COMRAM] int 
 Auto vars:     Size  Location     Type
  __awdiv         2   39[COMRAM] int 
  __awdiv         1   38[COMRAM] unsigned char 
  __awdiv         1   37[COMRAM] unsigned char 
 Return value:  Size  Location     Type
                  2   33[COMRAM] int 
 Registers used:
		wreg, status,2, status,0
 Tracked objects:
		On entry : 
		On exit  : 
		Unchanged: 
 Data sizes:     COMRAM   BANK0   BANK1   BANK2   BANK3   BANK4   BANK5   BANK6   BANK7   BANK8   BANK9  BANK10  BANK11  BANK12  BANK13  BANK14  BANK15
      Params:         4       0       0       0       0       0       0       0       0       0       0       0       0       0       0       0       0
      Locals:         4       0       0       0       0       0       0       0       0       0       0       0       0       0       0       0       0
      Temps:          0       0       0       0       0       0       0       0       0       0       0       0       0       0       0       0       0
      Totals:         8       0       0       0       0       0       0       0       0       0       0       0       0       0       0       0       0
Total ram usage:        8 bytes
 Hardware stack levels used:    1
 Hardware stack levels required when called:    3
 This function calls:
		Nothing
 This function is called by:
		i1_GetDayOfWeekByDate
 This function uses a non-reentrant model


 *************** function i1_EEWR *****************
 Defined at:
		line 1151 in file "prog.c"
 Parameters:    Size  Location     Type
  adress          2   27[COMRAM] unsigned int 
  data            1   29[COMRAM] unsigned char 
 Auto vars:     Size  Location     Type
  EEWR            1   30[COMRAM] volatile unsigned char 
 Return value:  Size  Location     Type
                  1    wreg      void 
 Registers used:
		wreg, status,2
 Tracked objects:
		On entry : 
		On exit  : 
		Unchanged: 
 Data sizes:     COMRAM   BANK0   BANK1   BANK2   BANK3   BANK4   BANK5   BANK6   BANK7   BANK8   BANK9  BANK10  BANK11  BANK12  BANK13  BANK14  BANK15
      Params:         3       0       0       0       0       0       0       0       0       0       0       0       0       0       0       0       0
      Locals:         1       0       0       0       0       0       0       0       0       0       0       0       0       0       0       0       0
      Temps:          0       0       0       0       0       0       0       0       0       0       0       0       0       0       0       0       0
      Totals:         4       0       0       0       0       0       0       0       0       0       0       0       0       0       0       0       0
Total ram usage:        4 bytes
 Hardware stack levels used:    1
 Hardware stack levels required when called:    3
 This function calls:
		Nothing
 This function is called by:
		_SignalsOnOff
		_ProcessIncommingUartData
 This function uses a non-reentrant model


 *************** function __getContainer_Incomming_DTMF_Data *****************
 Defined at:
		line 2297 in file "prog.c"
 Parameters:    Size  Location     Type
		None
 Auto vars:     Size  Location     Type
		None
 Return value:  Size  Location     Type
                  2   34[COMRAM] PTR unsigned char 
 Registers used:
		wreg, fsr2l, fsr2h, status,2, status,0, cstack
 Tracked objects:
		On entry : 
		On exit  : 
		Unchanged: 
 Data sizes:     COMRAM   BANK0   BANK1   BANK2   BANK3   BANK4   BANK5   BANK6   BANK7   BANK8   BANK9  BANK10  BANK11  BANK12  BANK13  BANK14  BANK15
      Params:         2       0       0       0       0       0       0       0       0       0       0       0       0       0       0       0       0
      Locals:         0       0       0       0       0       0       0       0       0       0       0       0       0       0       0       0       0
      Temps:          0       0       0       0       0       0       0       0       0       0       0       0       0       0       0       0       0
      Totals:         2       0       0       0       0       0       0       0       0       0       0       0       0       0       0       0       0
Total ram usage:        2 bytes
 Hardware stack levels used:    1
 Hardware stack levels required when called:    4
 This function calls:
		i1_CleanStringArray
 This function is called by:
		_ProcessIncommingUartData
 This function uses a non-reentrant model


 *************** function __getContainer_Incomming_Call_Data *****************
 Defined at:
		line 2292 in file "prog.c"
 Parameters:    Size  Location     Type
		None
 Auto vars:     Size  Location     Type
		None
 Return value:  Size  Location     Type
                  2   34[COMRAM] PTR unsigned char 
 Registers used:
		wreg, fsr2l, fsr2h, status,2, status,0, cstack
 Tracked objects:
		On entry : 
		On exit  : 
		Unchanged: 
 Data sizes:     COMRAM   BANK0   BANK1   BANK2   BANK3   BANK4   BANK5   BANK6   BANK7   BANK8   BANK9  BANK10  BANK11  BANK12  BANK13  BANK14  BANK15
      Params:         2       0       0       0       0       0       0       0       0       0       0       0       0       0       0       0       0
      Locals:         0       0       0       0       0       0       0       0       0       0       0       0       0       0       0       0       0
      Temps:          0       0       0       0       0       0       0       0       0       0       0       0       0       0       0       0       0
      Totals:         2       0       0       0       0       0       0       0       0       0       0       0       0       0       0       0       0
Total ram usage:        2 bytes
 Hardware stack levels used:    1
 Hardware stack levels required when called:    4
 This function calls:
		i1_CleanStringArray
 This function is called by:
		_ProcessIncommingUartData
 This function uses a non-reentrant model


 *************** function __getContainer_Clock_from_GSM *****************
 Defined at:
		line 2287 in file "prog.c"
 Parameters:    Size  Location     Type
		None
 Auto vars:     Size  Location     Type
		None
 Return value:  Size  Location     Type
                  2   34[COMRAM] PTR unsigned char 
 Registers used:
		wreg, fsr2l, fsr2h, status,2, status,0, cstack
 Tracked objects:
		On entry : 
		On exit  : 
		Unchanged: 
 Data sizes:     COMRAM   BANK0   BANK1   BANK2   BANK3   BANK4   BANK5   BANK6   BANK7   BANK8   BANK9  BANK10  BANK11  BANK12  BANK13  BANK14  BANK15
      Params:         2       0       0       0       0       0       0       0       0       0       0       0       0       0       0       0       0
      Locals:         0       0       0       0       0       0       0       0       0       0       0       0       0       0       0       0       0
      Temps:          0       0       0       0       0       0       0       0       0       0       0       0       0       0       0       0       0
      Totals:         2       0       0       0       0       0       0       0       0       0       0       0       0       0       0       0       0
Total ram usage:        2 bytes
 Hardware stack levels used:    1
 Hardware stack levels required when called:    4
 This function calls:
		i1_CleanStringArray
 This function is called by:
		_ProcessIncommingUartData
 This function uses a non-reentrant model


 *************** function __FindIncommingData_interrupt *****************
 Defined at:
		line 2903 in file "prog.c"
 Parameters:    Size  Location     Type
  regexp          2   36[COMRAM] PTR unsigned char 
		 -> StandardAnswer_NORMAL_POWER_DOWN(18), StandardAnswer_ERROR(6), StandardAnswer_NO_DIALTONE(12), StandardAnswer_NO_ANSWER(10), 
		 -> StandardAnswer_BUSY(5), StandardAnswer_NO_CARRIER(11), StandardAnswer_DTMF(8), StandardAnswer_INCCALL(36), 
		 -> StandardAnswer_CLOCK(30), STR_31(5), StandardAnswer_OK(3), 
  container       2   38[COMRAM] PTR unsigned char 
		 -> Incomming_DTMF_Data(8), Incomming_Call_Data(36), Clock_from_GSM(30), NULL(0), 
  history_inde    2   40[COMRAM] int 
 Auto vars:     Size  Location     Type
  a               2   52[COMRAM] unsigned int 
  s0              2   56[COMRAM] unsigned int 
  s1              2   44[COMRAM] unsigned int 
  j               2   64[COMRAM] unsigned int 
  last_s          2   62[COMRAM] unsigned int 
  not_found       2   50[COMRAM] unsigned int 
  i               2   58[COMRAM] unsigned int 
  pointer         2   60[COMRAM] PTR unsigned char 
		 -> buff_string_11(256), buff_string_10(256), buff_string_9(256), buff_string_8(256), 
  end_of_regex    2   54[COMRAM] PTR unsigned char 
		 -> StandardAnswer_NORMAL_POWER_DOWN(18), StandardAnswer_ERROR(6), StandardAnswer_NO_DIALTONE(12), StandardAnswer_NO_ANSWER(10), 
		 -> StandardAnswer_BUSY(5), StandardAnswer_NO_CARRIER(11), StandardAnswer_DTMF(8), StandardAnswer_INCCALL(36), 
		 -> StandardAnswer_CLOCK(30), STR_31(5), StandardAnswer_OK(3), 
  finish_index    2   48[COMRAM] unsigned int 
  start_index     2   46[COMRAM] unsigned int 
 Return value:  Size  Location     Type
                  1    wreg      unsigned char 
 Registers used:
		wreg, fsr1l, fsr1h, fsr2l, fsr2h, status,2, status,0, tblptrl, tblptrh, tblptru, cstack
 Tracked objects:
		On entry : 
		On exit  : 
		Unchanged: 
 Data sizes:     COMRAM   BANK0   BANK1   BANK2   BANK3   BANK4   BANK5   BANK6   BANK7   BANK8   BANK9  BANK10  BANK11  BANK12  BANK13  BANK14  BANK15
      Params:         6       0       0       0       0       0       0       0       0       0       0       0       0       0       0       0       0
      Locals:        22       0       0       0       0       0       0       0       0       0       0       0       0       0       0       0       0
      Temps:          2       0       0       0       0       0       0       0       0       0       0       0       0       0       0       0       0
      Totals:        30       0       0       0       0       0       0       0       0       0       0       0       0       0       0       0       0
Total ram usage:       30 bytes
 Hardware stack levels used:    1
 Hardware stack levels required when called:    4
 This function calls:
		__GetStringLength_interr
		i1_CleanStringArray
 This function is called by:
		_ProcessIncommingUartData
 This function uses a non-reentrant model


 *************** function i1_CleanStringArray *****************
 Defined at:
		line 1777 in file "prog.c"
 Parameters:    Size  Location     Type
  myArray         2   27[COMRAM] PTR unsigned char 
		 -> SMS(512), GetSystemInfo@DataArray(19), GetSystemInfo@info(73), buff_string_11(256), 
		 -> buff_string_10(256), buff_string_9(256), buff_string_8(256), active_phone(14), 
		 -> ProcessIncommingUartData@msg(33), ProcessIncommingUartData@number(11), Incomming_DTMF_Data(8), Incomming_Call_Data(36), 
		 -> Clock_from_GSM(30), DeleteDataOfCell@CellsData(8), 
  size            2   29[COMRAM] unsigned int 
  settingData     1   31[COMRAM] unsigned char 
 Auto vars:     Size  Location     Type
  CleanStringA    2   32[COMRAM] unsigned int 
 Return value:  Size  Location     Type
                  1    wreg      void 
 Registers used:
		wreg, fsr2l, fsr2h, status,2, status,0
 Tracked objects:
		On entry : 
		On exit  : 
		Unchanged: 
 Data sizes:     COMRAM   BANK0   BANK1   BANK2   BANK3   BANK4   BANK5   BANK6   BANK7   BANK8   BANK9  BANK10  BANK11  BANK12  BANK13  BANK14  BANK15
      Params:         5       0       0       0       0       0       0       0       0       0       0       0       0       0       0       0       0
      Locals:         2       0       0       0       0       0       0       0       0       0       0       0       0       0       0       0       0
      Temps:          0       0       0       0       0       0       0       0       0       0       0       0       0       0       0       0       0
      Totals:         7       0       0       0       0       0       0       0       0       0       0       0       0       0       0       0       0
Total ram usage:        7 bytes
 Hardware stack levels used:    1
 Hardware stack levels required when called:    3
 This function calls:
		Nothing
 This function is called by:
		__getContainer_Clock_from_GSM
		__getContainer_Incomming_Call_Data
		__getContainer_Incomming_DTMF_Data
		_ProcessIncommingUartData
		__FindIncommingData_interrupt
 This function uses a non-reentrant model


 *************** function __GetStringLength_interr *****************
 Defined at:
		line 2894 in file "prog.c"
 Parameters:    Size  Location     Type
  container       2   27[COMRAM] PTR unsigned char 
		 -> StandardAnswer_NORMAL_POWER_DOWN(18), StandardAnswer_ERROR(6), StandardAnswer_NO_DIALTONE(12), StandardAnswer_NO_ANSWER(10), 
		 -> StandardAnswer_BUSY(5), StandardAnswer_NO_CARRIER(11), StandardAnswer_DTMF(8), StandardAnswer_INCCALL(36), 
		 -> StandardAnswer_CLOCK(30), STR_31(5), StandardAnswer_OK(3), 
 Auto vars:     Size  Location     Type
  i               2   29[COMRAM] unsigned int 
 Return value:  Size  Location     Type
                  2   27[COMRAM] unsigned int 
 Registers used:
		wreg, status,2, status,0, tblptrl, tblptrh, tblptru
 Tracked objects:
		On entry : 
		On exit  : 
		Unchanged: 
 Data sizes:     COMRAM   BANK0   BANK1   BANK2   BANK3   BANK4   BANK5   BANK6   BANK7   BANK8   BANK9  BANK10  BANK11  BANK12  BANK13  BANK14  BANK15
      Params:         2       0       0       0       0       0       0       0       0       0       0       0       0       0       0       0       0
      Locals:         2       0       0       0       0       0       0       0       0       0       0       0       0       0       0       0       0
      Temps:          0       0       0       0       0       0       0       0       0       0       0       0       0       0       0       0       0
      Totals:         4       0       0       0       0       0       0       0       0       0       0       0       0       0       0       0       0
Total ram usage:        4 bytes
 Hardware stack levels used:    1
 Hardware stack levels required when called:    3
 This function calls:
		Nothing
 This function is called by:
		__FindIncommingData_interrupt
 This function uses a non-reentrant model


 *************** function _GetNumericFromString *****************
 Defined at:
		line 2311 in file "prog.c"
 Parameters:    Size  Location     Type
  string          2   28[COMRAM] PTR unsigned char 
		 -> Clock_from_GSM(30), 
  index           1   30[COMRAM] unsigned char 
 Auto vars:     Size  Location     Type
		None
 Return value:  Size  Location     Type
                  1    wreg      unsigned char 
 Registers used:
		wreg, fsr2l, fsr2h, status,2, status,0, cstack
 Tracked objects:
		On entry : 
		On exit  : 
		Unchanged: 
 Data sizes:     COMRAM   BANK0   BANK1   BANK2   BANK3   BANK4   BANK5   BANK6   BANK7   BANK8   BANK9  BANK10  BANK11  BANK12  BANK13  BANK14  BANK15
      Params:         3       0       0       0       0       0       0       0       0       0       0       0       0       0       0       0       0
      Locals:         0       0       0       0       0       0       0       0       0       0       0       0       0       0       0       0       0
      Temps:          0       0       0       0       0       0       0       0       0       0       0       0       0       0       0       0       0
      Totals:         3       0       0       0       0       0       0       0       0       0       0       0       0       0       0       0       0
Total ram usage:        3 bytes
 Hardware stack levels used:    1
 Hardware stack levels required when called:    4
 This function calls:
		_ConvertCharToNumeric
 This function is called by:
		_ProcessIncommingUartData
 This function uses a non-reentrant model


 *************** function _ConvertCharToNumeric *****************
 Defined at:
		line 801 in file "prog.c"
 Parameters:    Size  Location     Type
  symbol          1    wreg     unsigned char 
 Auto vars:     Size  Location     Type
  symbol          1   27[COMRAM] unsigned char 
 Return value:  Size  Location     Type
                  1    wreg      unsigned char 
 Registers used:
		wreg, status,2, status,0
 Tracked objects:
		On entry : 
		On exit  : 
		Unchanged: 
 Data sizes:     COMRAM   BANK0   BANK1   BANK2   BANK3   BANK4   BANK5   BANK6   BANK7   BANK8   BANK9  BANK10  BANK11  BANK12  BANK13  BANK14  BANK15
      Params:         0       0       0       0       0       0       0       0       0       0       0       0       0       0       0       0       0
      Locals:         1       0       0       0       0       0       0       0       0       0       0       0       0       0       0       0       0
      Temps:          0       0       0       0       0       0       0       0       0       0       0       0       0       0       0       0       0
      Totals:         1       0       0       0       0       0       0       0       0       0       0       0       0       0       0       0       0
Total ram usage:        1 bytes
 Hardware stack levels used:    1
 Hardware stack levels required when called:    3
 This function calls:
		Nothing
 This function is called by:
		_GetNumericFromString
 This function uses a non-reentrant model


 *************** function _FindPhoneContactByNumber *****************
 Defined at:
		line 2250 in file "prog.c"
 Parameters:    Size  Location     Type
  number          2   44[COMRAM] PTR unsigned char 
		 -> ProcessIncommingUartData@number(11), 
 Auto vars:     Size  Location     Type
  j               1    3[BANK0 ] unsigned char 
  end_of_phone    1    2[BANK0 ] unsigned char 
  i               1    1[BANK0 ] unsigned char 
  container      33    4[BANK0 ] struct .
  found           1    0[BANK0 ] unsigned char 
 Return value:  Size  Location     Type
                  2   44[COMRAM] PTR struct .
 Registers used:
		wreg, fsr1l, fsr1h, fsr2l, fsr2h, status,2, status,0, prodl, prodh, cstack
 Tracked objects:
		On entry : 
		On exit  : 
		Unchanged: 
 Data sizes:     COMRAM   BANK0   BANK1   BANK2   BANK3   BANK4   BANK5   BANK6   BANK7   BANK8   BANK9  BANK10  BANK11  BANK12  BANK13  BANK14  BANK15
      Params:         2       0       0       0       0       0       0       0       0       0       0       0       0       0       0       0       0
      Locals:         0      37       0       0       0       0       0       0       0       0       0       0       0       0       0       0       0
      Temps:          4       0       0       0       0       0       0       0       0       0       0       0       0       0       0       0       0
      Totals:         6      37       0       0       0       0       0       0       0       0       0       0       0       0       0       0       0
Total ram usage:       43 bytes
 Hardware stack levels used:    1
 Hardware stack levels required when called:    6
 This function calls:
		i1_FillPhonebookCellFromEEPROM
 This function is called by:
		_ProcessIncommingUartData
 This function uses a non-reentrant model


 *************** function i1_FillPhonebookCellFromEEPROM *****************
 Defined at:
		line 1465 in file "prog.c"
 Parameters:    Size  Location     Type
  container       2   40[COMRAM] PTR struct .
		 -> PhonebookEdit@Contact(33), FindPhoneContactByNumber@container(33), 
  adress_start    2   42[COMRAM] unsigned int 
 Auto vars:     Size  Location     Type
		None
 Return value:  Size  Location     Type
                  1    wreg      void 
 Registers used:
		wreg, fsr2l, fsr2h, status,2, status,0, cstack
 Tracked objects:
		On entry : 
		On exit  : 
		Unchanged: 
 Data sizes:     COMRAM   BANK0   BANK1   BANK2   BANK3   BANK4   BANK5   BANK6   BANK7   BANK8   BANK9  BANK10  BANK11  BANK12  BANK13  BANK14  BANK15
      Params:         4       0       0       0       0       0       0       0       0       0       0       0       0       0       0       0       0
      Locals:         0       0       0       0       0       0       0       0       0       0       0       0       0       0       0       0       0
      Temps:          0       0       0       0       0       0       0       0       0       0       0       0       0       0       0       0       0
      Totals:         4       0       0       0       0       0       0       0       0       0       0       0       0       0       0       0       0
Total ram usage:        4 bytes
 Hardware stack levels used:    1
 Hardware stack levels required when called:    5
 This function calls:
		i1_FillArrayFromEEPROM
 This function is called by:
		_FindPhoneContactByNumber
 This function uses a non-reentrant model


 *************** function i1_FillArrayFromEEPROM *****************
 Defined at:
		line 1459 in file "prog.c"
 Parameters:    Size  Location     Type
  container       2   31[COMRAM] PTR unsigned char 
		 -> GetSystemInfo@CellsData(8), PhonebookEdit@Contact(33), FindPhoneContactByNumber@container(33), FindNextTimeStart@CellsData(8), 
		 -> EditSchedule@CellsData(8), RefreshSchedulerIndicator@CellsData(8), FindCell@CellsData(8), TimeToInd@CellsData(8), 
  adress_start    2   33[COMRAM] unsigned int 
  quantity        2   35[COMRAM] unsigned int 
 Auto vars:     Size  Location     Type
  FillArrayFro    1   39[COMRAM] unsigned char 
 Return value:  Size  Location     Type
                  1    wreg      void 
 Registers used:
		wreg, fsr2l, fsr2h, status,2, status,0, cstack
 Tracked objects:
		On entry : 
		On exit  : 
		Unchanged: 
 Data sizes:     COMRAM   BANK0   BANK1   BANK2   BANK3   BANK4   BANK5   BANK6   BANK7   BANK8   BANK9  BANK10  BANK11  BANK12  BANK13  BANK14  BANK15
      Params:         6       0       0       0       0       0       0       0       0       0       0       0       0       0       0       0       0
      Locals:         1       0       0       0       0       0       0       0       0       0       0       0       0       0       0       0       0
      Temps:          2       0       0       0       0       0       0       0       0       0       0       0       0       0       0       0       0
      Totals:         9       0       0       0       0       0       0       0       0       0       0       0       0       0       0       0       0
Total ram usage:        9 bytes
 Hardware stack levels used:    1
 Hardware stack levels required when called:    4
 This function calls:
		i1_EERD
 This function is called by:
		i1_FillPhonebookCellFromEEPROM
 This function uses a non-reentrant model


 *************** function i1_EERD *****************
 Defined at:
		line 1172 in file "prog.c"
 Parameters:    Size  Location     Type
  adress          2   27[COMRAM] unsigned int 
 Auto vars:     Size  Location     Type
  EERD            1   30[COMRAM] volatile unsigned char 
  EERD            1   29[COMRAM] volatile unsigned char 
 Return value:  Size  Location     Type
                  1    wreg      unsigned char 
 Registers used:
		wreg, status,2
 Tracked objects:
		On entry : 
		On exit  : 
		Unchanged: 
 Data sizes:     COMRAM   BANK0   BANK1   BANK2   BANK3   BANK4   BANK5   BANK6   BANK7   BANK8   BANK9  BANK10  BANK11  BANK12  BANK13  BANK14  BANK15
      Params:         2       0       0       0       0       0       0       0       0       0       0       0       0       0       0       0       0
      Locals:         2       0       0       0       0       0       0       0       0       0       0       0       0       0       0       0       0
      Temps:          0       0       0       0       0       0       0       0       0       0       0       0       0       0       0       0       0
      Totals:         4       0       0       0       0       0       0       0       0       0       0       0       0       0       0       0       0
Total ram usage:        4 bytes
 Hardware stack levels used:    1
 Hardware stack levels required when called:    3
 This function calls:
		Nothing
 This function is called by:
		_FillArrayFromEEPROM_interr
		_ReadTime
		i1_FillArrayFromEEPROM
 This function uses a non-reentrant model


 *************** function _CalculateClockDelta *****************
 Defined at:
		line 350 in file "prog.c"
 Parameters:    Size  Location     Type
  newTime         4   41[COMRAM] long 
 Auto vars:     Size  Location     Type
		None
 Return value:  Size  Location     Type
                  1    wreg      void 
 Registers used:
		wreg, status,2, status,0, cstack
 Tracked objects:
		On entry : 
		On exit  : 
		Unchanged: 
 Data sizes:     COMRAM   BANK0   BANK1   BANK2   BANK3   BANK4   BANK5   BANK6   BANK7   BANK8   BANK9  BANK10  BANK11  BANK12  BANK13  BANK14  BANK15
      Params:         4       0       0       0       0       0       0       0       0       0       0       0       0       0       0       0       0
      Locals:         4       0       0       0       0       0       0       0       0       0       0       0       0       0       0       0       0
      Temps:          4       0       0       0       0       0       0       0       0       0       0       0       0       0       0       0       0
      Totals:        12       0       0       0       0       0       0       0       0       0       0       0       0       0       0       0       0
Total ram usage:       12 bytes
 Hardware stack levels used:    1
 Hardware stack levels required when called:    4
 This function calls:
		i1___aldiv
 This function is called by:
		_ProcessIncommingUartData
 This function uses a non-reentrant model


 *************** function i1___aldiv *****************
 Defined at:
		line 8 in file "/opt/microchip/xc8/v1.37/sources/common/aldiv.c"
 Parameters:    Size  Location     Type
  dividend        4   27[COMRAM] long 
  divisor         4   31[COMRAM] long 
 Auto vars:     Size  Location     Type
  __aldiv         4   37[COMRAM] long 
  __aldiv         1   36[COMRAM] unsigned char 
  __aldiv         1   35[COMRAM] unsigned char 
 Return value:  Size  Location     Type
                  4   27[COMRAM] long 
 Registers used:
		wreg, status,2, status,0
 Tracked objects:
		On entry : 
		On exit  : 
		Unchanged: 
 Data sizes:     COMRAM   BANK0   BANK1   BANK2   BANK3   BANK4   BANK5   BANK6   BANK7   BANK8   BANK9  BANK10  BANK11  BANK12  BANK13  BANK14  BANK15
      Params:         8       0       0       0       0       0       0       0       0       0       0       0       0       0       0       0       0
      Locals:         6       0       0       0       0       0       0       0       0       0       0       0       0       0       0       0       0
      Temps:          0       0       0       0       0       0       0       0       0       0       0       0       0       0       0       0       0
      Totals:        14       0       0       0       0       0       0       0       0       0       0       0       0       0       0       0       0
Total ram usage:       14 bytes
 Hardware stack levels used:    1
 Hardware stack levels required when called:    3
 This function calls:
		Nothing
 This function is called by:
		_CalculateClockDelta
		_SignalsOnOff
 This function uses a non-reentrant model


 *************** function _ConvKeyNum *****************
 Defined at:
		line 1620 in file "prog.c"
 Parameters:    Size  Location     Type
  Num             1    wreg     unsigned char 
 Auto vars:     Size  Location     Type
  Num             1   27[COMRAM] unsigned char 
 Return value:  Size  Location     Type
                  1    wreg      unsigned char 
 Registers used:
		wreg, status,2, status,0
 Tracked objects:
		On entry : 
		On exit  : 
		Unchanged: 
 Data sizes:     COMRAM   BANK0   BANK1   BANK2   BANK3   BANK4   BANK5   BANK6   BANK7   BANK8   BANK9  BANK10  BANK11  BANK12  BANK13  BANK14  BANK15
      Params:         0       0       0       0       0       0       0       0       0       0       0       0       0       0       0       0       0
      Locals:         1       0       0       0       0       0       0       0       0       0       0       0       0       0       0       0       0
      Temps:          0       0       0       0       0       0       0       0       0       0       0       0       0       0       0       0       0
      Totals:         1       0       0       0       0       0       0       0       0       0       0       0       0       0       0       0       0
Total ram usage:        1 bytes
 Hardware stack levels used:    1
 Hardware stack levels required when called:    3
 This function calls:
		Nothing
 This function is called by:
		_F_l
 This function uses a non-reentrant model


 *************** function _F_h *****************
 Defined at:
		line 2492 in file "prog.c"
 Parameters:    Size  Location     Type
		None
 Auto vars:     Size  Location     Type
		None
 Return value:  Size  Location     Type
                  1    wreg      void 
 Registers used:
		wreg, fsr0l, fsr0h, fsr1l, fsr1h, fsr2l, fsr2h, status,2, status,0, tblptrl, tblptrh, tblptru, prodl, prodh, cstack
 Tracked objects:
		On entry : 
		On exit  : 
		Unchanged: 
 Data sizes:     COMRAM   BANK0   BANK1   BANK2   BANK3   BANK4   BANK5   BANK6   BANK7   BANK8   BANK9  BANK10  BANK11  BANK12  BANK13  BANK14  BANK15
      Params:         0       0       0       0       0       0       0       0       0       0       0       0       0       0       0       0       0
      Locals:         0       0       0       0       0       0       0       0       0       0       0       0       0       0       0       0       0
      Temps:         12       0       0       0       0       0       0       0       0       0       0       0       0       0       0       0       0
      Totals:        12       0       0       0       0       0       0       0       0       0       0       0       0       0       0       0       0
Total ram usage:       12 bytes
 Hardware stack levels used:    1
 Hardware stack levels required when called:    2
 This function calls:
		_AddByteToUSARTbuff
		__load_TXREG
 This function is called by:
		Interrupt level 2
 This function uses a non-reentrant model


 *************** function __load_TXREG *****************
 Defined at:
		line 2477 in file "prog.c"
 Parameters:    Size  Location     Type
		None
 Auto vars:     Size  Location     Type
		None
 Return value:  Size  Location     Type
                  1    wreg      void 
 Registers used:
		wreg, fsr0l, fsr0h, status,2, status,0, tblptrl, tblptrh, tblptru
 Tracked objects:
		On entry : 
		On exit  : 
		Unchanged: 
 Data sizes:     COMRAM   BANK0   BANK1   BANK2   BANK3   BANK4   BANK5   BANK6   BANK7   BANK8   BANK9  BANK10  BANK11  BANK12  BANK13  BANK14  BANK15
      Params:         0       0       0       0       0       0       0       0       0       0       0       0       0       0       0       0       0
      Locals:         0       0       0       0       0       0       0       0       0       0       0       0       0       0       0       0       0
      Temps:          0       0       0       0       0       0       0       0       0       0       0       0       0       0       0       0       0
      Totals:         0       0       0       0       0       0       0       0       0       0       0       0       0       0       0       0       0
Total ram usage:        0 bytes
 Hardware stack levels used:    1
 This function calls:
		Nothing
 This function is called by:
		_F_h
 This function uses a non-reentrant model


 *************** function _AddByteToUSARTbuff *****************
 Defined at:
		line 2430 in file "prog.c"
 Parameters:    Size  Location     Type
  byte            1    wreg     unsigned char 
 Auto vars:     Size  Location     Type
  byte            1   11[COMRAM] unsigned char 
  i               2   12[COMRAM] unsigned int 
  i               1   14[COMRAM] unsigned char 
  buff            2    9[COMRAM] PTR unsigned char 
		 -> buff_string_11(256), buff_string_10(256), buff_string_9(256), buff_string_8(256), 
 Return value:  Size  Location     Type
                  1    wreg      void 
 Registers used:
		wreg, fsr1l, fsr1h, fsr2l, fsr2h, status,2, status,0, prodl, prodh, cstack
 Tracked objects:
		On entry : 
		On exit  : 
		Unchanged: 
 Data sizes:     COMRAM   BANK0   BANK1   BANK2   BANK3   BANK4   BANK5   BANK6   BANK7   BANK8   BANK9  BANK10  BANK11  BANK12  BANK13  BANK14  BANK15
      Params:         0       0       0       0       0       0       0       0       0       0       0       0       0       0       0       0       0
      Locals:         6       0       0       0       0       0       0       0       0       0       0       0       0       0       0       0       0
      Temps:          2       0       0       0       0       0       0       0       0       0       0       0       0       0       0       0       0
      Totals:         8       0       0       0       0       0       0       0       0       0       0       0       0       0       0       0       0
Total ram usage:        8 bytes
 Hardware stack levels used:    1
 Hardware stack levels required when called:    1
 This function calls:
		__CleanStringArray_interrupt
 This function is called by:
		_F_h
 This function uses a non-reentrant model


 *************** function __CleanStringArray_interrupt *****************
 Defined at:
		line 1783 in file "prog.c"
 Parameters:    Size  Location     Type
  myArray         2    0[COMRAM] PTR unsigned char 
		 -> buff_string_11(256), buff_string_10(256), buff_string_9(256), buff_string_8(256), 
  size            2    2[COMRAM] unsigned int 
  settingData     1    4[COMRAM] unsigned char 
 Auto vars:     Size  Location     Type
  i               2    5[COMRAM] unsigned int 
 Return value:  Size  Location     Type
                  1    wreg      void 
 Registers used:
		wreg, fsr2l, fsr2h, status,2, status,0
 Tracked objects:
		On entry : 
		On exit  : 
		Unchanged: 
 Data sizes:     COMRAM   BANK0   BANK1   BANK2   BANK3   BANK4   BANK5   BANK6   BANK7   BANK8   BANK9  BANK10  BANK11  BANK12  BANK13  BANK14  BANK15
      Params:         5       0       0       0       0       0       0       0       0       0       0       0       0       0       0       0       0
      Locals:         2       0       0       0       0       0       0       0       0       0       0       0       0       0       0       0       0
      Temps:          0       0       0       0       0       0       0       0       0       0       0       0       0       0       0       0       0
      Totals:         7       0       0       0       0       0       0       0       0       0       0       0       0       0       0       0       0
Total ram usage:        7 bytes
 Hardware stack levels used:    1
 This function calls:
		Nothing
 This function is called by:
		_AddByteToUSARTbuff
 This function uses a non-reentrant model



MODULE INFORMATION

Module		Function		Class		Link	Load	Size
/opt/microchip/xc8/v1.37/sources/common/awmod.c
		___awmod       		CODE           	765A	0000	105

/opt/microchip/xc8/v1.37/sources/common/awmod.c estimated size: 105

/opt/microchip/xc8/v1.37/sources/common/llmod.c
		___llmod       		CODE           	79FC	0000	101

/opt/microchip/xc8/v1.37/sources/common/llmod.c estimated size: 101

/opt/microchip/xc8/v1.37/sources/common/almod.c
		___almod       		CODE           	6CCC	0000	137

/opt/microchip/xc8/v1.37/sources/common/almod.c estimated size: 137

/opt/microchip/xc8/v1.37/sources/common/Umul32.c
		___lmul        		CODE           	7D36	0000	77

/opt/microchip/xc8/v1.37/sources/common/Umul32.c estimated size: 77

/opt/microchip/xc8/v1.37/sources/common/strcat.c
		_strcat        		CODE           	7C98	0000	71

/opt/microchip/xc8/v1.37/sources/common/strcat.c estimated size: 71

/opt/microchip/xc8/v1.37/sources/common/lwdiv.c
		___lwdiv       		CODE           	7DCE	0000	75

/opt/microchip/xc8/v1.37/sources/common/lwdiv.c estimated size: 75

/opt/microchip/xc8/v1.37/sources/common/awdiv.c
		___awdiv       		CODE           	7394	0000	121

/opt/microchip/xc8/v1.37/sources/common/awdiv.c estimated size: 121

/opt/microchip/xc8/v1.37/sources/common/lbmod.c
		___lbmod       		CODE           	83C0	0000	41

/opt/microchip/xc8/v1.37/sources/common/lbmod.c estimated size: 41

/opt/microchip/xc8/v1.37/sources/common/strlen.c
		_strlen        		CODE           	7EE8	0000	65

/opt/microchip/xc8/v1.37/sources/common/strlen.c estimated size: 65

/opt/microchip/xc8/v1.37/sources/common/lldiv.c
		___lldiv       		CODE           	731C	0000	121

/opt/microchip/xc8/v1.37/sources/common/lldiv.c estimated size: 121

/opt/microchip/xc8/v1.37/sources/common/aldiv.c
		___aldiv       		CODE           	66BC	0000	189

/opt/microchip/xc8/v1.37/sources/common/aldiv.c estimated size: 189

/opt/microchip/xc8/v1.37/sources/common/strcpy.c
		_strcpy        		CODE           	7F28	0000	65

/opt/microchip/xc8/v1.37/sources/common/strcpy.c estimated size: 65

shared
		PL12           		CODE           	2856	0000	9
		PL50           		CODE           	37D4	0000	17
		PL8            		CODE           	2148	0000	17
		i1_strcat      		CODE           	7CE8	0000	69
		PL268          		CODE           	5B62	0000	9
		PL458          		CODE           	10A8	0000	9
		PL648          		CODE           	1282	0000	7
		PL496          		CODE           	4602	0000	9
		i1_I2CStop     		CODE           	8818	0000	9
		i1_I2CStart    		CODE           	8820	0000	9
		PL22           		CODE           	5E56	0000	27
		PL60           		CODE           	2EAE	0000	11
		PL178          		CODE           	3396	0000	25
		PL368          		CODE           	4850	0000	13
		PL558          		CODE           	117A	0000	7
		PL596          		CODE           	11EC	0000	7
		PL100          		CODE           	37FC	0000	11
		PL32           		CODE           	2E62	0000	19
		PL70           		CODE           	5D7E	0000	27
		PL278          		CODE           	2ECC	0000	9
		PL468          		CODE           	10C8	0000	9
		PL658          		CODE           	12A0	0000	7
		i1_CleanStringArray		CODE           	84F2	0000	39
		PL200          		CODE           	2EC2	0000	11
		PL42           		CODE           	18C6	0000	15
		PL80           		CODE           	7006	0000	9
		PL188          		CODE           	3C26	0000	13
		PL378          		CODE           	2EFA	0000	13
		PL568          		CODE           	1198	0000	7
		i1_EERD        		CODE           	85AC	0000	37
		PL110          		CODE           	6C1C	0000	15
		PL300          		CODE           	3814	0000	15
		PL14           		CODE           	5D72	0000	13
		PL52           		CODE           	37E4	0000	13
		PL90           		CODE           	5C6C	0000	25
		_StandardAnswer_ERROR		MEDIUMCONST    	FC94	0000	7
		i1_GetDayOfWeekByDate		CODE           	701E	0000	135
		PL288          		CODE           	2910	0000	15
		PL478          		CODE           	485C	0000	11
		PL210          		CODE           	28E4	0000	9
		PL400          		CODE           	33DA	0000	11
		PL24           		CODE           	5E70	0000	19
		PL62           		CODE           	18D4	0000	29
		_StandardAnswer_NO_ANSWER		MEDIUMCONST    	FC82	0000	11
		PL198          		CODE           	45CE	0000	13
		PL388          		CODE           	7E9C	0000	11
		PL578          		CODE           	11B6	0000	7
		PL120          		CODE           	1930	0000	13
		PL310          		CODE           	3C42	0000	15
		PL500          		CODE           	33F8	0000	7
		PL34           		CODE           	2E74	0000	19
		PL72           		CODE           	5C52	0000	27
		PL298          		CODE           	7566	0000	13
		PL488          		CODE           	51A6	0000	9
		i1_FillArrayFromEEPROM		CODE           	8178	0000	55
		PL220          		CODE           	33AE	0000	9
		PL410          		CODE           	220E	0000	9
		PL600          		CODE           	11F8	0000	7
		PL44           		CODE           	7BC8	0000	31
		PL82           		CODE           	4DEE	0000	17
		PL398          		CODE           	3852	0000	11
		PL588          		CODE           	11D4	0000	7
		PL130          		CODE           	195A	0000	19
		PL320          		CODE           	7214	0000	15
		PL510          		CODE           	10F0	0000	7
		PL16           		CODE           	285E	0000	11
		PL54           		CODE           	5E82	0000	51
		PL92           		CODE           	4DFE	0000	17
		PL498          		CODE           	2928	0000	9
		PL230          		CODE           	33B6	0000	9
		PL420          		CODE           	5792	0000	11
		PL610          		CODE           	1216	0000	7
		PL26           		CODE           	18B6	0000	17
		PL64           		CODE           	37F0	0000	13
		PL598          		CODE           	11F2	0000	7
		_StandardAnswer_NORMAL_POWER_DOWN		MEDIUMCONST    	FC59	0000	19
		PL102          		CODE           	7714	0000	23
		PL140          		CODE           	197E	0000	19
		PL330          		CODE           	3C50	0000	11
		PL520          		CODE           	1108	0000	7
		PL36           		CODE           	5490	0000	35
		PL74           		CODE           	18F0	0000	13
		PL202          		CODE           	19B0	0000	15
		PL240          		CODE           	6AE6	0000	19
		PL430          		CODE           	33E4	0000	11
		PL620          		CODE           	1234	0000	7
		PL46           		CODE           	2E86	0000	31
		PL84           		CODE           	2158	0000	15
		i1___lwdiv     		CODE           	7E18	0000	75
		PL112          		CODE           	28A8	0000	15
		PL302          		CODE           	3822	0000	15
		PL150          		CODE           	28B6	0000	15
		PL340          		CODE           	1060	0000	9
		PL530          		CODE           	1126	0000	7
		PL18           		CODE           	2E40	0000	35
		PL56           		CODE           	6CB0	0000	29
		PL94           		CODE           	1908	0000	19
		_StandardAnswer_NO_DIALTONE		MEDIUMCONST    	FC6B	0000	13
		i1_OutputSystemMessage		CODE           	5C94	0000	223
		PL212          		CODE           	21A0	0000	9
		PL402          		CODE           	21FA	0000	11
		PL250          		CODE           	4FF4	0000	13
		PL440          		CODE           	1078	0000	9
		PL630          		CODE           	1252	0000	7
		PL28           		CODE           	2870	0000	19
		PL66           		CODE           	2882	0000	21
		PL122          		CODE           	6C2A	0000	9
		PL312          		CODE           	6DDE	0000	15
		PL160          		CODE           	28C4	0000	15
		PL502          		CODE           	3878	0000	9
		PL350          		CODE           	81D6	0000	13
		PL540          		CODE           	1144	0000	7
		PL38           		CODE           	4DCC	0000	35
		PL76           		CODE           	18FC	0000	13
		PL222          		CODE           	6DCA	0000	21
		PL412          		CODE           	54C4	0000	11
		PL260          		CODE           	4C5A	0000	7
		PL602          		CODE           	11FE	0000	7
		PL450          		CODE           	1098	0000	9
		PL640          		CODE           	126A	0000	7
		PL48           		CODE           	6FFE	0000	9
		PL86           		CODE           	7910	0000	25
		i1_strcpy      		CODE           	7FE4	0000	63
		PL132          		CODE           	700E	0000	17
		PL322          		CODE           	6B88	0000	15
		PL170          		CODE           	19A2	0000	15
		PL512          		CODE           	82A4	0000	9
		PL360          		CODE           	6998	0000	13
		PL550          		CODE           	1162	0000	7
		PL58           		CODE           	2EA4	0000	11
		PL96           		CODE           	2896	0000	19
		i1___awdiv     		CODE           	7484	0000	121
		PL232          		CODE           	6A40	0000	19
		PL422          		CODE           	2216	0000	11
		PL270          		CODE           	1A12	0000	11
		PL612          		CODE           	121C	0000	7
		PL460          		CODE           	10B0	0000	9
		PL650          		CODE           	1288	0000	7
		PL68           		CODE           	5B4E	0000	21
		i1_ConvertDayToBit		CODE           	833E	0000	49
		i1_FillPhonebookCellFromEEPROM		CODE           	7862	0000	83
		PL104          		CODE           	78B4	0000	23
		PL142          		CODE           	54B2	0000	19
		PL332          		CODE           	5788	0000	11
		PL180          		CODE           	71F0	0000	25
		PL522          		CODE           	110E	0000	7
		PL370          		CODE           	4A4E	0000	13
		PL560          		CODE           	1180	0000	7
		PL78           		CODE           	4C20	0000	17
		i1_SendCommandToUSART		CODE           	8610	0000	33
		i1___wmul      		CODE           	84CC	0000	39
		__setInputTextProps@F3555		MEDIUMCONST    	FC0D	0000	11
		__setInputTextProps@F3557		MEDIUMCONST    	FBF7	0000	23
		PL204          		CODE           	19BE	0000	15
		PL242          		CODE           	6D54	0000	19
		PL432          		CODE           	1068	0000	9
		PL280          		CODE           	58BC	0000	15
		PL622          		CODE           	123A	0000	7
		PL470          		CODE           	10D0	0000	9
		PL660          		CODE           	3880	0000	9
		PL88           		CODE           	5D98	0000	25
		i1_lcd_send_byte		CODE           	8588	0000	37
		i1_testTimePoint		CODE           	7572	0000	119
		PL114          		CODE           	2166	0000	35
		PL304          		CODE           	21CE	0000	15
		PL152          		CODE           	1990	0000	11
		PL342          		CODE           	1A50	0000	9
		PL190          		CODE           	4C4A	0000	9
		PL532          		CODE           	112C	0000	7
		PL380          		CODE           	1A60	0000	13
		PL570          		CODE           	119E	0000	7
		PL98           		CODE           	338C	0000	11
		i1_I2CInit     		CODE           	8836	0000	5
		i1___lwmod     		CODE           	7FA6	0000	63
		PL214          		CODE           	19CC	0000	9
		PL404          		CODE           	3C8A	0000	9
		PL252          		CODE           	19FA	0000	13
		PL442          		CODE           	1080	0000	9
		PL290          		CODE           	5A22	0000	15
		PL632          		CODE           	1258	0000	7
		PL480          		CODE           	7C38	0000	11
		i1_lcd_send_initial_half_byte		CODE           	84A6	0000	39
		PL124          		CODE           	5742	0000	31
		PL314          		CODE           	60E6	0000	15
		PL162          		CODE           	577C	0000	13
		PL504          		CODE           	58E4	0000	9
		PL352          		CODE           	4A36	0000	13
		PL542          		CODE           	114A	0000	7
		PL390          		CODE           	2F06	0000	11
		PL580          		CODE           	11BC	0000	7
		__initialization		CODE           	54D8	0000	357
		PL224          		CODE           	28EC	0000	21
		PL414          		CODE           	6530	0000	9
		PL262          		CODE           	2900	0000	17
		PL604          		CODE           	1204	0000	7
		PL452          		CODE           	291E	0000	11
		PL642          		CODE           	1270	0000	7
		PL490          		CODE           	10D8	0000	7
		_StandardAnswer_BUSY		MEDIUMCONST    	FC9A	0000	6
		i1___lmul      		CODE           	7D82	0000	77
		PL134          		CODE           	5DB0	0000	9
		PL324          		CODE           	1A42	0000	15
		PL172          		CODE           	2EB8	0000	11
		PL514          		CODE           	10F6	0000	7
		PL362          		CODE           	1A58	0000	9
		PL552          		CODE           	1168	0000	7
		PL590          		CODE           	11DA	0000	7
		PL234          		CODE           	8764	0000	17
		PL424          		CODE           	3864	0000	11
		PL272          		CODE           	1A1C	0000	13
		PL614          		CODE           	1222	0000	7
		PL462          		CODE           	8240	0000	9
		PL652          		CODE           	128E	0000	7
		i1___awmod     		CODE           	77FA	0000	105
		_StandardAnswer_DTMF		MEDIUMCONST    	FC8C	0000	9
		PL106          		CODE           	191A	0000	23
		PL144          		CODE           	5C84	0000	9
		PL334          		CODE           	2EF0	0000	11
		PL182          		CODE           	4C40	0000	11
		PL524          		CODE           	1114	0000	7
		PL372          		CODE           	3C66	0000	13
		PL562          		CODE           	1186	0000	7
		i1_FillMinutes 		CODE           	8810	0000	9
		i1___aldiv     		CODE           	6834	0000	189
		PL206          		CODE           	5FD2	0000	9
		PL244          		CODE           	7208	0000	13
		PL434          		CODE           	1070	0000	9
		PL282          		CODE           	58CA	0000	15
		PL624          		CODE           	1240	0000	7
		PL472          		CODE           	1A6C	0000	9
		PL116          		CODE           	5EB4	0000	9
		PL306          		CODE           	3830	0000	15
		PL154          		CODE           	199A	0000	9
		PL344          		CODE           	383E	0000	9
		PL192          		CODE           	45C4	0000	11
		PL534          		CODE           	1132	0000	7
		PL382          		CODE           	3C7E	0000	13
		PL572          		CODE           	11A4	0000	7
		PL216          		CODE           	19D4	0000	9
		PL406          		CODE           	385C	0000	9
		PL254          		CODE           	4A22	0000	11
		PL444          		CODE           	2220	0000	11
		PL292          		CODE           	3806	0000	15
		PL634          		CODE           	125E	0000	7
		PL482          		CODE           	6DEC	0000	11
		PL126          		CODE           	7928	0000	9
		PL316          		CODE           	2EE2	0000	15
		PL164          		CODE           	6692	0000	27
		PL506          		CODE           	82D8	0000	7
		PL354          		CODE           	58D8	0000	13
		PL544          		CODE           	1150	0000	7
		PL392          		CODE           	5C8C	0000	9
		PL582          		CODE           	11C2	0000	7
		PL226          		CODE           	4E1C	0000	9
		PL416          		CODE           	6F04	0000	11
		PL264          		CODE           	66AC	0000	17
		PL606          		CODE           	120A	0000	7
		PL454          		CODE           	54CE	0000	11
		PL644          		CODE           	1276	0000	7
		PL492          		CODE           	10DE	0000	7
		i1_getSystemTimePoint		CODE           	8786	0000	19
		PL136          		CODE           	196C	0000	19
		PL326          		CODE           	4A2C	0000	11
		PL174          		CODE           	2188	0000	25
		PL516          		CODE           	10FC	0000	7
		PL364          		CODE           	4A42	0000	13
		PL554          		CODE           	116E	0000	7
		PL592          		CODE           	11E0	0000	7
		i1_I2CSend     		CODE           	871E	0000	27
		PL236          		CODE           	19DC	0000	19
		PL426          		CODE           	8090	0000	11
		PL274          		CODE           	3C32	0000	17
		PL616          		CODE           	1228	0000	7
		PL464          		CODE           	10B8	0000	9
		PL654          		CODE           	1294	0000	7
		PL108          		CODE           	777C	0000	23
		PL146          		CODE           	3C02	0000	15
		PL336          		CODE           	21E6	0000	11
		PL184          		CODE           	3C10	0000	23
		PL526          		CODE           	111A	0000	7
		PL374          		CODE           	3C72	0000	13
		PL564          		CODE           	118C	0000	7
		PL208          		CODE           	518C	0000	15
		PL246          		CODE           	21A8	0000	9
		PL436          		CODE           	386E	0000	11
		PL284          		CODE           	5A14	0000	15
		PL626          		CODE           	1246	0000	7
		PL474          		CODE           	7CDE	0000	11
		i1_EEWR        		CODE           	80D4	0000	31
		PL118          		CODE           	5EBC	0000	19
		PL308          		CODE           	2ED4	0000	15
		PL156          		CODE           	45B6	0000	15
		PL346          		CODE           	33D0	0000	11
		PL194          		CODE           	4C52	0000	9
		PL536          		CODE           	1138	0000	7
		PL384          		CODE           	519A	0000	13
		PL574          		CODE           	11AA	0000	7
		PL218          		CODE           	5FDA	0000	21
		PL408          		CODE           	2204	0000	11
		PL256          		CODE           	21B0	0000	17
		PL446          		CODE           	1088	0000	9
		PL294          		CODE           	755A	0000	13
		PL636          		CODE           	1264	0000	7
		PL484          		CODE           	7D2C	0000	11
		PL128          		CODE           	193C	0000	31
		PL318          		CODE           	1A3A	0000	9
		PL166          		CODE           	80F2	0000	27
		PL508          		CODE           	10EA	0000	7
		PL356          		CODE           	3C5A	0000	13
		PL546          		CODE           	1156	0000	7
		PL394          		CODE           	5ECE	0000	11
		PL584          		CODE           	11C8	0000	7
		_StandardAnswer_CLOCK		MEDIUMCONST    	FC3B	0000	31
		PL228          		CODE           	45DA	0000	11
		PL418          		CODE           	4A66	0000	11
		PL266          		CODE           	1A06	0000	13
		PL608          		CODE           	1210	0000	7
		PL456          		CODE           	10A0	0000	9
		PL646          		CODE           	127C	0000	7
		PL494          		CODE           	10E4	0000	7
		_StandardAnswer_OK		MEDIUMCONST    	FC9F	0000	4
		PL138          		CODE           	483E	0000	19
		PL328          		CODE           	21DC	0000	11
		PL176          		CODE           	8674	0000	23
		PL518          		CODE           	1102	0000	7
		PL366          		CODE           	7198	0000	13
		PL556          		CODE           	1174	0000	7
		PL594          		CODE           	11E6	0000	7
		PL2            		CODE           	7BB2	0000	23
		PL238          		CODE           	33BE	0000	19
		PL428          		CODE           	2F10	0000	11
		PL276          		CODE           	1A28	0000	11
		PL618          		CODE           	122E	0000	7
		PL466          		CODE           	10C0	0000	9
		PL656          		CODE           	129A	0000	7
		PL148          		CODE           	4E0E	0000	15
		PL338          		CODE           	5342	0000	11
		PL186          		CODE           	5FBC	0000	23
		PL528          		CODE           	1120	0000	7
		PL376          		CODE           	4A5A	0000	13
		PL566          		CODE           	1192	0000	7
		PL10           		CODE           	18A6	0000	17
		PL4            		CODE           	2846	0000	17
		PL248          		CODE           	19EE	0000	13
		PL438          		CODE           	45F0	0000	11
		PL286          		CODE           	1A32	0000	9
		PL628          		CODE           	124C	0000	7
		PL476          		CODE           	33EE	0000	11
		PL20           		CODE           	2868	0000	9
		_StandardAnswer_NO_CARRIER		MEDIUMCONST    	FC77	0000	12
		PL158          		CODE           	5760	0000	29
		PL348          		CODE           	45E4	0000	13
		PL196          		CODE           	28D2	0000	19
		PL538          		CODE           	113E	0000	7
		PL386          		CODE           	4E24	0000	11
		PL576          		CODE           	11B0	0000	7
		PL30           		CODE           	337E	0000	15
		PL6            		CODE           	1892	0000	21
		PL258          		CODE           	7B18	0000	17
		PL448          		CODE           	1090	0000	9
		PL296          		CODE           	21C0	0000	15
		PL638          		CODE           	4E2E	0000	9
		PL486          		CODE           	45FA	0000	9
		PL40           		CODE           	6C04	0000	25
		_StandardAnswer_INCCALL		MEDIUMCONST    	FC17	0000	37
		PL168          		CODE           	4C30	0000	17
		PL358          		CODE           	3846	0000	13
		PL548          		CODE           	115C	0000	7
		PL396          		CODE           	21F0	0000	11
		PL586          		CODE           	11CE	0000	7

shared estimated size: 6537

/opt/microchip/xc8/v1.37/sources/common/lbdiv.c
		___lbdiv       		CODE           	810C	0000	55

/opt/microchip/xc8/v1.37/sources/common/lbdiv.c estimated size: 55

prog.c
		_GetNumericFromString		CODE           	8798	0000	19
		_I2CNak        		CODE           	87E2	0000	11
		_ConvertDayToBit		CODE           	8248	0000	51
		_TelephoneCall 		CODE           	6D66	0000	101
		_ReadDataOfCell		CODE           	6E82	0000	131
		_setDigit      		CODE           	6B96	0000	111
		__CleanStringArray_interrupt		CODE           	853E	0000	39
		_SchedulerNew  		CODE           	69A4	0000	157
		_FindIncommingData		CODE           	579C	0000	289
		_FillMinutes   		CODE           	866C	0000	9
		_EEWR          		CODE           	85F0	0000	33
		_FillPhonebookCellFromEEPROM		CODE           	772A	0000	83
		_TimeData_BlinkOFF		CODE           	81AE	0000	41
		_GetStringLength		CODE           	8434	0000	39
		_TimeEdit      		CODE           	12A6	0000	1517
		_testTimePoint 		CODE           	740C	0000	121
		_delay         		CODE           	868A	0000	31
		_SignalsOnOff  		CODE           	4E36	0000	447
		_I2CStop       		CODE           	8800	0000	9
		_FindPhoneContactByNumber		CODE           	6778	0000	189
		_ConvertCharToNumeric		CODE           	7EA6	0000	67
		_NumericToHEXString		CODE           	6AF8	0000	145
		__setInputTextProps		CODE           	4866	0000	445
		_lcd_send_byte 		CODE           	8398	0000	41
		_lcd_off       		CODE           	87BA	0000	15
		_ReIndTimeEdit 		CODE           	4C60	0000	365
		_NumericToString		CODE           	5ED8	0000	229
		__load_TXREG   		CODE           	7AC4	0000	85
		_I2CAck        		CODE           	87EC	0000	11
		_OutputString  		CODE           	6C32	0000	127
		_CleanStringArray		CODE           	845A	0000	39
		_Format_EEPROM_Memory		CODE           	6DF6	0000	141
		_ReadDataOfCell_interr		CODE           	70A4	0000	131
		_main          		CODE           	4A70	0000	433
		_ItemsToIndicator		CODE           	7E62	0000	59
		__getContainer_Clock_from_GSM		CODE           	86E4	0000	31
		_ParseTime     		CODE           	7792	0000	105
		_SendSMS       		CODE           	4344	0000	627
		_F_h           		CODE           	0008	0000	129
		_UserDelay     		CODE           	8022	0000	61
		_USART_Speed_Choise		CODE           	83E8	0000	39
		__FindIncommingData_interrupt		CODE           	58EC	0000	297
		_GetTimeSource 		CODE           	8564	0000	37
		_I2CRead       		CODE           	8702	0000	29
		_EditSchedule  		CODE           	222A	0000	1565
		_Init_USART    		CODE           	7B28	0000	97
		_system_BlinkReset		CODE           	864E	0000	31
		_getSystemTimePoint		CODE           	8774	0000	19
		_InputText     		CODE           	1A74	0000	1749
		_GetSystemInfo 		CODE           	33FE	0000	983
		_ReadTime      		CODE           	7222	0000	127
		_ShowSchedulerMenu		CODE           	639C	0000	211
		_WriteTime     		CODE           	534C	0000	325
		_TimeToInd     		CODE           	2930	0000	1297
		_FillArrayFromEEPROM_interr		CODE           	81E2	0000	53
		__getContainer_Incomming_DTMF_Data		CODE           	86A8	0000	31
		_WorkingWithGSM		CODE           	5FEE	0000	249
		_WriteArrayToEEPROM		CODE           	809A	0000	59
		_cp1251_to_unicode		CODE           	7126	0000	115
		__getContainer_Incomming_Call_Data		CODE           	86C6	0000	31
		_AddByteToUSARTbuff		CODE           	60F4	0000	237
		_F_l           		CODE           	0018	0000	877
		_getLcdCodeOfChar		CODE           	3C92	0000	991
		_setBlink      		CODE           	7B88	0000	43
		_SetTimeSource 		CODE           	82AC	0000	45
		_FindNextTimeStart		CODE           	51AE	0000	405
		_lcd_send_initial_half_byte		CODE           	8216	0000	43
		_GetDayOfWeek  		CODE           	72A0	0000	125
		_Init_GSM      		CODE           	5A30	0000	287
		_FillArrayFromEEPROM		CODE           	8142	0000	55
		_TimeData_INIT 		CODE           	5DB8	0000	159
		_ProcessIncommingUartData		CODE           	2F1A	0000	1125
		_GetUnicodeSymbol		CODE           	0388	0000	3289
		_I2CRestart    		CODE           	8828	0000	9
		_Save_USART_SpeedNumber		CODE           	874E	0000	21
		_RefreshSchedulerIndicator		CODE           	5000	0000	397
		_EERD          		CODE           	8480	0000	39
		_SendCommandToUSART		CODE           	85D0	0000	33
		_EncodePhoneNumberToPDU		CODE           	65FA	0000	153
		__GetStringLength_interr		CODE           	8518	0000	39
		_WritePhonebookCellToEEPROM		CODE           	76C2	0000	83
		_I2CStart      		CODE           	8808	0000	9
		_Read_USART_SpeedNumber		CODE           	87C8	0000	15
		_ProcessSystemMessageShowing		CODE           	87D6	0000	13
		_SendSymbolToLCD		CODE           	74FC	0000	95
		_lcd_on        		CODE           	87AA	0000	17
		_InteractiveData_BlinkOFF		CODE           	830E	0000	49
		_getNumChar    		CODE           	7930	0000	103
		_Select_OK_NO  		CODE           	805E	0000	51
		_BCD_to_DEC    		CODE           	8738	0000	23
		_entNum        		CODE           	82DE	0000	49
		_DEC_to_BCD    		CODE           	836E	0000	43
		_Settings      		CODE           	61E0	0000	227
		_ParseDataRecord		CODE           	71A4	0000	77
		_CalculateClockDelta		CODE           	68F0	0000	169
		_ShowMenu      		CODE           	564A	0000	249
		_OutputInteractiveData		CODE           	6F96	0000	105
		_DeleteDataOfCell		CODE           	827A	0000	43
		_GetDayOfWeekByDate		CODE           	6F0E	0000	137
		_main2         		CODE           	460A	0000	565
		_I2CInit       		CODE           	8762	0000	3
		_clrInd        		CODE           	78CA	0000	71
		_I2CSend       		CODE           	8630	0000	31
		_ConvKeyNum    		CODE           	7A60	0000	101
		_lcd_init      		CODE           	646E	0000	195
		_OutputSystemMessage		CODE           	5B6A	0000	233
		_FindCell      		CODE           	62C2	0000	219
		_PhonebookEdit 		CODE           	3888	0000	891
		_CheckoutRegisterOfSymbol		CODE           	4070	0000	725
		_WriteDataOfCell		CODE           	7BE6	0000	83
		_Scheduler     		CODE           	6A52	0000	149

prog.c estimated size: 27253

/opt/microchip/xc8/v1.37/sources/common/Umul16.c
		___wmul        		CODE           	840E	0000	39

/opt/microchip/xc8/v1.37/sources/common/Umul16.c estimated size: 39

/opt/microchip/xc8/v1.37/sources/common/lwmod.c
		___lwmod       		CODE           	7F68	0000	63

/opt/microchip/xc8/v1.37/sources/common/lwmod.c estimated size: 63

